T _ZN7android10AudioMixer10track__nopEPNS0_7track_tEPijS3_
T _ZN7android10AudioMixer12getTrackNameEv
T _ZN7android10AudioMixer12process__nopEPNS0_7state_tEPv
T _ZN7android10AudioMixer12setParameterEiii
T _ZN7android10AudioMixer14setActiveTrackEi
T _ZN7android10AudioMixer15deleteTrackNameEi
T _ZN7android10AudioMixer15invalidateStateEj
T _ZN7android10AudioMixer16volumeRampStereoEPNS0_7track_tEPijS3_
T _ZN7android10AudioMixer17process__validateEPNS0_7state_tEPv
T _ZN7android10AudioMixer17setBufferProviderEPNS_19AudioBufferProviderE
T _ZN7android10AudioMixer17track__16BitsMonoEPNS0_7track_tEPijS3_
T _ZN7android10AudioMixer19track__16BitsStereoEPNS0_7track_tEPijS3_
T _ZN7android10AudioMixer22track__genericResampleEPNS0_7track_tEPijS3_
T _ZN7android10AudioMixer26process__genericResamplingEPNS0_7state_tEPv
T _ZN7android10AudioMixer28process__genericNoResamplingEPNS0_7state_tEPv
T _ZN7android10AudioMixer41process__OneTrack16BitsStereoNoResamplingEPNS0_7state_tEPv
T _ZN7android10AudioMixer42process__TwoTracks16BitsStereoNoResamplingEPNS0_7state_tEPv
T _ZN7android10AudioMixer6enableEi
T _ZN7android10AudioMixer7disableEi
T _ZN7android10AudioMixer7processEPv
T _ZN7android10AudioMixer7track_t12setResamplerEjj
T _ZN7android10AudioMixerC1Ejj
T _ZN7android10AudioMixerC2Ejj
T _ZN7android10AudioMixerD1Ev
T _ZN7android10AudioMixerD2Ev
U _ZN7android10IInterface8asBinderEv
U _ZN7android10VectorImpl13finish_vectorEv
U _ZN7android10VectorImpl13removeItemsAtEjj
U _ZN7android10VectorImpl19reservedVectorImpl1Ev
U _ZN7android10VectorImpl19reservedVectorImpl2Ev
U _ZN7android10VectorImpl19reservedVectorImpl3Ev
U _ZN7android10VectorImpl19reservedVectorImpl4Ev
U _ZN7android10VectorImpl19reservedVectorImpl5Ev
U _ZN7android10VectorImpl19reservedVectorImpl6Ev
U _ZN7android10VectorImpl19reservedVectorImpl7Ev
U _ZN7android10VectorImpl19reservedVectorImpl8Ev
U _ZN7android10VectorImpl3addEPKv
U _ZN7android10VectorImpl5clearEv
U _ZN7android10VectorImplC1Ejj
U _ZN7android10VectorImplD1Ev
U _ZN7android11AudioSystem11logToLinearEf
U _ZN7android11AudioSystem18routedToA2dpOutputEi
W _ZN7android11BnInterfaceINS_11IAudioTrackEE10onAsBinderEv
W _ZN7android11BnInterfaceINS_12IAudioRecordEE10onAsBinderEv
W _ZN7android11BnInterfaceINS_13IAudioFlingerEE10onAsBinderEv
U _ZN7android11IAudioTrack10descriptorE
T _ZN7android12AudioFlinger10binderDiedERKNS_2wpINS_7IBinderEEE
T _ZN7android12AudioFlinger10onTransactEjRKNS_6ParcelEPS1_j
T _ZN7android12AudioFlinger10openRecordEiijiiijPi
T _ZN7android12AudioFlinger10setMicMuteEb
T _ZN7android12AudioFlinger10setRoutingEijj
T _ZN7android12AudioFlinger10stopRecordEPNS0_11MixerThread11RecordTrackE
T _ZN7android12AudioFlinger11MixerThread10addTrack_lERKNS_2spINS1_5TrackEEE
T _ZN7android12AudioFlinger11MixerThread10dumpTracksEiRKNS_6VectorINS_8String16EEE
T _ZN7android12AudioFlinger11MixerThread10onFirstRefEv
T _ZN7android12AudioFlinger11MixerThread10readyToRunEv
T _ZN7android12AudioFlinger11MixerThread10threadLoopEv
T _ZN7android12AudioFlinger11MixerThread11OutputTrack12obtainBufferEPNS_19AudioBufferProvider6BufferE
T _ZN7android12AudioFlinger11MixerThread11OutputTrack16clearBufferQueueEv
T _ZN7android12AudioFlinger11MixerThread11OutputTrack4stopEv
T _ZN7android12AudioFlinger11MixerThread11OutputTrack5startEv
T _ZN7android12AudioFlinger11MixerThread11OutputTrack5writeEPsj
T _ZN7android12AudioFlinger11MixerThread11OutputTrackC1ERKNS_2spIS1_EEjiii
T _ZN7android12AudioFlinger11MixerThread11OutputTrackC2ERKNS_2spIS1_EEjiii
T _ZN7android12AudioFlinger11MixerThread11OutputTrackD0Ev
T _ZN7android12AudioFlinger11MixerThread11OutputTrackD1Ev
T _ZN7android12AudioFlinger11MixerThread11OutputTrackD2Ev
T _ZN7android12AudioFlinger11MixerThread11RecordTrack13getNextBufferEPNS_19AudioBufferProvider6BufferE
T _ZN7android12AudioFlinger11MixerThread11RecordTrack4stopEv
T _ZN7android12AudioFlinger11MixerThread11RecordTrack5startEv
T _ZN7android12AudioFlinger11MixerThread11RecordTrackC1ERKNS_2spIS1_EERKNS3_INS0_6ClientEEEijiiij
T _ZN7android12AudioFlinger11MixerThread11RecordTrackC2ERKNS_2spIS1_EERKNS3_INS0_6ClientEEEijiiij
T _ZN7android12AudioFlinger11MixerThread11RecordTrackD0Ev
T _ZN7android12AudioFlinger11MixerThread11RecordTrackD1Ev
T _ZN7android12AudioFlinger11MixerThread11RecordTrackD2Ev
T _ZN7android12AudioFlinger11MixerThread11getTracks_lERNS_12SortedVectorINS_2spINS1_5TrackEEEEERNS2_INS_2wpIS4_EEEE
T _ZN7android12AudioFlinger11MixerThread11putTracks_lERNS_12SortedVectorINS_2spINS1_5TrackEEEEERNS2_INS_2wpIS4_EEEE
T _ZN7android12AudioFlinger11MixerThread13createTrack_lERKNS_2spINS0_6ClientEEEijiiiRKNS2_INS_7IMemoryEEEPi
T _ZN7android12AudioFlinger11MixerThread13dumpInternalsEiRKNS_6VectorINS_8String16EEE
T _ZN7android12AudioFlinger11MixerThread13setMasterMuteEb
T _ZN7android12AudioFlinger11MixerThread13setStreamMuteEib
T _ZN7android12AudioFlinger11MixerThread14destroyTrack_lERKNS_2spINS1_5TrackEEE
T _ZN7android12AudioFlinger11MixerThread14getTrackName_lEv
T _ZN7android12AudioFlinger11MixerThread15setMasterVolumeEf
T _ZN7android12AudioFlinger11MixerThread15setStreamVolumeEif
T _ZN7android12AudioFlinger11MixerThread16addActiveTrack_lERKNS_2wpINS1_5TrackEEE
T _ZN7android12AudioFlinger11MixerThread17deleteTrackName_lEi
T _ZN7android12AudioFlinger11MixerThread19getOutputFrameCountEv
T _ZN7android12AudioFlinger11MixerThread19removeActiveTrack_lERKNS_2wpINS1_5TrackEEE
T _ZN7android12AudioFlinger11MixerThread4dumpEiRKNS_6VectorINS_8String16EEE
T _ZN7android12AudioFlinger11MixerThread5Track13getNextBufferEPNS_19AudioBufferProvider6BufferE
T _ZN7android12AudioFlinger11MixerThread5Track4dumpEPcj
T _ZN7android12AudioFlinger11MixerThread5Track4muteEb
T _ZN7android12AudioFlinger11MixerThread5Track4stopEv
T _ZN7android12AudioFlinger11MixerThread5Track5flushEv
T _ZN7android12AudioFlinger11MixerThread5Track5pauseEv
T _ZN7android12AudioFlinger11MixerThread5Track5resetEv
T _ZN7android12AudioFlinger11MixerThread5Track5startEv
T _ZN7android12AudioFlinger11MixerThread5Track7destroyEv
T _ZN7android12AudioFlinger11MixerThread5Track9setVolumeEff
T _ZN7android12AudioFlinger11MixerThread5TrackC1ERKNS_2spIS1_EERKNS3_INS0_6ClientEEEijiiiRKNS3_INS_7IMemoryEEE
T _ZN7android12AudioFlinger11MixerThread5TrackC2ERKNS_2spIS1_EERKNS3_INS0_6ClientEEEijiiiRKNS3_INS_7IMemoryEEE
T _ZN7android12AudioFlinger11MixerThread5TrackD0Ev
T _ZN7android12AudioFlinger11MixerThread5TrackD1Ev
T _ZN7android12AudioFlinger11MixerThread5TrackD2Ev
T _ZN7android12AudioFlinger11MixerThread9TrackBase13releaseBufferEPNS_19AudioBufferProvider6BufferE
T _ZN7android12AudioFlinger11MixerThread9TrackBase4stepEv
T _ZN7android12AudioFlinger11MixerThread9TrackBase5resetEv
T _ZN7android12AudioFlinger11MixerThread9TrackBaseC1ERKNS_2spIS1_EERKNS3_INS0_6ClientEEEjiiijRKNS3_INS_7IMemoryEEE
T _ZN7android12AudioFlinger11MixerThread9TrackBaseC2ERKNS_2spIS1_EERKNS3_INS0_6ClientEEEjiiijRKNS3_INS_7IMemoryEEE
T _ZN7android12AudioFlinger11MixerThread9TrackBaseD0Ev
T _ZN7android12AudioFlinger11MixerThread9TrackBaseD1Ev
T _ZN7android12AudioFlinger11MixerThread9TrackBaseD2Ev
T _ZN7android12AudioFlinger11MixerThreadC1ERKNS_2spIS0_EEPNS_14AudioStreamOutEi
T _ZN7android12AudioFlinger11MixerThreadC2ERKNS_2spIS0_EEPNS_14AudioStreamOutEi
T _ZN7android12AudioFlinger11MixerThreadD0Ev
T _ZN7android12AudioFlinger11MixerThreadD1Ev
T _ZN7android12AudioFlinger11MixerThreadD2Ev
T _ZN7android12AudioFlinger11TrackHandle10onTransactEjRKNS_6ParcelEPS2_j
T _ZN7android12AudioFlinger11TrackHandle4muteEb
T _ZN7android12AudioFlinger11TrackHandle4stopEv
T _ZN7android12AudioFlinger11TrackHandle5flushEv
T _ZN7android12AudioFlinger11TrackHandle5pauseEv
T _ZN7android12AudioFlinger11TrackHandle5startEv
T _ZN7android12AudioFlinger11TrackHandle9setVolumeEff
T _ZN7android12AudioFlinger11TrackHandleC1ERKNS_2spINS0_11MixerThread5TrackEEE
T _ZN7android12AudioFlinger11TrackHandleC2ERKNS_2spINS0_11MixerThread5TrackEEE
T _ZN7android12AudioFlinger11TrackHandleD0Ev
T _ZN7android12AudioFlinger11TrackHandleD1Ev
T _ZN7android12AudioFlinger11TrackHandleD2Ev
T _ZN7android12AudioFlinger11createTrackEiijiiijRKNS_2spINS_7IMemoryEEEPi
T _ZN7android12AudioFlinger11dumpClientsEiRKNS_6VectorINS_8String16EEE
T _ZN7android12AudioFlinger11instantiateEv
T _ZN7android12AudioFlinger11startRecordEPNS0_11MixerThread11RecordTrackE
T _ZN7android12AudioFlinger12RecordHandle10onTransactEjRKNS_6ParcelEPS2_j
T _ZN7android12AudioFlinger12RecordHandle4stopEv
T _ZN7android12AudioFlinger12RecordHandle5startEv
T _ZN7android12AudioFlinger12RecordHandleC1ERKNS_2spINS0_11MixerThread11RecordTrackEEE
T _ZN7android12AudioFlinger12RecordHandleC2ERKNS_2spINS0_11MixerThread11RecordTrackEEE
T _ZN7android12AudioFlinger12RecordHandleD0Ev
T _ZN7android12AudioFlinger12RecordHandleD1Ev
T _ZN7android12AudioFlinger12RecordHandleD2Ev
T _ZN7android12AudioFlinger12removeClientEi
T _ZN7android12AudioFlinger12setParameterEPKcS2_
T _ZN7android12AudioFlinger13dumpInternalsEiRKNS_6VectorINS_8String16EEE
T _ZN7android12AudioFlinger13setMasterMuteEb
T _ZN7android12AudioFlinger13setStreamMuteEib
T _ZN7android12AudioFlinger14registerClientERKNS_2spINS_19IAudioFlingerClientEEE
T _ZN7android12AudioFlinger15setMasterVolumeEf
T _ZN7android12AudioFlinger15setStreamVolumeEif
T _ZN7android12AudioFlinger17AudioRecordThread10threadLoopEv
T _ZN7android12AudioFlinger17AudioRecordThread4dumpEiRKNS_6VectorINS_8String16EEE
T _ZN7android12AudioFlinger17AudioRecordThread4exitEv
T _ZN7android12AudioFlinger17AudioRecordThread4stopEPNS0_11MixerThread11RecordTrackE
T _ZN7android12AudioFlinger17AudioRecordThread5startEPNS0_11MixerThread11RecordTrackE
T _ZN7android12AudioFlinger17AudioRecordThreadC1EPNS_22AudioHardwareInterfaceERKNS_2spIS0_EE
T _ZN7android12AudioFlinger17AudioRecordThreadC2EPNS_22AudioHardwareInterfaceERKNS_2spIS0_EE
T _ZN7android12AudioFlinger17AudioRecordThreadD0Ev
T _ZN7android12AudioFlinger17AudioRecordThreadD1Ev
T _ZN7android12AudioFlinger17AudioRecordThreadD2Ev
T _ZN7android12AudioFlinger18getInputBufferSizeEjii
T _ZN7android12AudioFlinger20dumpPermissionDenialEiRKNS_6VectorINS_8String16EEE
T _ZN7android12AudioFlinger21streamForcedToSpeakerEi
T _ZN7android12AudioFlinger24handleForcedSpeakerRouteEi
T _ZN7android12AudioFlinger4dumpEiRKNS_6VectorINS_8String16EEE
T _ZN7android12AudioFlinger6ClientC1ERKNS_2spIS0_EEi
T _ZN7android12AudioFlinger6ClientC2ERKNS_2spIS0_EEi
T _ZN7android12AudioFlinger6ClientD0Ev
T _ZN7android12AudioFlinger6ClientD1Ev
T _ZN7android12AudioFlinger6ClientD2Ev
T _ZN7android12AudioFlinger7setModeEi
T _ZN7android12AudioFlingerC1Ev
T _ZN7android12AudioFlingerC2Ev
T _ZN7android12AudioFlingerD0Ev
T _ZN7android12AudioFlingerD1Ev
T _ZN7android12AudioFlingerD2Ev
U _ZN7android12BnAudioTrack10onTransactEjRKNS_6ParcelEPS1_j
U _ZN7android12IAudioRecord10descriptorE
U _ZN7android12MemoryDealerC1EjjPKc
T _ZN7android13AudioStreamInD0Ev
T _ZN7android13AudioStreamInD1Ev
T _ZN7android13AudioStreamInD2Ev
U _ZN7android13BnAudioRecord10onTransactEjRKNS_6ParcelEPS1_j
U _ZN7android13IAudioFlinger10descriptorE
T _ZN7android14AudioResampler13setSampleRateEi
T _ZN7android14AudioResampler6createEiiii
T _ZN7android14AudioResampler9setVolumeEss
T _ZN7android14AudioResamplerC1Eiii
T _ZN7android14AudioResamplerC2Eiii
T _ZN7android14AudioResamplerD0Ev
T _ZN7android14AudioResamplerD1Ev
T _ZN7android14AudioResamplerD2Ev
T _ZN7android14AudioStreamOutD0Ev
T _ZN7android14AudioStreamOutD1Ev
T _ZN7android14AudioStreamOutD2Ev
U _ZN7android14BnAudioFlinger10onTransactEjRKNS_6ParcelEPS1_j
U _ZN7android14IPCThreadState13flushCommandsEv
U _ZN7android14IPCThreadState13getCallingPidEv
U _ZN7android14IPCThreadState13getCallingUidEv
U _ZN7android14IPCThreadState4selfEv
U _ZN7android16SortedVectorImpl25reservedSortedVectorImpl1Ev
U _ZN7android16SortedVectorImpl25reservedSortedVectorImpl2Ev
U _ZN7android16SortedVectorImpl25reservedSortedVectorImpl3Ev
U _ZN7android16SortedVectorImpl25reservedSortedVectorImpl4Ev
U _ZN7android16SortedVectorImpl25reservedSortedVectorImpl5Ev
U _ZN7android16SortedVectorImpl25reservedSortedVectorImpl6Ev
U _ZN7android16SortedVectorImpl25reservedSortedVectorImpl7Ev
U _ZN7android16SortedVectorImpl25reservedSortedVectorImpl8Ev
U _ZN7android16SortedVectorImpl3addEPKv
U _ZN7android16SortedVectorImpl6removeEPKv
U _ZN7android16SortedVectorImplC1Ejj
U _ZN7android16SortedVectorImplD1Ev
T _ZN7android17AudioHardwareBase10getRoutingEiPj
T _ZN7android17AudioHardwareBase10setRoutingEij
T _ZN7android17AudioHardwareBase12setParameterEPKcS2_
T _ZN7android17AudioHardwareBase18getInputBufferSizeEjii
T _ZN7android17AudioHardwareBase7getModeEPi
T _ZN7android17AudioHardwareBase7setModeEi
T _ZN7android17AudioHardwareBase9dumpStateEiRKNS_6VectorINS_8String16EEE
T _ZN7android17AudioHardwareBaseC1Ev
T _ZN7android17AudioHardwareBaseC2Ev
T _ZN7android17AudioHardwareStub13dumpInternalsEiRKNS_6VectorINS_8String16EEE
T _ZN7android17AudioHardwareStub14setVoiceVolumeEf
T _ZN7android17AudioHardwareStub15openInputStreamEiiijPiNS_11AudioSystem18audio_in_acousticsE
T _ZN7android17AudioHardwareStub15setMasterVolumeEf
T _ZN7android17AudioHardwareStub16openOutputStreamEiijPi
T _ZN7android17AudioHardwareStub4dumpEiRKNS_6VectorINS_8String16EEE
T _ZN7android17AudioHardwareStub9initCheckEv
T _ZN7android17AudioHardwareStubC1Ev
T _ZN7android17AudioHardwareStubC2Ev
T _ZN7android17AudioHardwareStubD0Ev
T _ZN7android17AudioHardwareStubD1Ev
T _ZN7android17AudioHardwareStubD2Ev
T _ZN7android17AudioStreamInStub3setEiijNS_11AudioSystem18audio_in_acousticsE
T _ZN7android17AudioStreamInStub4dumpEiRKNS_6VectorINS_8String16EEE
T _ZN7android17AudioStreamInStub4readEPvl
W _ZN7android17move_forward_typeINS_16key_value_pair_tIiNS_2wpINS_12AudioFlinger6ClientEEEEEEEvPT_PKS7_j
W _ZN7android17move_forward_typeINS_2spINS_12AudioFlinger11MixerThread5TrackEEEEEvPT_PKS6_j
W _ZN7android17move_forward_typeINS_2wpINS_12AudioFlinger11MixerThread5TrackEEEEEvPT_PKS6_j
W _ZN7android17move_forward_typeINS_2wpINS_7IBinderEEEEEvPT_PKS4_j
R _ZN7android18AudioResamplerSinc11mFirCoefsUpE
R _ZN7android18AudioResamplerSinc13mFirCoefsDownE
T _ZN7android18AudioResamplerSinc4initEv
T _ZN7android18AudioResamplerSinc8resampleEPijPNS_19AudioBufferProviderE
W _ZN7android18AudioResamplerSinc8resampleILi1EEEvPijPNS_19AudioBufferProviderE
W _ZN7android18AudioResamplerSinc8resampleILi2EEEvPijPNS_19AudioBufferProviderE
T _ZN7android18AudioResamplerSincC1Eiii
T _ZN7android18AudioResamplerSincC2Eiii
T _ZN7android18AudioResamplerSincD0Ev
T _ZN7android18AudioResamplerSincD1Ev
T _ZN7android18AudioResamplerSincD2Ev
T _ZN7android18AudioStreamOutStub3setEiij
T _ZN7android18AudioStreamOutStub4dumpEiRKNS_6VectorINS_8String16EEE
T _ZN7android18AudioStreamOutStub5writeEPKvj
T _ZN7android18AudioStreamOutStub7standbyEv
U _ZN7android18audio_track_cblk_t10stepServerEj
U _ZN7android18audio_track_cblk_t11framesReadyEv
U _ZN7android18audio_track_cblk_t15framesAvailableEv
U _ZN7android18audio_track_cblk_t17framesAvailable_lEv
U _ZN7android18audio_track_cblk_t8stepUserEj
U _ZN7android18audio_track_cblk_tC1Ev
W _ZN7android18move_backward_typeINS_16key_value_pair_tIiNS_2wpINS_12AudioFlinger6ClientEEEEEEEvPT_PKS7_j
W _ZN7android18move_backward_typeINS_2spINS_12AudioFlinger11MixerThread5TrackEEEEEvPT_PKS6_j
W _ZN7android18move_backward_typeINS_2wpINS_12AudioFlinger11MixerThread5TrackEEEEEvPT_PKS6_j
W _ZN7android18move_backward_typeINS_2wpINS_7IBinderEEEEEvPT_PKS4_j
T _ZN7android19AudioResamplerCubic14resampleMono16EPijPNS_19AudioBufferProviderE
T _ZN7android19AudioResamplerCubic16resampleStereo16EPijPNS_19AudioBufferProviderE
T _ZN7android19AudioResamplerCubic4initEv
T _ZN7android19AudioResamplerCubic8resampleEPijPNS_19AudioBufferProviderE
T _ZN7android20AudioHardwareGeneric10getMicMuteEPb
T _ZN7android20AudioHardwareGeneric10setMicMuteEb
T _ZN7android20AudioHardwareGeneric13dumpInternalsEiRKNS_6VectorINS_8String16EEE
T _ZN7android20AudioHardwareGeneric14setVoiceVolumeEf
T _ZN7android20AudioHardwareGeneric15openInputStreamEiiijPiNS_11AudioSystem18audio_in_acousticsE
T _ZN7android20AudioHardwareGeneric15setMasterVolumeEf
T _ZN7android20AudioHardwareGeneric16closeInputStreamEPNS_20AudioStreamInGenericE
T _ZN7android20AudioHardwareGeneric16openOutputStreamEiijPi
T _ZN7android20AudioHardwareGeneric17closeOutputStreamEPNS_21AudioStreamOutGenericE
T _ZN7android20AudioHardwareGeneric4dumpEiRKNS_6VectorINS_8String16EEE
T _ZN7android20AudioHardwareGeneric9initCheckEv
T _ZN7android20AudioHardwareGenericC1Ev
T _ZN7android20AudioHardwareGenericC2Ev
T _ZN7android20AudioHardwareGenericD0Ev
T _ZN7android20AudioHardwareGenericD1Ev
T _ZN7android20AudioHardwareGenericD2Ev
T _ZN7android20AudioResamplerOrder113AsmMono16LoopEPsPiiRjS2_S3_iiS3_j
T _ZN7android20AudioResamplerOrder114resampleMono16EPijPNS_19AudioBufferProviderE
T _ZN7android20AudioResamplerOrder115AsmStereo16LoopEPsPiiRjS2_S3_iiS3_j
T _ZN7android20AudioResamplerOrder116resampleStereo16EPijPNS_19AudioBufferProviderE
T _ZN7android20AudioResamplerOrder18resampleEPijPNS_19AudioBufferProviderE
T _ZN7android20AudioStreamInGeneric3setEPNS_20AudioHardwareGenericEiiijNS_11AudioSystem18audio_in_acousticsE
T _ZN7android20AudioStreamInGeneric4dumpEiRKNS_6VectorINS_8String16EEE
T _ZN7android20AudioStreamInGeneric4readEPvl
T _ZN7android20AudioStreamInGenericD0Ev
T _ZN7android20AudioStreamInGenericD1Ev
T _ZN7android20AudioStreamInGenericD2Ev
T _ZN7android21AudioStreamOutGeneric3setEPNS_20AudioHardwareGenericEiiij
T _ZN7android21AudioStreamOutGeneric4dumpEiRKNS_6VectorINS_8String16EEE
T _ZN7android21AudioStreamOutGeneric5writeEPKvj
T _ZN7android21AudioStreamOutGeneric7standbyEv
T _ZN7android21AudioStreamOutGenericD0Ev
T _ZN7android21AudioStreamOutGenericD1Ev
T _ZN7android21AudioStreamOutGenericD2Ev
U _ZN7android21defaultServiceManagerEv
T _ZN7android22AudioHardwareInterface6createEv
U _ZN7android22checkCallingPermissionERKNS_8String16E
W _ZN7android2spINS_12AudioFlinger11MixerThread11RecordTrackEEaSEPS3_
W _ZN7android2spINS_12AudioFlinger11MixerThread5TrackEEaSEPS3_
W _ZN7android2spINS_12AudioFlinger11MixerThread5TrackEEaSERKS4_
W _ZN7android2spINS_12AudioFlinger11MixerThreadEEaSEPS2_
W _ZN7android2spINS_12AudioFlinger11TrackHandleEEaSEPS2_
W _ZN7android2spINS_12AudioFlinger12RecordHandleEEaSEPS2_
W _ZN7android2spINS_12AudioFlinger17AudioRecordThreadEEaSEPS2_
W _ZN7android2spINS_12AudioFlinger6ClientEEaSEPS2_
W _ZN7android2spINS_12AudioFlinger6ClientEEaSERKS3_
W _ZN7android2spINS_7IMemoryEEaSERKS2_
W _ZN7android2wpINS_12AudioFlinger6ClientEEaSERKS3_
U _ZN7android5Mutex4lockEv
U _ZN7android5Mutex6unlockEv
U _ZN7android5Mutex7tryLockEv
U _ZN7android5MutexC1Ev
U _ZN7android5MutexD1Ev
U _ZN7android6Thread10readyToRunEv
U _ZN7android6Thread11requestExitEv
U _ZN7android6Thread18requestExitAndWaitEv
U _ZN7android6Thread3runEPKcij
U _ZN7android6ThreadC2Eb
U _ZN7android6ThreadD0Ev
U _ZN7android6ThreadD1Ev
U _ZN7android6ThreadD2Ev
U _ZN7android7BBinder10onTransactEjRKNS_6ParcelEPS1_j
U _ZN7android7BBinder10pingBinderEv
U _ZN7android7BBinder11linkToDeathERKNS_2spINS_7IBinder14DeathRecipientEEEPvj
U _ZN7android7BBinder11localBinderEv
U _ZN7android7BBinder12attachObjectEPKvPvS3_PFvS2_S3_S3_E
U _ZN7android7BBinder12detachObjectEPKv
U _ZN7android7BBinder13unlinkToDeathERKNS_2wpINS_7IBinder14DeathRecipientEEEPvjPS4_
U _ZN7android7BBinder4dumpEiRKNS_6VectorINS_8String16EEE
U _ZN7android7BBinder8transactEjRKNS_6ParcelEPS1_j
U _ZN7android7BBinderC2Ev
U _ZN7android7BBinderD0Ev
U _ZN7android7BBinderD1Ev
U _ZN7android7BBinderD2Ev
U _ZN7android7IBinder11localBinderEv
U _ZN7android7IBinder12remoteBinderEv
U _ZN7android7IBinder19queryLocalInterfaceERKNS_8String16E
U _ZN7android7RefBase10onFirstRefEv
U _ZN7android7RefBase12weakref_type16attemptIncStrongEPKv
U _ZN7android7RefBase12weakref_type7decWeakEPKv
U _ZN7android7RefBase12weakref_type7incWeakEPKv
U _ZN7android7RefBase13onLastWeakRefEPKv
U _ZN7android7RefBase15onLastStrongRefEPKv
U _ZN7android7RefBase20onIncStrongAttemptedEjPKv
U _ZN7android7RefBaseC1Ev
U _ZN7android7RefBaseD1Ev
U _ZN7android7String86appendEPKc
U _ZN7android7String8C1EPKc
U _ZN7android7String8C1Ev
U _ZN7android7String8D1Ev
U _ZN7android8String16C1EPKc
U _ZN7android8String16D1Ev
U _ZN7android9Condition4waitERNS_5MutexE
U _ZN7android9Condition6signalEv
U _ZN7android9Condition9broadcastEv
U _ZN7android9ConditionC1Ev
U _ZN7android9ConditionD1Ev
T _ZNK7android10AudioMixer7track_t12doesResampleEv
U _ZNK7android11IAudioTrack22getInterfaceDescriptorEv
T _ZNK7android12AudioFlinger10frameCountEi
T _ZNK7android12AudioFlinger10getMicMuteEv
T _ZNK7android12AudioFlinger10getRoutingEi
T _ZNK7android12AudioFlinger10masterMuteEv
T _ZNK7android12AudioFlinger10sampleRateEi
T _ZNK7android12AudioFlinger10streamMuteEi
T _ZNK7android12AudioFlinger11MixerThread10frameCountEv
T _ZNK7android12AudioFlinger11MixerThread10masterMuteEv
T _ZNK7android12AudioFlinger11MixerThread10sampleRateEv
T _ZNK7android12AudioFlinger11MixerThread10streamMuteEi
T _ZNK7android12AudioFlinger11MixerThread12channelCountEv
T _ZNK7android12AudioFlinger11MixerThread12masterVolumeEv
T _ZNK7android12AudioFlinger11MixerThread12streamVolumeEi
T _ZNK7android12AudioFlinger11MixerThread15isMusicActive_lEv
T _ZNK7android12AudioFlinger11MixerThread5Track7isReadyEv
T _ZNK7android12AudioFlinger11MixerThread6formatEv
T _ZNK7android12AudioFlinger11MixerThread7latencyEv
T _ZNK7android12AudioFlinger11MixerThread9TrackBase10sampleRateEv
T _ZNK7android12AudioFlinger11MixerThread9TrackBase12channelCountEv
T _ZNK7android12AudioFlinger11MixerThread9TrackBase7getCblkEv
T _ZNK7android12AudioFlinger11MixerThread9TrackBase9getBufferEjj
T _ZNK7android12AudioFlinger11TrackHandle7getCblkEv
T _ZNK7android12AudioFlinger12RecordHandle7getCblkEv
T _ZNK7android12AudioFlinger12channelCountEi
T _ZNK7android12AudioFlinger12masterVolumeEv
T _ZNK7android12AudioFlinger12streamVolumeEi
T _ZNK7android12AudioFlinger13isA2dpEnabledEv
T _ZNK7android12AudioFlinger13isMusicActiveEv
T _ZNK7android12AudioFlinger6Client4heapEv
T _ZNK7android12AudioFlinger6formatEi
T _ZNK7android12AudioFlinger7getModeEv
T _ZNK7android12AudioFlinger7latencyEi
U _ZNK7android12IAudioRecord22getInterfaceDescriptorEv
W _ZNK7android12SortedVectorINS_16key_value_pair_tIiNS_2wpINS_12AudioFlinger6ClientEEEEEE10do_compareEPKvS9_
W _ZNK7android12SortedVectorINS_16key_value_pair_tIiNS_2wpINS_12AudioFlinger6ClientEEEEEE10do_destroyEPvj
W _ZNK7android12SortedVectorINS_16key_value_pair_tIiNS_2wpINS_12AudioFlinger6ClientEEEEEE12do_constructEPvj
W _ZNK7android12SortedVectorINS_16key_value_pair_tIiNS_2wpINS_12AudioFlinger6ClientEEEEEE15do_move_forwardEPvPKvj
W _ZNK7android12SortedVectorINS_16key_value_pair_tIiNS_2wpINS_12AudioFlinger6ClientEEEEEE16do_move_backwardEPvPKvj
W _ZNK7android12SortedVectorINS_16key_value_pair_tIiNS_2wpINS_12AudioFlinger6ClientEEEEEE7do_copyEPvPKvj
W _ZNK7android12SortedVectorINS_16key_value_pair_tIiNS_2wpINS_12AudioFlinger6ClientEEEEEE8do_splatEPvPKvj
W _ZNK7android12SortedVectorINS_2spINS_12AudioFlinger11MixerThread5TrackEEEE10do_compareEPKvS8_
W _ZNK7android12SortedVectorINS_2spINS_12AudioFlinger11MixerThread5TrackEEEE10do_destroyEPvj
W _ZNK7android12SortedVectorINS_2spINS_12AudioFlinger11MixerThread5TrackEEEE12do_constructEPvj
W _ZNK7android12SortedVectorINS_2spINS_12AudioFlinger11MixerThread5TrackEEEE15do_move_forwardEPvPKvj
W _ZNK7android12SortedVectorINS_2spINS_12AudioFlinger11MixerThread5TrackEEEE16do_move_backwardEPvPKvj
W _ZNK7android12SortedVectorINS_2spINS_12AudioFlinger11MixerThread5TrackEEEE7do_copyEPvPKvj
W _ZNK7android12SortedVectorINS_2spINS_12AudioFlinger11MixerThread5TrackEEEE8do_splatEPvPKvj
W _ZNK7android12SortedVectorINS_2wpINS_12AudioFlinger11MixerThread5TrackEEEE10do_compareEPKvS8_
W _ZNK7android12SortedVectorINS_2wpINS_12AudioFlinger11MixerThread5TrackEEEE10do_destroyEPvj
W _ZNK7android12SortedVectorINS_2wpINS_12AudioFlinger11MixerThread5TrackEEEE12do_constructEPvj
W _ZNK7android12SortedVectorINS_2wpINS_12AudioFlinger11MixerThread5TrackEEEE15do_move_forwardEPvPKvj
W _ZNK7android12SortedVectorINS_2wpINS_12AudioFlinger11MixerThread5TrackEEEE16do_move_backwardEPvPKvj
W _ZNK7android12SortedVectorINS_2wpINS_12AudioFlinger11MixerThread5TrackEEEE7do_copyEPvPKvj
W _ZNK7android12SortedVectorINS_2wpINS_12AudioFlinger11MixerThread5TrackEEEE8do_splatEPvPKvj
W _ZNK7android12SortedVectorINS_2wpINS_7IBinderEEEE10do_compareEPKvS6_
W _ZNK7android12SortedVectorINS_2wpINS_7IBinderEEEE10do_destroyEPvj
W _ZNK7android12SortedVectorINS_2wpINS_7IBinderEEEE12do_constructEPvj
W _ZNK7android12SortedVectorINS_2wpINS_7IBinderEEEE15do_move_forwardEPvPKvj
W _ZNK7android12SortedVectorINS_2wpINS_7IBinderEEEE16do_move_backwardEPvPKvj
W _ZNK7android12SortedVectorINS_2wpINS_7IBinderEEEE7do_copyEPvPKvj
W _ZNK7android12SortedVectorINS_2wpINS_7IBinderEEEE8do_splatEPvPKvj
U _ZNK7android13IAudioFlinger22getInterfaceDescriptorEv
U _ZNK7android16SortedVectorImpl7indexOfEPKv
U _ZNK7android18audio_track_cblk_t6bufferEj
U _ZNK7android6Thread11exitPendingEv
W _ZNK7android6VectorINS_2spINS_12AudioFlinger11MixerThread5TrackEEEE10do_destroyEPvj
W _ZNK7android6VectorINS_2spINS_12AudioFlinger11MixerThread5TrackEEEE12do_constructEPvj
W _ZNK7android6VectorINS_2spINS_12AudioFlinger11MixerThread5TrackEEEE15do_move_forwardEPvPKvj
W _ZNK7android6VectorINS_2spINS_12AudioFlinger11MixerThread5TrackEEEE16do_move_backwardEPvPKvj
W _ZNK7android6VectorINS_2spINS_12AudioFlinger11MixerThread5TrackEEEE7do_copyEPvPKvj
W _ZNK7android6VectorINS_2spINS_12AudioFlinger11MixerThread5TrackEEEE8do_splatEPvPKvj
W _ZNK7android6VectorIPNS_12AudioFlinger11MixerThread11OutputTrack6BufferEE10do_destroyEPvj
W _ZNK7android6VectorIPNS_12AudioFlinger11MixerThread11OutputTrack6BufferEE12do_constructEPvj
W _ZNK7android6VectorIPNS_12AudioFlinger11MixerThread11OutputTrack6BufferEE15do_move_forwardEPvPKvj
W _ZNK7android6VectorIPNS_12AudioFlinger11MixerThread11OutputTrack6BufferEE16do_move_backwardEPvPKvj
W _ZNK7android6VectorIPNS_12AudioFlinger11MixerThread11OutputTrack6BufferEE7do_copyEPvPKvj
W _ZNK7android6VectorIPNS_12AudioFlinger11MixerThread11OutputTrack6BufferEE8do_splatEPvPKvj
U _ZNK7android7BBinder10findObjectEPKv
U _ZNK7android7BBinder13isBinderAliveEv
U _ZNK7android7BBinder22getInterfaceDescriptorEv
U _ZNK7android7IBinder13checkSubclassEPKv
U _ZNK7android7IMemory7pointerEv
U _ZNK7android7RefBase10createWeakEPKv
U _ZNK7android7RefBase9decStrongEPKv
U _ZNK7android7RefBase9incStrongEPKv
V _ZTCN7android11BnInterfaceINS_11IAudioTrackEEE0_NS_10IInterfaceE
V _ZTCN7android11BnInterfaceINS_11IAudioTrackEEE0_S1_
V _ZTCN7android11BnInterfaceINS_11IAudioTrackEEE4_NS_7BBinderE
V _ZTCN7android11BnInterfaceINS_11IAudioTrackEEE4_NS_7IBinderE
V _ZTCN7android11BnInterfaceINS_12IAudioRecordEEE0_NS_10IInterfaceE
V _ZTCN7android11BnInterfaceINS_12IAudioRecordEEE0_S1_
V _ZTCN7android11BnInterfaceINS_12IAudioRecordEEE4_NS_7BBinderE
V _ZTCN7android11BnInterfaceINS_12IAudioRecordEEE4_NS_7IBinderE
V _ZTCN7android11BnInterfaceINS_13IAudioFlingerEEE0_NS_10IInterfaceE
V _ZTCN7android11BnInterfaceINS_13IAudioFlingerEEE0_S1_
V _ZTCN7android11BnInterfaceINS_13IAudioFlingerEEE4_NS_7BBinderE
V _ZTCN7android11BnInterfaceINS_13IAudioFlingerEEE4_NS_7IBinderE
D _ZTCN7android12AudioFlinger11MixerThreadE0_NS_6ThreadE
D _ZTCN7android12AudioFlinger11TrackHandleE0_NS_10IInterfaceE
D _ZTCN7android12AudioFlinger11TrackHandleE0_NS_11BnInterfaceINS_11IAudioTrackEEE
D _ZTCN7android12AudioFlinger11TrackHandleE0_NS_11IAudioTrackE
D _ZTCN7android12AudioFlinger11TrackHandleE0_NS_12BnAudioTrackE
D _ZTCN7android12AudioFlinger11TrackHandleE4_NS_7BBinderE
D _ZTCN7android12AudioFlinger11TrackHandleE4_NS_7IBinderE
D _ZTCN7android12AudioFlinger12RecordHandleE0_NS_10IInterfaceE
D _ZTCN7android12AudioFlinger12RecordHandleE0_NS_11BnInterfaceINS_12IAudioRecordEEE
D _ZTCN7android12AudioFlinger12RecordHandleE0_NS_12IAudioRecordE
D _ZTCN7android12AudioFlinger12RecordHandleE0_NS_13BnAudioRecordE
D _ZTCN7android12AudioFlinger12RecordHandleE4_NS_7BBinderE
D _ZTCN7android12AudioFlinger12RecordHandleE4_NS_7IBinderE
D _ZTCN7android12AudioFlinger17AudioRecordThreadE0_NS_6ThreadE
D _ZTCN7android12AudioFlingerE0_NS_10IInterfaceE
D _ZTCN7android12AudioFlingerE0_NS_11BnInterfaceINS_13IAudioFlingerEEE
D _ZTCN7android12AudioFlingerE0_NS_13IAudioFlingerE
D _ZTCN7android12AudioFlingerE0_NS_14BnAudioFlingerE
D _ZTCN7android12AudioFlingerE16_NS_7IBinder14DeathRecipientE
D _ZTCN7android12AudioFlingerE4_NS_7BBinderE
D _ZTCN7android12AudioFlingerE4_NS_7IBinderE
V _ZTTN7android10IInterfaceE
V _ZTTN7android11BnInterfaceINS_11IAudioTrackEEE
V _ZTTN7android11BnInterfaceINS_12IAudioRecordEEE
V _ZTTN7android11BnInterfaceINS_13IAudioFlingerEEE
U _ZTTN7android11IAudioTrackE
D _ZTTN7android12AudioFlinger11MixerThreadE
D _ZTTN7android12AudioFlinger11TrackHandleE
D _ZTTN7android12AudioFlinger12RecordHandleE
D _ZTTN7android12AudioFlinger17AudioRecordThreadE
D _ZTTN7android12AudioFlingerE
U _ZTTN7android12BnAudioTrackE
U _ZTTN7android12IAudioRecordE
U _ZTTN7android13BnAudioRecordE
U _ZTTN7android13IAudioFlingerE
U _ZTTN7android14BnAudioFlingerE
V _ZTTN7android7IBinder14DeathRecipientE
V _ZTVN7android10IInterfaceE
V _ZTVN7android11BnInterfaceINS_11IAudioTrackEEE
V _ZTVN7android11BnInterfaceINS_12IAudioRecordEEE
V _ZTVN7android11BnInterfaceINS_13IAudioFlingerEEE
U _ZTVN7android11IAudioTrackE
D _ZTVN7android12AudioFlinger11MixerThread11OutputTrackE
D _ZTVN7android12AudioFlinger11MixerThread11RecordTrackE
D _ZTVN7android12AudioFlinger11MixerThread5TrackE
D _ZTVN7android12AudioFlinger11MixerThread9TrackBaseE
D _ZTVN7android12AudioFlinger11MixerThreadE
D _ZTVN7android12AudioFlinger11TrackHandleE
D _ZTVN7android12AudioFlinger12RecordHandleE
D _ZTVN7android12AudioFlinger17AudioRecordThreadE
D _ZTVN7android12AudioFlinger6ClientE
D _ZTVN7android12AudioFlingerE
U _ZTVN7android12BnAudioTrackE
U _ZTVN7android12IAudioRecordE
V _ZTVN7android12SortedVectorINS_16key_value_pair_tIiNS_2wpINS_12AudioFlinger6ClientEEEEEEE
V _ZTVN7android12SortedVectorINS_2spINS_12AudioFlinger11MixerThread5TrackEEEEE
V _ZTVN7android12SortedVectorINS_2wpINS_12AudioFlinger11MixerThread5TrackEEEEE
V _ZTVN7android12SortedVectorINS_2wpINS_7IBinderEEEEE
V _ZTVN7android13AudioStreamInE
U _ZTVN7android13BnAudioRecordE
U _ZTVN7android13IAudioFlingerE
D _ZTVN7android14AudioResamplerE
V _ZTVN7android14AudioStreamOutE
U _ZTVN7android14BnAudioFlingerE
D _ZTVN7android17AudioHardwareBaseE
D _ZTVN7android17AudioHardwareStubE
D _ZTVN7android17AudioStreamInStubE
D _ZTVN7android18AudioResamplerSincE
D _ZTVN7android18AudioStreamOutStubE
V _ZTVN7android19AudioBufferProviderE
D _ZTVN7android19AudioResamplerCubicE
D _ZTVN7android20AudioHardwareGenericE
D _ZTVN7android20AudioResamplerOrder1E
D _ZTVN7android20AudioStreamInGenericE
D _ZTVN7android21AudioStreamOutGenericE
V _ZTVN7android22AudioHardwareInterfaceE
V _ZTVN7android6VectorINS_2spINS_12AudioFlinger11MixerThread5TrackEEEEE
V _ZTVN7android6VectorIPNS_12AudioFlinger11MixerThread11OutputTrack6BufferEEE
V _ZTVN7android7IBinder14DeathRecipientE
U _ZTVN7android7IBinderE
T _ZThn16_N7android12AudioFlinger10binderDiedERKNS_2wpINS_7IBinderEEE
T _ZThn16_N7android12AudioFlingerD0Ev
T _ZThn16_N7android12AudioFlingerD1Ev
T _ZThn4_N7android12AudioFlinger10onTransactEjRKNS_6ParcelEPS1_j
T _ZThn4_N7android12AudioFlinger11MixerThread11OutputTrackD0Ev
T _ZThn4_N7android12AudioFlinger11MixerThread11OutputTrackD1Ev
T _ZThn4_N7android12AudioFlinger11MixerThread11RecordTrackD0Ev
T _ZThn4_N7android12AudioFlinger11MixerThread11RecordTrackD1Ev
T _ZThn4_N7android12AudioFlinger11MixerThread5TrackD0Ev
T _ZThn4_N7android12AudioFlinger11MixerThread5TrackD1Ev
T _ZThn4_N7android12AudioFlinger11MixerThread9TrackBaseD0Ev
T _ZThn4_N7android12AudioFlinger11MixerThread9TrackBaseD1Ev
T _ZThn4_N7android12AudioFlinger11TrackHandle10onTransactEjRKNS_6ParcelEPS2_j
T _ZThn4_N7android12AudioFlinger11TrackHandleD0Ev
T _ZThn4_N7android12AudioFlinger11TrackHandleD1Ev
T _ZThn4_N7android12AudioFlinger12RecordHandle10onTransactEjRKNS_6ParcelEPS2_j
T _ZThn4_N7android12AudioFlinger12RecordHandleD0Ev
T _ZThn4_N7android12AudioFlinger12RecordHandleD1Ev
T _ZThn4_N7android12AudioFlinger4dumpEiRKNS_6VectorINS_8String16EEE
T _ZThn4_N7android12AudioFlingerD0Ev
T _ZThn4_N7android12AudioFlingerD1Ev
U _ZThn4_N7android12BnAudioTrack10onTransactEjRKNS_6ParcelEPS1_j
U _ZThn4_N7android13BnAudioRecord10onTransactEjRKNS_6ParcelEPS1_j
U _ZThn4_N7android14BnAudioFlinger10onTransactEjRKNS_6ParcelEPS1_j
W _ZTv0_n12_N7android10IInterfaceD0Ev
W _ZTv0_n12_N7android10IInterfaceD1Ev
W _ZTv0_n12_N7android11BnInterfaceINS_11IAudioTrackEED0Ev
W _ZTv0_n12_N7android11BnInterfaceINS_11IAudioTrackEED1Ev
W _ZTv0_n12_N7android11BnInterfaceINS_12IAudioRecordEED0Ev
W _ZTv0_n12_N7android11BnInterfaceINS_12IAudioRecordEED1Ev
W _ZTv0_n12_N7android11BnInterfaceINS_13IAudioFlingerEED0Ev
W _ZTv0_n12_N7android11BnInterfaceINS_13IAudioFlingerEED1Ev
W _ZTv0_n12_N7android11IAudioTrackD0Ev
W _ZTv0_n12_N7android11IAudioTrackD1Ev
T _ZTv0_n12_N7android12AudioFlinger11MixerThreadD0Ev
T _ZTv0_n12_N7android12AudioFlinger11MixerThreadD1Ev
T _ZTv0_n12_N7android12AudioFlinger11TrackHandleD0Ev
T _ZTv0_n12_N7android12AudioFlinger11TrackHandleD1Ev
T _ZTv0_n12_N7android12AudioFlinger12RecordHandleD0Ev
T _ZTv0_n12_N7android12AudioFlinger12RecordHandleD1Ev
T _ZTv0_n12_N7android12AudioFlinger17AudioRecordThreadD0Ev
T _ZTv0_n12_N7android12AudioFlinger17AudioRecordThreadD1Ev
T _ZTv0_n12_N7android12AudioFlingerD0Ev
T _ZTv0_n12_N7android12AudioFlingerD1Ev
W _ZTv0_n12_N7android12BnAudioTrackD0Ev
W _ZTv0_n12_N7android12BnAudioTrackD1Ev
W _ZTv0_n12_N7android12IAudioRecordD0Ev
W _ZTv0_n12_N7android12IAudioRecordD1Ev
W _ZTv0_n12_N7android13BnAudioRecordD0Ev
W _ZTv0_n12_N7android13BnAudioRecordD1Ev
W _ZTv0_n12_N7android13IAudioFlingerD0Ev
W _ZTv0_n12_N7android13IAudioFlingerD1Ev
W _ZTv0_n12_N7android14BnAudioFlingerD0Ev
W _ZTv0_n12_N7android14BnAudioFlingerD1Ev
U _ZTv0_n12_N7android6ThreadD0Ev
U _ZTv0_n12_N7android6ThreadD1Ev
U _ZTv0_n12_N7android7BBinderD0Ev
U _ZTv0_n12_N7android7BBinderD1Ev
W _ZTv0_n12_N7android7IBinder14DeathRecipientD0Ev
W _ZTv0_n12_N7android7IBinder14DeathRecipientD1Ev
W _ZTv0_n12_N7android7IBinderD0Ev
W _ZTv0_n12_N7android7IBinderD1Ev
T _ZTv0_n16_N7android12AudioFlinger11MixerThread10onFirstRefEv
W _ZTv0_n16_N7android12AudioFlinger17AudioRecordThread10onFirstRefEv
U _ZdaPv
U _ZdlPv
U _Znaj
U _Znwj
U __aeabi_d2f
U __aeabi_d2uiz
U __aeabi_dadd
U __aeabi_ddiv
U __aeabi_dmul
U __aeabi_dsub
U __aeabi_f2d
U __aeabi_f2iz
U __aeabi_fcmpgt
U __aeabi_fdiv
U __aeabi_fmul
U __aeabi_i2d
U __aeabi_i2f
U __aeabi_idiv
U __aeabi_ldivmod
U __aeabi_lmul
U __aeabi_uidiv
U __aeabi_unwind_cpp_pr0
U __android_log_print
A __bss_end__
A __bss_start
A __bss_start__
U __cxa_pure_virtual
A __data_start
A __end__
A __exidx_end
A __exidx_start
U __stack_chk_fail
U __stack_chk_guard
A _bss_end__
A _edata
A _end
A _stack
U access
U atoi
U close
U getpid
U memcpy
U memmove
U memset
U open
U property_get
U read
U sleep
U snprintf
U strzcmp16
U systemTime
U usleep
U write
