T JNI_OnLoad
W _ZN7android2spINS_8EventHubEEaSEPS1_
W _ZN7android2spINS_8EventHubEEaSERKS2_
T _ZN7android36register_android_server_SystemServerEP7_JNIEnv
T _ZN7android37register_android_server_KeyInputQueueEP7_JNIEnv
T _ZN7android37register_android_server_SensorServiceEP7_JNIEnv
T _ZN7android38register_android_server_BatteryServiceEP7_JNIEnv
T _ZN7android39register_android_server_HardwareServiceEP7_JNIEnv
T _ZN7android43register_android_server_AlarmManagerServiceEP7_JNIEnv
U _ZN7android5Mutex4lockEv
U _ZN7android5Mutex6unlockEv
U _ZN7android5MutexC1Ev
U _ZN7android5MutexD1Ev
U _ZN7android7String85setToERKS0_
U _ZN7android7String8C1Ev
U _ZN7android7String8D1Ev
U _ZN7android8EventHub7hasKeysEjPiPh
U _ZN7android8EventHubC1Ev
U _ZNK7android7RefBase9decStrongEPKv
U _ZNK7android7RefBase9incStrongEPKv
U _ZNK7android8EventHub13getDeviceNameEi
U _ZNK7android8EventHub14getSwitchStateEi
U _ZNK7android8EventHub14getSwitchStateEii
U _ZNK7android8EventHub15getAbsoluteInfoEiiPiS1_S1_S1_
U _ZNK7android8EventHub15getKeycodeStateEi
U _ZNK7android8EventHub15getKeycodeStateEii
U _ZNK7android8EventHub16getDeviceClassesEi
U _ZNK7android8EventHub16getScancodeStateEi
U _ZNK7android8EventHub16getScancodeStateEii
U _Znwj
U __aeabi_atexit
U __aeabi_ldivmod
T __aeabi_llsl
U __aeabi_lmul
U __aeabi_unwind_cpp_pr0
U __android_log_print
T __ashldi3
A __bss_end__
A __bss_start
A __bss_start__
D __data_start
U __dso_handle
A __end__
U __errno
A __exidx_end
A __exidx_start
U __stack_chk_fail
U __stack_chk_guard
A _bss_end__
A _edata
A _end
A _stack
U atoi
U close
U hw_get_module
U ioctl
U jniRegisterNativeMethods
U malloc
U memset
U native_handle_delete
U open
U read
U settimeofday
U strcmp
U strerror
U system_init
U vibrator_off
U vibrator_on
