T RegexPatternDump
U T_CString_integerToString_3_8
W _Z17ucol_tok_doSetTopP15UColTokenParserP10UErrorCode
W _Z26ucol_tok_addToExtraCurrentP15UColTokenParserPKtiP10UErrorCode
T _ZN18URegularExpressionC1Ev
T _ZN18URegularExpressionC2Ev
T _ZN18URegularExpressionD1Ev
T _ZN18URegularExpressionD2Ev
T _ZN7icu_3_810DateFormat10setLenientEa
T _ZN7icu_3_810DateFormat11setCalendarERKNS_8CalendarE
T _ZN7icu_3_810DateFormat11setTimeZoneERKNS_8TimeZoneE
T _ZN7icu_3_810DateFormat13adoptCalendarEPNS_8CalendarE
T _ZN7icu_3_810DateFormat13adoptTimeZoneEPNS_8TimeZoneE
T _ZN7icu_3_810DateFormat14createInstanceEv
T _ZN7icu_3_810DateFormat15setNumberFormatERKNS_12NumberFormatE
T _ZN7icu_3_810DateFormat17adoptNumberFormatEPNS_12NumberFormatE
T _ZN7icu_3_810DateFormat18createDateInstanceENS0_6EStyleERKNS_6LocaleE
T _ZN7icu_3_810DateFormat18createTimeInstanceENS0_6EStyleERKNS_6LocaleE
T _ZN7icu_3_810DateFormat19getAvailableLocalesERi
T _ZN7icu_3_810DateFormat22createDateTimeInstanceENS0_6EStyleES1_RKNS_6LocaleE
T _ZN7icu_3_810DateFormat6createENS0_6EStyleES1_RKNS_6LocaleE
T _ZN7icu_3_810DateFormatC1ERKS0_
T _ZN7icu_3_810DateFormatC1Ev
T _ZN7icu_3_810DateFormatC2ERKS0_
T _ZN7icu_3_810DateFormatC2Ev
T _ZN7icu_3_810DateFormatD0Ev
T _ZN7icu_3_810DateFormatD1Ev
T _ZN7icu_3_810DateFormatD2Ev
T _ZN7icu_3_810DateFormataSERKS0_
T _ZN7icu_3_810PatternMap16getDuplicateElemERKNS_13UnicodeStringERKNS_11PtnSkeletonEPNS_7PtnElemE
T _ZN7icu_3_810PatternMap22getPatternFromSkeletonERNS_11PtnSkeletonE
T _ZN7icu_3_810PatternMap25getPatternFromBasePatternERNS_13UnicodeStringE
T _ZN7icu_3_810PatternMap3addERKNS_13UnicodeStringERKNS_11PtnSkeletonES3_R10UErrorCode
T _ZN7icu_3_810PatternMap6equalsERKS0_
T _ZN7icu_3_810PatternMap8copyFromERKS0_R10UErrorCode
T _ZN7icu_3_810PatternMap9getHeaderEt
T _ZN7icu_3_810PatternMapC1Ev
T _ZN7icu_3_810PatternMapC2Ev
T _ZN7icu_3_810PatternMapD0Ev
T _ZN7icu_3_810PatternMapD1Ev
T _ZN7icu_3_810PatternMapD2Ev
U _ZN7icu_3_810UnicodeSet10complementEv
U _ZN7icu_3_810UnicodeSet21applyIntPropertyValueE9UPropertyiR10UErrorCode
U _ZN7icu_3_810UnicodeSet3addERKNS_13UnicodeStringE
U _ZN7icu_3_810UnicodeSet3addEi
U _ZN7icu_3_810UnicodeSet9closeOverEi
U _ZN7icu_3_810UnicodeSetC1ERKNS_13UnicodeStringER10UErrorCode
U _ZN7icu_3_810UnicodeSetC1ERKNS_13UnicodeStringEjPKNS_11SymbolTableER10UErrorCode
U _ZN7icu_3_810UnicodeSetC1ERKS0_
U _ZN7icu_3_810UnicodeSetC1Eii
U _ZN7icu_3_810UnicodeSetC1Ev
U _ZN7icu_3_810UnicodeSetD1Ev
U _ZN7icu_3_810UnicodeSetaSERKS0_
T _ZN7icu_3_810util64_powEij
T _ZN7icu_3_810util64_touExPtjja
T _ZN7icu_3_811Formattable10adoptArrayEPS0_i
T _ZN7icu_3_811Formattable11adoptObjectEPNS_7UObjectE
T _ZN7icu_3_811Formattable11adoptStringEPNS_13UnicodeStringE
T _ZN7icu_3_811Formattable16getStaticClassIDEv
T _ZN7icu_3_811Formattable7disposeEv
T _ZN7icu_3_811Formattable7setDateEd
T _ZN7icu_3_811Formattable7setLongEi
T _ZN7icu_3_811Formattable8setArrayEPKS0_i
T _ZN7icu_3_811Formattable8setInt64Ex
T _ZN7icu_3_811Formattable9getStringER10UErrorCode
T _ZN7icu_3_811Formattable9setDoubleEd
T _ZN7icu_3_811Formattable9setStringERKNS_13UnicodeStringE
T _ZN7icu_3_811FormattableC1EPKS0_i
T _ZN7icu_3_811FormattableC1EPKc
T _ZN7icu_3_811FormattableC1EPNS_13UnicodeStringE
T _ZN7icu_3_811FormattableC1EPNS_7UObjectE
T _ZN7icu_3_811FormattableC1ERKNS_13UnicodeStringE
T _ZN7icu_3_811FormattableC1ERKS0_
T _ZN7icu_3_811FormattableC1Ed
T _ZN7icu_3_811FormattableC1EdNS0_6ISDATEE
T _ZN7icu_3_811FormattableC1Ei
T _ZN7icu_3_811FormattableC1Ev
T _ZN7icu_3_811FormattableC1Ex
T _ZN7icu_3_811FormattableC2EPKS0_i
T _ZN7icu_3_811FormattableC2EPKc
T _ZN7icu_3_811FormattableC2EPNS_13UnicodeStringE
T _ZN7icu_3_811FormattableC2EPNS_7UObjectE
T _ZN7icu_3_811FormattableC2ERKNS_13UnicodeStringE
T _ZN7icu_3_811FormattableC2ERKS0_
T _ZN7icu_3_811FormattableC2Ed
T _ZN7icu_3_811FormattableC2EdNS0_6ISDATEE
T _ZN7icu_3_811FormattableC2Ei
T _ZN7icu_3_811FormattableC2Ev
T _ZN7icu_3_811FormattableC2Ex
T _ZN7icu_3_811FormattableD0Ev
T _ZN7icu_3_811FormattableD1Ev
T _ZN7icu_3_811FormattableD2Ev
T _ZN7icu_3_811FormattableaSERKS0_
U _ZN7icu_3_811LocaleBased12setLocaleIDsEPKcS2_
T _ZN7icu_3_811MeasureUnitC1Ev
T _ZN7icu_3_811MeasureUnitC2Ev
T _ZN7icu_3_811MeasureUnitD0Ev
T _ZN7icu_3_811MeasureUnitD1Ev
T _ZN7icu_3_811MeasureUnitD2Ev
T _ZN7icu_3_811NGramParser5parseEPNS_9InputTextE
T _ZN7icu_3_811NGramParser6lookupEi
T _ZN7icu_3_811NGramParser6searchEPKii
T _ZN7icu_3_811NGramParser7addByteEi
T _ZN7icu_3_811NGramParser8nextByteEPNS_9InputTextE
T _ZN7icu_3_811NGramParserC1EPKiPKh
T _ZN7icu_3_811NGramParserC2EPKiPKh
T _ZN7icu_3_811PtnSkeleton11getSkeletonEv
T _ZN7icu_3_811PtnSkeleton15getBaseSkeletonEv
T _ZN7icu_3_811PtnSkeleton6equalsERKS0_
T _ZN7icu_3_811PtnSkeletonC1ERKS0_
T _ZN7icu_3_811PtnSkeletonC1Ev
T _ZN7icu_3_811PtnSkeletonC2ERKS0_
T _ZN7icu_3_811PtnSkeletonC2Ev
T _ZN7icu_3_811PtnSkeletonD0Ev
T _ZN7icu_3_811PtnSkeletonD1Ev
T _ZN7icu_3_811PtnSkeletonD2Ev
T _ZN7icu_3_811TextTrieMap12addChildNodeEPNS_13CharacterNodeEtR10UErrorCode
T _ZN7icu_3_811TextTrieMap3putERKNS_13UnicodeStringEPvR10UErrorCode
T _ZN7icu_3_811TextTrieMap9growNodesEv
T _ZN7icu_3_811TextTrieMapC1Ea
T _ZN7icu_3_811TextTrieMapC2Ea
T _ZN7icu_3_811TextTrieMapD0Ev
T _ZN7icu_3_811TextTrieMapD1Ev
T _ZN7icu_3_811TextTrieMapD2Ev
T _ZN7icu_3_811ZoneStringsC1EPNS_13UnicodeStringEiaPS2_ii
T _ZN7icu_3_811ZoneStringsC2EPNS_13UnicodeStringEiaPS2_ii
T _ZN7icu_3_811ZoneStringsD0Ev
T _ZN7icu_3_811ZoneStringsD1Ev
T _ZN7icu_3_811ZoneStringsD2Ev
T _ZN7icu_3_812CalendarData8getByKeyEPKcR10UErrorCode
T _ZN7icu_3_812CalendarData8initDataEPKcS2_R10UErrorCode
T _ZN7icu_3_812CalendarData9getByKey2EPKcS2_R10UErrorCode
T _ZN7icu_3_812CalendarData9getByKey3EPKcS2_S2_R10UErrorCode
T _ZN7icu_3_812CalendarDataC1ERKNS_6LocaleEPKcR10UErrorCode
T _ZN7icu_3_812CalendarDataC2ERKNS_6LocaleEPKcR10UErrorCode
T _ZN7icu_3_812CalendarDataD1Ev
T _ZN7icu_3_812CalendarDataD2Ev
T _ZN7icu_3_812CharsetMatch3setEPNS_9InputTextEPNS_17CharsetRecognizerEi
T _ZN7icu_3_812CharsetMatchC1Ev
T _ZN7icu_3_812CharsetMatchC2Ev
T _ZN7icu_3_812ChoiceFormat10setChoicesEPKdPKNS_13UnicodeStringEi
T _ZN7icu_3_812ChoiceFormat10setChoicesEPKdPKaPKNS_13UnicodeStringEi
T _ZN7icu_3_812ChoiceFormat12applyPatternERKNS_13UnicodeStringER10UErrorCode
T _ZN7icu_3_812ChoiceFormat12applyPatternERKNS_13UnicodeStringER11UParseErrorR10UErrorCode
T _ZN7icu_3_812ChoiceFormat16getStaticClassIDEv
T _ZN7icu_3_812ChoiceFormat4dtosEdRNS_13UnicodeStringE
T _ZN7icu_3_812ChoiceFormat4stodERKNS_13UnicodeStringE
T _ZN7icu_3_812ChoiceFormatC1EPKdPKNS_13UnicodeStringEi
T _ZN7icu_3_812ChoiceFormatC1EPKdPKaPKNS_13UnicodeStringEi
T _ZN7icu_3_812ChoiceFormatC1ERKNS_13UnicodeStringER10UErrorCode
T _ZN7icu_3_812ChoiceFormatC1ERKNS_13UnicodeStringER11UParseErrorR10UErrorCode
T _ZN7icu_3_812ChoiceFormatC1ERKS0_
T _ZN7icu_3_812ChoiceFormatC2EPKdPKNS_13UnicodeStringEi
T _ZN7icu_3_812ChoiceFormatC2EPKdPKaPKNS_13UnicodeStringEi
T _ZN7icu_3_812ChoiceFormatC2ERKNS_13UnicodeStringER10UErrorCode
T _ZN7icu_3_812ChoiceFormatC2ERKNS_13UnicodeStringER11UParseErrorR10UErrorCode
T _ZN7icu_3_812ChoiceFormatC2ERKS0_
T _ZN7icu_3_812ChoiceFormatD0Ev
T _ZN7icu_3_812ChoiceFormatD1Ev
T _ZN7icu_3_812ChoiceFormatD2Ev
T _ZN7icu_3_812ChoiceFormataSERKS0_
T _ZN7icu_3_812CollationKey10setToBogusEv
T _ZN7icu_3_812CollationKey14ensureCapacityEi
T _ZN7icu_3_812CollationKey16getStaticClassIDEv
T _ZN7icu_3_812CollationKey5adoptEPhi
T _ZN7icu_3_812CollationKey5resetEv
T _ZN7icu_3_812CollationKeyC1EPKhi
T _ZN7icu_3_812CollationKeyC1ERKS0_
T _ZN7icu_3_812CollationKeyC1Ev
T _ZN7icu_3_812CollationKeyC2EPKhi
T _ZN7icu_3_812CollationKeyC2ERKS0_
T _ZN7icu_3_812CollationKeyC2Ev
T _ZN7icu_3_812CollationKeyD0Ev
T _ZN7icu_3_812CollationKeyD1Ev
T _ZN7icu_3_812CollationKeyD2Ev
T _ZN7icu_3_812CollationKeyaSERKS0_
T _ZN7icu_3_812CurrencyUnit16getStaticClassIDEv
T _ZN7icu_3_812CurrencyUnitC1EPKtR10UErrorCode
T _ZN7icu_3_812CurrencyUnitC1ERKS0_
T _ZN7icu_3_812CurrencyUnitC2EPKtR10UErrorCode
T _ZN7icu_3_812CurrencyUnitC2ERKS0_
T _ZN7icu_3_812CurrencyUnitD0Ev
T _ZN7icu_3_812CurrencyUnitD1Ev
T _ZN7icu_3_812CurrencyUnitD2Ev
T _ZN7icu_3_812CurrencyUnitaSERKS0_
T _ZN7icu_3_812DateTimeRule16getStaticClassIDEv
T _ZN7icu_3_812DateTimeRuleC1ERKS0_
T _ZN7icu_3_812DateTimeRuleC1EiiiNS0_12TimeRuleTypeE
T _ZN7icu_3_812DateTimeRuleC1EiiiaiNS0_12TimeRuleTypeE
T _ZN7icu_3_812DateTimeRuleC1EiiiiNS0_12TimeRuleTypeE
T _ZN7icu_3_812DateTimeRuleC2ERKS0_
T _ZN7icu_3_812DateTimeRuleC2EiiiNS0_12TimeRuleTypeE
T _ZN7icu_3_812DateTimeRuleC2EiiiaiNS0_12TimeRuleTypeE
T _ZN7icu_3_812DateTimeRuleC2EiiiiNS0_12TimeRuleTypeE
T _ZN7icu_3_812DateTimeRuleD0Ev
T _ZN7icu_3_812DateTimeRuleD1Ev
T _ZN7icu_3_812DateTimeRuleD2Ev
T _ZN7icu_3_812DateTimeRuleaSERKS0_
T _ZN7icu_3_812DistanceInfo5setToERS0_
T _ZN7icu_3_812FormatParser15getQuoteLiteralERNS_13UnicodeStringEPi
T _ZN7icu_3_812FormatParser17getCanonicalIndexERKNS_13UnicodeStringE
T _ZN7icu_3_812FormatParser18isPatternSeparatorERNS_13UnicodeStringE
T _ZN7icu_3_812FormatParser3setERKNS_13UnicodeStringE
T _ZN7icu_3_812FormatParser9setTokensERKNS_13UnicodeStringEiPi
T _ZN7icu_3_812FormatParserC1Ev
T _ZN7icu_3_812FormatParserC2Ev
T _ZN7icu_3_812FormatParserD0Ev
T _ZN7icu_3_812FormatParserD1Ev
T _ZN7icu_3_812FormatParserD2Ev
T _ZN7icu_3_812IteratedChar5resetEv
T _ZN7icu_3_812IteratedChar8nextByteEPNS_9InputTextE
T _ZN7icu_3_812IteratedCharC1Ev
T _ZN7icu_3_812IteratedCharC2Ev
T _ZN7icu_3_812NumberFormat11setCurrencyEPKtR10UErrorCode
T _ZN7icu_3_812NumberFormat12makeInstanceERKNS_6LocaleENS0_7EStylesER10UErrorCode
T _ZN7icu_3_812NumberFormat14createInstanceER10UErrorCode
T _ZN7icu_3_812NumberFormat14createInstanceERKNS_6LocaleENS0_7EStylesER10UErrorCode
T _ZN7icu_3_812NumberFormat14createInstanceERKNS_6LocaleER10UErrorCode
T _ZN7icu_3_812NumberFormat15setGroupingUsedEa
T _ZN7icu_3_812NumberFormat16getStaticClassIDEv
T _ZN7icu_3_812NumberFormat19getAvailableLocalesERi
T _ZN7icu_3_812NumberFormat19setParseIntegerOnlyEa
T _ZN7icu_3_812NumberFormat21createPercentInstanceER10UErrorCode
T _ZN7icu_3_812NumberFormat21createPercentInstanceERKNS_6LocaleER10UErrorCode
T _ZN7icu_3_812NumberFormat22createCurrencyInstanceER10UErrorCode
T _ZN7icu_3_812NumberFormat22createCurrencyInstanceERKNS_6LocaleER10UErrorCode
T _ZN7icu_3_812NumberFormat23setMaximumIntegerDigitsEi
T _ZN7icu_3_812NumberFormat23setMinimumIntegerDigitsEi
T _ZN7icu_3_812NumberFormat24createScientificInstanceER10UErrorCode
T _ZN7icu_3_812NumberFormat24createScientificInstanceERKNS_6LocaleER10UErrorCode
T _ZN7icu_3_812NumberFormat24setMaximumFractionDigitsEi
T _ZN7icu_3_812NumberFormat24setMinimumFractionDigitsEi
T _ZN7icu_3_812NumberFormatC1ERKS0_
T _ZN7icu_3_812NumberFormatC1Ev
T _ZN7icu_3_812NumberFormatC2ERKS0_
T _ZN7icu_3_812NumberFormatC2Ev
T _ZN7icu_3_812NumberFormatD0Ev
T _ZN7icu_3_812NumberFormatD1Ev
T _ZN7icu_3_812NumberFormatD2Ev
T _ZN7icu_3_812NumberFormataSERKS0_
T _ZN7icu_3_812RegexCompile10compileSetEPNS_10UnicodeSetE
T _ZN7icu_3_812RegexCompile10nextCharLLEv
T _ZN7icu_3_812RegexCompile10peekCharLLEv
T _ZN7icu_3_812RegexCompile11blockTopLocEa
T _ZN7icu_3_812RegexCompile11fixLiteralsEa
T _ZN7icu_3_812RegexCompile11literalCharEi
T _ZN7icu_3_812RegexCompile12emitONE_CHAREi
T _ZN7icu_3_812RegexCompile13scanNamedCharEv
T _ZN7icu_3_812RegexCompile13scanPosixPropEv
T _ZN7icu_3_812RegexCompile14doParseActionsEi
T _ZN7icu_3_812RegexCompile14matchStartTypeEv
T _ZN7icu_3_812RegexCompile14maxMatchLengthEii
T _ZN7icu_3_812RegexCompile14minMatchLengthEii
T _ZN7icu_3_812RegexCompile15compileIntervalEii
T _ZN7icu_3_812RegexCompile16handleCloseParenEv
T _ZN7icu_3_812RegexCompile20createSetForPropertyERKNS_13UnicodeStringEa
T _ZN7icu_3_812RegexCompile21compileInlineIntervalEv
T _ZN7icu_3_812RegexCompile5errorE10UErrorCode
T _ZN7icu_3_812RegexCompile7compileERKNS_13UnicodeStringER11UParseErrorR10UErrorCode
T _ZN7icu_3_812RegexCompile7setEvalEi
T _ZN7icu_3_812RegexCompile8insertOpEi
T _ZN7icu_3_812RegexCompile8nextCharERNS0_16RegexPatternCharE
T _ZN7icu_3_812RegexCompile8scanPropEv
T _ZN7icu_3_812RegexCompile9setPushOpEi
T _ZN7icu_3_812RegexCompile9stripNOPsEv
T _ZN7icu_3_812RegexCompileC1EPNS_12RegexPatternER10UErrorCode
T _ZN7icu_3_812RegexCompileC2EPNS_12RegexPatternER10UErrorCode
T _ZN7icu_3_812RegexCompileD0Ev
T _ZN7icu_3_812RegexCompileD1Ev
T _ZN7icu_3_812RegexCompileD2Ev
T _ZN7icu_3_812RegexMatcher10appendTailERNS_13UnicodeStringE
T _ZN7icu_3_812RegexMatcher10replaceAllERKNS_13UnicodeStringER10UErrorCode
T _ZN7icu_3_812RegexMatcher10resetStackEv
T _ZN7icu_3_812RegexMatcher12replaceFirstERKNS_13UnicodeStringER10UErrorCode
T _ZN7icu_3_812RegexMatcher14isWordBoundaryEi
T _ZN7icu_3_812RegexMatcher15isUWordBoundaryEi
T _ZN7icu_3_812RegexMatcher16getStaticClassIDEv
T _ZN7icu_3_812RegexMatcher17appendReplacementERNS_13UnicodeStringERKS1_R10UErrorCode
T _ZN7icu_3_812RegexMatcher18useAnchoringBoundsEa
T _ZN7icu_3_812RegexMatcher19resetPreserveRegionEv
T _ZN7icu_3_812RegexMatcher20useTransparentBoundsEa
T _ZN7icu_3_812RegexMatcher4findEiR10UErrorCode
T _ZN7icu_3_812RegexMatcher4findEv
T _ZN7icu_3_812RegexMatcher5resetERKNS_13UnicodeStringE
T _ZN7icu_3_812RegexMatcher5resetEiR10UErrorCode
T _ZN7icu_3_812RegexMatcher5resetEv
T _ZN7icu_3_812RegexMatcher5splitERKNS_13UnicodeStringEPS1_iR10UErrorCode
T _ZN7icu_3_812RegexMatcher6regionEiiR10UErrorCode
T _ZN7icu_3_812RegexMatcher7MatchAtEiaR10UErrorCode
T _ZN7icu_3_812RegexMatcher7matchesER10UErrorCode
T _ZN7icu_3_812RegexMatcher7matchesEiR10UErrorCode
T _ZN7icu_3_812RegexMatcher8setTraceEa
T _ZN7icu_3_812RegexMatcher9lookingAtER10UErrorCode
T _ZN7icu_3_812RegexMatcher9lookingAtEiR10UErrorCode
T _ZN7icu_3_812RegexMatcherC1EPKNS_12RegexPatternE
T _ZN7icu_3_812RegexMatcherC1ERKNS_13UnicodeStringES3_jR10UErrorCode
T _ZN7icu_3_812RegexMatcherC1ERKNS_13UnicodeStringEjR10UErrorCode
T _ZN7icu_3_812RegexMatcherC2EPKNS_12RegexPatternE
T _ZN7icu_3_812RegexMatcherC2ERKNS_13UnicodeStringES3_jR10UErrorCode
T _ZN7icu_3_812RegexMatcherC2ERKNS_13UnicodeStringEjR10UErrorCode
T _ZN7icu_3_812RegexMatcherD0Ev
T _ZN7icu_3_812RegexMatcherD1Ev
T _ZN7icu_3_812RegexMatcherD2Ev
T _ZN7icu_3_812RegexPattern16getStaticClassIDEv
T _ZN7icu_3_812RegexPattern3zapEv
T _ZN7icu_3_812RegexPattern4initEv
T _ZN7icu_3_812RegexPattern7compileERKNS_13UnicodeStringER11UParseErrorR10UErrorCode
T _ZN7icu_3_812RegexPattern7compileERKNS_13UnicodeStringEjR10UErrorCode
T _ZN7icu_3_812RegexPattern7compileERKNS_13UnicodeStringEjR11UParseErrorR10UErrorCode
T _ZN7icu_3_812RegexPattern7matchesERKNS_13UnicodeStringES3_R11UParseErrorR10UErrorCode
T _ZN7icu_3_812RegexPatternC1ERKS0_
T _ZN7icu_3_812RegexPatternC1Ev
T _ZN7icu_3_812RegexPatternC2ERKS0_
T _ZN7icu_3_812RegexPatternC2Ev
T _ZN7icu_3_812RegexPatternD0Ev
T _ZN7icu_3_812RegexPatternD1Ev
T _ZN7icu_3_812RegexPatternD2Ev
T _ZN7icu_3_812RegexPatternaSERKS0_
T _ZN7icu_3_812StringSearch10handleNextEiR10UErrorCode
T _ZN7icu_3_812StringSearch10handlePrevEiR10UErrorCode
T _ZN7icu_3_812StringSearch10setPatternERKNS_13UnicodeStringER10UErrorCode
T _ZN7icu_3_812StringSearch11setCollatorEPNS_17RuleBasedCollatorER10UErrorCode
T _ZN7icu_3_812StringSearch16getStaticClassIDEv
T _ZN7icu_3_812StringSearch5resetEv
T _ZN7icu_3_812StringSearch7setTextERKNS_13UnicodeStringER10UErrorCode
T _ZN7icu_3_812StringSearch7setTextERNS_17CharacterIteratorER10UErrorCode
T _ZN7icu_3_812StringSearch9setOffsetEiR10UErrorCode
T _ZN7icu_3_812StringSearchC1ERKNS_13UnicodeStringERNS_17CharacterIteratorEPNS_17RuleBasedCollatorEPNS_13BreakIteratorER10UErrorCode
T _ZN7icu_3_812StringSearchC1ERKNS_13UnicodeStringERNS_17CharacterIteratorERKNS_6LocaleEPNS_13BreakIteratorER10UErrorCode
T _ZN7icu_3_812StringSearchC1ERKNS_13UnicodeStringES3_PNS_17RuleBasedCollatorEPNS_13BreakIteratorER10UErrorCode
T _ZN7icu_3_812StringSearchC1ERKNS_13UnicodeStringES3_RKNS_6LocaleEPNS_13BreakIteratorER10UErrorCode
T _ZN7icu_3_812StringSearchC1ERKS0_
T _ZN7icu_3_812StringSearchC2ERKNS_13UnicodeStringERNS_17CharacterIteratorEPNS_17RuleBasedCollatorEPNS_13BreakIteratorER10UErrorCode
T _ZN7icu_3_812StringSearchC2ERKNS_13UnicodeStringERNS_17CharacterIteratorERKNS_6LocaleEPNS_13BreakIteratorER10UErrorCode
T _ZN7icu_3_812StringSearchC2ERKNS_13UnicodeStringES3_PNS_17RuleBasedCollatorEPNS_13BreakIteratorER10UErrorCode
T _ZN7icu_3_812StringSearchC2ERKNS_13UnicodeStringES3_RKNS_6LocaleEPNS_13BreakIteratorER10UErrorCode
T _ZN7icu_3_812StringSearchC2ERKS0_
T _ZN7icu_3_812StringSearchD0Ev
T _ZN7icu_3_812StringSearchD1Ev
T _ZN7icu_3_812StringSearchD2Ev
T _ZN7icu_3_812StringSearchaSERKS0_
T _ZN7icu_3_812TimeZoneRuleC1ERKNS_13UnicodeStringEii
T _ZN7icu_3_812TimeZoneRuleC1ERKS0_
T _ZN7icu_3_812TimeZoneRuleC2ERKNS_13UnicodeStringEii
T _ZN7icu_3_812TimeZoneRuleC2ERKS0_
T _ZN7icu_3_812TimeZoneRuleD0Ev
T _ZN7icu_3_812TimeZoneRuleD1Ev
T _ZN7icu_3_812TimeZoneRuleD2Ev
T _ZN7icu_3_812TimeZoneRuleaSERKS0_
T _ZN7icu_3_813BasicTimeZone18getOffsetFromLocalEdiiRiS1_R10UErrorCode
T _ZN7icu_3_813BasicTimeZone18getSimpleRulesNearEdRPNS_19InitialTimeZoneRuleERPNS_18AnnualTimeZoneRuleES6_R10UErrorCode
T _ZN7icu_3_813BasicTimeZone21getTimeZoneRulesAfterEdRPNS_19InitialTimeZoneRuleERPNS_7UVectorER10UErrorCode
T _ZN7icu_3_813BasicTimeZone24hasEquivalentTransitionsERS0_ddaR10UErrorCode
T _ZN7icu_3_813BasicTimeZoneC1ERKNS_13UnicodeStringE
T _ZN7icu_3_813BasicTimeZoneC1ERKS0_
T _ZN7icu_3_813BasicTimeZoneC1Ev
T _ZN7icu_3_813BasicTimeZoneC2ERKNS_13UnicodeStringE
T _ZN7icu_3_813BasicTimeZoneC2ERKS0_
T _ZN7icu_3_813BasicTimeZoneC2Ev
T _ZN7icu_3_813BasicTimeZoneD0Ev
T _ZN7icu_3_813BasicTimeZoneD1Ev
T _ZN7icu_3_813BasicTimeZoneD2Ev
U _ZN7icu_3_813BreakIterator18createWordInstanceERKNS_6LocaleER10UErrorCode
T _ZN7icu_3_813CalendarCache11createCacheEPPS0_R10UErrorCode
T _ZN7icu_3_813CalendarCache3getEPPS0_iR10UErrorCode
T _ZN7icu_3_813CalendarCache3putEPPS0_iiR10UErrorCode
T _ZN7icu_3_813CalendarCacheC1EiR10UErrorCode
T _ZN7icu_3_813CalendarCacheC2EiR10UErrorCode
T _ZN7icu_3_813CalendarCacheD0Ev
T _ZN7icu_3_813CalendarCacheD1Ev
T _ZN7icu_3_813CalendarCacheD2Ev
T _ZN7icu_3_813CharacterNode12deleteValuesEv
T _ZN7icu_3_813CharacterNode5clearEv
T _ZN7icu_3_813CharacterNode8addValueEPvR10UErrorCode
T _ZN7icu_3_813DecimalFormat11setCurrencyEPKt
T _ZN7icu_3_813DecimalFormat11setCurrencyEPKtR10UErrorCode
T _ZN7icu_3_813DecimalFormat12applyPatternERKNS_13UnicodeStringER10UErrorCode
T _ZN7icu_3_813DecimalFormat12applyPatternERKNS_13UnicodeStringER11UParseErrorR10UErrorCode
T _ZN7icu_3_813DecimalFormat12applyPatternERKNS_13UnicodeStringEaR11UParseErrorR10UErrorCode
T _ZN7icu_3_813DecimalFormat13expandAffixesEv
T _ZN7icu_3_813DecimalFormat13setMultiplierEi
T _ZN7icu_3_813DecimalFormat14setFormatWidthEi
T _ZN7icu_3_813DecimalFormat14setPadPositionENS0_12EPadPositionE
T _ZN7icu_3_813DecimalFormat15setGroupingSizeEi
T _ZN7icu_3_813DecimalFormat15setPadCharacterERKNS_13UnicodeStringE
T _ZN7icu_3_813DecimalFormat15setRoundingModeENS0_13ERoundingModeE
T _ZN7icu_3_813DecimalFormat15skipUWhiteSpaceERKNS_13UnicodeStringEi
R _ZN7icu_3_813DecimalFormat16fgNumberPatternsE
T _ZN7icu_3_813DecimalFormat16getStaticClassIDEv
T _ZN7icu_3_813DecimalFormat17setNegativePrefixERKNS_13UnicodeStringE
T _ZN7icu_3_813DecimalFormat17setNegativeSuffixERKNS_13UnicodeStringE
T _ZN7icu_3_813DecimalFormat17setPositivePrefixERKNS_13UnicodeStringE
T _ZN7icu_3_813DecimalFormat17setPositiveSuffixERKNS_13UnicodeStringE
T _ZN7icu_3_813DecimalFormat18compareSimpleAffixERKNS_13UnicodeStringES3_i
T _ZN7icu_3_813DecimalFormat18skipRuleWhiteSpaceERKNS_13UnicodeStringEi
T _ZN7icu_3_813DecimalFormat20isScientificNotationEv
R _ZN7icu_3_813DecimalFormat20kDoubleIntegerDigitsE
T _ZN7icu_3_813DecimalFormat20setRoundingIncrementEd
T _ZN7icu_3_813DecimalFormat21applyLocalizedPatternERKNS_13UnicodeStringER10UErrorCode
T _ZN7icu_3_813DecimalFormat21applyLocalizedPatternERKNS_13UnicodeStringER11UParseErrorR10UErrorCode
R _ZN7icu_3_813DecimalFormat21kDoubleFractionDigitsE
T _ZN7icu_3_813DecimalFormat21setCurrencyForSymbolsEv
T _ZN7icu_3_813DecimalFormat21setScientificNotationEa
T _ZN7icu_3_813DecimalFormat23setDecimalFormatSymbolsERKNS_20DecimalFormatSymbolsE
T _ZN7icu_3_813DecimalFormat23setMaximumIntegerDigitsEi
T _ZN7icu_3_813DecimalFormat23setMinimumIntegerDigitsEi
T _ZN7icu_3_813DecimalFormat24setMaximumFractionDigitsEi
T _ZN7icu_3_813DecimalFormat24setMinimumExponentDigitsEa
T _ZN7icu_3_813DecimalFormat24setMinimumFractionDigitsEi
T _ZN7icu_3_813DecimalFormat24setSecondaryGroupingSizeEi
T _ZN7icu_3_813DecimalFormat24setSignificantDigitsUsedEa
T _ZN7icu_3_813DecimalFormat25adoptDecimalFormatSymbolsEPNS_20DecimalFormatSymbolsE
T _ZN7icu_3_813DecimalFormat25isExponentSignAlwaysShownEv
T _ZN7icu_3_813DecimalFormat26setExponentSignAlwaysShownEa
R _ZN7icu_3_813DecimalFormat27kMaxScientificIntegerDigitsE
T _ZN7icu_3_813DecimalFormat27setMaximumSignificantDigitsEi
T _ZN7icu_3_813DecimalFormat27setMinimumSignificantDigitsEi
T _ZN7icu_3_813DecimalFormat30setDecimalSeparatorAlwaysShownEa
T _ZN7icu_3_813DecimalFormat5matchERKNS_13UnicodeStringEiS3_
T _ZN7icu_3_813DecimalFormat5matchERKNS_13UnicodeStringEii
T _ZN7icu_3_813DecimalFormat5roundEdNS0_13ERoundingModeEa
T _ZN7icu_3_813DecimalFormat9constructER10UErrorCodeR11UParseErrorPKNS_13UnicodeStringEPNS_20DecimalFormatSymbolsE
T _ZN7icu_3_813DecimalFormatC1ER10UErrorCode
T _ZN7icu_3_813DecimalFormatC1ERKNS_13UnicodeStringEPNS_20DecimalFormatSymbolsER10UErrorCode
T _ZN7icu_3_813DecimalFormatC1ERKNS_13UnicodeStringEPNS_20DecimalFormatSymbolsER11UParseErrorR10UErrorCode
T _ZN7icu_3_813DecimalFormatC1ERKNS_13UnicodeStringER10UErrorCode
T _ZN7icu_3_813DecimalFormatC1ERKNS_13UnicodeStringERKNS_20DecimalFormatSymbolsER10UErrorCode
T _ZN7icu_3_813DecimalFormatC1ERKS0_
T _ZN7icu_3_813DecimalFormatC2ER10UErrorCode
T _ZN7icu_3_813DecimalFormatC2ERKNS_13UnicodeStringEPNS_20DecimalFormatSymbolsER10UErrorCode
T _ZN7icu_3_813DecimalFormatC2ERKNS_13UnicodeStringEPNS_20DecimalFormatSymbolsER11UParseErrorR10UErrorCode
T _ZN7icu_3_813DecimalFormatC2ERKNS_13UnicodeStringER10UErrorCode
T _ZN7icu_3_813DecimalFormatC2ERKNS_13UnicodeStringERKNS_20DecimalFormatSymbolsER10UErrorCode
T _ZN7icu_3_813DecimalFormatC2ERKS0_
T _ZN7icu_3_813DecimalFormatD0Ev
T _ZN7icu_3_813DecimalFormatD1Ev
T _ZN7icu_3_813DecimalFormatD2Ev
T _ZN7icu_3_813DecimalFormataSERKS0_
T _ZN7icu_3_813FieldPosition16getStaticClassIDEv
T _ZN7icu_3_813FieldPositionD0Ev
T _ZN7icu_3_813FieldPositionD1Ev
T _ZN7icu_3_813FieldPositionD2Ev
T _ZN7icu_3_813LocDataParser10nextStringEv
T _ZN7icu_3_813LocDataParser10parseErrorEPKc
T _ZN7icu_3_813LocDataParser5parseEPti
T _ZN7icu_3_813LocDataParser7doParseEv
T _ZN7icu_3_813LocDataParser9nextArrayERi
T _ZN7icu_3_813MeasureFormat20createCurrencyFormatER10UErrorCode
T _ZN7icu_3_813MeasureFormat20createCurrencyFormatERKNS_6LocaleER10UErrorCode
T _ZN7icu_3_813MeasureFormatC1Ev
T _ZN7icu_3_813MeasureFormatC2Ev
T _ZN7icu_3_813MessageFormat10makeFormatEiPNS_13UnicodeStringER11UParseErrorR10UErrorCode
T _ZN7icu_3_813MessageFormat10setFormatsEPPKNS_6FormatEi
T _ZN7icu_3_813MessageFormat11adoptFormatEiPNS_6FormatE
T _ZN7icu_3_813MessageFormat11findKeywordERKNS_13UnicodeStringEPKPKt
T _ZN7icu_3_813MessageFormat12adoptFormatsEPPNS_6FormatEi
T _ZN7icu_3_813MessageFormat12applyPatternERKNS_13UnicodeStringER10UErrorCode
T _ZN7icu_3_813MessageFormat12applyPatternERKNS_13UnicodeStringER11UParseErrorR10UErrorCode
T _ZN7icu_3_813MessageFormat16allocateArgTypesEi
T _ZN7icu_3_813MessageFormat16copyAndFixQuotesERKNS_13UnicodeStringEiiRS1_
T _ZN7icu_3_813MessageFormat16getStaticClassIDEv
T _ZN7icu_3_813MessageFormat18allocateSubformatsEi
T _ZN7icu_3_813MessageFormat19autoQuoteApostropheERKNS_13UnicodeStringER10UErrorCode
T _ZN7icu_3_813MessageFormat6formatERKNS_13UnicodeStringEPKNS_11FormattableEiRS1_R10UErrorCode
T _ZN7icu_3_813MessageFormat9setFormatEiRKNS_6FormatE
T _ZN7icu_3_813MessageFormat9setLocaleERKNS_6LocaleE
T _ZN7icu_3_813MessageFormatC1ERKNS_13UnicodeStringER10UErrorCode
T _ZN7icu_3_813MessageFormatC1ERKNS_13UnicodeStringERKNS_6LocaleER10UErrorCode
T _ZN7icu_3_813MessageFormatC1ERKNS_13UnicodeStringERKNS_6LocaleER11UParseErrorR10UErrorCode
T _ZN7icu_3_813MessageFormatC1ERKS0_
T _ZN7icu_3_813MessageFormatC2ERKNS_13UnicodeStringER10UErrorCode
T _ZN7icu_3_813MessageFormatC2ERKNS_13UnicodeStringERKNS_6LocaleER10UErrorCode
T _ZN7icu_3_813MessageFormatC2ERKNS_13UnicodeStringERKNS_6LocaleER11UParseErrorR10UErrorCode
T _ZN7icu_3_813MessageFormatC2ERKS0_
T _ZN7icu_3_813MessageFormatD0Ev
T _ZN7icu_3_813MessageFormatD1Ev
T _ZN7icu_3_813MessageFormatD2Ev
T _ZN7icu_3_813MessageFormataSERKS0_
T _ZN7icu_3_813OlsonTimeZone12setRawOffsetEi
T _ZN7icu_3_813OlsonTimeZone14constructEmptyEv
T _ZN7icu_3_813OlsonTimeZone16getStaticClassIDEv
T _ZN7icu_3_813OlsonTimeZone16getTimeZoneRulesERPKNS_19InitialTimeZoneRuleEPPKNS_12TimeZoneRuleERiR10UErrorCode
T _ZN7icu_3_813OlsonTimeZone17getNextTransitionEdaRNS_18TimeZoneTransitionE
T _ZN7icu_3_813OlsonTimeZone18getOffsetFromLocalEdiiRiS1_R10UErrorCode
T _ZN7icu_3_813OlsonTimeZone19initTransitionRulesER10UErrorCode
T _ZN7icu_3_813OlsonTimeZone20clearTransitionRulesEv
T _ZN7icu_3_813OlsonTimeZone20countTransitionRulesER10UErrorCode
T _ZN7icu_3_813OlsonTimeZone21deleteTransitionRulesEv
T _ZN7icu_3_813OlsonTimeZone21getPreviousTransitionEdaRNS_18TimeZoneTransitionE
T _ZN7icu_3_813OlsonTimeZoneC1EPK15UResourceBundleS3_R10UErrorCode
T _ZN7icu_3_813OlsonTimeZoneC1ERKS0_
T _ZN7icu_3_813OlsonTimeZoneC2EPK15UResourceBundleS3_R10UErrorCode
T _ZN7icu_3_813OlsonTimeZoneC2ERKS0_
T _ZN7icu_3_813OlsonTimeZoneD0Ev
T _ZN7icu_3_813OlsonTimeZoneD1Ev
T _ZN7icu_3_813OlsonTimeZoneD2Ev
T _ZN7icu_3_813OlsonTimeZoneaSERKS0_
U _ZN7icu_3_813ParsePositionD1Ev
T _ZN7icu_3_813TZEnumeration16getStaticClassIDEv
U _ZN7icu_3_813UnicodeString10setToBogusEv
U _ZN7icu_3_813UnicodeString12fastCopyFromERKS0_
U _ZN7icu_3_813UnicodeString13releaseBufferEi
U _ZN7icu_3_813UnicodeString18cloneArrayIfNeededEiiaPPia
U _ZN7icu_3_813UnicodeString4trimEv
U _ZN7icu_3_813UnicodeString5setToEPtii
U _ZN7icu_3_813UnicodeString5setToEaPKti
U _ZN7icu_3_813UnicodeString7toLowerERKNS_6LocaleE
U _ZN7icu_3_813UnicodeString7toUpperEv
U _ZN7icu_3_813UnicodeString7unBogusEv
U _ZN7icu_3_813UnicodeString8foldCaseEj
U _ZN7icu_3_813UnicodeString9doReplaceEiiPKtii
U _ZN7icu_3_813UnicodeString9doReplaceEiiRKS0_ii
U _ZN7icu_3_813UnicodeString9getBufferEi
U _ZN7icu_3_813UnicodeString9setCharAtEit
U _ZN7icu_3_813UnicodeStringC1EPKcS2_
U _ZN7icu_3_813UnicodeStringC1EPKciNS0_10EInvariantE
U _ZN7icu_3_813UnicodeStringC1EPKt
U _ZN7icu_3_813UnicodeStringC1EPKti
U _ZN7icu_3_813UnicodeStringC1EPtii
U _ZN7icu_3_813UnicodeStringC1ERKS0_
U _ZN7icu_3_813UnicodeStringC1ERKS0_i
U _ZN7icu_3_813UnicodeStringC1ERKS0_ii
U _ZN7icu_3_813UnicodeStringC1EaPKti
U _ZN7icu_3_813UnicodeStringC1Ei
U _ZN7icu_3_813UnicodeStringC1Et
U _ZN7icu_3_813UnicodeStringC1Ev
U _ZN7icu_3_813UnicodeStringD1Ev
U _ZN7icu_3_813UnicodeStringaSERKS0_
T _ZN7icu_3_813ZSFCacheEntry19getZoneStringFormatEv
T _ZN7icu_3_813ZSFCacheEntry6delRefEv
T _ZN7icu_3_813ZSFCacheEntryC1ERKNS_6LocaleEPNS_16ZoneStringFormatEPS0_
T _ZN7icu_3_813ZSFCacheEntryC2ERKNS_6LocaleEPNS_16ZoneStringFormatEPS0_
T _ZN7icu_3_813ZSFCacheEntryD1Ev
T _ZN7icu_3_813ZSFCacheEntryD2Ev
T _ZN7icu_3_814CurrencyAmount16getStaticClassIDEv
T _ZN7icu_3_814CurrencyAmountC1ERKNS_11FormattableEPKtR10UErrorCode
T _ZN7icu_3_814CurrencyAmountC1ERKS0_
T _ZN7icu_3_814CurrencyAmountC1EdPKtR10UErrorCode
T _ZN7icu_3_814CurrencyAmountC2ERKNS_11FormattableEPKtR10UErrorCode
T _ZN7icu_3_814CurrencyAmountC2ERKS0_
T _ZN7icu_3_814CurrencyAmountC2EdPKtR10UErrorCode
T _ZN7icu_3_814CurrencyAmountD0Ev
T _ZN7icu_3_814CurrencyAmountD1Ev
T _ZN7icu_3_814CurrencyAmountD2Ev
T _ZN7icu_3_814CurrencyAmountaSERKS0_
T _ZN7icu_3_814CurrencyFormat16getStaticClassIDEv
T _ZN7icu_3_814CurrencyFormatC1ERKNS_6LocaleER10UErrorCode
T _ZN7icu_3_814CurrencyFormatC1ERKS0_
T _ZN7icu_3_814CurrencyFormatC2ERKNS_6LocaleER10UErrorCode
T _ZN7icu_3_814CurrencyFormatC2ERKS0_
T _ZN7icu_3_814CurrencyFormatD0Ev
T _ZN7icu_3_814CurrencyFormatD1Ev
T _ZN7icu_3_814CurrencyFormatD2Ev
T _ZN7icu_3_814HebrewCalendar10isLeapYearEi
T _ZN7icu_3_814HebrewCalendar11startOfYearEiR10UErrorCode
T _ZN7icu_3_814HebrewCalendar12monthsInYearEi
T _ZN7icu_3_814HebrewCalendar16getStaticClassIDEv
T _ZN7icu_3_814HebrewCalendar19handleComputeFieldsEiR10UErrorCode
T _ZN7icu_3_814HebrewCalendar21handleGetExtendedYearEv
T _ZN7icu_3_814HebrewCalendar22absoluteDayToDayOfWeekEi
R _ZN7icu_3_814HebrewCalendar22fgSystemDefaultCenturyE
R _ZN7icu_3_814HebrewCalendar26fgSystemDefaultCenturyYearE
D _ZN7icu_3_814HebrewCalendar27fgSystemDefaultCenturyStartE
T _ZN7icu_3_814HebrewCalendar30initializeSystemDefaultCenturyEv
D _ZN7icu_3_814HebrewCalendar31fgSystemDefaultCenturyStartYearE
T _ZN7icu_3_814HebrewCalendar3addE19UCalendarDateFieldsiR10UErrorCode
T _ZN7icu_3_814HebrewCalendar3addENS_8Calendar11EDateFieldsEiR10UErrorCode
T _ZN7icu_3_814HebrewCalendar4rollE19UCalendarDateFieldsiR10UErrorCode
T _ZN7icu_3_814HebrewCalendar4rollENS_8Calendar11EDateFieldsEiR10UErrorCode
T _ZN7icu_3_814HebrewCalendarC1ERKNS_6LocaleER10UErrorCode
T _ZN7icu_3_814HebrewCalendarC1ERKS0_
T _ZN7icu_3_814HebrewCalendarC2ERKNS_6LocaleER10UErrorCode
T _ZN7icu_3_814HebrewCalendarC2ERKS0_
T _ZN7icu_3_814HebrewCalendarD0Ev
T _ZN7icu_3_814HebrewCalendarD1Ev
T _ZN7icu_3_814HebrewCalendarD2Ev
T _ZN7icu_3_814IndianCalendar16getStaticClassIDEv
T _ZN7icu_3_814IndianCalendar19handleComputeFieldsEiR10UErrorCode
T _ZN7icu_3_814IndianCalendar21handleGetExtendedYearEv
R _ZN7icu_3_814IndianCalendar22fgSystemDefaultCenturyE
R _ZN7icu_3_814IndianCalendar26fgSystemDefaultCenturyYearE
D _ZN7icu_3_814IndianCalendar27fgSystemDefaultCenturyStartE
T _ZN7icu_3_814IndianCalendar30initializeSystemDefaultCenturyEv
D _ZN7icu_3_814IndianCalendar31fgSystemDefaultCenturyStartYearE
T _ZN7icu_3_814IndianCalendarC1ERKNS_6LocaleER10UErrorCode
T _ZN7icu_3_814IndianCalendarC1ERKS0_
T _ZN7icu_3_814IndianCalendarC2ERKNS_6LocaleER10UErrorCode
T _ZN7icu_3_814IndianCalendarC2ERKS0_
T _ZN7icu_3_814IndianCalendarD0Ev
T _ZN7icu_3_814IndianCalendarD1Ev
T _ZN7icu_3_814IndianCalendarD2Ev
T _ZN7icu_3_814NFSubstitution10setDivisorEiiR10UErrorCode
T _ZN7icu_3_814NFSubstitution16getStaticClassIDEv
T _ZN7icu_3_814NFSubstitution16makeSubstitutionEiPKNS_6NFRuleES3_PKNS_9NFRuleSetEPKNS_21RuleBasedNumberFormatERKNS_13UnicodeStringER10UErrorCode
T _ZN7icu_3_814NFSubstitutionC1EiPKNS_9NFRuleSetEPKNS_21RuleBasedNumberFormatERKNS_13UnicodeStringER10UErrorCode
T _ZN7icu_3_814NFSubstitutionC2EiPKNS_9NFRuleSetEPKNS_21RuleBasedNumberFormatERKNS_13UnicodeStringER10UErrorCode
T _ZN7icu_3_814NFSubstitutionD0Ev
T _ZN7icu_3_814NFSubstitutionD1Ev
T _ZN7icu_3_814NFSubstitutionD2Ev
T _ZN7icu_3_814SearchIterator12setAttributeE16USearchAttribute21USearchAttributeValueR10UErrorCode
T _ZN7icu_3_814SearchIterator13setMatchStartEi
T _ZN7icu_3_814SearchIterator14setMatchLengthEi
T _ZN7icu_3_814SearchIterator16setBreakIteratorEPNS_13BreakIteratorER10UErrorCode
T _ZN7icu_3_814SearchIterator16setMatchNotFoundEv
T _ZN7icu_3_814SearchIterator4lastER10UErrorCode
T _ZN7icu_3_814SearchIterator4nextER10UErrorCode
T _ZN7icu_3_814SearchIterator5firstER10UErrorCode
T _ZN7icu_3_814SearchIterator5resetEv
T _ZN7icu_3_814SearchIterator7setTextERKNS_13UnicodeStringER10UErrorCode
T _ZN7icu_3_814SearchIterator7setTextERNS_17CharacterIteratorER10UErrorCode
T _ZN7icu_3_814SearchIterator8previousER10UErrorCode
T _ZN7icu_3_814SearchIterator9followingEiR10UErrorCode
T _ZN7icu_3_814SearchIterator9precedingEiR10UErrorCode
T _ZN7icu_3_814SearchIteratorC1ERKNS_13UnicodeStringEPNS_13BreakIteratorE
T _ZN7icu_3_814SearchIteratorC1ERKS0_
T _ZN7icu_3_814SearchIteratorC1ERNS_17CharacterIteratorEPNS_13BreakIteratorE
T _ZN7icu_3_814SearchIteratorC1Ev
T _ZN7icu_3_814SearchIteratorC2ERKNS_13UnicodeStringEPNS_13BreakIteratorE
T _ZN7icu_3_814SearchIteratorC2ERKS0_
T _ZN7icu_3_814SearchIteratorC2ERNS_17CharacterIteratorEPNS_13BreakIteratorE
T _ZN7icu_3_814SearchIteratorC2Ev
T _ZN7icu_3_814SearchIteratorD0Ev
T _ZN7icu_3_814SearchIteratorD1Ev
T _ZN7icu_3_814SearchIteratorD2Ev
T _ZN7icu_3_814SearchIteratoraSERKS0_
T _ZN7icu_3_814SimpleTimeZone10setEndRuleEiiiNS0_8TimeModeER10UErrorCode
T _ZN7icu_3_814SimpleTimeZone10setEndRuleEiiiiNS0_8TimeModeER10UErrorCode
T _ZN7icu_3_814SimpleTimeZone10setEndRuleEiiiiNS0_8TimeModeEaR10UErrorCode
T _ZN7icu_3_814SimpleTimeZone11decodeRulesER10UErrorCode
T _ZN7icu_3_814SimpleTimeZone12setRawOffsetEi
T _ZN7icu_3_814SimpleTimeZone12setStartRuleEiiiNS0_8TimeModeER10UErrorCode
T _ZN7icu_3_814SimpleTimeZone12setStartRuleEiiiiNS0_8TimeModeER10UErrorCode
T _ZN7icu_3_814SimpleTimeZone12setStartRuleEiiiiNS0_8TimeModeEaR10UErrorCode
T _ZN7icu_3_814SimpleTimeZone12setStartYearEi
T _ZN7icu_3_814SimpleTimeZone13compareToRuleEaaaaaiiNS0_5EModeEaaai
T _ZN7icu_3_814SimpleTimeZone13decodeEndRuleER10UErrorCode
T _ZN7icu_3_814SimpleTimeZone13setDSTSavingsEiR10UErrorCode
T _ZN7icu_3_814SimpleTimeZone15decodeStartRuleER10UErrorCode
T _ZN7icu_3_814SimpleTimeZone16getStaticClassIDEv
T _ZN7icu_3_814SimpleTimeZone16getTimeZoneRulesERPKNS_19InitialTimeZoneRuleEPPKNS_12TimeZoneRuleERiR10UErrorCode
R _ZN7icu_3_814SimpleTimeZone17STATICMONTHLENGTHE
T _ZN7icu_3_814SimpleTimeZone17getNextTransitionEdaRNS_18TimeZoneTransitionE
T _ZN7icu_3_814SimpleTimeZone18getOffsetFromLocalEdiiRiS1_R10UErrorCode
T _ZN7icu_3_814SimpleTimeZone19initTransitionRulesER10UErrorCode
T _ZN7icu_3_814SimpleTimeZone20clearTransitionRulesEv
T _ZN7icu_3_814SimpleTimeZone20countTransitionRulesER10UErrorCode
T _ZN7icu_3_814SimpleTimeZone21deleteTransitionRulesEv
T _ZN7icu_3_814SimpleTimeZone21getPreviousTransitionEdaRNS_18TimeZoneTransitionE
T _ZN7icu_3_814SimpleTimeZone9constructEiaaaiNS0_8TimeModeEaaaiS1_iR10UErrorCode
T _ZN7icu_3_814SimpleTimeZoneC1ERKS0_
T _ZN7icu_3_814SimpleTimeZoneC1EiRKNS_13UnicodeStringE
T _ZN7icu_3_814SimpleTimeZoneC1EiRKNS_13UnicodeStringEaaaiNS0_8TimeModeEaaaiS4_iR10UErrorCode
T _ZN7icu_3_814SimpleTimeZoneC1EiRKNS_13UnicodeStringEaaaiaaaiR10UErrorCode
T _ZN7icu_3_814SimpleTimeZoneC1EiRKNS_13UnicodeStringEaaaiaaaiiR10UErrorCode
T _ZN7icu_3_814SimpleTimeZoneC2ERKS0_
T _ZN7icu_3_814SimpleTimeZoneC2EiRKNS_13UnicodeStringE
T _ZN7icu_3_814SimpleTimeZoneC2EiRKNS_13UnicodeStringEaaaiNS0_8TimeModeEaaaiS4_iR10UErrorCode
T _ZN7icu_3_814SimpleTimeZoneC2EiRKNS_13UnicodeStringEaaaiaaaiR10UErrorCode
T _ZN7icu_3_814SimpleTimeZoneC2EiRKNS_13UnicodeStringEaaaiaaaiiR10UErrorCode
T _ZN7icu_3_814SimpleTimeZoneD0Ev
T _ZN7icu_3_814SimpleTimeZoneD1Ev
T _ZN7icu_3_814SimpleTimeZoneD2Ev
T _ZN7icu_3_814SimpleTimeZoneaSERKS0_
T _ZN7icu_3_814TaiwanCalendar16getStaticClassIDEv
T _ZN7icu_3_814TaiwanCalendar19handleComputeFieldsEiR10UErrorCode
T _ZN7icu_3_814TaiwanCalendar21handleGetExtendedYearEv
R _ZN7icu_3_814TaiwanCalendar22fgSystemDefaultCenturyE
R _ZN7icu_3_814TaiwanCalendar26fgSystemDefaultCenturyYearE
D _ZN7icu_3_814TaiwanCalendar27fgSystemDefaultCenturyStartE
T _ZN7icu_3_814TaiwanCalendar30initializeSystemDefaultCenturyEv
D _ZN7icu_3_814TaiwanCalendar31fgSystemDefaultCenturyStartYearE
T _ZN7icu_3_814TaiwanCalendarC1ERKNS_6LocaleER10UErrorCode
T _ZN7icu_3_814TaiwanCalendarC1ERKS0_
T _ZN7icu_3_814TaiwanCalendarC2ERKNS_6LocaleER10UErrorCode
T _ZN7icu_3_814TaiwanCalendarC2ERKS0_
T _ZN7icu_3_814TaiwanCalendarD0Ev
T _ZN7icu_3_814TaiwanCalendarD1Ev
T _ZN7icu_3_814TaiwanCalendarD2Ev
T _ZN7icu_3_814TaiwanCalendaraSERKS0_
T _ZN7icu_3_814ZoneStringInfoC1ERKNS_13UnicodeStringES3_NS_23TimeZoneTranslationTypeE
T _ZN7icu_3_814ZoneStringInfoC2ERKNS_13UnicodeStringES3_NS_23TimeZoneTranslationTypeE
T _ZN7icu_3_814ZoneStringInfoD0Ev
T _ZN7icu_3_814ZoneStringInfoD1Ev
T _ZN7icu_3_814ZoneStringInfoD2Ev
T _ZN7icu_3_815CharsetDetector14setRecognizersER10UErrorCode
T _ZN7icu_3_815CharsetDetector16setStripTagsFlagEa
T _ZN7icu_3_815CharsetDetector18getDetectableCountEv
T _ZN7icu_3_815CharsetDetector6detectER10UErrorCode
T _ZN7icu_3_815CharsetDetector7setTextEPKci
T _ZN7icu_3_815CharsetDetector9detectAllERiR10UErrorCode
T _ZN7icu_3_815CharsetDetectorC1ER10UErrorCode
T _ZN7icu_3_815CharsetDetectorC2ER10UErrorCode
T _ZN7icu_3_815CharsetDetectorD1Ev
T _ZN7icu_3_815CharsetDetectorD2Ev
T _ZN7icu_3_815DateTimeMatcher10getPatternEv
T _ZN7icu_3_815DateTimeMatcher11getDistanceERKS0_iRNS_12DistanceInfoE
T _ZN7icu_3_815DateTimeMatcher12getFieldMaskEv
T _ZN7icu_3_815DateTimeMatcher14getBasePatternERNS_13UnicodeStringE
T _ZN7icu_3_815DateTimeMatcher14getSkeletonPtrEv
T _ZN7icu_3_815DateTimeMatcher3setERKNS_13UnicodeStringEPNS_12FormatParserE
T _ZN7icu_3_815DateTimeMatcher3setERKNS_13UnicodeStringEPNS_12FormatParserERNS_11PtnSkeletonE
T _ZN7icu_3_815DateTimeMatcher8copyFromERKNS_11PtnSkeletonE
T _ZN7icu_3_815DateTimeMatcher8copyFromEv
T _ZN7icu_3_815DateTimeMatcherC1ERKS0_
T _ZN7icu_3_815DateTimeMatcherC1Ev
T _ZN7icu_3_815DateTimeMatcherC2ERKS0_
T _ZN7icu_3_815DateTimeMatcherC2Ev
T _ZN7icu_3_815IslamicCalendar13civilLeapYearEi
T _ZN7icu_3_815IslamicCalendar16getStaticClassIDEv
T _ZN7icu_3_815IslamicCalendar19handleComputeFieldsEiR10UErrorCode
T _ZN7icu_3_815IslamicCalendar21handleGetExtendedYearEv
R _ZN7icu_3_815IslamicCalendar22fgSystemDefaultCenturyE
R _ZN7icu_3_815IslamicCalendar26fgSystemDefaultCenturyYearE
D _ZN7icu_3_815IslamicCalendar27fgSystemDefaultCenturyStartE
T _ZN7icu_3_815IslamicCalendar30initializeSystemDefaultCenturyEv
D _ZN7icu_3_815IslamicCalendar31fgSystemDefaultCenturyStartYearE
T _ZN7icu_3_815IslamicCalendar7isCivilEv
T _ZN7icu_3_815IslamicCalendar7moonAgeEd
T _ZN7icu_3_815IslamicCalendar8setCivilENS0_6ECivilER10UErrorCode
T _ZN7icu_3_815IslamicCalendar9yearStartEi
T _ZN7icu_3_815IslamicCalendarC1ERKNS_6LocaleER10UErrorCodeNS0_6ECivilE
T _ZN7icu_3_815IslamicCalendarC1ERKS0_
T _ZN7icu_3_815IslamicCalendarC2ERKNS_6LocaleER10UErrorCodeNS0_6ECivilE
T _ZN7icu_3_815IslamicCalendarC2ERKS0_
T _ZN7icu_3_815IslamicCalendarD0Ev
T _ZN7icu_3_815IslamicCalendarD1Ev
T _ZN7icu_3_815IslamicCalendarD2Ev
T _ZN7icu_3_815PersianCalendar10isLeapYearEi
T _ZN7icu_3_815PersianCalendar16getStaticClassIDEv
T _ZN7icu_3_815PersianCalendar19handleComputeFieldsEiR10UErrorCode
T _ZN7icu_3_815PersianCalendar21handleGetExtendedYearEv
T _ZN7icu_3_815PersianCalendar9yearStartEi
T _ZN7icu_3_815PersianCalendarC1ERKNS_6LocaleER10UErrorCode
T _ZN7icu_3_815PersianCalendarC1ERKS0_
T _ZN7icu_3_815PersianCalendarC2ERKNS_6LocaleER10UErrorCode
T _ZN7icu_3_815PersianCalendarC2ERKS0_
T _ZN7icu_3_815PersianCalendarD0Ev
T _ZN7icu_3_815PersianCalendarD1Ev
T _ZN7icu_3_815PersianCalendarD2Ev
B _ZN7icu_3_815RegexStaticSets11gStaticSetsE
T _ZN7icu_3_815RegexStaticSets11initGlobalsEP10UErrorCode
T _ZN7icu_3_815RegexStaticSets7cleanupEv
T _ZN7icu_3_815RegexStaticSetsC1EP10UErrorCode
T _ZN7icu_3_815RegexStaticSetsC2EP10UErrorCode
T _ZN7icu_3_815RegexStaticSetsD1Ev
T _ZN7icu_3_815RegexStaticSetsD2Ev
T _ZN7icu_3_816BuddhistCalendar16getStaticClassIDEv
T _ZN7icu_3_816BuddhistCalendar19handleComputeFieldsEiR10UErrorCode
T _ZN7icu_3_816BuddhistCalendar21handleGetExtendedYearEv
R _ZN7icu_3_816BuddhistCalendar22fgSystemDefaultCenturyE
R _ZN7icu_3_816BuddhistCalendar26fgSystemDefaultCenturyYearE
D _ZN7icu_3_816BuddhistCalendar27fgSystemDefaultCenturyStartE
T _ZN7icu_3_816BuddhistCalendar30initializeSystemDefaultCenturyEv
D _ZN7icu_3_816BuddhistCalendar31fgSystemDefaultCenturyStartYearE
T _ZN7icu_3_816BuddhistCalendarC1ERKNS_6LocaleER10UErrorCode
T _ZN7icu_3_816BuddhistCalendarC1ERKS0_
T _ZN7icu_3_816BuddhistCalendarC2ERKNS_6LocaleER10UErrorCode
T _ZN7icu_3_816BuddhistCalendarC2ERKS0_
T _ZN7icu_3_816BuddhistCalendarD0Ev
T _ZN7icu_3_816BuddhistCalendarD1Ev
T _ZN7icu_3_816BuddhistCalendarD2Ev
T _ZN7icu_3_816BuddhistCalendaraSERKS0_
T _ZN7icu_3_816CharsetRecog_euc8nextCharEPNS_12IteratedCharEPNS_9InputTextE
T _ZN7icu_3_816CharsetRecog_eucD0Ev
T _ZN7icu_3_816CharsetRecog_eucD1Ev
T _ZN7icu_3_816CharsetRecog_eucD2Ev
T _ZN7icu_3_816JapaneseCalendar13getCurrentEraEv
T _ZN7icu_3_816JapaneseCalendar16getStaticClassIDEv
T _ZN7icu_3_816JapaneseCalendar19handleComputeFieldsEiR10UErrorCode
T _ZN7icu_3_816JapaneseCalendar20getDefaultDayInMonthEi
T _ZN7icu_3_816JapaneseCalendar21getDefaultMonthInYearEv
T _ZN7icu_3_816JapaneseCalendar21handleGetExtendedYearEv
T _ZN7icu_3_816JapaneseCalendarC1ERKNS_6LocaleER10UErrorCode
T _ZN7icu_3_816JapaneseCalendarC1ERKS0_
T _ZN7icu_3_816JapaneseCalendarC2ERKNS_6LocaleER10UErrorCode
T _ZN7icu_3_816JapaneseCalendarC2ERKS0_
T _ZN7icu_3_816JapaneseCalendarD0Ev
T _ZN7icu_3_816JapaneseCalendarD1Ev
T _ZN7icu_3_816JapaneseCalendarD2Ev
T _ZN7icu_3_816JapaneseCalendaraSERKS0_
T _ZN7icu_3_816NullSubstitution16getStaticClassIDEv
T _ZN7icu_3_816SimpleDateFormat10initializeERKNS_6LocaleER10UErrorCode
T _ZN7icu_3_816SimpleDateFormat12applyPatternERKNS_13UnicodeStringE
T _ZN7icu_3_816SimpleDateFormat13adoptCalendarEPNS_8CalendarE
T _ZN7icu_3_816SimpleDateFormat16getStaticClassIDEv
T _ZN7icu_3_816SimpleDateFormat16translatePatternERKNS_13UnicodeStringERS1_S3_S3_R10UErrorCode
T _ZN7icu_3_816SimpleDateFormat17initGMTFormattersER10UErrorCode
T _ZN7icu_3_816SimpleDateFormat17initializeSymbolsERKNS_6LocaleEPNS_8CalendarER10UErrorCode
T _ZN7icu_3_816SimpleDateFormat18initializeCalendarEPNS_8TimeZoneERKNS_6LocaleER10UErrorCode
T _ZN7icu_3_816SimpleDateFormat18set2DigitYearStartEdR10UErrorCode
T _ZN7icu_3_816SimpleDateFormat20setDateFormatSymbolsERKNS_17DateFormatSymbolsE
T _ZN7icu_3_816SimpleDateFormat21applyLocalizedPatternERKNS_13UnicodeStringER10UErrorCode
T _ZN7icu_3_816SimpleDateFormat22adoptDateFormatSymbolsEPNS_17DateFormatSymbolsE
T _ZN7icu_3_816SimpleDateFormat24initializeDefaultCenturyEv
T _ZN7icu_3_816SimpleDateFormat26parseAmbiguousDatesAsAfterEdR10UErrorCode
R _ZN7icu_3_816SimpleDateFormat29fgPatternIndexToCalendarFieldE
R _ZN7icu_3_816SimpleDateFormat31fgPatternIndexToDateFormatFieldE
T _ZN7icu_3_816SimpleDateFormat9constructENS_10DateFormat6EStyleES2_RKNS_6LocaleER10UErrorCode
T _ZN7icu_3_816SimpleDateFormat9isNumericEti
T _ZN7icu_3_816SimpleDateFormatC1ENS_10DateFormat6EStyleES2_RKNS_6LocaleER10UErrorCode
T _ZN7icu_3_816SimpleDateFormatC1ER10UErrorCode
T _ZN7icu_3_816SimpleDateFormatC1ERKNS_13UnicodeStringEPNS_17DateFormatSymbolsER10UErrorCode
T _ZN7icu_3_816SimpleDateFormatC1ERKNS_13UnicodeStringER10UErrorCode
T _ZN7icu_3_816SimpleDateFormatC1ERKNS_13UnicodeStringERKNS_17DateFormatSymbolsER10UErrorCode
T _ZN7icu_3_816SimpleDateFormatC1ERKNS_13UnicodeStringERKNS_6LocaleER10UErrorCode
T _ZN7icu_3_816SimpleDateFormatC1ERKNS_6LocaleER10UErrorCode
T _ZN7icu_3_816SimpleDateFormatC1ERKS0_
T _ZN7icu_3_816SimpleDateFormatC2ENS_10DateFormat6EStyleES2_RKNS_6LocaleER10UErrorCode
T _ZN7icu_3_816SimpleDateFormatC2ER10UErrorCode
T _ZN7icu_3_816SimpleDateFormatC2ERKNS_13UnicodeStringEPNS_17DateFormatSymbolsER10UErrorCode
T _ZN7icu_3_816SimpleDateFormatC2ERKNS_13UnicodeStringER10UErrorCode
T _ZN7icu_3_816SimpleDateFormatC2ERKNS_13UnicodeStringERKNS_17DateFormatSymbolsER10UErrorCode
T _ZN7icu_3_816SimpleDateFormatC2ERKNS_13UnicodeStringERKNS_6LocaleER10UErrorCode
T _ZN7icu_3_816SimpleDateFormatC2ERKNS_6LocaleER10UErrorCode
T _ZN7icu_3_816SimpleDateFormatC2ERKS0_
T _ZN7icu_3_816SimpleDateFormatD0Ev
T _ZN7icu_3_816SimpleDateFormatD1Ev
T _ZN7icu_3_816SimpleDateFormatD2Ev
T _ZN7icu_3_816SimpleDateFormataSERKS0_
T _ZN7icu_3_816ZoneStringFormat14isCommonlyUsedEPK15UResourceBundle
T _ZN7icu_3_816ZoneStringFormat15getRegionFormatERKNS_6LocaleER10UErrorCode
T _ZN7icu_3_816ZoneStringFormat17getFallbackFormatERKNS_6LocaleER10UErrorCode
T _ZN7icu_3_816ZoneStringFormat19getLocalizedCountryERKNS_13UnicodeStringERKNS_6LocaleERS1_
T _ZN7icu_3_816ZoneStringFormat19getZoneStringFormatERKNS_6LocaleER10UErrorCode
T _ZN7icu_3_816ZoneStringFormat23getZoneStringFromBundleEPK15UResourceBundlePKc
T _ZN7icu_3_816ZoneStringFormatC1EPKPKNS_13UnicodeStringEiiR10UErrorCode
T _ZN7icu_3_816ZoneStringFormatC1ERKNS_6LocaleER10UErrorCode
T _ZN7icu_3_816ZoneStringFormatC2EPKPKNS_13UnicodeStringEiiR10UErrorCode
T _ZN7icu_3_816ZoneStringFormatC2ERKNS_6LocaleER10UErrorCode
T _ZN7icu_3_816ZoneStringFormatD0Ev
T _ZN7icu_3_816ZoneStringFormatD1Ev
T _ZN7icu_3_816ZoneStringFormatD2Ev
U _ZN7icu_3_817CanonicalIterator4nextEv
U _ZN7icu_3_817CanonicalIterator9setSourceERKNS_13UnicodeStringER10UErrorCode
U _ZN7icu_3_817CanonicalIteratorC1ERKNS_13UnicodeStringER10UErrorCode
U _ZN7icu_3_817CanonicalIteratorD1Ev
T _ZN7icu_3_817CharsetRecog_202210match_2022EPKhiPA5_S1_i
T _ZN7icu_3_817CharsetRecog_2022D0Ev
T _ZN7icu_3_817CharsetRecog_2022D1Ev
T _ZN7icu_3_817CharsetRecog_2022D2Ev
T _ZN7icu_3_817CharsetRecog_UTF85matchEPNS_9InputTextE
T _ZN7icu_3_817CharsetRecog_UTF8D0Ev
T _ZN7icu_3_817CharsetRecog_UTF8D1Ev
T _ZN7icu_3_817CharsetRecog_UTF8D2Ev
T _ZN7icu_3_817CharsetRecog_big55matchEPNS_9InputTextE
T _ZN7icu_3_817CharsetRecog_big58nextCharEPNS_12IteratedCharEPNS_9InputTextE
T _ZN7icu_3_817CharsetRecog_big5D0Ev
T _ZN7icu_3_817CharsetRecog_big5D1Ev
T _ZN7icu_3_817CharsetRecog_big5D2Ev
T _ZN7icu_3_817CharsetRecog_mbcs10match_mbcsEPNS_9InputTextEPKii
T _ZN7icu_3_817CharsetRecog_mbcsD0Ev
T _ZN7icu_3_817CharsetRecog_mbcsD1Ev
T _ZN7icu_3_817CharsetRecog_mbcsD2Ev
T _ZN7icu_3_817CharsetRecog_sbcs10match_sbcsEPNS_9InputTextEPKiPKh
T _ZN7icu_3_817CharsetRecog_sbcsC1Ev
T _ZN7icu_3_817CharsetRecog_sbcsC2Ev
T _ZN7icu_3_817CharsetRecog_sbcsD0Ev
T _ZN7icu_3_817CharsetRecog_sbcsD1Ev
T _ZN7icu_3_817CharsetRecog_sbcsD2Ev
T _ZN7icu_3_817CharsetRecog_sjis5matchEPNS_9InputTextE
T _ZN7icu_3_817CharsetRecog_sjis8nextCharEPNS_12IteratedCharEPNS_9InputTextE
T _ZN7icu_3_817CharsetRecog_sjisD0Ev
T _ZN7icu_3_817CharsetRecog_sjisD1Ev
T _ZN7icu_3_817CharsetRecog_sjisD2Ev
T _ZN7icu_3_817CharsetRecognizerD0Ev
T _ZN7icu_3_817CharsetRecognizerD1Ev
T _ZN7icu_3_817CharsetRecognizerD2Ev
T _ZN7icu_3_817DateFormatSymbols11assignArrayERPNS_13UnicodeStringERiPKS1_i
T _ZN7icu_3_817DateFormatSymbols11setEraNamesEPKNS_13UnicodeStringEi
T _ZN7icu_3_817DateFormatSymbols11setQuartersEPKNS_13UnicodeStringEiNS0_13DtContextTypeENS0_11DtWidthTypeE
T _ZN7icu_3_817DateFormatSymbols11setWeekdaysEPKNS_13UnicodeStringEi
T _ZN7icu_3_817DateFormatSymbols11setWeekdaysEPKNS_13UnicodeStringEiNS0_13DtContextTypeENS0_11DtWidthTypeE
T _ZN7icu_3_817DateFormatSymbols12arrayCompareEPKNS_13UnicodeStringES3_i
T _ZN7icu_3_817DateFormatSymbols14initializeDataERKNS_6LocaleEPKcR10UErrorCodea
T _ZN7icu_3_817DateFormatSymbols14setAmPmStringsEPKNS_13UnicodeStringEi
T _ZN7icu_3_817DateFormatSymbols14setShortMonthsEPKNS_13UnicodeStringEi
T _ZN7icu_3_817DateFormatSymbols14setZoneStringsEPKPKNS_13UnicodeStringEii
T _ZN7icu_3_817DateFormatSymbols16getPatternUCharsEv
T _ZN7icu_3_817DateFormatSymbols16getStaticClassIDEv
T _ZN7icu_3_817DateFormatSymbols16setShortWeekdaysEPKNS_13UnicodeStringEi
T _ZN7icu_3_817DateFormatSymbols17createZoneStringsEPKPKNS_13UnicodeStringE
T _ZN7icu_3_817DateFormatSymbols18disposeZoneStringsEv
T _ZN7icu_3_817DateFormatSymbols20initZoneStringFormatEv
T _ZN7icu_3_817DateFormatSymbols20initZoneStringsArrayEv
T _ZN7icu_3_817DateFormatSymbols20setLocalPatternCharsERKNS_13UnicodeStringE
T _ZN7icu_3_817DateFormatSymbols7disposeEv
T _ZN7icu_3_817DateFormatSymbols7setErasEPKNS_13UnicodeStringEi
T _ZN7icu_3_817DateFormatSymbols8copyDataERKS0_
T _ZN7icu_3_817DateFormatSymbols9setMonthsEPKNS_13UnicodeStringEi
T _ZN7icu_3_817DateFormatSymbols9setMonthsEPKNS_13UnicodeStringEiNS0_13DtContextTypeENS0_11DtWidthTypeE
T _ZN7icu_3_817DateFormatSymbolsC1EPKcR10UErrorCode
T _ZN7icu_3_817DateFormatSymbolsC1ER10UErrorCode
T _ZN7icu_3_817DateFormatSymbolsC1ERKNS_6LocaleEPKcR10UErrorCode
T _ZN7icu_3_817DateFormatSymbolsC1ERKNS_6LocaleER10UErrorCode
T _ZN7icu_3_817DateFormatSymbolsC1ERKS0_
T _ZN7icu_3_817DateFormatSymbolsC2EPKcR10UErrorCode
T _ZN7icu_3_817DateFormatSymbolsC2ER10UErrorCode
T _ZN7icu_3_817DateFormatSymbolsC2ERKNS_6LocaleEPKcR10UErrorCode
T _ZN7icu_3_817DateFormatSymbolsC2ERKNS_6LocaleER10UErrorCode
T _ZN7icu_3_817DateFormatSymbolsC2ERKS0_
T _ZN7icu_3_817DateFormatSymbolsD0Ev
T _ZN7icu_3_817DateFormatSymbolsD1Ev
T _ZN7icu_3_817DateFormatSymbolsD2Ev
T _ZN7icu_3_817DateFormatSymbolsaSERKS0_
T _ZN7icu_3_817GregorianCalendar11getEpochDayER10UErrorCode
T _ZN7icu_3_817GregorianCalendar13pinDayOfMonthEv
T _ZN7icu_3_817GregorianCalendar14aggregateStampEii
T _ZN7icu_3_817GregorianCalendar16getStaticClassIDEv
T _ZN7icu_3_817GregorianCalendar17julianDayToMillisEd
T _ZN7icu_3_817GregorianCalendar17millisToJulianDayEd
T _ZN7icu_3_817GregorianCalendar18setGregorianChangeEdR10UErrorCode
T _ZN7icu_3_817GregorianCalendar19handleComputeFieldsEiR10UErrorCode
T _ZN7icu_3_817GregorianCalendar21handleGetExtendedYearEv
T _ZN7icu_3_817GregorianCalendar22computeJulianDayOfYearEaiRa
R _ZN7icu_3_817GregorianCalendar22fgSystemDefaultCenturyE
T _ZN7icu_3_817GregorianCalendar22handleComputeJulianDayE19UCalendarDateFields
R _ZN7icu_3_817GregorianCalendar26fgSystemDefaultCenturyYearE
D _ZN7icu_3_817GregorianCalendar27fgSystemDefaultCenturyStartE
T _ZN7icu_3_817GregorianCalendar30initializeSystemDefaultCenturyEv
D _ZN7icu_3_817GregorianCalendar31fgSystemDefaultCenturyStartYearE
T _ZN7icu_3_817GregorianCalendar35handleGetExtendedYearFromWeekFieldsEii
T _ZN7icu_3_817GregorianCalendar4rollE19UCalendarDateFieldsiR10UErrorCode
T _ZN7icu_3_817GregorianCalendar4rollENS_8Calendar11EDateFieldsEiR10UErrorCode
T _ZN7icu_3_817GregorianCalendarC1EPNS_8TimeZoneER10UErrorCode
T _ZN7icu_3_817GregorianCalendarC1EPNS_8TimeZoneERKNS_6LocaleER10UErrorCode
T _ZN7icu_3_817GregorianCalendarC1ER10UErrorCode
T _ZN7icu_3_817GregorianCalendarC1ERKNS_6LocaleER10UErrorCode
T _ZN7icu_3_817GregorianCalendarC1ERKNS_8TimeZoneER10UErrorCode
T _ZN7icu_3_817GregorianCalendarC1ERKNS_8TimeZoneERKNS_6LocaleER10UErrorCode
T _ZN7icu_3_817GregorianCalendarC1ERKS0_
T _ZN7icu_3_817GregorianCalendarC1EiiiR10UErrorCode
T _ZN7icu_3_817GregorianCalendarC1EiiiiiR10UErrorCode
T _ZN7icu_3_817GregorianCalendarC1EiiiiiiR10UErrorCode
T _ZN7icu_3_817GregorianCalendarC2EPNS_8TimeZoneER10UErrorCode
T _ZN7icu_3_817GregorianCalendarC2EPNS_8TimeZoneERKNS_6LocaleER10UErrorCode
T _ZN7icu_3_817GregorianCalendarC2ER10UErrorCode
T _ZN7icu_3_817GregorianCalendarC2ERKNS_6LocaleER10UErrorCode
T _ZN7icu_3_817GregorianCalendarC2ERKNS_8TimeZoneER10UErrorCode
T _ZN7icu_3_817GregorianCalendarC2ERKNS_8TimeZoneERKNS_6LocaleER10UErrorCode
T _ZN7icu_3_817GregorianCalendarC2ERKS0_
T _ZN7icu_3_817GregorianCalendarC2EiiiR10UErrorCode
T _ZN7icu_3_817GregorianCalendarC2EiiiiiR10UErrorCode
T _ZN7icu_3_817GregorianCalendarC2EiiiiiiR10UErrorCode
T _ZN7icu_3_817GregorianCalendarD0Ev
T _ZN7icu_3_817GregorianCalendarD1Ev
T _ZN7icu_3_817GregorianCalendarD2Ev
T _ZN7icu_3_817GregorianCalendaraSERKS0_
T _ZN7icu_3_817RuleBasedCollator10checkOwnedEv
T _ZN7icu_3_817RuleBasedCollator10setLocalesERKNS_6LocaleES3_
T _ZN7icu_3_817RuleBasedCollator11cloneBinaryEPhiR10UErrorCode
T _ZN7icu_3_817RuleBasedCollator11setStrengthENS_8Collator18ECollationStrengthE
T _ZN7icu_3_817RuleBasedCollator12getAttributeE13UColAttributeR10UErrorCode
T _ZN7icu_3_817RuleBasedCollator12setAttributeE13UColAttribute18UColAttributeValueR10UErrorCode
W _ZN7icu_3_817RuleBasedCollator12setUCollatorEP9UCollator
T _ZN7icu_3_817RuleBasedCollator12setUCollatorEPKcR10UErrorCode
T _ZN7icu_3_817RuleBasedCollator13cloneRuleDataERiR10UErrorCode
T _ZN7icu_3_817RuleBasedCollator14setVariableTopENS_13UnicodeStringER10UErrorCode
T _ZN7icu_3_817RuleBasedCollator14setVariableTopEPKtiR10UErrorCode
T _ZN7icu_3_817RuleBasedCollator14setVariableTopEjR10UErrorCode
T _ZN7icu_3_817RuleBasedCollator16getStaticClassIDEv
T _ZN7icu_3_817RuleBasedCollator25setRuleStringFromCollatorEv
T _ZN7icu_3_817RuleBasedCollator8getRulesE14UColRuleOptionRNS_13UnicodeStringE
T _ZN7icu_3_817RuleBasedCollator9constructERKNS_13UnicodeStringE18UColAttributeValueS4_R10UErrorCode
T _ZN7icu_3_817RuleBasedCollator9safeCloneEv
T _ZN7icu_3_817RuleBasedCollatorC1EPKhiPKS0_R10UErrorCode
T _ZN7icu_3_817RuleBasedCollatorC1ERKNS_13UnicodeStringE18UColAttributeValueR10UErrorCode
T _ZN7icu_3_817RuleBasedCollatorC1ERKNS_13UnicodeStringENS_8Collator18ECollationStrengthE18UColAttributeValueR10UErrorCode
T _ZN7icu_3_817RuleBasedCollatorC1ERKNS_13UnicodeStringENS_8Collator18ECollationStrengthER10UErrorCode
T _ZN7icu_3_817RuleBasedCollatorC1ERKNS_13UnicodeStringER10UErrorCode
T _ZN7icu_3_817RuleBasedCollatorC1ERKNS_6LocaleER10UErrorCode
T _ZN7icu_3_817RuleBasedCollatorC1ERKS0_
T _ZN7icu_3_817RuleBasedCollatorC1Ev
T _ZN7icu_3_817RuleBasedCollatorC2EPKhiPKS0_R10UErrorCode
T _ZN7icu_3_817RuleBasedCollatorC2ERKNS_13UnicodeStringE18UColAttributeValueR10UErrorCode
T _ZN7icu_3_817RuleBasedCollatorC2ERKNS_13UnicodeStringENS_8Collator18ECollationStrengthE18UColAttributeValueR10UErrorCode
T _ZN7icu_3_817RuleBasedCollatorC2ERKNS_13UnicodeStringENS_8Collator18ECollationStrengthER10UErrorCode
T _ZN7icu_3_817RuleBasedCollatorC2ERKNS_13UnicodeStringER10UErrorCode
T _ZN7icu_3_817RuleBasedCollatorC2ERKNS_6LocaleER10UErrorCode
T _ZN7icu_3_817RuleBasedCollatorC2ERKS0_
T _ZN7icu_3_817RuleBasedCollatorC2Ev
T _ZN7icu_3_817RuleBasedCollatorD0Ev
T _ZN7icu_3_817RuleBasedCollatorD1Ev
T _ZN7icu_3_817RuleBasedCollatorD2Ev
T _ZN7icu_3_817RuleBasedCollatoraSERKS0_
T _ZN7icu_3_817RuleBasedTimeZone11deleteRulesEv
T _ZN7icu_3_817RuleBasedTimeZone12setRawOffsetEi
T _ZN7icu_3_817RuleBasedTimeZone16getStaticClassIDEv
T _ZN7icu_3_817RuleBasedTimeZone16getTimeZoneRulesERPKNS_19InitialTimeZoneRuleEPPKNS_12TimeZoneRuleERiR10UErrorCode
T _ZN7icu_3_817RuleBasedTimeZone17addTransitionRuleEPNS_12TimeZoneRuleER10UErrorCode
T _ZN7icu_3_817RuleBasedTimeZone17deleteTransitionsEv
T _ZN7icu_3_817RuleBasedTimeZone17getNextTransitionEdaRNS_18TimeZoneTransitionE
T _ZN7icu_3_817RuleBasedTimeZone18getOffsetFromLocalEdiiRiS1_R10UErrorCode
T _ZN7icu_3_817RuleBasedTimeZone20countTransitionRulesER10UErrorCode
T _ZN7icu_3_817RuleBasedTimeZone21getPreviousTransitionEdaRNS_18TimeZoneTransitionE
T _ZN7icu_3_817RuleBasedTimeZone8completeER10UErrorCode
T _ZN7icu_3_817RuleBasedTimeZone9copyRulesEPNS_7UVectorE
T _ZN7icu_3_817RuleBasedTimeZoneC1ERKNS_13UnicodeStringEPNS_19InitialTimeZoneRuleE
T _ZN7icu_3_817RuleBasedTimeZoneC1ERKS0_
T _ZN7icu_3_817RuleBasedTimeZoneC2ERKNS_13UnicodeStringEPNS_19InitialTimeZoneRuleE
T _ZN7icu_3_817RuleBasedTimeZoneC2ERKS0_
T _ZN7icu_3_817RuleBasedTimeZoneD0Ev
T _ZN7icu_3_817RuleBasedTimeZoneD1Ev
T _ZN7icu_3_817RuleBasedTimeZoneD2Ev
T _ZN7icu_3_817RuleBasedTimeZoneaSERKS0_
U _ZN7icu_3_817StringEnumeration4nextEPiR10UErrorCode
U _ZN7icu_3_817StringEnumeration5unextEPiR10UErrorCode
U _ZN7icu_3_817StringEnumeration8setCharsEPKciR10UErrorCode
U _ZN7icu_3_817StringEnumerationC1Ev
U _ZN7icu_3_817StringEnumerationD1Ev
T _ZN7icu_3_817util64_fromDoubleEd
T _ZN7icu_3_818AnnualTimeZoneRule16getStaticClassIDEv
R _ZN7icu_3_818AnnualTimeZoneRule8MAX_YEARE
T _ZN7icu_3_818AnnualTimeZoneRuleC1ERKNS_13UnicodeStringEiiPNS_12DateTimeRuleEii
T _ZN7icu_3_818AnnualTimeZoneRuleC1ERKNS_13UnicodeStringEiiRKNS_12DateTimeRuleEii
T _ZN7icu_3_818AnnualTimeZoneRuleC1ERKS0_
T _ZN7icu_3_818AnnualTimeZoneRuleC2ERKNS_13UnicodeStringEiiPNS_12DateTimeRuleEii
T _ZN7icu_3_818AnnualTimeZoneRuleC2ERKNS_13UnicodeStringEiiRKNS_12DateTimeRuleEii
T _ZN7icu_3_818AnnualTimeZoneRuleC2ERKS0_
T _ZN7icu_3_818AnnualTimeZoneRuleD0Ev
T _ZN7icu_3_818AnnualTimeZoneRuleD1Ev
T _ZN7icu_3_818AnnualTimeZoneRuleD2Ev
T _ZN7icu_3_818AnnualTimeZoneRuleaSERKS0_
T _ZN7icu_3_818CalendarAstronomer10clearCacheEv
T _ZN7icu_3_818CalendarAstronomer10getMoonAgeEv
T _ZN7icu_3_818CalendarAstronomer10getSunTimeEda
T _ZN7icu_3_818CalendarAstronomer11getMoonTimeERKNS0_7MoonAgeEa
T _ZN7icu_3_818CalendarAstronomer11getMoonTimeEda
T _ZN7icu_3_818CalendarAstronomer11timeOfAngleERNS0_9AngleFuncEddda
T _ZN7icu_3_818CalendarAstronomer11trueAnomalyEdd
T _ZN7icu_3_818CalendarAstronomer12getJulianDayEv
T _ZN7icu_3_818CalendarAstronomer12getMoonPhaseEv
T _ZN7icu_3_818CalendarAstronomer12setJulianDayEd
R _ZN7icu_3_818CalendarAstronomer13SYNODIC_MONTHE
T _ZN7icu_3_818CalendarAstronomer13getSunRiseSetEa
T _ZN7icu_3_818CalendarAstronomer14getMoonRiseSetEa
T _ZN7icu_3_818CalendarAstronomer14getSunPositionERNS0_10EquatorialE
T _ZN7icu_3_818CalendarAstronomer15SUMMER_SOLSTICEEv
T _ZN7icu_3_818CalendarAstronomer15getMoonPositionEv
T _ZN7icu_3_818CalendarAstronomer15getSunLongitudeEdRdS1_
T _ZN7icu_3_818CalendarAstronomer15getSunLongitudeEv
T _ZN7icu_3_818CalendarAstronomer16getJulianCenturyEv
T _ZN7icu_3_818CalendarAstronomer16getLocalSiderealEv
T _ZN7icu_3_818CalendarAstronomer17eclipticObliquityEv
T _ZN7icu_3_818CalendarAstronomer17eclipticToHorizonERNS0_7HorizonEd
T _ZN7icu_3_818CalendarAstronomer17getSiderealOffsetEv
T _ZN7icu_3_818CalendarAstronomer20eclipticToEquatorialERNS0_10EquatorialERKNS0_8EclipticE
T _ZN7icu_3_818CalendarAstronomer20eclipticToEquatorialERNS0_10EquatorialEd
T _ZN7icu_3_818CalendarAstronomer20eclipticToEquatorialERNS0_10EquatorialEdd
T _ZN7icu_3_818CalendarAstronomer20getGreenwichSiderealEv
R _ZN7icu_3_818CalendarAstronomer2PIE
T _ZN7icu_3_818CalendarAstronomer7getTimeEv
T _ZN7icu_3_818CalendarAstronomer7lstToUTEd
T _ZN7icu_3_818CalendarAstronomer7setTimeEd
T _ZN7icu_3_818CalendarAstronomer9AngleFuncD0Ev
T _ZN7icu_3_818CalendarAstronomer9AngleFuncD1Ev
T _ZN7icu_3_818CalendarAstronomer9AngleFuncD2Ev
T _ZN7icu_3_818CalendarAstronomer9CoordFuncD0Ev
T _ZN7icu_3_818CalendarAstronomer9CoordFuncD1Ev
T _ZN7icu_3_818CalendarAstronomer9CoordFuncD2Ev
T _ZN7icu_3_818CalendarAstronomer9FULL_MOONEv
T _ZN7icu_3_818CalendarAstronomer9riseOrSetERNS0_9CoordFuncEaddd
T _ZN7icu_3_818CalendarAstronomerC1Ed
T _ZN7icu_3_818CalendarAstronomerC1Edd
T _ZN7icu_3_818CalendarAstronomerC1Ev
T _ZN7icu_3_818CalendarAstronomerC2Ed
T _ZN7icu_3_818CalendarAstronomerC2Edd
T _ZN7icu_3_818CalendarAstronomerC2Ev
T _ZN7icu_3_818CalendarAstronomerD1Ev
T _ZN7icu_3_818CalendarAstronomerD2Ev
T _ZN7icu_3_818PatternMapIterator11getSkeletonEv
T _ZN7icu_3_818PatternMapIterator3setERNS_10PatternMapE
T _ZN7icu_3_818PatternMapIterator4nextEv
T _ZN7icu_3_818PatternMapIterator7hasNextEv
T _ZN7icu_3_818PatternMapIteratorC1Ev
T _ZN7icu_3_818PatternMapIteratorC2Ev
T _ZN7icu_3_818PatternMapIteratorD0Ev
T _ZN7icu_3_818PatternMapIteratorD1Ev
T _ZN7icu_3_818PatternMapIteratorD2Ev
T _ZN7icu_3_818RelativeDateFormat13dayDifferenceERNS_8CalendarER10UErrorCode
T _ZN7icu_3_818RelativeDateFormat16getStaticClassIDEv
T _ZN7icu_3_818RelativeDateFormat18initializeCalendarEPNS_8TimeZoneERKNS_6LocaleER10UErrorCode
T _ZN7icu_3_818RelativeDateFormat9loadDatesER10UErrorCode
T _ZN7icu_3_818RelativeDateFormatC1E16UDateFormatStyleS1_RKNS_6LocaleER10UErrorCode
T _ZN7icu_3_818RelativeDateFormatC1ERKS0_
T _ZN7icu_3_818RelativeDateFormatC2E16UDateFormatStyleS1_RKNS_6LocaleER10UErrorCode
T _ZN7icu_3_818RelativeDateFormatC2ERKS0_
T _ZN7icu_3_818RelativeDateFormatD0Ev
T _ZN7icu_3_818RelativeDateFormatD1Ev
T _ZN7icu_3_818RelativeDateFormatD2Ev
T _ZN7icu_3_818TimeZoneTransition16getStaticClassIDEv
T _ZN7icu_3_818TimeZoneTransition5setToERKNS_12TimeZoneRuleE
T _ZN7icu_3_818TimeZoneTransition7adoptToEPNS_12TimeZoneRuleE
T _ZN7icu_3_818TimeZoneTransition7setFromERKNS_12TimeZoneRuleE
T _ZN7icu_3_818TimeZoneTransition7setTimeEd
T _ZN7icu_3_818TimeZoneTransition9adoptFromEPNS_12TimeZoneRuleE
T _ZN7icu_3_818TimeZoneTransitionC1ERKS0_
T _ZN7icu_3_818TimeZoneTransitionC1EdRKNS_12TimeZoneRuleES3_
T _ZN7icu_3_818TimeZoneTransitionC1Ev
T _ZN7icu_3_818TimeZoneTransitionC2ERKS0_
T _ZN7icu_3_818TimeZoneTransitionC2EdRKNS_12TimeZoneRuleES3_
T _ZN7icu_3_818TimeZoneTransitionC2Ev
T _ZN7icu_3_818TimeZoneTransitionD0Ev
T _ZN7icu_3_818TimeZoneTransitionD1Ev
T _ZN7icu_3_818TimeZoneTransitionD2Ev
T _ZN7icu_3_818TimeZoneTransitionaSERKS0_
U _ZN7icu_3_818UStringEnumerationC1EP12UEnumeration
T _ZN7icu_3_819CharsetRecog_2022CN5matchEPNS_9InputTextE
T _ZN7icu_3_819CharsetRecog_2022JP5matchEPNS_9InputTextE
T _ZN7icu_3_819CharsetRecog_2022KR5matchEPNS_9InputTextE
T _ZN7icu_3_819CharsetRecog_8859_1D0Ev
T _ZN7icu_3_819CharsetRecog_8859_1D1Ev
T _ZN7icu_3_819CharsetRecog_8859_1D2Ev
T _ZN7icu_3_819CharsetRecog_8859_2D0Ev
T _ZN7icu_3_819CharsetRecog_8859_2D1Ev
T _ZN7icu_3_819CharsetRecog_8859_2D2Ev
T _ZN7icu_3_819CharsetRecog_8859_5D0Ev
T _ZN7icu_3_819CharsetRecog_8859_5D1Ev
T _ZN7icu_3_819CharsetRecog_8859_5D2Ev
T _ZN7icu_3_819CharsetRecog_8859_6D0Ev
T _ZN7icu_3_819CharsetRecog_8859_6D1Ev
T _ZN7icu_3_819CharsetRecog_8859_6D2Ev
T _ZN7icu_3_819CharsetRecog_8859_7D0Ev
T _ZN7icu_3_819CharsetRecog_8859_7D1Ev
T _ZN7icu_3_819CharsetRecog_8859_7D2Ev
T _ZN7icu_3_819CharsetRecog_8859_8D0Ev
T _ZN7icu_3_819CharsetRecog_8859_8D1Ev
T _ZN7icu_3_819CharsetRecog_8859_8D2Ev
T _ZN7icu_3_819CharsetRecog_8859_9D0Ev
T _ZN7icu_3_819CharsetRecog_8859_9D1Ev
T _ZN7icu_3_819CharsetRecog_8859_9D2Ev
T _ZN7icu_3_819CharsetRecog_KOI8_R5matchEPNS_9InputTextE
T _ZN7icu_3_819CharsetRecog_KOI8_RD0Ev
T _ZN7icu_3_819CharsetRecog_KOI8_RD1Ev
T _ZN7icu_3_819CharsetRecog_KOI8_RD2Ev
T _ZN7icu_3_819CharsetRecog_UTF_325matchEPNS_9InputTextE
T _ZN7icu_3_819CharsetRecog_UTF_32D0Ev
T _ZN7icu_3_819CharsetRecog_UTF_32D1Ev
T _ZN7icu_3_819CharsetRecog_UTF_32D2Ev
T _ZN7icu_3_819CharsetRecog_euc_jp5matchEPNS_9InputTextE
T _ZN7icu_3_819CharsetRecog_euc_jpD0Ev
T _ZN7icu_3_819CharsetRecog_euc_jpD1Ev
T _ZN7icu_3_819CharsetRecog_euc_jpD2Ev
T _ZN7icu_3_819CharsetRecog_euc_kr5matchEPNS_9InputTextE
T _ZN7icu_3_819CharsetRecog_euc_krD0Ev
T _ZN7icu_3_819CharsetRecog_euc_krD1Ev
T _ZN7icu_3_819CharsetRecog_euc_krD2Ev
T _ZN7icu_3_819InitialTimeZoneRule16getStaticClassIDEv
T _ZN7icu_3_819InitialTimeZoneRuleC1ERKNS_13UnicodeStringEii
T _ZN7icu_3_819InitialTimeZoneRuleC1ERKS0_
T _ZN7icu_3_819InitialTimeZoneRuleC2ERKNS_13UnicodeStringEii
T _ZN7icu_3_819InitialTimeZoneRuleC2ERKS0_
T _ZN7icu_3_819InitialTimeZoneRuleD0Ev
T _ZN7icu_3_819InitialTimeZoneRuleD1Ev
T _ZN7icu_3_819InitialTimeZoneRuleD2Ev
T _ZN7icu_3_819InitialTimeZoneRuleaSERKS0_
T _ZN7icu_3_819ModulusSubstitution16getStaticClassIDEv
T _ZN7icu_3_819ModulusSubstitutionC1EidPKNS_6NFRuleEPKNS_9NFRuleSetEPKNS_21RuleBasedNumberFormatERKNS_13UnicodeStringER10UErrorCode
T _ZN7icu_3_819ModulusSubstitutionC2EidPKNS_6NFRuleEPKNS_9NFRuleSetEPKNS_21RuleBasedNumberFormatERKNS_13UnicodeStringER10UErrorCode
T _ZN7icu_3_820CharsetRecog_UnicodeD0Ev
T _ZN7icu_3_820CharsetRecog_UnicodeD1Ev
T _ZN7icu_3_820CharsetRecog_UnicodeD2Ev
T _ZN7icu_3_820DecimalFormatSymbols10initializeEPPKtPii
T _ZN7icu_3_820DecimalFormatSymbols10initializeERKNS_6LocaleER10UErrorCodea
T _ZN7icu_3_820DecimalFormatSymbols10initializeEv
T _ZN7icu_3_820DecimalFormatSymbols16getStaticClassIDEv
T _ZN7icu_3_820DecimalFormatSymbolsC1ER10UErrorCode
T _ZN7icu_3_820DecimalFormatSymbolsC1ERKNS_6LocaleER10UErrorCode
T _ZN7icu_3_820DecimalFormatSymbolsC1ERKS0_
T _ZN7icu_3_820DecimalFormatSymbolsC2ER10UErrorCode
T _ZN7icu_3_820DecimalFormatSymbolsC2ERKNS_6LocaleER10UErrorCode
T _ZN7icu_3_820DecimalFormatSymbolsC2ERKS0_
T _ZN7icu_3_820DecimalFormatSymbolsD0Ev
T _ZN7icu_3_820DecimalFormatSymbolsD1Ev
T _ZN7icu_3_820DecimalFormatSymbolsD2Ev
T _ZN7icu_3_820DecimalFormatSymbolsaSERKS0_
T _ZN7icu_3_820MessageFormatAdapter14getArgTypeListERKNS_13MessageFormatERi
T _ZN7icu_3_821CharsetRecog_gb_180305matchEPNS_9InputTextE
T _ZN7icu_3_821CharsetRecog_gb_180308nextCharEPNS_12IteratedCharEPNS_9InputTextE
T _ZN7icu_3_821CharsetRecog_gb_18030D0Ev
T _ZN7icu_3_821CharsetRecog_gb_18030D1Ev
T _ZN7icu_3_821CharsetRecog_gb_18030D2Ev
T _ZN7icu_3_821DTSkeletonEnumeration15isCanonicalItemERKNS_13UnicodeStringE
T _ZN7icu_3_821DTSkeletonEnumeration16getStaticClassIDEv
T _ZN7icu_3_821DTSkeletonEnumeration5resetER10UErrorCode
T _ZN7icu_3_821DTSkeletonEnumeration5snextER10UErrorCode
T _ZN7icu_3_821DTSkeletonEnumerationC1ERNS_10PatternMapENS_9dtStrEnumER10UErrorCode
T _ZN7icu_3_821DTSkeletonEnumerationC2ERNS_10PatternMapENS_9dtStrEnumER10UErrorCode
T _ZN7icu_3_821DTSkeletonEnumerationD0Ev
T _ZN7icu_3_821DTSkeletonEnumerationD1Ev
T _ZN7icu_3_821DTSkeletonEnumerationD2Ev
T _ZN7icu_3_821NumeratorSubstitution16getStaticClassIDEv
R _ZN7icu_3_821NumeratorSubstitution4LTLTE
T _ZN7icu_3_821RuleBasedNumberFormat10setLenientEa
T _ZN7icu_3_821RuleBasedNumberFormat15stripWhitespaceERNS_13UnicodeStringE
T _ZN7icu_3_821RuleBasedNumberFormat16getStaticClassIDEv
T _ZN7icu_3_821RuleBasedNumberFormat17setDefaultRuleSetERKNS_13UnicodeStringER10UErrorCode
T _ZN7icu_3_821RuleBasedNumberFormat18initDefaultRuleSetEv
T _ZN7icu_3_821RuleBasedNumberFormat21getRuleSetDisplayNameERKNS_13UnicodeStringERKNS_6LocaleE
T _ZN7icu_3_821RuleBasedNumberFormat21getRuleSetDisplayNameEiRKNS_6LocaleE
T _ZN7icu_3_821RuleBasedNumberFormat4initERKNS_13UnicodeStringEPNS_16LocalizationInfoER11UParseErrorR10UErrorCode
T _ZN7icu_3_821RuleBasedNumberFormat7disposeEv
T _ZN7icu_3_821RuleBasedNumberFormatC1ENS_15URBNFRuleSetTagERKNS_6LocaleER10UErrorCode
T _ZN7icu_3_821RuleBasedNumberFormatC1ERKNS_13UnicodeStringEPNS_16LocalizationInfoERKNS_6LocaleER11UParseErrorR10UErrorCode
T _ZN7icu_3_821RuleBasedNumberFormatC1ERKNS_13UnicodeStringER11UParseErrorR10UErrorCode
T _ZN7icu_3_821RuleBasedNumberFormatC1ERKNS_13UnicodeStringERKNS_6LocaleER11UParseErrorR10UErrorCode
T _ZN7icu_3_821RuleBasedNumberFormatC1ERKNS_13UnicodeStringES3_R11UParseErrorR10UErrorCode
T _ZN7icu_3_821RuleBasedNumberFormatC1ERKNS_13UnicodeStringES3_RKNS_6LocaleER11UParseErrorR10UErrorCode
T _ZN7icu_3_821RuleBasedNumberFormatC1ERKS0_
T _ZN7icu_3_821RuleBasedNumberFormatC2ENS_15URBNFRuleSetTagERKNS_6LocaleER10UErrorCode
T _ZN7icu_3_821RuleBasedNumberFormatC2ERKNS_13UnicodeStringEPNS_16LocalizationInfoERKNS_6LocaleER11UParseErrorR10UErrorCode
T _ZN7icu_3_821RuleBasedNumberFormatC2ERKNS_13UnicodeStringER11UParseErrorR10UErrorCode
T _ZN7icu_3_821RuleBasedNumberFormatC2ERKNS_13UnicodeStringERKNS_6LocaleER11UParseErrorR10UErrorCode
T _ZN7icu_3_821RuleBasedNumberFormatC2ERKNS_13UnicodeStringES3_R11UParseErrorR10UErrorCode
T _ZN7icu_3_821RuleBasedNumberFormatC2ERKNS_13UnicodeStringES3_RKNS_6LocaleER11UParseErrorR10UErrorCode
T _ZN7icu_3_821RuleBasedNumberFormatC2ERKS0_
T _ZN7icu_3_821RuleBasedNumberFormatD0Ev
T _ZN7icu_3_821RuleBasedNumberFormatD1Ev
T _ZN7icu_3_821RuleBasedNumberFormatD2Ev
T _ZN7icu_3_821RuleBasedNumberFormataSERKS0_
T _ZN7icu_3_821SameValueSubstitution16getStaticClassIDEv
T _ZN7icu_3_821SameValueSubstitutionC1EiPKNS_9NFRuleSetEPKNS_21RuleBasedNumberFormatERKNS_13UnicodeStringER10UErrorCode
T _ZN7icu_3_821SameValueSubstitutionC2EiPKNS_9NFRuleSetEPKNS_21RuleBasedNumberFormatERKNS_13UnicodeStringER10UErrorCode
T _ZN7icu_3_821TimeArrayTimeZoneRule14initStartTimesEPKdiR10UErrorCode
T _ZN7icu_3_821TimeArrayTimeZoneRule16getStaticClassIDEv
T _ZN7icu_3_821TimeArrayTimeZoneRuleC1ERKNS_13UnicodeStringEiiPKdiNS_12DateTimeRule12TimeRuleTypeE
T _ZN7icu_3_821TimeArrayTimeZoneRuleC1ERKS0_
T _ZN7icu_3_821TimeArrayTimeZoneRuleC2ERKNS_13UnicodeStringEiiPKdiNS_12DateTimeRule12TimeRuleTypeE
T _ZN7icu_3_821TimeArrayTimeZoneRuleC2ERKS0_
T _ZN7icu_3_821TimeArrayTimeZoneRuleD0Ev
T _ZN7icu_3_821TimeArrayTimeZoneRuleD1Ev
T _ZN7icu_3_821TimeArrayTimeZoneRuleD2Ev
T _ZN7icu_3_821TimeArrayTimeZoneRuleaSERKS0_
T _ZN7icu_3_822CharsetRecog_8859_1_da5matchEPNS_9InputTextE
T _ZN7icu_3_822CharsetRecog_8859_1_daD0Ev
T _ZN7icu_3_822CharsetRecog_8859_1_daD1Ev
T _ZN7icu_3_822CharsetRecog_8859_1_daD2Ev
T _ZN7icu_3_822CharsetRecog_8859_1_de5matchEPNS_9InputTextE
T _ZN7icu_3_822CharsetRecog_8859_1_deD0Ev
T _ZN7icu_3_822CharsetRecog_8859_1_deD1Ev
T _ZN7icu_3_822CharsetRecog_8859_1_deD2Ev
T _ZN7icu_3_822CharsetRecog_8859_1_en5matchEPNS_9InputTextE
T _ZN7icu_3_822CharsetRecog_8859_1_enD0Ev
T _ZN7icu_3_822CharsetRecog_8859_1_enD1Ev
T _ZN7icu_3_822CharsetRecog_8859_1_enD2Ev
T _ZN7icu_3_822CharsetRecog_8859_1_es5matchEPNS_9InputTextE
T _ZN7icu_3_822CharsetRecog_8859_1_esD0Ev
T _ZN7icu_3_822CharsetRecog_8859_1_esD1Ev
T _ZN7icu_3_822CharsetRecog_8859_1_esD2Ev
T _ZN7icu_3_822CharsetRecog_8859_1_fr5matchEPNS_9InputTextE
T _ZN7icu_3_822CharsetRecog_8859_1_frD0Ev
T _ZN7icu_3_822CharsetRecog_8859_1_frD1Ev
T _ZN7icu_3_822CharsetRecog_8859_1_frD2Ev
T _ZN7icu_3_822CharsetRecog_8859_1_it5matchEPNS_9InputTextE
T _ZN7icu_3_822CharsetRecog_8859_1_itD0Ev
T _ZN7icu_3_822CharsetRecog_8859_1_itD1Ev
T _ZN7icu_3_822CharsetRecog_8859_1_itD2Ev
T _ZN7icu_3_822CharsetRecog_8859_1_nl5matchEPNS_9InputTextE
T _ZN7icu_3_822CharsetRecog_8859_1_nlD0Ev
T _ZN7icu_3_822CharsetRecog_8859_1_nlD1Ev
T _ZN7icu_3_822CharsetRecog_8859_1_nlD2Ev
T _ZN7icu_3_822CharsetRecog_8859_1_no5matchEPNS_9InputTextE
T _ZN7icu_3_822CharsetRecog_8859_1_noD0Ev
T _ZN7icu_3_822CharsetRecog_8859_1_noD1Ev
T _ZN7icu_3_822CharsetRecog_8859_1_noD2Ev
T _ZN7icu_3_822CharsetRecog_8859_1_pt5matchEPNS_9InputTextE
T _ZN7icu_3_822CharsetRecog_8859_1_ptD0Ev
T _ZN7icu_3_822CharsetRecog_8859_1_ptD1Ev
T _ZN7icu_3_822CharsetRecog_8859_1_ptD2Ev
T _ZN7icu_3_822CharsetRecog_8859_1_sv5matchEPNS_9InputTextE
T _ZN7icu_3_822CharsetRecog_8859_1_svD0Ev
T _ZN7icu_3_822CharsetRecog_8859_1_svD1Ev
T _ZN7icu_3_822CharsetRecog_8859_1_svD2Ev
T _ZN7icu_3_822CharsetRecog_8859_2_cs5matchEPNS_9InputTextE
T _ZN7icu_3_822CharsetRecog_8859_2_csD0Ev
T _ZN7icu_3_822CharsetRecog_8859_2_csD1Ev
T _ZN7icu_3_822CharsetRecog_8859_2_csD2Ev
T _ZN7icu_3_822CharsetRecog_8859_2_hu5matchEPNS_9InputTextE
T _ZN7icu_3_822CharsetRecog_8859_2_huD0Ev
T _ZN7icu_3_822CharsetRecog_8859_2_huD1Ev
T _ZN7icu_3_822CharsetRecog_8859_2_huD2Ev
T _ZN7icu_3_822CharsetRecog_8859_2_pl5matchEPNS_9InputTextE
T _ZN7icu_3_822CharsetRecog_8859_2_plD0Ev
T _ZN7icu_3_822CharsetRecog_8859_2_plD1Ev
T _ZN7icu_3_822CharsetRecog_8859_2_plD2Ev
T _ZN7icu_3_822CharsetRecog_8859_2_ro5matchEPNS_9InputTextE
T _ZN7icu_3_822CharsetRecog_8859_2_roD0Ev
T _ZN7icu_3_822CharsetRecog_8859_2_roD1Ev
T _ZN7icu_3_822CharsetRecog_8859_2_roD2Ev
T _ZN7icu_3_822CharsetRecog_8859_5_ru5matchEPNS_9InputTextE
T _ZN7icu_3_822CharsetRecog_8859_5_ruD0Ev
T _ZN7icu_3_822CharsetRecog_8859_5_ruD1Ev
T _ZN7icu_3_822CharsetRecog_8859_5_ruD2Ev
T _ZN7icu_3_822CharsetRecog_8859_6_ar5matchEPNS_9InputTextE
T _ZN7icu_3_822CharsetRecog_8859_6_arD0Ev
T _ZN7icu_3_822CharsetRecog_8859_6_arD1Ev
T _ZN7icu_3_822CharsetRecog_8859_6_arD2Ev
T _ZN7icu_3_822CharsetRecog_8859_7_el5matchEPNS_9InputTextE
T _ZN7icu_3_822CharsetRecog_8859_7_elD0Ev
T _ZN7icu_3_822CharsetRecog_8859_7_elD1Ev
T _ZN7icu_3_822CharsetRecog_8859_7_elD2Ev
T _ZN7icu_3_822CharsetRecog_8859_8_he5matchEPNS_9InputTextE
T _ZN7icu_3_822CharsetRecog_8859_8_heD0Ev
T _ZN7icu_3_822CharsetRecog_8859_8_heD1Ev
T _ZN7icu_3_822CharsetRecog_8859_8_heD2Ev
T _ZN7icu_3_822CharsetRecog_8859_9_tr5matchEPNS_9InputTextE
T _ZN7icu_3_822CharsetRecog_8859_9_trD0Ev
T _ZN7icu_3_822CharsetRecog_8859_9_trD1Ev
T _ZN7icu_3_822CharsetRecog_8859_9_trD2Ev
T _ZN7icu_3_822CharsetRecog_UTF_16_BE5matchEPNS_9InputTextE
T _ZN7icu_3_822CharsetRecog_UTF_16_BED0Ev
T _ZN7icu_3_822CharsetRecog_UTF_16_BED1Ev
T _ZN7icu_3_822CharsetRecog_UTF_16_BED2Ev
T _ZN7icu_3_822CharsetRecog_UTF_16_LE5matchEPNS_9InputTextE
T _ZN7icu_3_822CharsetRecog_UTF_16_LED0Ev
T _ZN7icu_3_822CharsetRecog_UTF_16_LED1Ev
T _ZN7icu_3_822CharsetRecog_UTF_16_LED2Ev
T _ZN7icu_3_822CharsetRecog_UTF_32_BED0Ev
T _ZN7icu_3_822CharsetRecog_UTF_32_BED1Ev
T _ZN7icu_3_822CharsetRecog_UTF_32_BED2Ev
T _ZN7icu_3_822CharsetRecog_UTF_32_LED0Ev
T _ZN7icu_3_822CharsetRecog_UTF_32_LED1Ev
T _ZN7icu_3_822CharsetRecog_UTF_32_LED2Ev
T _ZN7icu_3_822DTRedundantEnumeration15isCanonicalItemERKNS_13UnicodeStringE
T _ZN7icu_3_822DTRedundantEnumeration16getStaticClassIDEv
T _ZN7icu_3_822DTRedundantEnumeration3addERKNS_13UnicodeStringER10UErrorCode
T _ZN7icu_3_822DTRedundantEnumeration5resetER10UErrorCode
T _ZN7icu_3_822DTRedundantEnumeration5snextER10UErrorCode
T _ZN7icu_3_822DTRedundantEnumerationC1Ev
T _ZN7icu_3_822DTRedundantEnumerationC2Ev
T _ZN7icu_3_822DTRedundantEnumerationD0Ev
T _ZN7icu_3_822DTRedundantEnumerationD1Ev
T _ZN7icu_3_822DTRedundantEnumerationD2Ev
T _ZN7icu_3_822MultiplierSubstitution16getStaticClassIDEv
T _ZN7icu_3_822StringLocalizationInfo6createERKNS_13UnicodeStringER11UParseErrorR10UErrorCode
T _ZN7icu_3_822StringLocalizationInfoD0Ev
T _ZN7icu_3_822StringLocalizationInfoD1Ev
T _ZN7icu_3_822StringLocalizationInfoD2Ev
T _ZN7icu_3_823SafeZoneStringFormatPtrC1EPNS_13ZSFCacheEntryE
T _ZN7icu_3_823SafeZoneStringFormatPtrC2EPNS_13ZSFCacheEntryE
T _ZN7icu_3_823SafeZoneStringFormatPtrD1Ev
T _ZN7icu_3_823SafeZoneStringFormatPtrD2Ev
T _ZN7icu_3_824CharsetRecog_8859_8_I_he5matchEPNS_9InputTextE
T _ZN7icu_3_824CharsetRecog_8859_8_I_heD0Ev
T _ZN7icu_3_824CharsetRecog_8859_8_I_heD1Ev
T _ZN7icu_3_824CharsetRecog_8859_8_I_heD2Ev
T _ZN7icu_3_824CollationElementIterator16getStaticClassIDEv
T _ZN7icu_3_824CollationElementIterator4nextER10UErrorCode
T _ZN7icu_3_824CollationElementIterator5resetEv
T _ZN7icu_3_824CollationElementIterator7setTextERKNS_13UnicodeStringER10UErrorCode
T _ZN7icu_3_824CollationElementIterator7setTextERNS_17CharacterIteratorER10UErrorCode
T _ZN7icu_3_824CollationElementIterator8previousER10UErrorCode
T _ZN7icu_3_824CollationElementIterator9setOffsetEiR10UErrorCode
T _ZN7icu_3_824CollationElementIteratorC1ERKNS_13UnicodeStringEPKNS_17RuleBasedCollatorER10UErrorCode
T _ZN7icu_3_824CollationElementIteratorC1ERKNS_17CharacterIteratorEPKNS_17RuleBasedCollatorER10UErrorCode
T _ZN7icu_3_824CollationElementIteratorC1ERKS0_
T _ZN7icu_3_824CollationElementIteratorC2ERKNS_13UnicodeStringEPKNS_17RuleBasedCollatorER10UErrorCode
T _ZN7icu_3_824CollationElementIteratorC2ERKNS_17CharacterIteratorEPKNS_17RuleBasedCollatorER10UErrorCode
T _ZN7icu_3_824CollationElementIteratorC2ERKS0_
T _ZN7icu_3_824CollationElementIteratorD0Ev
T _ZN7icu_3_824CollationElementIteratorD1Ev
T _ZN7icu_3_824CollationElementIteratorD2Ev
T _ZN7icu_3_824CollationElementIteratoraSERKS0_
T _ZN7icu_3_824DateTimePatternGenerator10addPatternERKNS_13UnicodeStringEaRS1_R10UErrorCode
T _ZN7icu_3_824DateTimePatternGenerator10getBestRawERNS_15DateTimeMatcherEiPNS_12DistanceInfoE
T _ZN7icu_3_824DateTimePatternGenerator10setDecimalERKNS_13UnicodeStringE
T _ZN7icu_3_824DateTimePatternGenerator11addCLDRDataERKNS_6LocaleE
T _ZN7icu_3_824DateTimePatternGenerator11getSkeletonERKNS_13UnicodeStringER10UErrorCode
T _ZN7icu_3_824DateTimePatternGenerator13copyHashtableEPNS_9HashtableE
T _ZN7icu_3_824DateTimePatternGenerator13getAppendNameE21UDateTimePatternFieldRNS_13UnicodeStringE
T _ZN7icu_3_824DateTimePatternGenerator13getRedundantsER10UErrorCode
T _ZN7icu_3_824DateTimePatternGenerator13initHashtableER10UErrorCode
T _ZN7icu_3_824DateTimePatternGenerator14addICUPatternsERKNS_6LocaleER10UErrorCode
T _ZN7icu_3_824DateTimePatternGenerator14createInstanceER10UErrorCode
T _ZN7icu_3_824DateTimePatternGenerator14createInstanceERKNS_6LocaleER10UErrorCode
T _ZN7icu_3_824DateTimePatternGenerator14getBestPatternERKNS_13UnicodeStringER10UErrorCode
T _ZN7icu_3_824DateTimePatternGenerator15getBaseSkeletonERKNS_13UnicodeStringER10UErrorCode
T _ZN7icu_3_824DateTimePatternGenerator15getTopBitNumberEi
T _ZN7icu_3_824DateTimePatternGenerator16adjustFieldTypesERKNS_13UnicodeStringEa
T _ZN7icu_3_824DateTimePatternGenerator16getBestAppendingEi
T _ZN7icu_3_824DateTimePatternGenerator16getStaticClassIDEv
T _ZN7icu_3_824DateTimePatternGenerator17addCanonicalItemsEv
T _ZN7icu_3_824DateTimePatternGenerator17replaceFieldTypesERKNS_13UnicodeStringES3_R10UErrorCode
T _ZN7icu_3_824DateTimePatternGenerator17setAppendItemNameE21UDateTimePatternFieldRKNS_13UnicodeStringE
T _ZN7icu_3_824DateTimePatternGenerator17setDateTimeFormatERKNS_13UnicodeStringE
T _ZN7icu_3_824DateTimePatternGenerator17setDecimalSymbolsERKNS_6LocaleER10UErrorCode
T _ZN7icu_3_824DateTimePatternGenerator18setAvailableFormatERKNS_13UnicodeStringER10UErrorCode
T _ZN7icu_3_824DateTimePatternGenerator19createEmptyInstanceER10UErrorCode
T _ZN7icu_3_824DateTimePatternGenerator19setAppendItemFormatE21UDateTimePatternFieldRKNS_13UnicodeStringE
T _ZN7icu_3_824DateTimePatternGenerator23setDateTimeFromCalendarERKNS_6LocaleER10UErrorCode
T _ZN7icu_3_824DateTimePatternGenerator8initDataERKNS_6LocaleE
T _ZN7icu_3_824DateTimePatternGenerator9hackTimesERKNS_13UnicodeStringER10UErrorCode
T _ZN7icu_3_824DateTimePatternGeneratorC1ER10UErrorCode
T _ZN7icu_3_824DateTimePatternGeneratorC1ERKNS_6LocaleER10UErrorCode
T _ZN7icu_3_824DateTimePatternGeneratorC1ERKS0_
T _ZN7icu_3_824DateTimePatternGeneratorC2ER10UErrorCode
T _ZN7icu_3_824DateTimePatternGeneratorC2ERKNS_6LocaleER10UErrorCode
T _ZN7icu_3_824DateTimePatternGeneratorC2ERKS0_
T _ZN7icu_3_824DateTimePatternGeneratorD0Ev
T _ZN7icu_3_824DateTimePatternGeneratorD1Ev
T _ZN7icu_3_824DateTimePatternGeneratorD2Ev
T _ZN7icu_3_824DateTimePatternGeneratoraSERKS0_
T _ZN7icu_3_824IntegralPartSubstitution16getStaticClassIDEv
T _ZN7icu_3_825AbsoluteValueSubstitution16getStaticClassIDEv
T _ZN7icu_3_825CharsetRecog_windows_12515matchEPNS_9InputTextE
T _ZN7icu_3_825CharsetRecog_windows_1251D0Ev
T _ZN7icu_3_825CharsetRecog_windows_1251D1Ev
T _ZN7icu_3_825CharsetRecog_windows_1251D2Ev
T _ZN7icu_3_825CharsetRecog_windows_12565matchEPNS_9InputTextE
T _ZN7icu_3_825CharsetRecog_windows_1256D0Ev
T _ZN7icu_3_825CharsetRecog_windows_1256D1Ev
T _ZN7icu_3_825CharsetRecog_windows_1256D2Ev
W _ZN7icu_3_825ures_getNextUnicodeStringEP15UResourceBundlePPKcP10UErrorCode
T _ZN7icu_3_826FractionalPartSubstitution16getStaticClassIDEv
T _ZN7icu_3_826FractionalPartSubstitutionC1EiPKNS_9NFRuleSetEPKNS_21RuleBasedNumberFormatERKNS_13UnicodeStringER10UErrorCode
T _ZN7icu_3_826FractionalPartSubstitutionC2EiPKNS_9NFRuleSetEPKNS_21RuleBasedNumberFormatERKNS_13UnicodeStringER10UErrorCode
T _ZN7icu_3_829ZoneStringSearchResultHandler11handleMatchEiPKNS_13CharacterNodeER10UErrorCode
T _ZN7icu_3_829ZoneStringSearchResultHandler12countMatchesEv
T _ZN7icu_3_829ZoneStringSearchResultHandler5clearEv
T _ZN7icu_3_829ZoneStringSearchResultHandler8getMatchEiRi
T _ZN7icu_3_829ZoneStringSearchResultHandlerC1ER10UErrorCode
T _ZN7icu_3_829ZoneStringSearchResultHandlerC2ER10UErrorCode
T _ZN7icu_3_829ZoneStringSearchResultHandlerD0Ev
T _ZN7icu_3_829ZoneStringSearchResultHandlerD1Ev
T _ZN7icu_3_829ZoneStringSearchResultHandlerD2Ev
T _ZN7icu_3_830CollationLocaleListEnumeration16getStaticClassIDEv
T _ZN7icu_3_830TextTrieMapSearchResultHandlerD0Ev
T _ZN7icu_3_830TextTrieMapSearchResultHandlerD1Ev
T _ZN7icu_3_830TextTrieMapSearchResultHandlerD2Ev
T _ZN7icu_3_84Math11floorDivideEddRd
T _ZN7icu_3_84Math11floorDivideEdiRi
T _ZN7icu_3_84Math11floorDivideEii
R _ZN7icu_3_85Grego11DAYS_BEFOREE
T _ZN7icu_3_85Grego11dayToFieldsEdRiS1_S1_S1_S1_
T _ZN7icu_3_85Grego11fieldsToDayEiii
R _ZN7icu_3_85Grego12MONTH_LENGTHE
T _ZN7icu_3_85Grego12timeToFieldsEdRiS1_S1_S1_S1_S1_
T _ZN7icu_3_85Grego16dayOfWeekInMonthEiii
T _ZN7icu_3_85Grego9dayOfWeekEd
T _ZN7icu_3_86Format11syntaxErrorERKNS_13UnicodeStringEiR11UParseError
T _ZN7icu_3_86Format12setLocaleIDsEPKcS2_
T _ZN7icu_3_86FormatC1ERKS0_
T _ZN7icu_3_86FormatC1Ev
T _ZN7icu_3_86FormatC2ERKS0_
T _ZN7icu_3_86FormatC2Ev
T _ZN7icu_3_86FormatD0Ev
T _ZN7icu_3_86FormatD1Ev
T _ZN7icu_3_86FormatD2Ev
T _ZN7icu_3_86FormataSERKS0_
U _ZN7icu_3_86Locale10getDefaultEv
U _ZN7icu_3_86Locale10getEnglishEv
U _ZN7icu_3_86Locale10setToBogusEv
U _ZN7icu_3_86Locale14createFromNameEPKc
U _ZN7icu_3_86Locale19getAvailableLocalesERi
U _ZN7icu_3_86LocaleC1EPKcS2_S2_S2_
U _ZN7icu_3_86LocaleC1ERKS0_
U _ZN7icu_3_86LocaleC1Ev
U _ZN7icu_3_86LocaleD1Ev
U _ZN7icu_3_86LocaleaSERKS0_
T _ZN7icu_3_86NFRule12setBaseValueExR10UErrorCode
T _ZN7icu_3_86NFRule19extractSubstitutionEPKNS_9NFRuleSetEPKS0_PKNS_21RuleBasedNumberFormatER10UErrorCode
T _ZN7icu_3_86NFRule19parseRuleDescriptorERNS_13UnicodeStringER10UErrorCode
T _ZN7icu_3_86NFRule20extractSubstitutionsEPKNS_9NFRuleSetEPKS0_PKNS_21RuleBasedNumberFormatER10UErrorCode
T _ZN7icu_3_86NFRule9makeRulesERNS_13UnicodeStringEPKNS_9NFRuleSetEPKS0_PKNS_21RuleBasedNumberFormatERNS_10NFRuleListER10UErrorCode
T _ZN7icu_3_86NFRuleC1EPKNS_21RuleBasedNumberFormatE
T _ZN7icu_3_86NFRuleC2EPKNS_21RuleBasedNumberFormatE
T _ZN7icu_3_86NFRuleD1Ev
T _ZN7icu_3_86NFRuleD2Ev
U _ZN7icu_3_86UStack3popEv
U _ZN7icu_3_86UStack4popiEv
U _ZN7icu_3_86UStackC1ER10UErrorCode
U _ZN7icu_3_86UStackD1Ev
T _ZN7icu_3_87MeasureC1ERKNS_11FormattableEPNS_11MeasureUnitER10UErrorCode
T _ZN7icu_3_87MeasureC1ERKS0_
T _ZN7icu_3_87MeasureC1Ev
T _ZN7icu_3_87MeasureC2ERKNS_11FormattableEPNS_11MeasureUnitER10UErrorCode
T _ZN7icu_3_87MeasureC2ERKS0_
T _ZN7icu_3_87MeasureC2Ev
T _ZN7icu_3_87MeasureD0Ev
T _ZN7icu_3_87MeasureD1Ev
T _ZN7icu_3_87MeasureD2Ev
T _ZN7icu_3_87MeasureaSERKS0_
T _ZN7icu_3_87PtnElemC1ERKNS_13UnicodeStringES3_
T _ZN7icu_3_87PtnElemC2ERKNS_13UnicodeStringES3_
T _ZN7icu_3_87PtnElemD0Ev
T _ZN7icu_3_87PtnElemD1Ev
T _ZN7icu_3_87PtnElemD2Ev
U _ZN7icu_3_87UMemorydaEPv
U _ZN7icu_3_87UMemorydlEPv
U _ZN7icu_3_87UMemorynaEj
U _ZN7icu_3_87UMemorynwEj
U _ZN7icu_3_87UObjectD1Ev
U _ZN7icu_3_87UVector10addElementEPvR10UErrorCode
U _ZN7icu_3_87UVector10addElementEiR10UErrorCode
U _ZN7icu_3_87UVector12setElementAtEPvi
U _ZN7icu_3_87UVector15orphanElementAtEi
U _ZN7icu_3_87UVector17removeAllElementsEv
U _ZN7icu_3_87UVectorC1EPFvPvEPFa8UHashTokS4_ER10UErrorCode
U _ZN7icu_3_87UVectorC1EPFvPvEPFa8UHashTokS4_EiR10UErrorCode
U _ZN7icu_3_87UVectorC1ER10UErrorCode
U _ZN7icu_3_87UVectorC1EiR10UErrorCode
U _ZN7icu_3_87UVectorD1Ev
T _ZN7icu_3_88Calendar10setLenientEa
T _ZN7icu_3_88Calendar10updateTimeER10UErrorCode
T _ZN7icu_3_88Calendar10weekNumberEiii
T _ZN7icu_3_88Calendar11computeTimeER10UErrorCode
T _ZN7icu_3_88Calendar11getLocalDOWEv
T _ZN7icu_3_88Calendar11internalSetENS0_11EDateFieldsEi
T _ZN7icu_3_88Calendar11setTimeZoneERKNS_8TimeZoneE
T _ZN7icu_3_88Calendar13adoptTimeZoneEPNS_8TimeZoneE
T _ZN7icu_3_88Calendar13computeFieldsER10UErrorCode
T _ZN7icu_3_88Calendar13resolveFieldsEPA12_A8_Ki
T _ZN7icu_3_88Calendar13validateFieldE19UCalendarDateFieldsR10UErrorCode
T _ZN7icu_3_88Calendar13validateFieldE19UCalendarDateFieldsiiR10UErrorCode
T _ZN7icu_3_88Calendar14createInstanceEPNS_8TimeZoneERKNS_6LocaleER10UErrorCode
T _ZN7icu_3_88Calendar14createInstanceER10UErrorCode
T _ZN7icu_3_88Calendar14createInstanceERKNS_6LocaleER10UErrorCode
T _ZN7icu_3_88Calendar14createInstanceERKNS_8TimeZoneER10UErrorCode
T _ZN7icu_3_88Calendar14createInstanceERKNS_8TimeZoneERKNS_6LocaleER10UErrorCode
R _ZN7icu_3_88Calendar14kDOWPrecedenceE
T _ZN7icu_3_88Calendar14orphanTimeZoneEv
T _ZN7icu_3_88Calendar14validateFieldsER10UErrorCode
T _ZN7icu_3_88Calendar15fieldDifferenceEd19UCalendarDateFieldsR10UErrorCode
T _ZN7icu_3_88Calendar15fieldDifferenceEdNS0_11EDateFieldsER10UErrorCode
R _ZN7icu_3_88Calendar15kDatePrecedenceE
R _ZN7icu_3_88Calendar15kYearPrecedenceE
T _ZN7icu_3_88Calendar15setTimeInMillisEdR10UErrorCode
T _ZN7icu_3_88Calendar16computeJulianDayEv
T _ZN7icu_3_88Calendar16prepareGetActualE19UCalendarDateFieldsaR10UErrorCode
T _ZN7icu_3_88Calendar16setWeekCountDataERKNS_6LocaleEPKcR10UErrorCode
T _ZN7icu_3_88Calendar17computeWeekFieldsER10UErrorCode
T _ZN7icu_3_88Calendar17computeZoneOffsetEdiR10UErrorCode
T _ZN7icu_3_88Calendar17setFirstDayOfWeekE19UCalendarDaysOfWeek
T _ZN7icu_3_88Calendar18computeMillisInDayEv
T _ZN7icu_3_88Calendar19getAvailableLocalesERi
T _ZN7icu_3_88Calendar19handleComputeFieldsEiR10UErrorCode
T _ZN7icu_3_88Calendar20getDefaultDayInMonthEi
T _ZN7icu_3_88Calendar20julianDayToDayOfWeekEd
T _ZN7icu_3_88Calendar21getDefaultMonthInYearEv
T _ZN7icu_3_88Calendar22computeGregorianFieldsEiR10UErrorCode
T _ZN7icu_3_88Calendar22handleComputeJulianDayE19UCalendarDateFields
T _ZN7icu_3_88Calendar25setMinimalDaysInFirstWeekEh
T _ZN7icu_3_88Calendar28computeGregorianAndDOWFieldsEiR10UErrorCode
T _ZN7icu_3_88Calendar35handleGetExtendedYearFromWeekFieldsEii
T _ZN7icu_3_88Calendar3addE19UCalendarDateFieldsiR10UErrorCode
T _ZN7icu_3_88Calendar3addENS0_11EDateFieldsEiR10UErrorCode
T _ZN7icu_3_88Calendar3setE19UCalendarDateFieldsi
T _ZN7icu_3_88Calendar3setEiii
T _ZN7icu_3_88Calendar3setEiiiii
T _ZN7icu_3_88Calendar3setEiiiiii
T _ZN7icu_3_88Calendar4rollE19UCalendarDateFieldsiR10UErrorCode
T _ZN7icu_3_88Calendar4rollENS0_11EDateFieldsEiR10UErrorCode
T _ZN7icu_3_88Calendar5clearE19UCalendarDateFields
T _ZN7icu_3_88Calendar5clearEv
T _ZN7icu_3_88Calendar6getNowEv
T _ZN7icu_3_88Calendar8completeER10UErrorCode
T _ZN7icu_3_88Calendar8pinFieldE19UCalendarDateFieldsR10UErrorCode
T _ZN7icu_3_88CalendarC1EPNS_8TimeZoneERKNS_6LocaleER10UErrorCode
T _ZN7icu_3_88CalendarC1ER10UErrorCode
T _ZN7icu_3_88CalendarC1ERKNS_8TimeZoneERKNS_6LocaleER10UErrorCode
T _ZN7icu_3_88CalendarC1ERKS0_
T _ZN7icu_3_88CalendarC2EPNS_8TimeZoneERKNS_6LocaleER10UErrorCode
T _ZN7icu_3_88CalendarC2ER10UErrorCode
T _ZN7icu_3_88CalendarC2ERKNS_8TimeZoneERKNS_6LocaleER10UErrorCode
T _ZN7icu_3_88CalendarC2ERKS0_
T _ZN7icu_3_88CalendarD0Ev
T _ZN7icu_3_88CalendarD1Ev
T _ZN7icu_3_88CalendarD2Ev
T _ZN7icu_3_88CalendaraSERKS0_
T _ZN7icu_3_88Collator10setLocalesERKNS_6LocaleES3_
T _ZN7icu_3_88Collator11getKeywordsER10UErrorCode
T _ZN7icu_3_88Collator12makeInstanceERKNS_6LocaleER10UErrorCode
T _ZN7icu_3_88Collator14createInstanceER10UErrorCode
T _ZN7icu_3_88Collator14createInstanceERKNS_6LocaleER10UErrorCode
T _ZN7icu_3_88Collator14getDisplayNameERKNS_6LocaleERNS_13UnicodeStringE
T _ZN7icu_3_88Collator14getDisplayNameERKNS_6LocaleES3_RNS_13UnicodeStringE
T _ZN7icu_3_88Collator16getKeywordValuesEPKcR10UErrorCode
T _ZN7icu_3_88Collator19getAvailableLocalesERi
T _ZN7icu_3_88Collator19getAvailableLocalesEv
T _ZN7icu_3_88Collator23getFunctionalEquivalentEPKcRKNS_6LocaleERaR10UErrorCode
T _ZN7icu_3_88Collator8getBoundEPKhi13UColBoundModejPhiR10UErrorCode
T _ZN7icu_3_88CollatorC1E18UColAttributeValue18UNormalizationMode
T _ZN7icu_3_88CollatorC1ERKS0_
T _ZN7icu_3_88CollatorC1Ev
T _ZN7icu_3_88CollatorC2E18UColAttributeValue18UNormalizationMode
T _ZN7icu_3_88CollatorC2ERKS0_
T _ZN7icu_3_88CollatorC2Ev
T _ZN7icu_3_88CollatorD0Ev
T _ZN7icu_3_88CollatorD1Ev
T _ZN7icu_3_88CollatorD2Ev
T _ZN7icu_3_88TimeZone10setDefaultERKS0_
T _ZN7icu_3_88TimeZone11initDefaultEv
T _ZN7icu_3_88TimeZone12adoptDefaultEPS0_
T _ZN7icu_3_88TimeZone13createDefaultEv
T _ZN7icu_3_88TimeZone14createTimeZoneERKNS_13UnicodeStringE
T _ZN7icu_3_88TimeZone15getEquivalentIDERKNS_13UnicodeStringEi
T _ZN7icu_3_88TimeZone16getStaticClassIDEv
T _ZN7icu_3_88TimeZone16getTZDataVersionER10UErrorCode
T _ZN7icu_3_88TimeZone17createEnumerationEPKc
T _ZN7icu_3_88TimeZone17createEnumerationEi
T _ZN7icu_3_88TimeZone17createEnumerationEv
T _ZN7icu_3_88TimeZone18countEquivalentIDsERKNS_13UnicodeStringE
T _ZN7icu_3_88TimeZone19getOlsonCanonicalIDERKNS_13UnicodeStringERS1_
T _ZN7icu_3_88TimeZone20createCustomTimeZoneERKNS_13UnicodeStringE
T _ZN7icu_3_88TimeZone20createSystemTimeZoneERKNS_13UnicodeStringE
T _ZN7icu_3_88TimeZone6getGMTEv
T _ZN7icu_3_88TimeZone8loadRuleEPK15UResourceBundleRKNS_13UnicodeStringEPS1_R10UErrorCode
T _ZN7icu_3_88TimeZoneC1ERKNS_13UnicodeStringE
T _ZN7icu_3_88TimeZoneC1ERKS0_
T _ZN7icu_3_88TimeZoneC1Ev
T _ZN7icu_3_88TimeZoneC2ERKNS_13UnicodeStringE
T _ZN7icu_3_88TimeZoneC2ERKS0_
T _ZN7icu_3_88TimeZoneC2Ev
T _ZN7icu_3_88TimeZoneD0Ev
T _ZN7icu_3_88TimeZoneD1Ev
T _ZN7icu_3_88TimeZoneD2Ev
T _ZN7icu_3_88TimeZoneaSERKS0_
T _ZN7icu_3_88ZSFCache3getERKNS_6LocaleER10UErrorCode
T _ZN7icu_3_88ZSFCacheC1Ei
T _ZN7icu_3_88ZSFCacheC2Ei
T _ZN7icu_3_88ZSFCacheD1Ev
T _ZN7icu_3_88ZSFCacheD2Ev
T _ZN7icu_3_88ZoneMeta10initializeEv
T _ZN7icu_3_88ZoneMeta13getMetazoneIDERKNS_13UnicodeStringEdRS1_
T _ZN7icu_3_88ZoneMeta14getCanonicalIDERKNS_13UnicodeStringERS1_
T _ZN7icu_3_88ZoneMeta16getCanonicalInfoERKNS_13UnicodeStringE
T _ZN7icu_3_88ZoneMeta16getSingleCountryERKNS_13UnicodeStringERS1_
T _ZN7icu_3_88ZoneMeta18createCanonicalMapEv
T _ZN7icu_3_88ZoneMeta19getCanonicalCountryERKNS_13UnicodeStringERS1_
T _ZN7icu_3_88ZoneMeta19getMetazoneMappingsERKNS_13UnicodeStringE
T _ZN7icu_3_88ZoneMeta19getZoneIdByMetazoneERKNS_13UnicodeStringES3_RS1_
T _ZN7icu_3_88ZoneMeta20createMetaToOlsonMapEv
T _ZN7icu_3_88ZoneMeta20createOlsonToMetaMapEv
T _ZN7icu_3_88ZoneMeta23createOlsonToMetaMapOldEv
T _ZN7icu_3_89DigitList12fitsIntoLongEa
T _ZN7icu_3_89DigitList13fitsIntoInt64Ea
T _ZN7icu_3_89DigitList3setEdia
T _ZN7icu_3_89DigitList3setEii
T _ZN7icu_3_89DigitList3setExi
T _ZN7icu_3_89DigitList5clearEv
T _ZN7icu_3_89DigitList5roundEi
T _ZN7icu_3_89DigitList7getLongEv
T _ZN7icu_3_89DigitList8getInt64Ev
T _ZN7icu_3_89DigitList9getDoubleEv
T _ZN7icu_3_89DigitListC1ERKS0_
T _ZN7icu_3_89DigitListC1Ei
T _ZN7icu_3_89DigitListC1Ev
T _ZN7icu_3_89DigitListC2ERKS0_
T _ZN7icu_3_89DigitListC2Ei
T _ZN7icu_3_89DigitListC2Ev
T _ZN7icu_3_89DigitListD1Ev
T _ZN7icu_3_89DigitListD2Ev
T _ZN7icu_3_89DigitListaSERKS0_
T _ZN7icu_3_89InputText10MungeInputEa
T _ZN7icu_3_89InputText19setDeclaredEncodingEPKci
T _ZN7icu_3_89InputText7setTextEPKci
T _ZN7icu_3_89InputTextC1Ev
T _ZN7icu_3_89InputTextC2Ev
T _ZN7icu_3_89InputTextD1Ev
T _ZN7icu_3_89InputTextD2Ev
T _ZN7icu_3_89NFRuleSet10parseRulesERNS_13UnicodeStringEPKNS_21RuleBasedNumberFormatER10UErrorCode
T _ZN7icu_3_89NFRuleSetC1EPNS_13UnicodeStringEiR10UErrorCode
T _ZN7icu_3_89NFRuleSetC2EPNS_13UnicodeStringEiR10UErrorCode
T _ZN7icu_3_89NFRuleSetD1Ev
T _ZN7icu_3_89NFRuleSetD2Ev
U _ZN7icu_3_89UVector3212setElementAtEii
U _ZN7icu_3_89UVector3214expandCapacityEiR10UErrorCode
U _ZN7icu_3_89UVector3215insertElementAtEiiR10UErrorCode
U _ZN7icu_3_89UVector3217removeAllElementsEv
U _ZN7icu_3_89UVector326assignERKS0_R10UErrorCode
U _ZN7icu_3_89UVector327setSizeEi
U _ZN7icu_3_89UVector32C1ER10UErrorCode
U _ZN7icu_3_89UVector32C1EiR10UErrorCode
U _ZN7icu_3_89UVector32D1Ev
T _ZN7icu_3_89VTZReader4readEv
T _ZN7icu_3_89VTZReaderC1ERKNS_13UnicodeStringE
T _ZN7icu_3_89VTZReaderC2ERKNS_13UnicodeStringE
T _ZN7icu_3_89VTZReaderD1Ev
T _ZN7icu_3_89VTZReaderD2Ev
T _ZN7icu_3_89VTZWriter5writeERKNS_13UnicodeStringE
T _ZN7icu_3_89VTZWriter5writeEt
T _ZN7icu_3_89VTZWriterC1ERNS_13UnicodeStringE
T _ZN7icu_3_89VTZWriterC2ERNS_13UnicodeStringE
T _ZN7icu_3_89VTZWriterD1Ev
T _ZN7icu_3_89VTZWriterD2Ev
T _ZN7icu_3_89VTimeZone11writeSimpleEdRNS_13UnicodeStringER10UErrorCode
T _ZN7icu_3_89VTimeZone11writeSimpleEdRNS_9VTZWriterER10UErrorCode
T _ZN7icu_3_89VTimeZone12setRawOffsetEi
T _ZN7icu_3_89VTimeZone15createVTimeZoneERKNS_13UnicodeStringER10UErrorCode
T _ZN7icu_3_89VTimeZone15setLastModifiedEd
T _ZN7icu_3_89VTimeZone16getStaticClassIDEv
T _ZN7icu_3_89VTimeZone16getTimeZoneRulesERPKNS_19InitialTimeZoneRuleEPPKNS_12TimeZoneRuleERiR10UErrorCode
T _ZN7icu_3_89VTimeZone17getNextTransitionEdaRNS_18TimeZoneTransitionE
T _ZN7icu_3_89VTimeZone19createVTimeZoneByIDERKNS_13UnicodeStringE
T _ZN7icu_3_89VTimeZone20countTransitionRulesER10UErrorCode
T _ZN7icu_3_89VTimeZone21getPreviousTransitionEdaRNS_18TimeZoneTransitionE
T _ZN7icu_3_89VTimeZone4loadERNS_9VTZReaderER10UErrorCode
T _ZN7icu_3_89VTimeZone5parseER10UErrorCode
T _ZN7icu_3_89VTimeZone5writeEdRNS_13UnicodeStringER10UErrorCode
T _ZN7icu_3_89VTimeZone5writeEdRNS_9VTZWriterER10UErrorCode
T _ZN7icu_3_89VTimeZone8setTZURLERKNS_13UnicodeStringE
T _ZN7icu_3_89VTimeZoneC1ERKS0_
T _ZN7icu_3_89VTimeZoneC1Ev
T _ZN7icu_3_89VTimeZoneC2ERKS0_
T _ZN7icu_3_89VTimeZoneC2Ev
T _ZN7icu_3_89VTimeZoneD0Ev
T _ZN7icu_3_89VTimeZoneD1Ev
T _ZN7icu_3_89VTimeZoneD2Ev
T _ZN7icu_3_89VTimeZoneaSERKS0_
U _ZN7icu_3_8plERKNS_13UnicodeStringES2_
T _ZNK7icu_3_810DateFormat11getCalendarEv
T _ZNK7icu_3_810DateFormat11getTimeZoneEv
T _ZNK7icu_3_810DateFormat11parseObjectERKNS_13UnicodeStringERNS_11FormattableERNS_13ParsePositionE
T _ZNK7icu_3_810DateFormat15getNumberFormatEv
T _ZNK7icu_3_810DateFormat5parseERKNS_13UnicodeStringER10UErrorCode
T _ZNK7icu_3_810DateFormat5parseERKNS_13UnicodeStringERNS_13ParsePositionE
T _ZNK7icu_3_810DateFormat6formatERKNS_11FormattableERNS_13UnicodeStringERNS_13FieldPositionER10UErrorCode
T _ZNK7icu_3_810DateFormat6formatEdRNS_13UnicodeStringE
T _ZNK7icu_3_810DateFormat6formatEdRNS_13UnicodeStringERNS_13FieldPositionE
T _ZNK7icu_3_810DateFormat9isLenientEv
T _ZNK7icu_3_810DateFormateqERKNS_6FormatE
U _ZNK7icu_3_810UnicodeSet6charAtEi
U _ZNK7icu_3_810UnicodeSet8containsEi
T _ZNK7icu_3_811Formattable17getDynamicClassIDEv
T _ZNK7icu_3_811Formattable5cloneEv
T _ZNK7icu_3_811Formattable7getLongER10UErrorCode
T _ZNK7icu_3_811Formattable7getTypeEv
T _ZNK7icu_3_811Formattable8getArrayERiR10UErrorCode
T _ZNK7icu_3_811Formattable8getBogusEv
T _ZNK7icu_3_811Formattable8getInt64ER10UErrorCode
T _ZNK7icu_3_811Formattable9getDoubleER10UErrorCode
T _ZNK7icu_3_811Formattable9getObjectEv
T _ZNK7icu_3_811Formattable9getStringER10UErrorCode
T _ZNK7icu_3_811Formattable9getStringERNS_13UnicodeStringER10UErrorCode
T _ZNK7icu_3_811Formattable9isNumericEv
T _ZNK7icu_3_811FormattableeqERKS0_
U _ZNK7icu_3_811LocaleBased11getLocaleIDE18ULocDataLocaleTypeR10UErrorCode
U _ZNK7icu_3_811LocaleBased9getLocaleE18ULocDataLocaleTypeR10UErrorCode
T _ZNK7icu_3_811TextTrieMap12getChildNodeEPNS_13CharacterNodeEt
T _ZNK7icu_3_811TextTrieMap6searchEPNS_13CharacterNodeERKNS_13UnicodeStringEiiPNS_30TextTrieMapSearchResultHandlerER10UErrorCode
T _ZNK7icu_3_811TextTrieMap6searchERKNS_13UnicodeStringEiPNS_30TextTrieMapSearchResultHandlerER10UErrorCode
T _ZNK7icu_3_811ZoneStrings31getGenericPartialLocationStringERKNS_13UnicodeStringEaaRS1_
T _ZNK7icu_3_811ZoneStrings9getStringEiRNS_13UnicodeStringE
T _ZNK7icu_3_812CharsetMatch11getLanguageEv
T _ZNK7icu_3_812CharsetMatch13getConfidenceEv
T _ZNK7icu_3_812CharsetMatch7getNameEv
T _ZNK7icu_3_812CharsetMatch9getUCharsEPtiP10UErrorCode
T _ZNK7icu_3_812ChoiceFormat10getFormatsERi
T _ZNK7icu_3_812ChoiceFormat11getClosuresERi
T _ZNK7icu_3_812ChoiceFormat17getDynamicClassIDEv
T _ZNK7icu_3_812ChoiceFormat5cloneEv
T _ZNK7icu_3_812ChoiceFormat5parseERKNS_13UnicodeStringERNS_11FormattableER10UErrorCode
T _ZNK7icu_3_812ChoiceFormat5parseERKNS_13UnicodeStringERNS_11FormattableERNS_13ParsePositionE
T _ZNK7icu_3_812ChoiceFormat6formatEPKNS_11FormattableEiRNS_13UnicodeStringERNS_13FieldPositionER10UErrorCode
T _ZNK7icu_3_812ChoiceFormat6formatERKNS_11FormattableERNS_13UnicodeStringERNS_13FieldPositionER10UErrorCode
T _ZNK7icu_3_812ChoiceFormat6formatEdRNS_13UnicodeStringERNS_13FieldPositionE
T _ZNK7icu_3_812ChoiceFormat6formatEiRNS_13UnicodeStringERNS_13FieldPositionE
T _ZNK7icu_3_812ChoiceFormat6formatExRNS_13UnicodeStringERNS_13FieldPositionE
T _ZNK7icu_3_812ChoiceFormat9getLimitsERi
T _ZNK7icu_3_812ChoiceFormat9toPatternERNS_13UnicodeStringE
T _ZNK7icu_3_812ChoiceFormateqERKNS_6FormatE
T _ZNK7icu_3_812CollationKey17getDynamicClassIDEv
T _ZNK7icu_3_812CollationKey8hashCodeEv
T _ZNK7icu_3_812CollationKey9compareToERKS0_
T _ZNK7icu_3_812CollationKey9compareToERKS0_R10UErrorCode
T _ZNK7icu_3_812CollationKeyeqERKS0_
T _ZNK7icu_3_812CurrencyUnit17getDynamicClassIDEv
T _ZNK7icu_3_812CurrencyUnit5cloneEv
T _ZNK7icu_3_812CurrencyUniteqERKNS_7UObjectE
T _ZNK7icu_3_812DateTimeRule12getRuleMonthEv
T _ZNK7icu_3_812DateTimeRule15getDateRuleTypeEv
T _ZNK7icu_3_812DateTimeRule15getTimeRuleTypeEv
T _ZNK7icu_3_812DateTimeRule16getRuleDayOfWeekEv
T _ZNK7icu_3_812DateTimeRule17getDynamicClassIDEv
T _ZNK7icu_3_812DateTimeRule17getRuleDayOfMonthEv
T _ZNK7icu_3_812DateTimeRule18getRuleMillisInDayEv
T _ZNK7icu_3_812DateTimeRule18getRuleWeekInMonthEv
T _ZNK7icu_3_812DateTimeRule5cloneEv
T _ZNK7icu_3_812DateTimeRuleeqERKS0_
T _ZNK7icu_3_812DateTimeRuleneERKS0_
T _ZNK7icu_3_812FormatParser14isQuoteLiteralERKNS_13UnicodeStringE
T _ZNK7icu_3_812NumberFormat11getCurrencyEv
T _ZNK7icu_3_812NumberFormat11parseObjectERKNS_13UnicodeStringERNS_11FormattableERNS_13ParsePositionE
T _ZNK7icu_3_812NumberFormat13parseCurrencyERKNS_13UnicodeStringERNS_11FormattableERNS_13ParsePositionE
T _ZNK7icu_3_812NumberFormat14isGroupingUsedEv
T _ZNK7icu_3_812NumberFormat20getEffectiveCurrencyEPtR10UErrorCode
T _ZNK7icu_3_812NumberFormat23getMaximumIntegerDigitsEv
T _ZNK7icu_3_812NumberFormat23getMinimumIntegerDigitsEv
T _ZNK7icu_3_812NumberFormat24getMaximumFractionDigitsEv
T _ZNK7icu_3_812NumberFormat24getMinimumFractionDigitsEv
T _ZNK7icu_3_812NumberFormat5parseERKNS_13UnicodeStringERNS_11FormattableER10UErrorCode
T _ZNK7icu_3_812NumberFormat6formatERKNS_11FormattableERNS_13UnicodeStringERNS_13FieldPositionER10UErrorCode
T _ZNK7icu_3_812NumberFormat6formatEdRNS_13UnicodeStringE
T _ZNK7icu_3_812NumberFormat6formatEiRNS_13UnicodeStringE
T _ZNK7icu_3_812NumberFormat6formatExRNS_13UnicodeStringE
T _ZNK7icu_3_812NumberFormat6formatExRNS_13UnicodeStringERNS_13FieldPositionE
T _ZNK7icu_3_812NumberFormateqERKNS_6FormatE
T _ZNK7icu_3_812RegexMatcher10groupCountEv
T _ZNK7icu_3_812RegexMatcher10requireEndEv
T _ZNK7icu_3_812RegexMatcher11regionStartEv
T _ZNK7icu_3_812RegexMatcher17getDynamicClassIDEv
T _ZNK7icu_3_812RegexMatcher18hasAnchoringBoundsEv
T _ZNK7icu_3_812RegexMatcher20hasTransparentBoundsEv
T _ZNK7icu_3_812RegexMatcher3endER10UErrorCode
T _ZNK7icu_3_812RegexMatcher3endEiR10UErrorCode
T _ZNK7icu_3_812RegexMatcher5groupER10UErrorCode
T _ZNK7icu_3_812RegexMatcher5groupEiR10UErrorCode
T _ZNK7icu_3_812RegexMatcher5inputEv
T _ZNK7icu_3_812RegexMatcher5startER10UErrorCode
T _ZNK7icu_3_812RegexMatcher5startEiR10UErrorCode
T _ZNK7icu_3_812RegexMatcher6hitEndEv
T _ZNK7icu_3_812RegexMatcher7patternEv
T _ZNK7icu_3_812RegexMatcher9regionEndEv
T _ZNK7icu_3_812RegexPattern17getDynamicClassIDEv
T _ZNK7icu_3_812RegexPattern5cloneEv
T _ZNK7icu_3_812RegexPattern5flagsEv
T _ZNK7icu_3_812RegexPattern5splitERKNS_13UnicodeStringEPS1_iR10UErrorCode
T _ZNK7icu_3_812RegexPattern6dumpOpEi
T _ZNK7icu_3_812RegexPattern7matcherER10UErrorCode
T _ZNK7icu_3_812RegexPattern7matcherERKNS_13UnicodeStringER10UErrorCode
T _ZNK7icu_3_812RegexPattern7patternEv
T _ZNK7icu_3_812RegexPatterneqERKS0_
T _ZNK7icu_3_812StringSearch10getPatternEv
T _ZNK7icu_3_812StringSearch11getCollatorEv
T _ZNK7icu_3_812StringSearch17getDynamicClassIDEv
T _ZNK7icu_3_812StringSearch5cloneEv
T _ZNK7icu_3_812StringSearch9getOffsetEv
T _ZNK7icu_3_812StringSearch9safeCloneEv
T _ZNK7icu_3_812StringSearcheqERKNS_14SearchIteratorE
T _ZNK7icu_3_812TimeZoneRule12getRawOffsetEv
T _ZNK7icu_3_812TimeZoneRule13getDSTSavingsEv
T _ZNK7icu_3_812TimeZoneRule14isEquivalentToERKS0_
T _ZNK7icu_3_812TimeZoneRule7getNameERNS_13UnicodeStringE
T _ZNK7icu_3_812TimeZoneRuleeqERKS0_
T _ZNK7icu_3_812TimeZoneRuleneERKS0_
T _ZNK7icu_3_813DecimalFormat10addPaddingERNS_13UnicodeStringERNS_13FieldPositionEii
T _ZNK7icu_3_813DecimalFormat11appendAffixERNS_13UnicodeStringEdPNS0_15attributeBufferEaa
T _ZNK7icu_3_813DecimalFormat11appendAffixERNS_13UnicodeStringEdaa
T _ZNK7icu_3_813DecimalFormat11expandAffixERKNS_13UnicodeStringERS1_dPNS0_15attributeBufferEa
T _ZNK7icu_3_813DecimalFormat11expandAffixERKNS_13UnicodeStringERS1_da
T _ZNK7icu_3_813DecimalFormat11skipPaddingERKNS_13UnicodeStringEi
T _ZNK7icu_3_813DecimalFormat12addAttributeEPNS0_15attributeBufferEPcii
T _ZNK7icu_3_813DecimalFormat12compareAffixERKNS_13UnicodeStringEiaaPt
T _ZNK7icu_3_813DecimalFormat13getMultiplierEv
T _ZNK7icu_3_813DecimalFormat13parseCurrencyERKNS_13UnicodeStringERNS_11FormattableERNS_13ParsePositionE
T _ZNK7icu_3_813DecimalFormat14getFormatWidthEv
T _ZNK7icu_3_813DecimalFormat14getPadPositionEv
T _ZNK7icu_3_813DecimalFormat15getGroupingSizeEv
T _ZNK7icu_3_813DecimalFormat15getRoundingModeEv
T _ZNK7icu_3_813DecimalFormat17getDynamicClassIDEv
T _ZNK7icu_3_813DecimalFormat17getNegativePrefixERNS_13UnicodeStringE
T _ZNK7icu_3_813DecimalFormat17getNegativeSuffixERNS_13UnicodeStringE
T _ZNK7icu_3_813DecimalFormat17getPositivePrefixERNS_13UnicodeStringE
T _ZNK7icu_3_813DecimalFormat17getPositiveSuffixERNS_13UnicodeStringE
T _ZNK7icu_3_813DecimalFormat18appendAffixPatternERNS_13UnicodeStringEPKS1_RS3_a
T _ZNK7icu_3_813DecimalFormat18appendAffixPatternERNS_13UnicodeStringERKS1_a
T _ZNK7icu_3_813DecimalFormat18isGroupingPositionEi
T _ZNK7icu_3_813DecimalFormat18toLocalizedPatternERNS_13UnicodeStringE
T _ZNK7icu_3_813DecimalFormat19compareComplexAffixERKNS_13UnicodeStringES3_iPt
T _ZNK7icu_3_813DecimalFormat20getEffectiveCurrencyEPtR10UErrorCode
T _ZNK7icu_3_813DecimalFormat20getRoundingIncrementEv
T _ZNK7icu_3_813DecimalFormat21getPadCharacterStringEv
T _ZNK7icu_3_813DecimalFormat23getDecimalFormatSymbolsEv
T _ZNK7icu_3_813DecimalFormat24areSignificantDigitsUsedEv
T _ZNK7icu_3_813DecimalFormat24getMinimumExponentDigitsEv
T _ZNK7icu_3_813DecimalFormat24getSecondaryGroupingSizeEv
T _ZNK7icu_3_813DecimalFormat27getMaximumSignificantDigitsEv
T _ZNK7icu_3_813DecimalFormat27getMinimumSignificantDigitsEv
T _ZNK7icu_3_813DecimalFormat29isDecimalSeparatorAlwaysShownEv
T _ZNK7icu_3_813DecimalFormat5cloneEv
T _ZNK7icu_3_813DecimalFormat5parseERKNS_13UnicodeStringERNS_11FormattableER10UErrorCode
T _ZNK7icu_3_813DecimalFormat5parseERKNS_13UnicodeStringERNS_11FormattableERNS_13ParsePositionE
T _ZNK7icu_3_813DecimalFormat5parseERKNS_13UnicodeStringERNS_11FormattableERNS_13ParsePositionEa
T _ZNK7icu_3_813DecimalFormat5parseERKNS_13UnicodeStringERbRNS_11FormattableERNS_13ParsePositionEaRNS_9DigitListE
T _ZNK7icu_3_813DecimalFormat6formatERKNS_11FormattableERNS_13UnicodeStringERNS_13FieldPositionER10UErrorCode
W _ZNK7icu_3_813DecimalFormat6formatEdRNS_13UnicodeStringE
T _ZNK7icu_3_813DecimalFormat6formatEdRNS_13UnicodeStringERNS_13FieldPositionE
T _ZNK7icu_3_813DecimalFormat6formatEdRNS_13UnicodeStringERNS_13FieldPositionEPNS0_15attributeBufferE
T _ZNK7icu_3_813DecimalFormat6formatEiRNS_13UnicodeStringERNS_13FieldPositionE
T _ZNK7icu_3_813DecimalFormat6formatEiRNS_13UnicodeStringERNS_13FieldPositionEPNS0_15attributeBufferE
T _ZNK7icu_3_813DecimalFormat6formatExRNS_13UnicodeStringERNS_13FieldPositionE
T _ZNK7icu_3_813DecimalFormat6formatExRNS_13UnicodeStringERNS_13FieldPositionEPNS0_15attributeBufferE
T _ZNK7icu_3_813DecimalFormat8subparseERKNS_13UnicodeStringERNS_13ParsePositionERNS_9DigitListEPaPt
T _ZNK7icu_3_813DecimalFormat9precisionEa
T _ZNK7icu_3_813DecimalFormat9subformatERNS_13UnicodeStringERNS_13FieldPositionEPNS0_15attributeBufferERNS_9DigitListEa
T _ZNK7icu_3_813DecimalFormat9subformatERNS_13UnicodeStringERNS_13FieldPositionERNS_9DigitListEa
T _ZNK7icu_3_813DecimalFormat9toPatternERNS_13UnicodeStringE
T _ZNK7icu_3_813DecimalFormat9toPatternERNS_13UnicodeStringEa
T _ZNK7icu_3_813DecimalFormateqERKNS_6FormatE
T _ZNK7icu_3_813FieldPosition17getDynamicClassIDEv
T _ZNK7icu_3_813FieldPosition5cloneEv
T _ZNK7icu_3_813MessageFormat10getFormatsERi
T _ZNK7icu_3_813MessageFormat11parseObjectERKNS_13UnicodeStringERNS_11FormattableERNS_13ParsePositionE
T _ZNK7icu_3_813MessageFormat17getDynamicClassIDEv
T _ZNK7icu_3_813MessageFormat19createIntegerFormatERKNS_6LocaleER10UErrorCode
T _ZNK7icu_3_813MessageFormat20getDefaultDateFormatER10UErrorCode
T _ZNK7icu_3_813MessageFormat22getDefaultNumberFormatER10UErrorCode
T _ZNK7icu_3_813MessageFormat5cloneEv
T _ZNK7icu_3_813MessageFormat5parseERKNS_13UnicodeStringERNS_13ParsePositionERi
T _ZNK7icu_3_813MessageFormat5parseERKNS_13UnicodeStringERiR10UErrorCode
T _ZNK7icu_3_813MessageFormat6formatEPKNS_11FormattableEiRNS_13UnicodeStringERNS_13FieldPositionER10UErrorCode
T _ZNK7icu_3_813MessageFormat6formatEPKNS_11FormattableEiRNS_13UnicodeStringERNS_13FieldPositionEiR10UErrorCode
T _ZNK7icu_3_813MessageFormat6formatERKNS_11FormattableERNS_13UnicodeStringERNS_13FieldPositionER10UErrorCode
T _ZNK7icu_3_813MessageFormat9getLocaleEv
T _ZNK7icu_3_813MessageFormat9toPatternERNS_13UnicodeStringE
T _ZNK7icu_3_813MessageFormateqERKNS_6FormatE
T _ZNK7icu_3_813OlsonTimeZone12getRawOffsetEv
T _ZNK7icu_3_813OlsonTimeZone12hasSameRulesERKNS_8TimeZoneE
T _ZNK7icu_3_813OlsonTimeZone13getDSTSavingsEv
T _ZNK7icu_3_813OlsonTimeZone14inDaylightTimeEdR10UErrorCode
T _ZNK7icu_3_813OlsonTimeZone15useDaylightTimeEv
T _ZNK7icu_3_813OlsonTimeZone17getDynamicClassIDEv
T _ZNK7icu_3_813OlsonTimeZone19getHistoricalOffsetEdaiiRiS1_
T _ZNK7icu_3_813OlsonTimeZone5cloneEv
T _ZNK7icu_3_813OlsonTimeZone9getOffsetEdaRiS1_R10UErrorCode
T _ZNK7icu_3_813OlsonTimeZone9getOffsetEhiiihiR10UErrorCode
T _ZNK7icu_3_813OlsonTimeZone9getOffsetEhiiihiiR10UErrorCode
T _ZNK7icu_3_813OlsonTimeZoneeqERKNS_8TimeZoneE
T _ZNK7icu_3_813TZEnumeration17getDynamicClassIDEv
U _ZNK7icu_3_813UnicodeString10unescapeAtERi
U _ZNK7icu_3_813UnicodeString11moveIndex32Eii
U _ZNK7icu_3_813UnicodeString13doCaseCompareEiiPKtiij
U _ZNK7icu_3_813UnicodeString7extractEPtiR10UErrorCode
U _ZNK7icu_3_813UnicodeString7extractEiiPciNS0_10EInvariantE
U _ZNK7icu_3_813UnicodeString7indexOfEPKtiiii
U _ZNK7icu_3_813UnicodeString9doCompareEiiPKtii
U _ZNK7icu_3_813UnicodeString9doExtractEiiPti
U _ZNK7icu_3_813UnicodeString9doIndexOfEtii
T _ZNK7icu_3_814CurrencyAmount17getDynamicClassIDEv
T _ZNK7icu_3_814CurrencyAmount5cloneEv
T _ZNK7icu_3_814CurrencyFormat11parseObjectERKNS_13UnicodeStringERNS_11FormattableERNS_13ParsePositionE
T _ZNK7icu_3_814CurrencyFormat17getDynamicClassIDEv
T _ZNK7icu_3_814CurrencyFormat5cloneEv
T _ZNK7icu_3_814CurrencyFormat6formatERKNS_11FormattableERNS_13UnicodeStringERNS_13FieldPositionER10UErrorCode
T _ZNK7icu_3_814CurrencyFormateqERKNS_6FormatE
T _ZNK7icu_3_814HebrewCalendar14handleGetLimitE19UCalendarDateFieldsNS_8Calendar10ELimitTypeE
T _ZNK7icu_3_814HebrewCalendar14inDaylightTimeER10UErrorCode
T _ZNK7icu_3_814HebrewCalendar17getDynamicClassIDEv
T _ZNK7icu_3_814HebrewCalendar18haveDefaultCenturyEv
T _ZNK7icu_3_814HebrewCalendar19defaultCenturyStartEv
T _ZNK7icu_3_814HebrewCalendar19handleGetYearLengthEi
T _ZNK7icu_3_814HebrewCalendar20handleGetMonthLengthEii
T _ZNK7icu_3_814HebrewCalendar23defaultCenturyStartYearEv
T _ZNK7icu_3_814HebrewCalendar23handleComputeMonthStartEiia
T _ZNK7icu_3_814HebrewCalendar30internalGetDefaultCenturyStartEv
T _ZNK7icu_3_814HebrewCalendar34internalGetDefaultCenturyStartYearEv
T _ZNK7icu_3_814HebrewCalendar5cloneEv
T _ZNK7icu_3_814HebrewCalendar7getTypeEv
T _ZNK7icu_3_814HebrewCalendar8yearTypeEi
T _ZNK7icu_3_814IndianCalendar14handleGetLimitE19UCalendarDateFieldsNS_8Calendar10ELimitTypeE
T _ZNK7icu_3_814IndianCalendar14inDaylightTimeER10UErrorCode
T _ZNK7icu_3_814IndianCalendar17getDynamicClassIDEv
T _ZNK7icu_3_814IndianCalendar18haveDefaultCenturyEv
T _ZNK7icu_3_814IndianCalendar19defaultCenturyStartEv
T _ZNK7icu_3_814IndianCalendar19handleGetYearLengthEi
T _ZNK7icu_3_814IndianCalendar20handleGetMonthLengthEii
T _ZNK7icu_3_814IndianCalendar23defaultCenturyStartYearEv
T _ZNK7icu_3_814IndianCalendar23handleComputeMonthStartEiia
T _ZNK7icu_3_814IndianCalendar30internalGetDefaultCenturyStartEv
T _ZNK7icu_3_814IndianCalendar34internalGetDefaultCenturyStartYearEv
T _ZNK7icu_3_814IndianCalendar5cloneEv
T _ZNK7icu_3_814IndianCalendar7getTypeEv
T _ZNK7icu_3_814NFSubstitution14doSubstitutionEdRNS_13UnicodeStringEi
T _ZNK7icu_3_814NFSubstitution14doSubstitutionExRNS_13UnicodeStringEi
T _ZNK7icu_3_814NFSubstitution17getDynamicClassIDEv
T _ZNK7icu_3_814NFSubstitution18isNullSubstitutionEv
T _ZNK7icu_3_814NFSubstitution21isModulusSubstitutionEv
T _ZNK7icu_3_814NFSubstitution7doParseERKNS_13UnicodeStringERNS_13ParsePositionEddaRNS_11FormattableE
T _ZNK7icu_3_814NFSubstitution8toStringERNS_13UnicodeStringE
T _ZNK7icu_3_814NFSubstitutioneqERKS0_
T _ZNK7icu_3_814SearchIterator12getAttributeE16USearchAttribute
T _ZNK7icu_3_814SearchIterator14getMatchedTextERNS_13UnicodeStringE
T _ZNK7icu_3_814SearchIterator15getMatchedStartEv
T _ZNK7icu_3_814SearchIterator16getBreakIteratorEv
T _ZNK7icu_3_814SearchIterator16getMatchedLengthEv
T _ZNK7icu_3_814SearchIterator7getTextEv
T _ZNK7icu_3_814SearchIteratoreqERKS0_
T _ZNK7icu_3_814SimpleTimeZone12getRawOffsetEv
T _ZNK7icu_3_814SimpleTimeZone12hasSameRulesERKNS_8TimeZoneE
T _ZNK7icu_3_814SimpleTimeZone13getDSTSavingsEv
T _ZNK7icu_3_814SimpleTimeZone14inDaylightTimeEdR10UErrorCode
T _ZNK7icu_3_814SimpleTimeZone15useDaylightTimeEv
T _ZNK7icu_3_814SimpleTimeZone17getDynamicClassIDEv
T _ZNK7icu_3_814SimpleTimeZone5cloneEv
W _ZNK7icu_3_814SimpleTimeZone9getOffsetEdaRiS1_R10UErrorCode
T _ZNK7icu_3_814SimpleTimeZone9getOffsetEhiiihiR10UErrorCode
T _ZNK7icu_3_814SimpleTimeZone9getOffsetEhiiihiiR10UErrorCode
T _ZNK7icu_3_814SimpleTimeZone9getOffsetEhiiihiiiR10UErrorCode
T _ZNK7icu_3_814SimpleTimeZoneeqERKNS_8TimeZoneE
T _ZNK7icu_3_814TaiwanCalendar14handleGetLimitE19UCalendarDateFieldsNS_8Calendar10ELimitTypeE
T _ZNK7icu_3_814TaiwanCalendar17getDynamicClassIDEv
T _ZNK7icu_3_814TaiwanCalendar18haveDefaultCenturyEv
T _ZNK7icu_3_814TaiwanCalendar19defaultCenturyStartEv
T _ZNK7icu_3_814TaiwanCalendar23defaultCenturyStartYearEv
T _ZNK7icu_3_814TaiwanCalendar30internalGetDefaultCenturyStartEv
T _ZNK7icu_3_814TaiwanCalendar34internalGetDefaultCenturyStartYearEv
T _ZNK7icu_3_814TaiwanCalendar5cloneEv
T _ZNK7icu_3_814TaiwanCalendar7getTypeEv
T _ZNK7icu_3_815CharsetDetector16getStripTagsFlagEv
T _ZNK7icu_3_815CharsetDetector19setDeclaredEncodingEPKci
T _ZNK7icu_3_815DateTimeMatcher6equalsEPKS0_
T _ZNK7icu_3_815IslamicCalendar10monthStartEii
T _ZNK7icu_3_815IslamicCalendar14handleGetLimitE19UCalendarDateFieldsNS_8Calendar10ELimitTypeE
T _ZNK7icu_3_815IslamicCalendar14inDaylightTimeER10UErrorCode
T _ZNK7icu_3_815IslamicCalendar14trueMonthStartEi
T _ZNK7icu_3_815IslamicCalendar17getDynamicClassIDEv
T _ZNK7icu_3_815IslamicCalendar18haveDefaultCenturyEv
T _ZNK7icu_3_815IslamicCalendar19defaultCenturyStartEv
T _ZNK7icu_3_815IslamicCalendar19handleGetYearLengthEi
T _ZNK7icu_3_815IslamicCalendar20handleGetMonthLengthEii
T _ZNK7icu_3_815IslamicCalendar23defaultCenturyStartYearEv
T _ZNK7icu_3_815IslamicCalendar23handleComputeMonthStartEiia
T _ZNK7icu_3_815IslamicCalendar30internalGetDefaultCenturyStartEv
T _ZNK7icu_3_815IslamicCalendar34internalGetDefaultCenturyStartYearEv
T _ZNK7icu_3_815IslamicCalendar5cloneEv
T _ZNK7icu_3_815IslamicCalendar7getTypeEv
T _ZNK7icu_3_815PersianCalendar10monthStartEii
T _ZNK7icu_3_815PersianCalendar14handleGetLimitE19UCalendarDateFieldsNS_8Calendar10ELimitTypeE
T _ZNK7icu_3_815PersianCalendar14inDaylightTimeER10UErrorCode
T _ZNK7icu_3_815PersianCalendar17getDynamicClassIDEv
T _ZNK7icu_3_815PersianCalendar18haveDefaultCenturyEv
T _ZNK7icu_3_815PersianCalendar19defaultCenturyStartEv
T _ZNK7icu_3_815PersianCalendar19handleGetYearLengthEi
T _ZNK7icu_3_815PersianCalendar20handleGetMonthLengthEii
T _ZNK7icu_3_815PersianCalendar23defaultCenturyStartYearEv
T _ZNK7icu_3_815PersianCalendar23handleComputeMonthStartEiia
T _ZNK7icu_3_815PersianCalendar5cloneEv
T _ZNK7icu_3_815PersianCalendar7getTypeEv
T _ZNK7icu_3_816BuddhistCalendar14handleGetLimitE19UCalendarDateFieldsNS_8Calendar10ELimitTypeE
T _ZNK7icu_3_816BuddhistCalendar17getDynamicClassIDEv
T _ZNK7icu_3_816BuddhistCalendar18haveDefaultCenturyEv
T _ZNK7icu_3_816BuddhistCalendar19defaultCenturyStartEv
T _ZNK7icu_3_816BuddhistCalendar23defaultCenturyStartYearEv
T _ZNK7icu_3_816BuddhistCalendar23handleComputeMonthStartEiia
T _ZNK7icu_3_816BuddhistCalendar30internalGetDefaultCenturyStartEv
T _ZNK7icu_3_816BuddhistCalendar34internalGetDefaultCenturyStartYearEv
T _ZNK7icu_3_816BuddhistCalendar5cloneEv
T _ZNK7icu_3_816BuddhistCalendar7getTypeEv
T _ZNK7icu_3_816JapaneseCalendar14handleGetLimitE19UCalendarDateFieldsNS_8Calendar10ELimitTypeE
T _ZNK7icu_3_816JapaneseCalendar14internalGetEraEv
T _ZNK7icu_3_816JapaneseCalendar17getDynamicClassIDEv
T _ZNK7icu_3_816JapaneseCalendar18haveDefaultCenturyEv
T _ZNK7icu_3_816JapaneseCalendar19defaultCenturyStartEv
T _ZNK7icu_3_816JapaneseCalendar23defaultCenturyStartYearEv
T _ZNK7icu_3_816JapaneseCalendar5cloneEv
T _ZNK7icu_3_816JapaneseCalendar7getTypeEv
T _ZNK7icu_3_816LocalizationInfo14indexForLocaleEPKt
T _ZNK7icu_3_816LocalizationInfo15indexForRuleSetEPKt
T _ZNK7icu_3_816LocalizationInfoeqEPKS0_
T _ZNK7icu_3_816NullSubstitution17getDynamicClassIDEv
T _ZNK7icu_3_816SimpleDateFormat11matchStringERKNS_13UnicodeStringEi19UCalendarDateFieldsPS2_iRNS_8CalendarE
T _ZNK7icu_3_816SimpleDateFormat14formatRFC822TZERNS_13UnicodeStringEi
T _ZNK7icu_3_816SimpleDateFormat15parseGMTDefaultERKNS_13UnicodeStringERNS_13ParsePositionE
T _ZNK7icu_3_816SimpleDateFormat16formatGMTDefaultERNS_13UnicodeStringEi
T _ZNK7icu_3_816SimpleDateFormat17getDynamicClassIDEv
T _ZNK7icu_3_816SimpleDateFormat17zeroPaddingNumberERNS_13UnicodeStringEiii
T _ZNK7icu_3_816SimpleDateFormat18isDefaultGMTFormatEv
T _ZNK7icu_3_816SimpleDateFormat18matchQuarterStringERKNS_13UnicodeStringEi19UCalendarDateFieldsPS2_iRNS_8CalendarE
T _ZNK7icu_3_816SimpleDateFormat18toLocalizedPatternERNS_13UnicodeStringER10UErrorCode
T _ZNK7icu_3_816SimpleDateFormat20getDateFormatSymbolsEv
T _ZNK7icu_3_816SimpleDateFormat5cloneEv
T _ZNK7icu_3_816SimpleDateFormat5parseERKNS_13UnicodeStringER10UErrorCode
T _ZNK7icu_3_816SimpleDateFormat5parseERKNS_13UnicodeStringERNS_13ParsePositionE
T _ZNK7icu_3_816SimpleDateFormat5parseERKNS_13UnicodeStringERNS_8CalendarERNS_13ParsePositionE
T _ZNK7icu_3_816SimpleDateFormat6formatERKNS_11FormattableERNS_13UnicodeStringERNS_13FieldPositionER10UErrorCode
T _ZNK7icu_3_816SimpleDateFormat6formatERNS_8CalendarERNS_13UnicodeStringERNS_13FieldPositionE
T _ZNK7icu_3_816SimpleDateFormat8parseGMTERKNS_13UnicodeStringERNS_13ParsePositionE
T _ZNK7icu_3_816SimpleDateFormat8parseIntERKNS_13UnicodeStringERNS_11FormattableERNS_13ParsePositionEa
T _ZNK7icu_3_816SimpleDateFormat8parseIntERKNS_13UnicodeStringERNS_11FormattableEiRNS_13ParsePositionEa
T _ZNK7icu_3_816SimpleDateFormat8subParseERKNS_13UnicodeStringERitiaaPaRNS_8CalendarE
T _ZNK7icu_3_816SimpleDateFormat9appendGMTERNS_13UnicodeStringERNS_8CalendarER10UErrorCode
T _ZNK7icu_3_816SimpleDateFormat9subFormatERNS_13UnicodeStringEtiRNS_13FieldPositionERNS_8CalendarER10UErrorCode
T _ZNK7icu_3_816SimpleDateFormat9toPatternERNS_13UnicodeStringE
T _ZNK7icu_3_816SimpleDateFormateqERKNS_6FormatE
T _ZNK7icu_3_816ZoneStringFormat15findGenericLongERKNS_13UnicodeStringEiRiR10UErrorCode
T _ZNK7icu_3_816ZoneStringFormat16findGenericShortERKNS_13UnicodeStringEiRiR10UErrorCode
T _ZNK7icu_3_816ZoneStringFormat16findSpecificLongERKNS_13UnicodeStringEiRiR10UErrorCode
T _ZNK7icu_3_816ZoneStringFormat16getGenericStringERKNS_8CalendarEaaRNS_13UnicodeStringER10UErrorCode
T _ZNK7icu_3_816ZoneStringFormat17findSpecificShortERKNS_13UnicodeStringEiRiR10UErrorCode
T _ZNK7icu_3_816ZoneStringFormat19findGenericLocationERKNS_13UnicodeStringEiRiR10UErrorCode
T _ZNK7icu_3_816ZoneStringFormat20getGenericLongStringERKNS_8CalendarERNS_13UnicodeStringER10UErrorCode
T _ZNK7icu_3_816ZoneStringFormat21getGenericShortStringERKNS_8CalendarEaRNS_13UnicodeStringER10UErrorCode
T _ZNK7icu_3_816ZoneStringFormat21getSpecificLongStringERKNS_8CalendarERNS_13UnicodeStringER10UErrorCode
T _ZNK7icu_3_816ZoneStringFormat22createZoneStringsArrayEdRiS1_R10UErrorCode
T _ZNK7icu_3_816ZoneStringFormat22getSpecificShortStringERKNS_8CalendarEaRNS_13UnicodeStringER10UErrorCode
T _ZNK7icu_3_816ZoneStringFormat24getGenericLocationStringERKNS_8CalendarERNS_13UnicodeStringER10UErrorCode
T _ZNK7icu_3_816ZoneStringFormat31getGenericPartialLocationStringERKNS_13UnicodeStringEadaRS1_
T _ZNK7icu_3_816ZoneStringFormat4findERKNS_13UnicodeStringEiiRiR10UErrorCode
T _ZNK7icu_3_816ZoneStringFormat9getRegionERNS_13UnicodeStringE
T _ZNK7icu_3_816ZoneStringFormat9getStringERKNS_13UnicodeStringENS_28TimeZoneTranslationTypeIndexEdaRS1_
T _ZNK7icu_3_817CharsetRecog_UTF87getNameEv
T _ZNK7icu_3_817CharsetRecog_big511getLanguageEv
T _ZNK7icu_3_817CharsetRecog_big57getNameEv
T _ZNK7icu_3_817CharsetRecog_sjis11getLanguageEv
T _ZNK7icu_3_817CharsetRecog_sjis7getNameEv
T _ZNK7icu_3_817CharsetRecognizer11getLanguageEv
T _ZNK7icu_3_817DateFormatSymbols11getEraNamesERi
T _ZNK7icu_3_817DateFormatSymbols11getQuartersERiNS0_13DtContextTypeENS0_11DtWidthTypeE
T _ZNK7icu_3_817DateFormatSymbols11getWeekdaysERi
T _ZNK7icu_3_817DateFormatSymbols11getWeekdaysERiNS0_13DtContextTypeENS0_11DtWidthTypeE
T _ZNK7icu_3_817DateFormatSymbols14getAmPmStringsERi
T _ZNK7icu_3_817DateFormatSymbols14getShortMonthsERi
T _ZNK7icu_3_817DateFormatSymbols14getZoneStringsERiS1_
T _ZNK7icu_3_817DateFormatSymbols16getShortWeekdaysERi
T _ZNK7icu_3_817DateFormatSymbols17getDynamicClassIDEv
T _ZNK7icu_3_817DateFormatSymbols19getZoneStringFormatEv
T _ZNK7icu_3_817DateFormatSymbols20getLocalPatternCharsERNS_13UnicodeStringE
T _ZNK7icu_3_817DateFormatSymbols7getErasERi
T _ZNK7icu_3_817DateFormatSymbols9getLocaleE18ULocDataLocaleTypeR10UErrorCode
T _ZNK7icu_3_817DateFormatSymbols9getMonthsERi
T _ZNK7icu_3_817DateFormatSymbols9getMonthsERiNS0_13DtContextTypeENS0_11DtWidthTypeE
T _ZNK7icu_3_817DateFormatSymbolseqERKS0_
T _ZNK7icu_3_817GregorianCalendar10isLeapYearEi
T _ZNK7icu_3_817GregorianCalendar10yearLengthEi
T _ZNK7icu_3_817GregorianCalendar10yearLengthEv
T _ZNK7icu_3_817GregorianCalendar11boundsCheckEi19UCalendarDateFields
T _ZNK7icu_3_817GregorianCalendar11monthLengthEi
T _ZNK7icu_3_817GregorianCalendar11monthLengthEii
T _ZNK7icu_3_817GregorianCalendar14handleGetLimitE19UCalendarDateFieldsNS_8Calendar10ELimitTypeE
T _ZNK7icu_3_817GregorianCalendar14inDaylightTimeER10UErrorCode
T _ZNK7icu_3_817GregorianCalendar14internalGetEraEv
T _ZNK7icu_3_817GregorianCalendar14isEquivalentToERKNS_8CalendarE
T _ZNK7icu_3_817GregorianCalendar14validateFieldsEv
T _ZNK7icu_3_817GregorianCalendar16getActualMaximumE19UCalendarDateFieldsR10UErrorCode
T _ZNK7icu_3_817GregorianCalendar16getActualMinimumE19UCalendarDateFieldsR10UErrorCode
T _ZNK7icu_3_817GregorianCalendar16getActualMinimumENS_8Calendar11EDateFieldsE
T _ZNK7icu_3_817GregorianCalendar16getActualMinimumENS_8Calendar11EDateFieldsER10UErrorCode
T _ZNK7icu_3_817GregorianCalendar17getDynamicClassIDEv
T _ZNK7icu_3_817GregorianCalendar18getGregorianChangeEv
T _ZNK7icu_3_817GregorianCalendar18haveDefaultCenturyEv
T _ZNK7icu_3_817GregorianCalendar19defaultCenturyStartEv
T _ZNK7icu_3_817GregorianCalendar19handleGetYearLengthEi
T _ZNK7icu_3_817GregorianCalendar20handleGetMonthLengthEii
T _ZNK7icu_3_817GregorianCalendar23defaultCenturyStartYearEv
T _ZNK7icu_3_817GregorianCalendar23handleComputeMonthStartEiia
T _ZNK7icu_3_817GregorianCalendar30internalGetDefaultCenturyStartEv
T _ZNK7icu_3_817GregorianCalendar34internalGetDefaultCenturyStartYearEv
T _ZNK7icu_3_817GregorianCalendar5cloneEv
T _ZNK7icu_3_817GregorianCalendar7getTypeEv
T _ZNK7icu_3_817RuleBasedCollator10getSortKeyEPKtiPhi
T _ZNK7icu_3_817RuleBasedCollator10getSortKeyERKNS_13UnicodeStringEPhi
T _ZNK7icu_3_817RuleBasedCollator10getVersionEPh
T _ZNK7icu_3_817RuleBasedCollator11getStrengthEv
T _ZNK7icu_3_817RuleBasedCollator14getTailoredSetER10UErrorCode
T _ZNK7icu_3_817RuleBasedCollator14getVariableTopER10UErrorCode
T _ZNK7icu_3_817RuleBasedCollator15getCollationKeyEPKtiRNS_12CollationKeyER10UErrorCode
T _ZNK7icu_3_817RuleBasedCollator15getCollationKeyERKNS_13UnicodeStringERNS_12CollationKeyER10UErrorCode
T _ZNK7icu_3_817RuleBasedCollator15getMaxExpansionEi
T _ZNK7icu_3_817RuleBasedCollator17getDynamicClassIDEv
T _ZNK7icu_3_817RuleBasedCollator30createCollationElementIteratorERKNS_13UnicodeStringE
T _ZNK7icu_3_817RuleBasedCollator30createCollationElementIteratorERKNS_17CharacterIteratorE
T _ZNK7icu_3_817RuleBasedCollator5cloneEv
T _ZNK7icu_3_817RuleBasedCollator7compareEPKtiS2_i
T _ZNK7icu_3_817RuleBasedCollator7compareEPKtiS2_iR10UErrorCode
T _ZNK7icu_3_817RuleBasedCollator7compareERKNS_13UnicodeStringES3_
T _ZNK7icu_3_817RuleBasedCollator7compareERKNS_13UnicodeStringES3_R10UErrorCode
T _ZNK7icu_3_817RuleBasedCollator7compareERKNS_13UnicodeStringES3_i
T _ZNK7icu_3_817RuleBasedCollator7compareERKNS_13UnicodeStringES3_iR10UErrorCode
T _ZNK7icu_3_817RuleBasedCollator8getRulesEv
T _ZNK7icu_3_817RuleBasedCollator8hashCodeEv
T _ZNK7icu_3_817RuleBasedCollator9getLocaleE18ULocDataLocaleTypeR10UErrorCode
T _ZNK7icu_3_817RuleBasedCollatoreqERKNS_8CollatorE
T _ZNK7icu_3_817RuleBasedCollatorneERKNS_8CollatorE
T _ZNK7icu_3_817RuleBasedTimeZone12getRawOffsetEv
T _ZNK7icu_3_817RuleBasedTimeZone12hasSameRulesERKNS_8TimeZoneE
T _ZNK7icu_3_817RuleBasedTimeZone13getLocalDeltaEiiiiii
T _ZNK7icu_3_817RuleBasedTimeZone14inDaylightTimeEdR10UErrorCode
T _ZNK7icu_3_817RuleBasedTimeZone15findRuleInFinalEdaii
T _ZNK7icu_3_817RuleBasedTimeZone15useDaylightTimeEv
T _ZNK7icu_3_817RuleBasedTimeZone17getDynamicClassIDEv
T _ZNK7icu_3_817RuleBasedTimeZone17getOffsetInternalEdaiiRiS1_R10UErrorCode
T _ZNK7icu_3_817RuleBasedTimeZone17getTransitionTimeEPNS_10TransitionEaii
T _ZNK7icu_3_817RuleBasedTimeZone5cloneEv
T _ZNK7icu_3_817RuleBasedTimeZone8findNextEdaRdRPNS_12TimeZoneRuleES4_
T _ZNK7icu_3_817RuleBasedTimeZone8findPrevEdaRdRPNS_12TimeZoneRuleES4_
T _ZNK7icu_3_817RuleBasedTimeZone9getOffsetEdaRiS1_R10UErrorCode
T _ZNK7icu_3_817RuleBasedTimeZone9getOffsetEhiiihiR10UErrorCode
T _ZNK7icu_3_817RuleBasedTimeZone9getOffsetEhiiihiiR10UErrorCode
T _ZNK7icu_3_817RuleBasedTimeZoneeqERKNS_8TimeZoneE
T _ZNK7icu_3_817RuleBasedTimeZoneneERKNS_8TimeZoneE
U _ZNK7icu_3_817StringEnumeration5cloneEv
U _ZNK7icu_3_817StringEnumerationeqERKS0_
U _ZNK7icu_3_817StringEnumerationneERKS0_
T _ZNK7icu_3_818AnnualTimeZoneRule10getEndYearEv
T _ZNK7icu_3_818AnnualTimeZoneRule12getNextStartEdiiaRd
T _ZNK7icu_3_818AnnualTimeZoneRule12getStartYearEv
T _ZNK7icu_3_818AnnualTimeZoneRule13getFinalStartEiiRd
T _ZNK7icu_3_818AnnualTimeZoneRule13getFirstStartEiiRd
T _ZNK7icu_3_818AnnualTimeZoneRule14getStartInYearEiiiRd
T _ZNK7icu_3_818AnnualTimeZoneRule14isEquivalentToERKNS_12TimeZoneRuleE
T _ZNK7icu_3_818AnnualTimeZoneRule16getPreviousStartEdiiaRd
T _ZNK7icu_3_818AnnualTimeZoneRule17getDynamicClassIDEv
T _ZNK7icu_3_818AnnualTimeZoneRule5cloneEv
T _ZNK7icu_3_818AnnualTimeZoneRule7getRuleEv
T _ZNK7icu_3_818AnnualTimeZoneRuleeqERKNS_12TimeZoneRuleE
T _ZNK7icu_3_818AnnualTimeZoneRuleneERKNS_12TimeZoneRuleE
T _ZNK7icu_3_818CalendarAstronomer10Equatorial8toStringEv
T _ZNK7icu_3_818CalendarAstronomer7Horizon8toStringEv
T _ZNK7icu_3_818CalendarAstronomer8Ecliptic8toStringEv
T _ZNK7icu_3_818RelativeDateFormat15getStringForDayEiRiR10UErrorCode
T _ZNK7icu_3_818RelativeDateFormat17getDynamicClassIDEv
T _ZNK7icu_3_818RelativeDateFormat5cloneEv
T _ZNK7icu_3_818RelativeDateFormat5parseERKNS_13UnicodeStringER10UErrorCode
T _ZNK7icu_3_818RelativeDateFormat5parseERKNS_13UnicodeStringERNS_13ParsePositionE
T _ZNK7icu_3_818RelativeDateFormat5parseERKNS_13UnicodeStringERNS_8CalendarERNS_13ParsePositionE
T _ZNK7icu_3_818RelativeDateFormat6formatERKNS_11FormattableERNS_13UnicodeStringERNS_13FieldPositionER10UErrorCode
T _ZNK7icu_3_818RelativeDateFormat6formatERNS_8CalendarERNS_13UnicodeStringERNS_13FieldPositionE
T _ZNK7icu_3_818RelativeDateFormateqERKNS_6FormatE
T _ZNK7icu_3_818TimeZoneTransition17getDynamicClassIDEv
T _ZNK7icu_3_818TimeZoneTransition5cloneEv
T _ZNK7icu_3_818TimeZoneTransition5getToEv
T _ZNK7icu_3_818TimeZoneTransition7getFromEv
T _ZNK7icu_3_818TimeZoneTransition7getTimeEv
T _ZNK7icu_3_818TimeZoneTransitioneqERKS0_
T _ZNK7icu_3_818TimeZoneTransitionneERKS0_
T _ZNK7icu_3_819CharsetRecog_2022CN7getNameEv
T _ZNK7icu_3_819CharsetRecog_2022JP7getNameEv
T _ZNK7icu_3_819CharsetRecog_2022KR7getNameEv
T _ZNK7icu_3_819CharsetRecog_8859_17getNameEv
T _ZNK7icu_3_819CharsetRecog_8859_27getNameEv
T _ZNK7icu_3_819CharsetRecog_8859_57getNameEv
T _ZNK7icu_3_819CharsetRecog_8859_67getNameEv
T _ZNK7icu_3_819CharsetRecog_8859_77getNameEv
T _ZNK7icu_3_819CharsetRecog_8859_87getNameEv
T _ZNK7icu_3_819CharsetRecog_8859_97getNameEv
T _ZNK7icu_3_819CharsetRecog_KOI8_R11getLanguageEv
T _ZNK7icu_3_819CharsetRecog_KOI8_R7getNameEv
T _ZNK7icu_3_819CharsetRecog_euc_jp11getLanguageEv
T _ZNK7icu_3_819CharsetRecog_euc_jp7getNameEv
T _ZNK7icu_3_819CharsetRecog_euc_kr11getLanguageEv
T _ZNK7icu_3_819CharsetRecog_euc_kr7getNameEv
T _ZNK7icu_3_819InitialTimeZoneRule12getNextStartEdiiaRd
T _ZNK7icu_3_819InitialTimeZoneRule13getFinalStartEiiRd
T _ZNK7icu_3_819InitialTimeZoneRule13getFirstStartEiiRd
T _ZNK7icu_3_819InitialTimeZoneRule14isEquivalentToERKNS_12TimeZoneRuleE
T _ZNK7icu_3_819InitialTimeZoneRule16getPreviousStartEdiiaRd
T _ZNK7icu_3_819InitialTimeZoneRule17getDynamicClassIDEv
T _ZNK7icu_3_819InitialTimeZoneRule5cloneEv
T _ZNK7icu_3_819InitialTimeZoneRuleeqERKNS_12TimeZoneRuleE
T _ZNK7icu_3_819InitialTimeZoneRuleneERKNS_12TimeZoneRuleE
T _ZNK7icu_3_819ModulusSubstitution14doSubstitutionEdRNS_13UnicodeStringEi
T _ZNK7icu_3_819ModulusSubstitution14doSubstitutionExRNS_13UnicodeStringEi
T _ZNK7icu_3_819ModulusSubstitution17getDynamicClassIDEv
T _ZNK7icu_3_819ModulusSubstitution7doParseERKNS_13UnicodeStringERNS_13ParsePositionEddaRNS_11FormattableE
T _ZNK7icu_3_819ModulusSubstitutioneqERKNS_14NFSubstitutionE
T _ZNK7icu_3_820DecimalFormatSymbols17getDynamicClassIDEv
T _ZNK7icu_3_820DecimalFormatSymbols9getLocaleE18ULocDataLocaleTypeR10UErrorCode
T _ZNK7icu_3_820DecimalFormatSymbolseqERKS0_
T _ZNK7icu_3_821CharsetRecog_gb_1803011getLanguageEv
T _ZNK7icu_3_821CharsetRecog_gb_180307getNameEv
T _ZNK7icu_3_821DTSkeletonEnumeration17getDynamicClassIDEv
T _ZNK7icu_3_821DTSkeletonEnumeration5countER10UErrorCode
T _ZNK7icu_3_821NumeratorSubstitution14doSubstitutionEdRNS_13UnicodeStringEi
T _ZNK7icu_3_821NumeratorSubstitution17getDynamicClassIDEv
T _ZNK7icu_3_821NumeratorSubstitution7doParseERKNS_13UnicodeStringERNS_13ParsePositionEddaRNS_11FormattableE
T _ZNK7icu_3_821NumeratorSubstitutioneqERKNS_14NFSubstitutionE
T _ZNK7icu_3_821RuleBasedNumberFormat11findRuleSetERKNS_13UnicodeStringER10UErrorCode
T _ZNK7icu_3_821RuleBasedNumberFormat11getCollatorEv
T _ZNK7icu_3_821RuleBasedNumberFormat14getRuleSetNameEi
T _ZNK7icu_3_821RuleBasedNumberFormat17getDynamicClassIDEv
T _ZNK7icu_3_821RuleBasedNumberFormat21getDefaultRuleSetNameEv
T _ZNK7icu_3_821RuleBasedNumberFormat23getDecimalFormatSymbolsEv
T _ZNK7icu_3_821RuleBasedNumberFormat23getNumberOfRuleSetNamesEv
T _ZNK7icu_3_821RuleBasedNumberFormat27getRuleSetDisplayNameLocaleEiR10UErrorCode
T _ZNK7icu_3_821RuleBasedNumberFormat36getNumberOfRuleSetDisplayNameLocalesEv
T _ZNK7icu_3_821RuleBasedNumberFormat5cloneEv
T _ZNK7icu_3_821RuleBasedNumberFormat5parseERKNS_13UnicodeStringERNS_11FormattableERNS_13ParsePositionE
T _ZNK7icu_3_821RuleBasedNumberFormat6formatERKNS_11FormattableERNS_13UnicodeStringERNS_13FieldPositionER10UErrorCode
T _ZNK7icu_3_821RuleBasedNumberFormat6formatEdRKNS_13UnicodeStringERS1_RNS_13FieldPositionER10UErrorCode
T _ZNK7icu_3_821RuleBasedNumberFormat6formatEdRNS_13UnicodeStringERNS_13FieldPositionE
T _ZNK7icu_3_821RuleBasedNumberFormat6formatEiRKNS_13UnicodeStringERS1_RNS_13FieldPositionER10UErrorCode
T _ZNK7icu_3_821RuleBasedNumberFormat6formatEiRNS_13UnicodeStringERNS_13FieldPositionE
T _ZNK7icu_3_821RuleBasedNumberFormat6formatExRKNS_13UnicodeStringERS1_RNS_13FieldPositionER10UErrorCode
T _ZNK7icu_3_821RuleBasedNumberFormat6formatExRNS_13UnicodeStringERNS_13FieldPositionE
T _ZNK7icu_3_821RuleBasedNumberFormat8getRulesEv
T _ZNK7icu_3_821RuleBasedNumberFormateqERKNS_6FormatE
T _ZNK7icu_3_821SameValueSubstitution17getDynamicClassIDEv
T _ZNK7icu_3_821TimeArrayTimeZoneRule11getTimeTypeEv
T _ZNK7icu_3_821TimeArrayTimeZoneRule12getNextStartEdiiaRd
T _ZNK7icu_3_821TimeArrayTimeZoneRule13getFinalStartEiiRd
T _ZNK7icu_3_821TimeArrayTimeZoneRule13getFirstStartEiiRd
T _ZNK7icu_3_821TimeArrayTimeZoneRule14getStartTimeAtEiRd
T _ZNK7icu_3_821TimeArrayTimeZoneRule14isEquivalentToERKNS_12TimeZoneRuleE
T _ZNK7icu_3_821TimeArrayTimeZoneRule15countStartTimesEv
T _ZNK7icu_3_821TimeArrayTimeZoneRule16getPreviousStartEdiiaRd
T _ZNK7icu_3_821TimeArrayTimeZoneRule17getDynamicClassIDEv
T _ZNK7icu_3_821TimeArrayTimeZoneRule5cloneEv
T _ZNK7icu_3_821TimeArrayTimeZoneRule6getUTCEdii
T _ZNK7icu_3_821TimeArrayTimeZoneRuleeqERKNS_12TimeZoneRuleE
T _ZNK7icu_3_821TimeArrayTimeZoneRuleneERKNS_12TimeZoneRuleE
T _ZNK7icu_3_822CharsetRecog_8859_1_da11getLanguageEv
T _ZNK7icu_3_822CharsetRecog_8859_1_de11getLanguageEv
T _ZNK7icu_3_822CharsetRecog_8859_1_en11getLanguageEv
T _ZNK7icu_3_822CharsetRecog_8859_1_es11getLanguageEv
T _ZNK7icu_3_822CharsetRecog_8859_1_fr11getLanguageEv
T _ZNK7icu_3_822CharsetRecog_8859_1_it11getLanguageEv
T _ZNK7icu_3_822CharsetRecog_8859_1_nl11getLanguageEv
T _ZNK7icu_3_822CharsetRecog_8859_1_no11getLanguageEv
T _ZNK7icu_3_822CharsetRecog_8859_1_pt11getLanguageEv
T _ZNK7icu_3_822CharsetRecog_8859_1_sv11getLanguageEv
T _ZNK7icu_3_822CharsetRecog_8859_2_cs11getLanguageEv
T _ZNK7icu_3_822CharsetRecog_8859_2_hu11getLanguageEv
T _ZNK7icu_3_822CharsetRecog_8859_2_pl11getLanguageEv
T _ZNK7icu_3_822CharsetRecog_8859_2_ro11getLanguageEv
T _ZNK7icu_3_822CharsetRecog_8859_5_ru11getLanguageEv
T _ZNK7icu_3_822CharsetRecog_8859_6_ar11getLanguageEv
T _ZNK7icu_3_822CharsetRecog_8859_7_el11getLanguageEv
T _ZNK7icu_3_822CharsetRecog_8859_8_he11getLanguageEv
T _ZNK7icu_3_822CharsetRecog_8859_9_tr11getLanguageEv
T _ZNK7icu_3_822CharsetRecog_UTF_16_BE7getNameEv
T _ZNK7icu_3_822CharsetRecog_UTF_16_LE7getNameEv
T _ZNK7icu_3_822CharsetRecog_UTF_32_BE7getCharEPKhi
T _ZNK7icu_3_822CharsetRecog_UTF_32_BE7getNameEv
T _ZNK7icu_3_822CharsetRecog_UTF_32_LE7getCharEPKhi
T _ZNK7icu_3_822CharsetRecog_UTF_32_LE7getNameEv
T _ZNK7icu_3_822DTRedundantEnumeration17getDynamicClassIDEv
T _ZNK7icu_3_822DTRedundantEnumeration5countER10UErrorCode
T _ZNK7icu_3_822MultiplierSubstitution17getDynamicClassIDEv
T _ZNK7icu_3_822MultiplierSubstitutioneqERKNS_14NFSubstitutionE
T _ZNK7icu_3_822StringLocalizationInfo13getLocaleNameEi
T _ZNK7icu_3_822StringLocalizationInfo14getDisplayNameEii
T _ZNK7icu_3_822StringLocalizationInfo14getRuleSetNameEi
T _ZNK7icu_3_823SafeZoneStringFormatPtr3getEv
T _ZNK7icu_3_824CharsetRecog_8859_8_I_he11getLanguageEv
T _ZNK7icu_3_824CharsetRecog_8859_8_I_he7getNameEv
T _ZNK7icu_3_824CollationElementIterator13strengthOrderEi
T _ZNK7icu_3_824CollationElementIterator17getDynamicClassIDEv
T _ZNK7icu_3_824CollationElementIterator9getOffsetEv
T _ZNK7icu_3_824CollationElementIteratoreqERKS0_
T _ZNK7icu_3_824CollationElementIteratorneERKS0_
T _ZNK7icu_3_824DateTimePatternGenerator10getDecimalEv
T _ZNK7icu_3_824DateTimePatternGenerator12getSkeletonsER10UErrorCode
T _ZNK7icu_3_824DateTimePatternGenerator15isCanonicalItemERKNS_13UnicodeStringE
T _ZNK7icu_3_824DateTimePatternGenerator16getBaseSkeletonsER10UErrorCode
T _ZNK7icu_3_824DateTimePatternGenerator17getAppendItemNameE21UDateTimePatternField
T _ZNK7icu_3_824DateTimePatternGenerator17getDateTimeFormatEv
T _ZNK7icu_3_824DateTimePatternGenerator17getDynamicClassIDEv
T _ZNK7icu_3_824DateTimePatternGenerator19getAppendItemFormatE21UDateTimePatternField
T _ZNK7icu_3_824DateTimePatternGenerator19getAppendNameNumberEPKc
T _ZNK7icu_3_824DateTimePatternGenerator20isAvailableFormatSetERKNS_13UnicodeStringE
T _ZNK7icu_3_824DateTimePatternGenerator21getAppendFormatNumberEPKc
T _ZNK7icu_3_824DateTimePatternGenerator21getPatternForSkeletonERKNS_13UnicodeStringE
T _ZNK7icu_3_824DateTimePatternGenerator5cloneEv
T _ZNK7icu_3_824DateTimePatternGeneratoreqERKS0_
T _ZNK7icu_3_824DateTimePatternGeneratorneERKS0_
T _ZNK7icu_3_824IntegralPartSubstitution17getDynamicClassIDEv
T _ZNK7icu_3_825AbsoluteValueSubstitution17getDynamicClassIDEv
T _ZNK7icu_3_825CharsetRecog_windows_125111getLanguageEv
T _ZNK7icu_3_825CharsetRecog_windows_12517getNameEv
T _ZNK7icu_3_825CharsetRecog_windows_125611getLanguageEv
T _ZNK7icu_3_825CharsetRecog_windows_12567getNameEv
T _ZNK7icu_3_826FractionalPartSubstitution14doSubstitutionEdRNS_13UnicodeStringEi
T _ZNK7icu_3_826FractionalPartSubstitution17getDynamicClassIDEv
T _ZNK7icu_3_826FractionalPartSubstitution7doParseERKNS_13UnicodeStringERNS_13ParsePositionEddaRNS_11FormattableE
T _ZNK7icu_3_826FractionalPartSubstitutioneqERKNS_14NFSubstitutionE
T _ZNK7icu_3_830CollationLocaleListEnumeration17getDynamicClassIDEv
T _ZNK7icu_3_86Format11getLocaleIDE18ULocDataLocaleTypeR10UErrorCode
T _ZNK7icu_3_86Format11parseObjectERKNS_13UnicodeStringERNS_11FormattableER10UErrorCode
T _ZNK7icu_3_86Format6formatERKNS_11FormattableERNS_13UnicodeStringER10UErrorCode
T _ZNK7icu_3_86Format9getLocaleE18ULocDataLocaleTypeR10UErrorCode
T _ZNK7icu_3_86FormateqERKS0_
U _ZNK7icu_3_86Locale11getBaseNameEv
U _ZNK7icu_3_86Locale14getDisplayNameERKS0_RNS_13UnicodeStringE
U _ZNK7icu_3_86Locale15getKeywordValueEPKcPciR10UErrorCode
U _ZNK7icu_3_86Locale17getDisplayCountryERKS0_RNS_13UnicodeStringE
U _ZNK7icu_3_86LocaleeqERKS0_
T _ZNK7icu_3_86NFRule10indexOfAnyEPKPKt
T _ZNK7icu_3_86NFRule11stripPrefixERNS_13UnicodeStringERKS1_RNS_13ParsePositionE
T _ZNK7icu_3_86NFRule12allIgnorableERKNS_13UnicodeStringE
T _ZNK7icu_3_86NFRule12prefixLengthERKNS_13UnicodeStringES3_
T _ZNK7icu_3_86NFRule14shouldRollBackEd
T _ZNK7icu_3_86NFRule15_appendRuleTextERNS_13UnicodeStringE
T _ZNK7icu_3_86NFRule16expectedExponentEv
T _ZNK7icu_3_86NFRule16matchToDelimiterERKNS_13UnicodeStringEidS3_RNS_13ParsePositionEPKNS_14NFSubstitutionEd
T _ZNK7icu_3_86NFRule7doParseERKNS_13UnicodeStringERNS_13ParsePositionEadRNS_11FormattableE
T _ZNK7icu_3_86NFRule8doFormatEdRNS_13UnicodeStringEi
T _ZNK7icu_3_86NFRule8doFormatExRNS_13UnicodeStringEi
T _ZNK7icu_3_86NFRule8findTextERKNS_13UnicodeStringES3_iPi
T _ZNK7icu_3_86NFRuleeqERKS0_
T _ZNK7icu_3_87MeasureeqERKNS_7UObjectE
U _ZNK7icu_3_87UVector10elementAtiEi
U _ZNK7icu_3_87UVector9elementAtEi
T _ZNK7icu_3_88Calendar10getMaximumE19UCalendarDateFields
T _ZNK7icu_3_88Calendar10getMaximumENS0_11EDateFieldsE
T _ZNK7icu_3_88Calendar10getMinimumE19UCalendarDateFields
T _ZNK7icu_3_88Calendar10getMinimumENS0_11EDateFieldsE
T _ZNK7icu_3_88Calendar10newerFieldE19UCalendarDateFieldsS1_
T _ZNK7icu_3_88Calendar11getLocaleIDE18ULocDataLocaleTypeR10UErrorCode
T _ZNK7icu_3_88Calendar11getTimeZoneEv
T _ZNK7icu_3_88Calendar11newestStampE19UCalendarDateFieldsS1_i
T _ZNK7icu_3_88Calendar14isEquivalentToERKS0_
T _ZNK7icu_3_88Calendar15getActualHelperE19UCalendarDateFieldsiiR10UErrorCode
T _ZNK7icu_3_88Calendar15getLeastMaximumE19UCalendarDateFields
T _ZNK7icu_3_88Calendar15getLeastMaximumENS0_11EDateFieldsE
T _ZNK7icu_3_88Calendar15getTimeInMillisER10UErrorCode
T _ZNK7icu_3_88Calendar16getActualMaximumE19UCalendarDateFieldsR10UErrorCode
T _ZNK7icu_3_88Calendar16getActualMinimumE19UCalendarDateFieldsR10UErrorCode
T _ZNK7icu_3_88Calendar16getActualMinimumENS0_11EDateFieldsER10UErrorCode
T _ZNK7icu_3_88Calendar17getFirstDayOfWeekER10UErrorCode
T _ZNK7icu_3_88Calendar17getFirstDayOfWeekEv
T _ZNK7icu_3_88Calendar18getGreatestMinimumE19UCalendarDateFields
T _ZNK7icu_3_88Calendar18getGreatestMinimumENS0_11EDateFieldsE
T _ZNK7icu_3_88Calendar19handleGetYearLengthEi
T _ZNK7icu_3_88Calendar20handleGetMonthLengthEii
T _ZNK7icu_3_88Calendar23getFieldResolutionTableEv
T _ZNK7icu_3_88Calendar25getMinimalDaysInFirstWeekEv
T _ZNK7icu_3_88Calendar3getE19UCalendarDateFieldsR10UErrorCode
T _ZNK7icu_3_88Calendar5afterERKS0_R10UErrorCode
T _ZNK7icu_3_88Calendar5isSetE19UCalendarDateFields
T _ZNK7icu_3_88Calendar6beforeERKS0_R10UErrorCode
T _ZNK7icu_3_88Calendar6equalsERKS0_R10UErrorCode
T _ZNK7icu_3_88Calendar8getLimitE19UCalendarDateFieldsNS0_10ELimitTypeE
T _ZNK7icu_3_88Calendar9getLocaleE18ULocDataLocaleTypeR10UErrorCode
T _ZNK7icu_3_88Calendar9isLenientEv
T _ZNK7icu_3_88CalendareqERKS0_
T _ZNK7icu_3_88Collator14getTailoredSetER10UErrorCode
T _ZNK7icu_3_88Collator14greaterOrEqualERKNS_13UnicodeStringES3_
T _ZNK7icu_3_88Collator6equalsERKNS_13UnicodeStringES3_
T _ZNK7icu_3_88Collator7compareEPKtiS2_i
T _ZNK7icu_3_88Collator7compareERKNS_13UnicodeStringES3_
T _ZNK7icu_3_88Collator7compareERKNS_13UnicodeStringES3_i
T _ZNK7icu_3_88Collator7greaterERKNS_13UnicodeStringES3_
T _ZNK7icu_3_88CollatoreqERKS0_
T _ZNK7icu_3_88CollatorneERKS0_
T _ZNK7icu_3_88TimeZone12hasSameRulesERKS0_
T _ZNK7icu_3_88TimeZone13getDSTSavingsEv
T _ZNK7icu_3_88TimeZone14getDisplayNameERKNS_6LocaleERNS_13UnicodeStringE
T _ZNK7icu_3_88TimeZone14getDisplayNameERNS_13UnicodeStringE
T _ZNK7icu_3_88TimeZone14getDisplayNameEaNS0_12EDisplayTypeERKNS_6LocaleERNS_13UnicodeStringE
T _ZNK7icu_3_88TimeZone14getDisplayNameEaNS0_12EDisplayTypeERNS_13UnicodeStringE
T _ZNK7icu_3_88TimeZone9getOffsetEdaRiS1_R10UErrorCode
T _ZNK7icu_3_88TimeZoneeqERKS0_
T _ZNK7icu_3_89DigitList13shouldRoundUpEi
T _ZNK7icu_3_89DigitList6isZeroEv
T _ZNK7icu_3_89DigitListeqERKS0_
T _ZNK7icu_3_89InputText5isSetEv
T _ZNK7icu_3_89NFRuleSet11appendRulesERNS_13UnicodeStringE
T _ZNK7icu_3_89NFRuleSet14findDoubleRuleEd
T _ZNK7icu_3_89NFRuleSet14findNormalRuleEx
T _ZNK7icu_3_89NFRuleSet23findFractionRuleSetRuleEd
T _ZNK7icu_3_89NFRuleSet5parseERKNS_13UnicodeStringERNS_13ParsePositionEdRNS_11FormattableE
T _ZNK7icu_3_89NFRuleSet6formatEdRNS_13UnicodeStringEi
T _ZNK7icu_3_89NFRuleSet6formatExRNS_13UnicodeStringEi
T _ZNK7icu_3_89NFRuleSeteqERKS0_
T _ZNK7icu_3_89VTimeZone10beginRRULEERNS_9VTZWriterEiR10UErrorCode
T _ZNK7icu_3_89VTimeZone11appendUNTILERNS_9VTZWriterERKNS_13UnicodeStringER10UErrorCode
T _ZNK7icu_3_89VTimeZone11writeFooterERNS_9VTZWriterER10UErrorCode
T _ZNK7icu_3_89VTimeZone12endZonePropsERNS_9VTZWriterEaR10UErrorCode
T _ZNK7icu_3_89VTimeZone12getRawOffsetEv
T _ZNK7icu_3_89VTimeZone12hasSameRulesERKNS_8TimeZoneE
T _ZNK7icu_3_89VTimeZone12writeHeadersERNS_9VTZWriterER10UErrorCode
T _ZNK7icu_3_89VTimeZone14beginZonePropsERNS_9VTZWriterEaRKNS_13UnicodeStringEiidR10UErrorCode
T _ZNK7icu_3_89VTimeZone14inDaylightTimeEdR10UErrorCode
T _ZNK7icu_3_89VTimeZone14writeFinalRuleERNS_9VTZWriterEaPKNS_18AnnualTimeZoneRuleEiidR10UErrorCode
T _ZNK7icu_3_89VTimeZone15getLastModifiedERd
T _ZNK7icu_3_89VTimeZone15useDaylightTimeEv
T _ZNK7icu_3_89VTimeZone17getDynamicClassIDEv
T _ZNK7icu_3_89VTimeZone19writeZonePropsByDOMERNS_9VTZWriterEaRKNS_13UnicodeStringEiiiiddR10UErrorCode
T _ZNK7icu_3_89VTimeZone19writeZonePropsByDOWERNS_9VTZWriterEaRKNS_13UnicodeStringEiiiiiddR10UErrorCode
T _ZNK7icu_3_89VTimeZone20writeZonePropsByTimeERNS_9VTZWriterEaRKNS_13UnicodeStringEiidaR10UErrorCode
T _ZNK7icu_3_89VTimeZone27writeZonePropsByDOW_GEQ_DOMERNS_9VTZWriterEaRKNS_13UnicodeStringEiiiiiddR10UErrorCode
T _ZNK7icu_3_89VTimeZone27writeZonePropsByDOW_LEQ_DOMERNS_9VTZWriterEaRKNS_13UnicodeStringEiiiiiddR10UErrorCode
T _ZNK7icu_3_89VTimeZone31writeZonePropsByDOW_GEQ_DOM_subERNS_9VTZWriterEiiiidiR10UErrorCode
T _ZNK7icu_3_89VTimeZone5cloneEv
T _ZNK7icu_3_89VTimeZone5writeERNS_13UnicodeStringER10UErrorCode
T _ZNK7icu_3_89VTimeZone5writeERNS_9VTZWriterER10UErrorCode
T _ZNK7icu_3_89VTimeZone8getTZURLERNS_13UnicodeStringE
T _ZNK7icu_3_89VTimeZone9getOffsetEdaRiS1_R10UErrorCode
T _ZNK7icu_3_89VTimeZone9getOffsetEhiiihiR10UErrorCode
T _ZNK7icu_3_89VTimeZone9getOffsetEhiiihiiR10UErrorCode
T _ZNK7icu_3_89VTimeZone9writeZoneERNS_9VTZWriterERNS_13BasicTimeZoneEPNS_7UVectorER10UErrorCode
T _ZNK7icu_3_89VTimeZoneeqERKNS_8TimeZoneE
T _ZNK7icu_3_89VTimeZoneneERKNS_8TimeZoneE
D _ZTVN7icu_3_810DateFormatE
D _ZTVN7icu_3_810PatternMapE
D _ZTVN7icu_3_811FormattableE
D _ZTVN7icu_3_811MeasureUnitE
D _ZTVN7icu_3_811PtnSkeletonE
D _ZTVN7icu_3_811TextTrieMapE
D _ZTVN7icu_3_811ZoneStringsE
D _ZTVN7icu_3_812ChoiceFormatE
D _ZTVN7icu_3_812CollationKeyE
D _ZTVN7icu_3_812CurrencyUnitE
D _ZTVN7icu_3_812DateTimeRuleE
V _ZTVN7icu_3_812DistanceInfoE
D _ZTVN7icu_3_812FormatParserE
D _ZTVN7icu_3_812NumberFormatE
D _ZTVN7icu_3_812RegexCompileE
D _ZTVN7icu_3_812RegexMatcherE
D _ZTVN7icu_3_812RegexPatternE
D _ZTVN7icu_3_812StringSearchE
D _ZTVN7icu_3_812TimeZoneRuleE
D _ZTVN7icu_3_813BasicTimeZoneE
D _ZTVN7icu_3_813CalendarCacheE
D _ZTVN7icu_3_813DecimalFormatE
D _ZTVN7icu_3_813FieldPositionE
V _ZTVN7icu_3_813MeasureFormatE
D _ZTVN7icu_3_813MessageFormatE
D _ZTVN7icu_3_813OlsonTimeZoneE
U _ZTVN7icu_3_813ParsePositionE
D _ZTVN7icu_3_813TZEnumerationE
D _ZTVN7icu_3_814CurrencyAmountE
D _ZTVN7icu_3_814CurrencyFormatE
D _ZTVN7icu_3_814HebrewCalendarE
D _ZTVN7icu_3_814IndianCalendarE
D _ZTVN7icu_3_814NFSubstitutionE
D _ZTVN7icu_3_814SearchIteratorE
D _ZTVN7icu_3_814SimpleTimeZoneE
D _ZTVN7icu_3_814TaiwanCalendarE
D _ZTVN7icu_3_814ZoneStringInfoE
V _ZTVN7icu_3_815DateTimeMatcherE
D _ZTVN7icu_3_815IslamicCalendarE
D _ZTVN7icu_3_815PersianCalendarE
D _ZTVN7icu_3_816BuddhistCalendarE
D _ZTVN7icu_3_816CharsetRecog_eucE
D _ZTVN7icu_3_816JapaneseCalendarE
D _ZTVN7icu_3_816LocalizationInfoE
D _ZTVN7icu_3_816NullSubstitutionE
V _ZTVN7icu_3_816RiseSetCoordFuncE
D _ZTVN7icu_3_816SimpleDateFormatE
V _ZTVN7icu_3_816SunTimeAngleFuncE
D _ZTVN7icu_3_816ZoneStringFormatE
V _ZTVN7icu_3_817CharsetRecog_2022E
D _ZTVN7icu_3_817CharsetRecog_UTF8E
D _ZTVN7icu_3_817CharsetRecog_big5E
D _ZTVN7icu_3_817CharsetRecog_mbcsE
D _ZTVN7icu_3_817CharsetRecog_sbcsE
D _ZTVN7icu_3_817CharsetRecog_sjisE
D _ZTVN7icu_3_817CharsetRecognizerE
D _ZTVN7icu_3_817DateFormatSymbolsE
D _ZTVN7icu_3_817GregorianCalendarE
V _ZTVN7icu_3_817MoonTimeAngleFuncE
D _ZTVN7icu_3_817RuleBasedCollatorE
D _ZTVN7icu_3_817RuleBasedTimeZoneE
D _ZTVN7icu_3_818AnnualTimeZoneRuleE
D _ZTVN7icu_3_818CalendarAstronomer9AngleFuncE
D _ZTVN7icu_3_818CalendarAstronomer9CoordFuncE
D _ZTVN7icu_3_818PatternMapIteratorE
D _ZTVN7icu_3_818RelativeDateFormatE
D _ZTVN7icu_3_818TimeZoneTransitionE
D _ZTVN7icu_3_819CharsetRecog_2022CNE
D _ZTVN7icu_3_819CharsetRecog_2022JPE
D _ZTVN7icu_3_819CharsetRecog_2022KRE
D _ZTVN7icu_3_819CharsetRecog_8859_1E
D _ZTVN7icu_3_819CharsetRecog_8859_2E
D _ZTVN7icu_3_819CharsetRecog_8859_5E
D _ZTVN7icu_3_819CharsetRecog_8859_6E
D _ZTVN7icu_3_819CharsetRecog_8859_7E
D _ZTVN7icu_3_819CharsetRecog_8859_8E
D _ZTVN7icu_3_819CharsetRecog_8859_9E
D _ZTVN7icu_3_819CharsetRecog_KOI8_RE
D _ZTVN7icu_3_819CharsetRecog_UTF_32E
D _ZTVN7icu_3_819CharsetRecog_euc_jpE
D _ZTVN7icu_3_819CharsetRecog_euc_krE
D _ZTVN7icu_3_819InitialTimeZoneRuleE
D _ZTVN7icu_3_819ModulusSubstitutionE
D _ZTVN7icu_3_820CharsetRecog_UnicodeE
D _ZTVN7icu_3_820DecimalFormatSymbolsE
V _ZTVN7icu_3_820MoonRiseSetCoordFuncE
D _ZTVN7icu_3_821CharsetRecog_gb_18030E
D _ZTVN7icu_3_821DTSkeletonEnumerationE
D _ZTVN7icu_3_821NumeratorSubstitutionE
D _ZTVN7icu_3_821RuleBasedNumberFormatE
D _ZTVN7icu_3_821SameValueSubstitutionE
D _ZTVN7icu_3_821TimeArrayTimeZoneRuleE
D _ZTVN7icu_3_822CharsetRecog_8859_1_daE
D _ZTVN7icu_3_822CharsetRecog_8859_1_deE
D _ZTVN7icu_3_822CharsetRecog_8859_1_enE
D _ZTVN7icu_3_822CharsetRecog_8859_1_esE
D _ZTVN7icu_3_822CharsetRecog_8859_1_frE
D _ZTVN7icu_3_822CharsetRecog_8859_1_itE
D _ZTVN7icu_3_822CharsetRecog_8859_1_nlE
D _ZTVN7icu_3_822CharsetRecog_8859_1_noE
D _ZTVN7icu_3_822CharsetRecog_8859_1_ptE
D _ZTVN7icu_3_822CharsetRecog_8859_1_svE
D _ZTVN7icu_3_822CharsetRecog_8859_2_csE
D _ZTVN7icu_3_822CharsetRecog_8859_2_huE
D _ZTVN7icu_3_822CharsetRecog_8859_2_plE
D _ZTVN7icu_3_822CharsetRecog_8859_2_roE
D _ZTVN7icu_3_822CharsetRecog_8859_5_ruE
D _ZTVN7icu_3_822CharsetRecog_8859_6_arE
D _ZTVN7icu_3_822CharsetRecog_8859_7_elE
D _ZTVN7icu_3_822CharsetRecog_8859_8_heE
D _ZTVN7icu_3_822CharsetRecog_8859_9_trE
D _ZTVN7icu_3_822CharsetRecog_UTF_16_BEE
D _ZTVN7icu_3_822CharsetRecog_UTF_16_LEE
D _ZTVN7icu_3_822CharsetRecog_UTF_32_BEE
D _ZTVN7icu_3_822CharsetRecog_UTF_32_LEE
D _ZTVN7icu_3_822DTRedundantEnumerationE
D _ZTVN7icu_3_822MultiplierSubstitutionE
D _ZTVN7icu_3_822StringLocalizationInfoE
D _ZTVN7icu_3_824CharsetRecog_8859_8_I_heE
D _ZTVN7icu_3_824CollationElementIteratorE
D _ZTVN7icu_3_824DateTimePatternGeneratorE
D _ZTVN7icu_3_824IntegralPartSubstitutionE
D _ZTVN7icu_3_825AbsoluteValueSubstitutionE
D _ZTVN7icu_3_825CharsetRecog_windows_1251E
D _ZTVN7icu_3_825CharsetRecog_windows_1256E
D _ZTVN7icu_3_826FractionalPartSubstitutionE
D _ZTVN7icu_3_829ZoneStringSearchResultHandlerE
D _ZTVN7icu_3_830CollationLocaleListEnumerationE
D _ZTVN7icu_3_830TextTrieMapSearchResultHandlerE
D _ZTVN7icu_3_86FormatE
D _ZTVN7icu_3_87MeasureE
D _ZTVN7icu_3_87PtnElemE
D _ZTVN7icu_3_88CalendarE
D _ZTVN7icu_3_88CollatorE
D _ZTVN7icu_3_88TimeZoneE
D _ZTVN7icu_3_89VTimeZoneE
U __aeabi_atexit
U __aeabi_d2iz
U __aeabi_d2lz
U __aeabi_d2uiz
U __aeabi_dadd
U __aeabi_dcmpeq
U __aeabi_dcmpge
U __aeabi_dcmpgt
U __aeabi_dcmple
U __aeabi_dcmplt
U __aeabi_ddiv
U __aeabi_dmul
U __aeabi_dsub
U __aeabi_i2d
U __aeabi_idiv
U __aeabi_idivmod
U __aeabi_l2d
U __aeabi_ldivmod
U __aeabi_lmul
U __aeabi_ui2d
U __aeabi_uidiv
U __aeabi_uidivmod
U __aeabi_unwind_cpp_pr0
U __aeabi_unwind_cpp_pr1
A __bss_end__
A __bss_start
A __bss_start__
U __cxa_pure_virtual
D __data_start
U __dso_handle
A __end__
A __exidx_end
A __exidx_start
U __stack_chk_fail
U __stack_chk_guard
A _bss_end__
U _ctype_
A _edata
A _end
A _stack
U acos
U asin
U atan
U atan2
U atoi
U atol
U calloc
U cos
U free
U log10
U malloc
U memcmp
U memcpy
U memmove
U memset
U printf
U sin
U sprintf
U sqrt
U strcat
U strchr
U strcmp
U strcpy
U strlen
U strncat
U strncmp
U strncpy
U strrchr
U strtod
U tan
U u_UCharsToChars_3_8
U u_charDigitValue_3_8
U u_charFromName_3_8
U u_charType_3_8
U u_charsToUChars_3_8
U u_digit_3_8
U u_enumCharTypes_3_8
U u_foldCase_3_8
T u_formatMessageWithError_3_8
T u_formatMessage_3_8
U u_getCombiningClass_3_8
U u_getUnicodeVersion_3_8
U u_growBufferFromStatic_3_8
U u_hasBinaryProperty_3_8
U u_init_3_8
U u_isUWhiteSpace_3_8
U u_isWhitespace_3_8
U u_isdigit_3_8
U u_islower_3_8
T u_lengthOfIdenticalLevelRun_3_8
U u_memchr_3_8
U u_memcmpCodePointOrder_3_8
U u_memcmp_3_8
U u_memcpy_3_8
T u_parseMessageWithError_3_8
T u_parseMessage_3_8
U u_strCompareIter_3_8
U u_strchr_3_8
U u_strcmpCodePointOrder_3_8
U u_strcmp_3_8
U u_strcpy_3_8
U u_strlen_3_8
U u_strncasecmp_3_8
U u_strncmp_3_8
U u_strncpy_3_8
U u_terminateUChars_3_8
U u_tolower_3_8
U u_unescapeAt_3_8
T u_vformatMessageWithError_3_8
T u_vformatMessage_3_8
T u_vparseMessageWithError_3_8
T u_vparseMessage_3_8
T u_writeDiff_3_8
T u_writeIdenticalLevelRunTwoChars_3_8
T u_writeIdenticalLevelRun_3_8
U ubrk_close_3_8
U ubrk_first_3_8
U ubrk_following_3_8
U ubrk_isBoundary_3_8
U ubrk_last_3_8
U ubrk_open_3_8
U ubrk_setText_3_8
T ucal_add_3_8
T ucal_clearField_3_8
T ucal_clear_3_8
T ucal_close_3_8
T ucal_countAvailable_3_8
T ucal_equivalentTo_3_8
T ucal_getAttribute_3_8
T ucal_getAvailable_3_8
T ucal_getDSTSavings_3_8
T ucal_getDefaultTimeZone_3_8
T ucal_getGregorianChange_3_8
T ucal_getLimit_3_8
T ucal_getLocaleByType_3_8
T ucal_getMillis_3_8
T ucal_getNow_3_8
T ucal_getTZDataVersion_3_8
T ucal_getTimeZoneDisplayName_3_8
T ucal_get_3_8
T ucal_inDaylightTime_3_8
T ucal_isSet_3_8
T ucal_openCountryTimeZones_3_8
T ucal_openTimeZones_3_8
T ucal_open_3_8
T ucal_roll_3_8
T ucal_setAttribute_3_8
T ucal_setDateTime_3_8
T ucal_setDate_3_8
T ucal_setDefaultTimeZone_3_8
T ucal_setGregorianChange_3_8
T ucal_setMillis_3_8
T ucal_setTimeZone_3_8
T ucal_set_3_8
T ucln_i18n_registerCleanup_3_8
U ucln_registerCleanup_3_8
U ucnv_close_3_8
U ucnv_open_3_8
U ucnv_toUChars_3_8
T ucol_allocWeights_3_8
T ucol_assembleTailoringTable_3_8
T ucol_calcSortKeySimpleTertiary_3_8
T ucol_calcSortKey_3_8
T ucol_cloneBinary_3_8
T ucol_cloneRuleData_3_8
T ucol_closeElements_3_8
T ucol_close_3_8
T ucol_collatorToIdentifier_3_8
T ucol_countAvailable_3_8
T ucol_createElements_3_8
T ucol_doCE_3_8
T ucol_equal_3_8
T ucol_equals_3_8
T ucol_forgetUCA_3_8
T ucol_getAttributeOrDefault_3_8
T ucol_getAttribute_3_8
T ucol_getAvailable_3_8
T ucol_getBound_3_8
T ucol_getCEGenerator_3_8
T ucol_getCEStrengthDifference_3_8
T ucol_getContractionsAndExpansions_3_8
T ucol_getContractions_3_8
T ucol_getDisplayName_3_8
T ucol_getFirstCE_3_8
T ucol_getFunctionalEquivalent_3_8
T ucol_getKeywordValues_3_8
T ucol_getKeywords_3_8
T ucol_getLocaleByType_3_8
T ucol_getLocale_3_8
T ucol_getMaxExpansion_3_8
T ucol_getNextCE_3_8
T ucol_getNextGenerated_3_8
T ucol_getOffset_3_8
T ucol_getPrevCE_3_8
T ucol_getRulesEx_3_8
T ucol_getRules_3_8
T ucol_getShortDefinitionString_3_8
T ucol_getSimpleCEGenerator_3_8
T ucol_getSortKeySize_3_8
T ucol_getSortKeyWithAllocation_3_8
T ucol_getSortKey_3_8
T ucol_getStrength_3_8
T ucol_getTailoredSet_3_8
T ucol_getUCAVersion_3_8
T ucol_getUnsafeSet_3_8
T ucol_getVariableTop_3_8
T ucol_getVersion_3_8
T ucol_greaterOrEqual_3_8
T ucol_greater_3_8
T ucol_identifierToShortString_3_8
T ucol_initBuffers_3_8
T ucol_initCollator_3_8
T ucol_initInverseUCA_3_8
T ucol_initUCA_3_8
T ucol_inv_getGapPositions_3_8
T ucol_inv_getNextCE_3_8
T ucol_inv_getPrevCE_3_8
T ucol_isTailored_3_8
T ucol_keyHashCode_3_8
T ucol_mergeSortkeys_3_8
T ucol_nextSortKeyPart_3_8
T ucol_nextWeight_3_8
T ucol_next_3_8
T ucol_normalizeShortDefinitionString_3_8
T ucol_openBinary_3_8
T ucol_openElements_3_8
T ucol_openFromIdentifier_3_8
T ucol_openFromShortString_3_8
T ucol_openRules_3_8
T ucol_open_3_8
T ucol_open_internal_3_8
T ucol_prepareShortStringOpen_3_8
T ucol_previous_3_8
T ucol_primaryOrder_3_8
T ucol_prv_getSpecialCE_3_8
T ucol_prv_getSpecialPrevCE_3_8
T ucol_reset_3_8
T ucol_restoreVariableTop_3_8
T ucol_safeClone_3_8
T ucol_secondaryOrder_3_8
T ucol_setAttribute_3_8
T ucol_setOffset_3_8
T ucol_setOptionsFromHeader_3_8
T ucol_setReqValidLocales_3_8
T ucol_setStrength_3_8
T ucol_setText_3_8
T ucol_setVariableTop_3_8
T ucol_shortStringToIdentifier_3_8
T ucol_strcollIter_3_8
T ucol_strcoll_3_8
T ucol_tertiaryOrder_3_8
T ucol_tok_assembleTokenList_3_8
T ucol_tok_closeTokenList_3_8
T ucol_tok_getNextArgument_3_8
T ucol_tok_initTokenList_3_8
T ucol_tok_parseNextToken_3_8
T ucol_updateInternalState_3_8
T ucsdet_close_3_8
T ucsdet_detectAll_3_8
T ucsdet_detect_3_8
T ucsdet_enableInputFilter_3_8
T ucsdet_getAllDetectableCharsets_3_8
T ucsdet_getConfidence_3_8
T ucsdet_getLanguage_3_8
T ucsdet_getName_3_8
T ucsdet_getUChars_3_8
T ucsdet_isInputFilterEnabled_3_8
T ucsdet_open_3_8
T ucsdet_setDeclaredEncoding_3_8
T ucsdet_setText_3_8
T ucurr_forLocale_3_8
T ucurr_getDefaultFractionDigits_3_8
T ucurr_getName_3_8
T ucurr_getRoundingIncrement_3_8
T ucurr_openISOCurrencies_3_8
T udat_applyPattern_3_8
T udat_clone_3_8
T udat_close_3_8
T udat_countAvailable_3_8
T udat_countSymbols_3_8
T udat_format_3_8
T udat_get2DigitYearStart_3_8
T udat_getAvailable_3_8
T udat_getCalendar_3_8
T udat_getLocaleByType_3_8
T udat_getNumberFormat_3_8
T udat_getSymbols_3_8
T udat_isLenient_3_8
T udat_open_3_8
T udat_parseCalendar_3_8
T udat_parse_3_8
T udat_set2DigitYearStart_3_8
T udat_setCalendar_3_8
T udat_setLenient_3_8
T udat_setNumberFormat_3_8
T udat_setSymbols_3_8
T udat_toPattern_3_8
U udata_close_3_8
U udata_getMemory_3_8
U udata_openChoice_3_8
T udatpg_addPattern_3_8
T udatpg_clone_3_8
T udatpg_close_3_8
T udatpg_getAppendItemFormat_3_8
T udatpg_getAppendItemName_3_8
T udatpg_getBaseSkeleton_3_8
T udatpg_getBestPattern_3_8
T udatpg_getDateTimeFormat_3_8
T udatpg_getDecimal_3_8
T udatpg_getPatternForSkeleton_3_8
T udatpg_getSkeleton_3_8
T udatpg_openBaseSkeletons_3_8
T udatpg_openEmpty_3_8
T udatpg_openSkeletons_3_8
T udatpg_open_3_8
T udatpg_replaceFieldTypes_3_8
T udatpg_setAppendItemFormat_3_8
T udatpg_setAppendItemName_3_8
T udatpg_setDateTimeFormat_3_8
T udatpg_setDecimal_3_8
U uenum_close_3_8
U uenum_openCharStringsEnumeration_3_8
U uenum_openStringEnumeration_3_8
U uenum_unextDefault_3_8
U uhash_close_3_8
U uhash_compareLong_3_8
U uhash_compareUChars_3_8
U uhash_compareUnicodeString_3_8
U uhash_count_3_8
U uhash_deleteUnicodeString_3_8
U uhash_freeBlock_3_8
U uhash_get_3_8
U uhash_geti_3_8
U uhash_hashChars_3_8
U uhash_hashLong_3_8
U uhash_hashUCharsN_3_8
U uhash_hashUChars_3_8
U uhash_hashUnicodeString_3_8
U uhash_igeti_3_8
U uhash_init_3_8
U uhash_iputi_3_8
U uhash_nextElement_3_8
U uhash_openSize_3_8
U uhash_open_3_8
U uhash_put_3_8
U uhash_puti_3_8
U uhash_setKeyDeleter_3_8
U uhash_setValueDeleter_3_8
U uiter_next32_3_8
U uiter_previous32_3_8
U uloc_canonicalize_3_8
U uloc_countAvailable_3_8
U uloc_getAvailable_3_8
U uloc_getBaseName_3_8
U uloc_getCountry_3_8
U uloc_getDefault_3_8
U uloc_getKeywordValue_3_8
U uloc_getLanguage_3_8
U uloc_getName_3_8
U uloc_getParent_3_8
U uloc_getScript_3_8
U uloc_getVariant_3_8
T ulocdata_close_3_8
T ulocdata_getDelimiter_3_8
T ulocdata_getExemplarSet_3_8
T ulocdata_getMeasurementSystem_3_8
T ulocdata_getNoSubstitute_3_8
T ulocdata_getPaperSize_3_8
T ulocdata_open_3_8
T ulocdata_setNoSubstitute_3_8
T umsg_applyPattern_3_8
T umsg_autoQuoteApostrophe_3_8
T umsg_clone_3_8
T umsg_close_3_8
T umsg_format_3_8
T umsg_getLocale_3_8
T umsg_open_3_8
T umsg_parse_3_8
T umsg_setLocale_3_8
T umsg_toPattern_3_8
T umsg_vformat_3_8
T umsg_vparse_3_8
U umtx_atomic_dec_3_8
U umtx_atomic_inc_3_8
U umtx_destroy_3_8
U umtx_init_3_8
U umtx_lock_3_8
U umtx_unlock_3_8
U unorm_closeIter_3_8
U unorm_decompose_3_8
U unorm_getDecomposition_3_8
U unorm_getFCDTrie_3_8
U unorm_internalNormalize_3_8
U unorm_normalize_3_8
U unorm_openIter_3_8
U unorm_quickCheck_3_8
U unorm_setIter_3_8
T unum_applyPattern_3_8
T unum_clone_3_8
T unum_close_3_8
T unum_countAvailable_3_8
T unum_formatDoubleCurrency_3_8
T unum_formatDouble_3_8
T unum_formatInt64_3_8
T unum_format_3_8
T unum_getAttribute_3_8
T unum_getAvailable_3_8
T unum_getDoubleAttribute_3_8
T unum_getLocaleByType_3_8
T unum_getSymbol_3_8
T unum_getTextAttribute_3_8
T unum_open_3_8
T unum_parseDoubleCurrency_3_8
T unum_parseDouble_3_8
T unum_parseInt64_3_8
T unum_parse_3_8
T unum_setAttribute_3_8
T unum_setDoubleAttribute_3_8
T unum_setSymbol_3_8
T unum_setTextAttribute_3_8
T unum_toPattern_3_8
U uprv_asciitolower_3_8
U uprv_ceil_3_8
T uprv_cnttab_addContraction_3_8
T uprv_cnttab_changeContraction_3_8
T uprv_cnttab_changeLastCE_3_8
T uprv_cnttab_clone_3_8
T uprv_cnttab_close_3_8
T uprv_cnttab_constructTable_3_8
T uprv_cnttab_findCE_3_8
T uprv_cnttab_findCP_3_8
T uprv_cnttab_getCE_3_8
T uprv_cnttab_insertContraction_3_8
T uprv_cnttab_isTailored_3_8
T uprv_cnttab_open_3_8
T uprv_cnttab_setContraction_3_8
U uprv_fabs_3_8
U uprv_floor_3_8
U uprv_fmod_3_8
U uprv_free_3_8
U uprv_getInfinity_3_8
U uprv_getNaN_3_8
T uprv_getStaticCurrencyName_3_8
U uprv_getUTCtime_3_8
T uprv_init_collIterate_3_8
U uprv_isInfinite_3_8
U uprv_isInvariantUString_3_8
U uprv_isNaN_3_8
U uprv_isNegativeInfinity_3_8
U uprv_isPositiveInfinity_3_8
U uprv_isRuleWhiteSpace_3_8
U uprv_itou_3_8
U uprv_log_3_8
U uprv_malloc_3_8
U uprv_maxMantissa_3_8
U uprv_max_3_8
U uprv_min_3_8
T uprv_parseCurrency_3_8
U uprv_pow_3_8
U uprv_realloc_3_8
U uprv_round_3_8
U uprv_sortArray_3_8
U uprv_timezone_3_8
U uprv_toupper_3_8
U uprv_tzname_3_8
U uprv_tzset_3_8
T uprv_uca_addAnElement_3_8
T uprv_uca_assembleTable_3_8
T uprv_uca_canonicalClosure_3_8
T uprv_uca_cloneTempTable_3_8
T uprv_uca_closeTempTable_3_8
T uprv_uca_getCodePointFromRaw_3_8
T uprv_uca_getImplicitFromRaw_3_8
T uprv_uca_getRawFromCodePoint_3_8
T uprv_uca_getRawFromImplicit_3_8
T uprv_uca_initImplicitConstants_3_8
T uprv_uca_initTempTable_3_8
T uregex_appendReplacement_3_8
T uregex_appendTail_3_8
T uregex_clone_3_8
T uregex_close_3_8
T uregex_end_3_8
T uregex_findNext_3_8
T uregex_find_3_8
T uregex_flags_3_8
T uregex_getText_3_8
T uregex_groupCount_3_8
T uregex_group_3_8
T uregex_hasAnchoringBounds
T uregex_hasTransparentBounds
T uregex_hitEnd
T uregex_lookingAt_3_8
T uregex_matches_3_8
T uregex_openC_3_8
T uregex_open_3_8
T uregex_pattern_3_8
T uregex_regionEnd
T uregex_regionStart
T uregex_replaceAll_3_8
T uregex_replaceFirst_3_8
T uregex_requireEnd
T uregex_reset_3_8
T uregex_setRegion
T uregex_setText_3_8
T uregex_split_3_8
T uregex_start_3_8
T uregex_useAnchoringBounds
T uregex_useTransparentBounds
U ures_close_3_8
U ures_getBinary_3_8
U ures_getByIndex_3_8
U ures_getByKeyWithFallback_3_8
U ures_getByKey_3_8
U ures_getFunctionalEquivalent_3_8
U ures_getIntVector_3_8
U ures_getInt_3_8
U ures_getKey_3_8
U ures_getKeywordValues_3_8
U ures_getLocaleByType_3_8
U ures_getLocale_3_8
U ures_getNextResource_3_8
U ures_getNextString_3_8
U ures_getSize_3_8
U ures_getStringByIndex_3_8
U ures_getStringByKeyWithFallback_3_8
U ures_getStringByKey_3_8
U ures_getString_3_8
U ures_getType_3_8
U ures_hasNext_3_8
U ures_initStackObject_3_8
U ures_openDirect_3_8
U ures_open_3_8
U ures_resetIterator_3_8
T usearch_close_3_8
T usearch_first_3_8
T usearch_following_3_8
T usearch_getAttribute_3_8
T usearch_getBreakIterator_3_8
T usearch_getCollator_3_8
T usearch_getMatchedLength_3_8
T usearch_getMatchedStart_3_8
T usearch_getMatchedText_3_8
T usearch_getOffset_3_8
T usearch_getPattern_3_8
T usearch_getText_3_8
T usearch_handleNextCanonical_3_8
T usearch_handleNextExact_3_8
T usearch_handlePreviousCanonical_3_8
T usearch_handlePreviousExact_3_8
T usearch_last_3_8
T usearch_next_3_8
T usearch_openFromCollator_3_8
T usearch_open_3_8
T usearch_preceding_3_8
T usearch_previous_3_8
T usearch_reset_3_8
T usearch_setAttribute_3_8
T usearch_setBreakIterator_3_8
T usearch_setCollator_3_8
T usearch_setOffset_3_8
T usearch_setPattern_3_8
T usearch_setText_3_8
U uset_addAll_3_8
U uset_addRange_3_8
U uset_addString_3_8
U uset_add_3_8
U uset_applyPattern_3_8
U uset_clear_3_8
U uset_close_3_8
U uset_contains_3_8
U uset_getItemCount_3_8
U uset_getItem_3_8
U uset_openPatternOptions_3_8
U uset_openPattern_3_8
U uset_open_3_8
U uset_size_3_8
T utmscale_fromInt64_3_8
T utmscale_getTimeScaleValue_3_8
T utmscale_toInt64_3_8
U utrie_clone_3_8
U utrie_close_3_8
U utrie_enum_3_8
U utrie_get32_3_8
U utrie_open_3_8
U utrie_serialize_3_8
U utrie_set32_3_8
U utrie_unserialize_3_8
