T T_CString_int64ToString_3_8
T T_CString_integerToString_3_8
T T_CString_stricmp_3_8
T T_CString_stringToInteger_3_8
T T_CString_strnicmp_3_8
T T_CString_toLowerCase_3_8
T T_CString_toUpperCase_3_8
T UCNV_FROM_U_CALLBACK_ESCAPE_3_8
T UCNV_FROM_U_CALLBACK_SKIP_3_8
T UCNV_FROM_U_CALLBACK_STOP_3_8
T UCNV_FROM_U_CALLBACK_SUBSTITUTE_3_8
T UCNV_TO_U_CALLBACK_ESCAPE_3_8
T UCNV_TO_U_CALLBACK_SKIP_3_8
T UCNV_TO_U_CALLBACK_STOP_3_8
T UCNV_TO_U_CALLBACK_SUBSTITUTE_3_8
T UDataMemory_createNewInstance_3_8
T UDataMemory_init_3_8
T UDataMemory_isLoaded_3_8
T UDataMemory_normalizeDataPointer_3_8
T UDataMemory_setData_3_8
T UDatamemory_assign_3_8
D _ASCIIData_3_8
D _Bocu1Data_3_8
D _CESU8Data_3_8
D _HZData_3_8
D _IMAPData_3_8
D _ISCIIData_3_8
D _ISO2022Data_3_8
D _LMBCSData11_3_8
D _LMBCSData16_3_8
D _LMBCSData17_3_8
D _LMBCSData18_3_8
D _LMBCSData19_3_8
D _LMBCSData1_3_8
D _LMBCSData2_3_8
D _LMBCSData3_3_8
D _LMBCSData4_3_8
D _LMBCSData5_3_8
D _LMBCSData6_3_8
D _LMBCSData8_3_8
D _Latin1Data_3_8
D _MBCSData_3_8
D _SCSUData_3_8
D _UTF16BEData_3_8
D _UTF16Data_3_8
D _UTF16LEData_3_8
D _UTF32BEData_3_8
D _UTF32Data_3_8
D _UTF32LEData_3_8
D _UTF7Data_3_8
D _UTF8Data_3_8
T _ZN7icu_3_810NameToEnum4swapEPK12UDataSwapperPKhiPhS6_iP10UErrorCode
T _ZN7icu_3_810Normalizer11clearBufferEv
T _ZN7icu_3_810Normalizer11concatenateERNS_13UnicodeStringES2_S2_18UNormalizationModeiR10UErrorCode
T _ZN7icu_3_810Normalizer12setIndexOnlyEi
T _ZN7icu_3_810Normalizer13nextNormalizeEv
T _ZN7icu_3_810Normalizer16getStaticClassIDEv
T _ZN7icu_3_810Normalizer17previousNormalizeEv
T _ZN7icu_3_810Normalizer4initEPNS_17CharacterIteratorE
T _ZN7icu_3_810Normalizer4lastEv
T _ZN7icu_3_810Normalizer4nextEv
T _ZN7icu_3_810Normalizer5firstEv
T _ZN7icu_3_810Normalizer5resetEv
T _ZN7icu_3_810Normalizer7composeERKNS_13UnicodeStringEaiRS1_R10UErrorCode
T _ZN7icu_3_810Normalizer7currentEv
T _ZN7icu_3_810Normalizer7getTextERNS_13UnicodeStringE
T _ZN7icu_3_810Normalizer7setModeE18UNormalizationMode
T _ZN7icu_3_810Normalizer7setTextEPKtiR10UErrorCode
T _ZN7icu_3_810Normalizer7setTextERKNS_13UnicodeStringER10UErrorCode
T _ZN7icu_3_810Normalizer7setTextERKNS_17CharacterIteratorER10UErrorCode
T _ZN7icu_3_810Normalizer8previousEv
T _ZN7icu_3_810Normalizer9decomposeERKNS_13UnicodeStringEaiRS1_R10UErrorCode
T _ZN7icu_3_810Normalizer9normalizeERKNS_13UnicodeStringE18UNormalizationModeiRS1_R10UErrorCode
T _ZN7icu_3_810Normalizer9setOptionEia
T _ZN7icu_3_810NormalizerC1EPKti18UNormalizationMode
T _ZN7icu_3_810NormalizerC1ERKNS_13UnicodeStringE18UNormalizationMode
T _ZN7icu_3_810NormalizerC1ERKNS_17CharacterIteratorE18UNormalizationMode
T _ZN7icu_3_810NormalizerC1ERKS0_
T _ZN7icu_3_810NormalizerC2EPKti18UNormalizationMode
T _ZN7icu_3_810NormalizerC2ERKNS_13UnicodeStringE18UNormalizationMode
T _ZN7icu_3_810NormalizerC2ERKNS_17CharacterIteratorE18UNormalizationMode
T _ZN7icu_3_810NormalizerC2ERKS0_
T _ZN7icu_3_810NormalizerD0Ev
T _ZN7icu_3_810NormalizerD1Ev
T _ZN7icu_3_810NormalizerD2Ev
T _ZN7icu_3_810UnicodeSet10complementERKNS_13UnicodeStringE
T _ZN7icu_3_810UnicodeSet10complementEi
T _ZN7icu_3_810UnicodeSet10complementEii
T _ZN7icu_3_810UnicodeSet10complementEv
T _ZN7icu_3_810UnicodeSet10createFromERKNS_13UnicodeStringE
T _ZN7icu_3_810UnicodeSet10setPatternERKNS_13UnicodeStringE
T _ZN7icu_3_810UnicodeSet11applyFilterEPFaiPvES1_iR10UErrorCode
T _ZN7icu_3_810UnicodeSet11exclusiveOrEPKiia
T _ZN7icu_3_810UnicodeSet11getSingleCPERKNS_13UnicodeStringE
T _ZN7icu_3_810UnicodeSet11swapBuffersEv
T _ZN7icu_3_810UnicodeSet12_appendToPatERNS_13UnicodeStringERKS1_a
T _ZN7icu_3_810UnicodeSet12_appendToPatERNS_13UnicodeStringEia
T _ZN7icu_3_810UnicodeSet12applyPatternERKNS_13UnicodeStringER10UErrorCode
T _ZN7icu_3_810UnicodeSet12applyPatternERKNS_13UnicodeStringERNS_13ParsePositionEjPKNS_11SymbolTableER10UErrorCode
T _ZN7icu_3_810UnicodeSet12applyPatternERKNS_13UnicodeStringEjPKNS_11SymbolTableER10UErrorCode
T _ZN7icu_3_810UnicodeSet12applyPatternERNS_21RuleCharacterIteratorEPKNS_11SymbolTableERNS_13UnicodeStringEjR10UErrorCode
T _ZN7icu_3_810UnicodeSet13complementAllERKNS_13UnicodeStringE
T _ZN7icu_3_810UnicodeSet13complementAllERKS0_
T _ZN7icu_3_810UnicodeSet13createFromAllERKNS_13UnicodeStringE
T _ZN7icu_3_810UnicodeSet14ensureCapacityEi
T _ZN7icu_3_810UnicodeSet14releasePatternEv
T _ZN7icu_3_810UnicodeSet15allocateStringsER10UErrorCode
T _ZN7icu_3_810UnicodeSet16getStaticClassIDEv
T _ZN7icu_3_810UnicodeSet16removeAllStringsEv
T _ZN7icu_3_810UnicodeSet16resemblesPatternERKNS_13UnicodeStringEi
T _ZN7icu_3_810UnicodeSet18applyPropertyAliasERKNS_13UnicodeStringES3_R10UErrorCode
T _ZN7icu_3_810UnicodeSet20applyPropertyPatternERKNS_13UnicodeStringERNS_13ParsePositionER10UErrorCode
T _ZN7icu_3_810UnicodeSet20applyPropertyPatternERNS_21RuleCharacterIteratorERNS_13UnicodeStringER10UErrorCode
T _ZN7icu_3_810UnicodeSet20ensureBufferCapacityEi
T _ZN7icu_3_810UnicodeSet21applyIntPropertyValueE9UPropertyiR10UErrorCode
T _ZN7icu_3_810UnicodeSet24resemblesPropertyPatternERKNS_13UnicodeStringEi
T _ZN7icu_3_810UnicodeSet24resemblesPropertyPatternERNS_21RuleCharacterIteratorEi
T _ZN7icu_3_810UnicodeSet3addEPKiia
T _ZN7icu_3_810UnicodeSet3addERKNS_13UnicodeStringE
T _ZN7icu_3_810UnicodeSet3addEi
T _ZN7icu_3_810UnicodeSet3addEii
T _ZN7icu_3_810UnicodeSet3setEii
T _ZN7icu_3_810UnicodeSet4_addERKNS_13UnicodeStringE
T _ZN7icu_3_810UnicodeSet5clearEv
T _ZN7icu_3_810UnicodeSet6addAllERKNS_13UnicodeStringE
T _ZN7icu_3_810UnicodeSet6addAllERKS0_
T _ZN7icu_3_810UnicodeSet6freezeEv
T _ZN7icu_3_810UnicodeSet6removeERKNS_13UnicodeStringE
T _ZN7icu_3_810UnicodeSet6removeEi
T _ZN7icu_3_810UnicodeSet6removeEii
T _ZN7icu_3_810UnicodeSet6retainEPKiia
T _ZN7icu_3_810UnicodeSet6retainEi
T _ZN7icu_3_810UnicodeSet6retainEii
T _ZN7icu_3_810UnicodeSet7compactEv
T _ZN7icu_3_810UnicodeSet7matchesERKNS_11ReplaceableERiia
T _ZN7icu_3_810UnicodeSet9closeOverEi
T _ZN7icu_3_810UnicodeSet9matchRestERKNS_11ReplaceableEiiRKNS_13UnicodeStringE
T _ZN7icu_3_810UnicodeSet9removeAllERKNS_13UnicodeStringE
T _ZN7icu_3_810UnicodeSet9removeAllERKS0_
T _ZN7icu_3_810UnicodeSet9retainAllERKNS_13UnicodeStringE
T _ZN7icu_3_810UnicodeSet9retainAllERKS0_
T _ZN7icu_3_810UnicodeSetC1ERKNS_13UnicodeStringER10UErrorCode
T _ZN7icu_3_810UnicodeSetC1ERKNS_13UnicodeStringERNS_13ParsePositionEjPKNS_11SymbolTableER10UErrorCode
T _ZN7icu_3_810UnicodeSetC1ERKNS_13UnicodeStringEjPKNS_11SymbolTableER10UErrorCode
T _ZN7icu_3_810UnicodeSetC1ERKS0_
T _ZN7icu_3_810UnicodeSetC1ERKS0_a
T _ZN7icu_3_810UnicodeSetC1Eii
T _ZN7icu_3_810UnicodeSetC1Ev
T _ZN7icu_3_810UnicodeSetC2ERKNS_13UnicodeStringER10UErrorCode
T _ZN7icu_3_810UnicodeSetC2ERKNS_13UnicodeStringERNS_13ParsePositionEjPKNS_11SymbolTableER10UErrorCode
T _ZN7icu_3_810UnicodeSetC2ERKNS_13UnicodeStringEjPKNS_11SymbolTableER10UErrorCode
T _ZN7icu_3_810UnicodeSetC2ERKS0_
T _ZN7icu_3_810UnicodeSetC2ERKS0_a
T _ZN7icu_3_810UnicodeSetC2Eii
T _ZN7icu_3_810UnicodeSetC2Ev
T _ZN7icu_3_810UnicodeSetD0Ev
T _ZN7icu_3_810UnicodeSetD1Ev
T _ZN7icu_3_810UnicodeSetD2Ev
T _ZN7icu_3_810UnicodeSetaSERKS0_
T _ZN7icu_3_811ICU_Utility11parseNumberERKNS_13UnicodeStringERia
T _ZN7icu_3_811ICU_Utility12appendNumberERNS_13UnicodeStringEiii
T _ZN7icu_3_811ICU_Utility12appendToRuleERNS_13UnicodeStringEPKNS_14UnicodeMatcherEaS2_
T _ZN7icu_3_811ICU_Utility12appendToRuleERNS_13UnicodeStringERKS1_aaS2_
T _ZN7icu_3_811ICU_Utility12appendToRuleERNS_13UnicodeStringEiaaS2_
T _ZN7icu_3_811ICU_Utility12parseIntegerERKNS_13UnicodeStringERii
T _ZN7icu_3_811ICU_Utility12parsePatternERKNS_13UnicodeStringERKNS_11ReplaceableEii
T _ZN7icu_3_811ICU_Utility12parsePatternERKNS_13UnicodeStringEiiS3_Pi
T _ZN7icu_3_811ICU_Utility13isUnprintableEi
T _ZN7icu_3_811ICU_Utility14skipWhitespaceERKNS_13UnicodeStringERia
T _ZN7icu_3_811ICU_Utility17escapeUnprintableERNS_13UnicodeStringEi
T _ZN7icu_3_811ICU_Utility22parseUnicodeIdentifierERKNS_13UnicodeStringERi
T _ZN7icu_3_811ICU_Utility9parseCharERKNS_13UnicodeStringERit
T _ZN7icu_3_811LocaleBased12setLocaleIDsEPKcS2_
T _ZN7icu_3_811ReplaceableC1Ev
T _ZN7icu_3_811ReplaceableC2Ev
T _ZN7icu_3_811ReplaceableD0Ev
T _ZN7icu_3_811ReplaceableD1Ev
T _ZN7icu_3_811ReplaceableD2Ev
T _ZN7icu_3_811SymbolTableD0Ev
T _ZN7icu_3_811SymbolTableD1Ev
T _ZN7icu_3_811SymbolTableD2Ev
T _ZN7icu_3_811TernaryNodeD1Ev
T _ZN7icu_3_811TernaryNodeD2Ev
T _ZN7icu_3_812EnumToOffset4swapEPK12UDataSwapperPKhiPhS6_iP10UErrorCode
T _ZN7icu_3_813BreakIterator12makeInstanceERKNS_6LocaleEiR10UErrorCode
T _ZN7icu_3_813BreakIterator13buildInstanceERKNS_6LocaleEPKciR10UErrorCode
T _ZN7icu_3_813BreakIterator14createInstanceERKNS_6LocaleEiR10UErrorCode
T _ZN7icu_3_813BreakIterator14getDisplayNameERKNS_6LocaleERNS_13UnicodeStringE
T _ZN7icu_3_813BreakIterator14getDisplayNameERKNS_6LocaleES3_RNS_13UnicodeStringE
T _ZN7icu_3_813BreakIterator18createLineInstanceERKNS_6LocaleER10UErrorCode
T _ZN7icu_3_813BreakIterator18createWordInstanceERKNS_6LocaleER10UErrorCode
T _ZN7icu_3_813BreakIterator19createTitleInstanceERKNS_6LocaleER10UErrorCode
T _ZN7icu_3_813BreakIterator19getAvailableLocalesERi
T _ZN7icu_3_813BreakIterator22createSentenceInstanceERKNS_6LocaleER10UErrorCode
T _ZN7icu_3_813BreakIterator23createCharacterInstanceERKNS_6LocaleER10UErrorCode
T _ZN7icu_3_813BreakIteratorC1Ev
T _ZN7icu_3_813BreakIteratorC2Ev
T _ZN7icu_3_813BreakIteratorD0Ev
T _ZN7icu_3_813BreakIteratorD1Ev
T _ZN7icu_3_813BreakIteratorD2Ev
T _ZN7icu_3_813ParsePosition16getStaticClassIDEv
T _ZN7icu_3_813ParsePositionD0Ev
T _ZN7icu_3_813ParsePositionD1Ev
T _ZN7icu_3_813ParsePositionD2Ev
T _ZN7icu_3_813UnicodeFilter16getStaticClassIDEv
T _ZN7icu_3_813UnicodeFilter7matchesERKNS_11ReplaceableERiia
T _ZN7icu_3_813UnicodeFilter7setDataEPKNS_23TransliterationRuleDataE
T _ZN7icu_3_813UnicodeFilterD0Ev
T _ZN7icu_3_813UnicodeFilterD1Ev
T _ZN7icu_3_813UnicodeFilterD2Ev
T _ZN7icu_3_813UnicodeString10padLeadingEit
T _ZN7icu_3_813UnicodeString10setToBogusEv
T _ZN7icu_3_813UnicodeString11padTrailingEit
T _ZN7icu_3_813UnicodeString12fastCopyFromERKS0_
T _ZN7icu_3_813UnicodeString12releaseArrayEv
T _ZN7icu_3_813UnicodeString13releaseBufferEi
T _ZN7icu_3_813UnicodeString14findAndReplaceEiiRKS0_iiS2_ii
T _ZN7icu_3_813UnicodeString16doCodepageCreateEPKciP10UConverterR10UErrorCode
T _ZN7icu_3_813UnicodeString16doCodepageCreateEPKciS2_
T _ZN7icu_3_813UnicodeString16getStaticClassIDEv
T _ZN7icu_3_813UnicodeString18cloneArrayIfNeededEiiaPPia
T _ZN7icu_3_813UnicodeString20handleReplaceBetweenEiiRKS0_
T _ZN7icu_3_813UnicodeString4copyEiii
T _ZN7icu_3_813UnicodeString4trimEv
T _ZN7icu_3_813UnicodeString5setToEPtii
T _ZN7icu_3_813UnicodeString5setToEaPKti
W _ZN7icu_3_813UnicodeString5setToEi
T _ZN7icu_3_813UnicodeString6addRefEv
T _ZN7icu_3_813UnicodeString7caseMapEPNS_13BreakIteratorEPKcji
T _ZN7icu_3_813UnicodeString7toLowerERKNS_6LocaleE
T _ZN7icu_3_813UnicodeString7toLowerEv
T _ZN7icu_3_813UnicodeString7toTitleEPNS_13BreakIteratorE
T _ZN7icu_3_813UnicodeString7toTitleEPNS_13BreakIteratorERKNS_6LocaleE
T _ZN7icu_3_813UnicodeString7toTitleEPNS_13BreakIteratorERKNS_6LocaleEj
T _ZN7icu_3_813UnicodeString7toUpperERKNS_6LocaleE
T _ZN7icu_3_813UnicodeString7toUpperEv
T _ZN7icu_3_813UnicodeString7unBogusEv
T _ZN7icu_3_813UnicodeString8allocateEi
T _ZN7icu_3_813UnicodeString8copyFromERKS0_a
T _ZN7icu_3_813UnicodeString8foldCaseEj
T _ZN7icu_3_813UnicodeString9doReplaceEiiPKtii
T _ZN7icu_3_813UnicodeString9doReplaceEiiRKS0_ii
T _ZN7icu_3_813UnicodeString9doReverseEii
T _ZN7icu_3_813UnicodeString9getBufferEi
T _ZN7icu_3_813UnicodeString9removeRefEv
T _ZN7icu_3_813UnicodeString9setCharAtEit
T _ZN7icu_3_813UnicodeStringC1EPKcS2_
T _ZN7icu_3_813UnicodeStringC1EPKciNS0_10EInvariantE
T _ZN7icu_3_813UnicodeStringC1EPKciP10UConverterR10UErrorCode
T _ZN7icu_3_813UnicodeStringC1EPKciS2_
T _ZN7icu_3_813UnicodeStringC1EPKt
T _ZN7icu_3_813UnicodeStringC1EPKti
T _ZN7icu_3_813UnicodeStringC1EPtii
T _ZN7icu_3_813UnicodeStringC1ERKS0_
T _ZN7icu_3_813UnicodeStringC1ERKS0_i
T _ZN7icu_3_813UnicodeStringC1ERKS0_ii
T _ZN7icu_3_813UnicodeStringC1EaPKti
T _ZN7icu_3_813UnicodeStringC1Ei
T _ZN7icu_3_813UnicodeStringC1Eiii
T _ZN7icu_3_813UnicodeStringC1Et
T _ZN7icu_3_813UnicodeStringC1Ev
T _ZN7icu_3_813UnicodeStringC2EPKcS2_
T _ZN7icu_3_813UnicodeStringC2EPKciNS0_10EInvariantE
T _ZN7icu_3_813UnicodeStringC2EPKciP10UConverterR10UErrorCode
T _ZN7icu_3_813UnicodeStringC2EPKciS2_
T _ZN7icu_3_813UnicodeStringC2EPKt
T _ZN7icu_3_813UnicodeStringC2EPKti
T _ZN7icu_3_813UnicodeStringC2EPtii
T _ZN7icu_3_813UnicodeStringC2ERKS0_
T _ZN7icu_3_813UnicodeStringC2ERKS0_i
T _ZN7icu_3_813UnicodeStringC2ERKS0_ii
T _ZN7icu_3_813UnicodeStringC2EaPKti
T _ZN7icu_3_813UnicodeStringC2Ei
T _ZN7icu_3_813UnicodeStringC2Eiii
T _ZN7icu_3_813UnicodeStringC2Et
T _ZN7icu_3_813UnicodeStringC2Ev
T _ZN7icu_3_813UnicodeStringD0Ev
T _ZN7icu_3_813UnicodeStringD1Ev
T _ZN7icu_3_813UnicodeStringD2Ev
T _ZN7icu_3_813UnicodeStringaSERKS0_
T _ZN7icu_3_814RBBISetBuilder11addValToSetEPNS_8RBBINodeEj
T _ZN7icu_3_814RBBISetBuilder11getTrieSizeEv
T _ZN7icu_3_814RBBISetBuilder12addValToSetsEPNS_7UVectorEj
T _ZN7icu_3_814RBBISetBuilder13serializeTrieEPh
T _ZN7icu_3_814RBBISetBuilder5buildEv
T _ZN7icu_3_814RBBISetBuilderC1EPNS_15RBBIRuleBuilderE
T _ZN7icu_3_814RBBISetBuilderC2EPNS_15RBBIRuleBuilderE
T _ZN7icu_3_814RBBISetBuilderD1Ev
T _ZN7icu_3_814RBBISetBuilderD2Ev
T _ZN7icu_3_814ResourceBundle13getNextStringEPPKcR10UErrorCode
T _ZN7icu_3_814ResourceBundle13getNextStringER10UErrorCode
T _ZN7icu_3_814ResourceBundle13resetIteratorEv
T _ZN7icu_3_814ResourceBundle15getWithFallbackEPKcR10UErrorCode
T _ZN7icu_3_814ResourceBundle16getStaticClassIDEv
T _ZN7icu_3_814ResourceBundle18constructForLocaleERKNS_13UnicodeStringERKNS_6LocaleER10UErrorCode
T _ZN7icu_3_814ResourceBundle7getNextER10UErrorCode
T _ZN7icu_3_814ResourceBundleC1EP15UResourceBundleR10UErrorCode
T _ZN7icu_3_814ResourceBundleC1EPKcRKNS_6LocaleER10UErrorCode
T _ZN7icu_3_814ResourceBundleC1ER10UErrorCode
T _ZN7icu_3_814ResourceBundleC1ERKNS_13UnicodeStringER10UErrorCode
T _ZN7icu_3_814ResourceBundleC1ERKNS_13UnicodeStringERKNS_6LocaleER10UErrorCode
T _ZN7icu_3_814ResourceBundleC1ERKS0_
T _ZN7icu_3_814ResourceBundleC2EP15UResourceBundleR10UErrorCode
T _ZN7icu_3_814ResourceBundleC2EPKcRKNS_6LocaleER10UErrorCode
T _ZN7icu_3_814ResourceBundleC2ER10UErrorCode
T _ZN7icu_3_814ResourceBundleC2ERKNS_13UnicodeStringER10UErrorCode
T _ZN7icu_3_814ResourceBundleC2ERKNS_13UnicodeStringERKNS_6LocaleER10UErrorCode
T _ZN7icu_3_814ResourceBundleC2ERKS0_
T _ZN7icu_3_814ResourceBundleD0Ev
T _ZN7icu_3_814ResourceBundleD1Ev
T _ZN7icu_3_814ResourceBundleD2Ev
T _ZN7icu_3_814ResourceBundleaSERKS0_
T _ZN7icu_3_814UnicodeFunctor16getStaticClassIDEv
T _ZN7icu_3_814UnicodeFunctorD0Ev
T _ZN7icu_3_814UnicodeFunctorD1Ev
T _ZN7icu_3_814UnicodeFunctorD2Ev
T _ZN7icu_3_814UnicodeMatcherD0Ev
T _ZN7icu_3_814UnicodeMatcherD1Ev
T _ZN7icu_3_814UnicodeMatcherD2Ev
T _ZN7icu_3_815PropertyAliases4swapEPK12UDataSwapperPKhiPhP10UErrorCode
T _ZN7icu_3_815RBBIDataWrapper12addReferenceEv
T _ZN7icu_3_815RBBIDataWrapper15removeReferenceEv
T _ZN7icu_3_815RBBIDataWrapper4initEPKNS_14RBBIDataHeaderER10UErrorCode
T _ZN7icu_3_815RBBIDataWrapper8hashCodeEv
T _ZN7icu_3_815RBBIDataWrapperC1EP11UDataMemoryR10UErrorCode
T _ZN7icu_3_815RBBIDataWrapperC1EPKNS_14RBBIDataHeaderER10UErrorCode
T _ZN7icu_3_815RBBIDataWrapperC2EP11UDataMemoryR10UErrorCode
T _ZN7icu_3_815RBBIDataWrapperC2EPKNS_14RBBIDataHeaderER10UErrorCode
T _ZN7icu_3_815RBBIDataWrapperD1Ev
T _ZN7icu_3_815RBBIDataWrapperD2Ev
T _ZN7icu_3_815RBBIRuleBuilder11flattenDataEv
T _ZN7icu_3_815RBBIRuleBuilder28createRuleBasedBreakIteratorERKNS_13UnicodeStringER11UParseErrorR10UErrorCode
T _ZN7icu_3_815RBBIRuleBuilderC1ERKNS_13UnicodeStringER11UParseErrorR10UErrorCode
T _ZN7icu_3_815RBBIRuleBuilderC2ERKNS_13UnicodeStringER11UParseErrorR10UErrorCode
T _ZN7icu_3_815RBBIRuleBuilderD0Ev
T _ZN7icu_3_815RBBIRuleBuilderD1Ev
T _ZN7icu_3_815RBBIRuleBuilderD2Ev
T _ZN7icu_3_815RBBIRuleScanner10findSetForERKNS_13UnicodeStringEPNS_8RBBINodeEPNS_10UnicodeSetE
T _ZN7icu_3_815RBBIRuleScanner10fixOpStackENS_8RBBINode12OpPrecedenceE
T _ZN7icu_3_815RBBIRuleScanner10nextCharLLEv
T _ZN7icu_3_815RBBIRuleScanner10stripRulesERKNS_13UnicodeStringE
T _ZN7icu_3_815RBBIRuleScanner11pushNewNodeENS_8RBBINode8NodeTypeE
T _ZN7icu_3_815RBBIRuleScanner14doParseActionsEi
T _ZN7icu_3_815RBBIRuleScanner5errorE10UErrorCode
T _ZN7icu_3_815RBBIRuleScanner5parseEv
T _ZN7icu_3_815RBBIRuleScanner7scanSetEv
T _ZN7icu_3_815RBBIRuleScanner8nextCharERNS0_12RBBIRuleCharE
T _ZN7icu_3_815RBBIRuleScannerC1EPNS_15RBBIRuleBuilderE
T _ZN7icu_3_815RBBIRuleScannerC2EPNS_15RBBIRuleBuilderE
T _ZN7icu_3_815RBBIRuleScannerD0Ev
T _ZN7icu_3_815RBBIRuleScannerD1Ev
T _ZN7icu_3_815RBBIRuleScannerD2Ev
T _ZN7icu_3_815RBBISymbolTable8addEntryERKNS_13UnicodeStringEPNS_8RBBINodeER10UErrorCode
T _ZN7icu_3_815RBBISymbolTableC1EPNS_15RBBIRuleScannerERKNS_13UnicodeStringER10UErrorCode
T _ZN7icu_3_815RBBISymbolTableC2EPNS_15RBBIRuleScannerERKNS_13UnicodeStringER10UErrorCode
T _ZN7icu_3_815RBBISymbolTableD0Ev
T _ZN7icu_3_815RBBISymbolTableD1Ev
T _ZN7icu_3_815RBBISymbolTableD2Ev
T _ZN7icu_3_815RangeDescriptor17setDictionaryFlagEv
T _ZN7icu_3_815RangeDescriptor5splitEiR10UErrorCode
T _ZN7icu_3_815RangeDescriptorC1ER10UErrorCode
T _ZN7icu_3_815RangeDescriptorC1ERKS0_R10UErrorCode
T _ZN7icu_3_815RangeDescriptorC2ER10UErrorCode
T _ZN7icu_3_815RangeDescriptorC2ERKS0_R10UErrorCode
T _ZN7icu_3_815RangeDescriptorD1Ev
T _ZN7icu_3_815RangeDescriptorD2Ev
T _ZN7icu_3_815ThaiBreakEngineC1EPKNS_18TrieWordDictionaryER10UErrorCode
T _ZN7icu_3_815ThaiBreakEngineC2EPKNS_18TrieWordDictionaryER10UErrorCode
T _ZN7icu_3_815ThaiBreakEngineD0Ev
T _ZN7icu_3_815ThaiBreakEngineD1Ev
T _ZN7icu_3_815ThaiBreakEngineD2Ev
T _ZN7icu_3_815UnhandledEngine15handleCharacterEii
T _ZN7icu_3_815UnhandledEngineC1ER10UErrorCode
T _ZN7icu_3_815UnhandledEngineC2ER10UErrorCode
T _ZN7icu_3_815UnhandledEngineD0Ev
T _ZN7icu_3_815UnhandledEngineD1Ev
T _ZN7icu_3_815UnhandledEngineD2Ev
T _ZN7icu_3_816RBBITableBuilder11calcLastPosEPNS_8RBBINodeE
T _ZN7icu_3_816RBBITableBuilder11exportTableEPv
T _ZN7icu_3_816RBBITableBuilder12calcFirstPosEPNS_8RBBINodeE
T _ZN7icu_3_816RBBITableBuilder12calcNullableEPNS_8RBBINodeE
T _ZN7icu_3_816RBBITableBuilder13calcFollowPosEPNS_8RBBINodeE
T _ZN7icu_3_816RBBITableBuilder15buildStateTableEv
T _ZN7icu_3_816RBBITableBuilder16flagTaggedStatesEv
T _ZN7icu_3_816RBBITableBuilder19flagAcceptingStatesEv
T _ZN7icu_3_816RBBITableBuilder19flagLookAheadStatesEv
T _ZN7icu_3_816RBBITableBuilder19mergeRuleStatusValsEv
T _ZN7icu_3_816RBBITableBuilder20calcChainedFollowPosEPNS_8RBBINodeE
T _ZN7icu_3_816RBBITableBuilder5buildEv
T _ZN7icu_3_816RBBITableBuilder6setAddEPNS_7UVectorES2_
T _ZN7icu_3_816RBBITableBuilder8bofFixupEv
T _ZN7icu_3_816RBBITableBuilder9setEqualsEPNS_7UVectorES2_
T _ZN7icu_3_816RBBITableBuilder9sortedAddEPPNS_7UVectorEi
T _ZN7icu_3_816RBBITableBuilderC1EPNS_15RBBIRuleBuilderEPPNS_8RBBINodeE
T _ZN7icu_3_816RBBITableBuilderC2EPNS_15RBBIRuleBuilderEPPNS_8RBBINodeE
T _ZN7icu_3_816RBBITableBuilderD1Ev
T _ZN7icu_3_816RBBITableBuilderD2Ev
T _ZN7icu_3_817CanonicalIterator11cleanPiecesEv
T _ZN7icu_3_817CanonicalIterator14getEquivalentsERKNS_13UnicodeStringERiR10UErrorCode
T _ZN7icu_3_817CanonicalIterator15getEquivalents2EPNS_9HashtableEPKtiR10UErrorCode
T _ZN7icu_3_817CanonicalIterator16getStaticClassIDEv
T _ZN7icu_3_817CanonicalIterator4nextEv
T _ZN7icu_3_817CanonicalIterator5resetEv
T _ZN7icu_3_817CanonicalIterator7extractEPNS_9HashtableEiPKtiiR10UErrorCode
T _ZN7icu_3_817CanonicalIterator7permuteERNS_13UnicodeStringEaPNS_9HashtableER10UErrorCode
T _ZN7icu_3_817CanonicalIterator9getSourceEv
T _ZN7icu_3_817CanonicalIterator9setSourceERKNS_13UnicodeStringER10UErrorCode
T _ZN7icu_3_817CanonicalIteratorC1ERKNS_13UnicodeStringER10UErrorCode
T _ZN7icu_3_817CanonicalIteratorC2ERKNS_13UnicodeStringER10UErrorCode
T _ZN7icu_3_817CanonicalIteratorD0Ev
T _ZN7icu_3_817CanonicalIteratorD1Ev
T _ZN7icu_3_817CanonicalIteratorD2Ev
T _ZN7icu_3_817CharacterIterator12firstPostIncEv
T _ZN7icu_3_817CharacterIterator14first32PostIncEv
T _ZN7icu_3_817CharacterIteratorC1ERKS0_
T _ZN7icu_3_817CharacterIteratorC1Ei
T _ZN7icu_3_817CharacterIteratorC1Eii
T _ZN7icu_3_817CharacterIteratorC1Eiiii
T _ZN7icu_3_817CharacterIteratorC1Ev
T _ZN7icu_3_817CharacterIteratorC2ERKS0_
T _ZN7icu_3_817CharacterIteratorC2Ei
T _ZN7icu_3_817CharacterIteratorC2Eii
T _ZN7icu_3_817CharacterIteratorC2Eiiii
T _ZN7icu_3_817CharacterIteratorC2Ev
T _ZN7icu_3_817CharacterIteratoraSERKS0_
T _ZN7icu_3_817StringEnumeration19ensureCharsCapacityEiR10UErrorCode
T _ZN7icu_3_817StringEnumeration4nextEPiR10UErrorCode
T _ZN7icu_3_817StringEnumeration5unextEPiR10UErrorCode
T _ZN7icu_3_817StringEnumeration8setCharsEPKciR10UErrorCode
T _ZN7icu_3_817StringEnumerationC1Ev
T _ZN7icu_3_817StringEnumerationC2Ev
T _ZN7icu_3_817StringEnumerationD0Ev
T _ZN7icu_3_817StringEnumerationD1Ev
T _ZN7icu_3_817StringEnumerationD2Ev
R _ZN7icu_3_818KeywordEnumeration9fgClassIDE
T _ZN7icu_3_818TrieWordDictionaryC1Ev
T _ZN7icu_3_818TrieWordDictionaryC2Ev
T _ZN7icu_3_818TrieWordDictionaryD0Ev
T _ZN7icu_3_818TrieWordDictionaryD1Ev
T _ZN7icu_3_818TrieWordDictionaryD2Ev
T _ZN7icu_3_818UStringEnumeration16getStaticClassIDEv
T _ZN7icu_3_818UStringEnumeration5resetER10UErrorCode
T _ZN7icu_3_818UStringEnumeration5snextER10UErrorCode
T _ZN7icu_3_818UStringEnumerationC1EP12UEnumeration
T _ZN7icu_3_818UStringEnumerationC2EP12UEnumeration
T _ZN7icu_3_818UStringEnumerationD0Ev
T _ZN7icu_3_818UStringEnumerationD1Ev
T _ZN7icu_3_818UStringEnumerationD2Ev
T _ZN7icu_3_818UnicodeSetIterator16getStaticClassIDEv
T _ZN7icu_3_818UnicodeSetIterator4nextEv
T _ZN7icu_3_818UnicodeSetIterator5resetERKNS_10UnicodeSetE
T _ZN7icu_3_818UnicodeSetIterator5resetEv
T _ZN7icu_3_818UnicodeSetIterator9getStringEv
T _ZN7icu_3_818UnicodeSetIterator9loadRangeEi
T _ZN7icu_3_818UnicodeSetIterator9nextRangeEv
T _ZN7icu_3_818UnicodeSetIteratorC1ERKNS_10UnicodeSetE
T _ZN7icu_3_818UnicodeSetIteratorC1Ev
T _ZN7icu_3_818UnicodeSetIteratorC2ERKNS_10UnicodeSetE
T _ZN7icu_3_818UnicodeSetIteratorC2Ev
T _ZN7icu_3_818UnicodeSetIteratorD0Ev
T _ZN7icu_3_818UnicodeSetIteratorD1Ev
T _ZN7icu_3_818UnicodeSetIteratorD2Ev
T _ZN7icu_3_819LanguageBreakEngineC1Ev
T _ZN7icu_3_819LanguageBreakEngineC2Ev
T _ZN7icu_3_819LanguageBreakEngineD0Ev
T _ZN7icu_3_819LanguageBreakEngineD1Ev
T _ZN7icu_3_819LanguageBreakEngineD2Ev
T _ZN7icu_3_819RBBIStateDescriptorC1EiP10UErrorCode
T _ZN7icu_3_819RBBIStateDescriptorC2EiP10UErrorCode
T _ZN7icu_3_819RBBIStateDescriptorD1Ev
T _ZN7icu_3_819RBBIStateDescriptorD2Ev
T _ZN7icu_3_820LanguageBreakFactoryC1Ev
T _ZN7icu_3_820LanguageBreakFactoryC2Ev
T _ZN7icu_3_820LanguageBreakFactoryD0Ev
T _ZN7icu_3_820LanguageBreakFactoryD1Ev
T _ZN7icu_3_820LanguageBreakFactoryD2Ev
T _ZN7icu_3_820RBBISymbolTableEntryC1Ev
T _ZN7icu_3_820RBBISymbolTableEntryC2Ev
T _ZN7icu_3_820RBBISymbolTableEntryD1Ev
T _ZN7icu_3_820RBBISymbolTableEntryD2Ev
T _ZN7icu_3_820UnicodeSetStringSpan15addToSpanNotSetEi
T _ZN7icu_3_820UnicodeSetStringSpanC1ERKNS_10UnicodeSetERKNS_7UVectorEj
T _ZN7icu_3_820UnicodeSetStringSpanC1ERKS0_RKNS_7UVectorE
T _ZN7icu_3_820UnicodeSetStringSpanC2ERKNS_10UnicodeSetERKNS_7UVectorEj
T _ZN7icu_3_820UnicodeSetStringSpanC2ERKS0_RKNS_7UVectorE
T _ZN7icu_3_820UnicodeSetStringSpanD1Ev
T _ZN7icu_3_820UnicodeSetStringSpanD2Ev
T _ZN7icu_3_821CompactTrieDictionary28compactMutableTrieDictionaryERKNS_21MutableTrieDictionaryER10UErrorCode
T _ZN7icu_3_821CompactTrieDictionaryC1EP11UDataMemoryR10UErrorCode
T _ZN7icu_3_821CompactTrieDictionaryC1EPKvR10UErrorCode
T _ZN7icu_3_821CompactTrieDictionaryC1ERKNS_21MutableTrieDictionaryER10UErrorCode
T _ZN7icu_3_821CompactTrieDictionaryC2EP11UDataMemoryR10UErrorCode
T _ZN7icu_3_821CompactTrieDictionaryC2EPKvR10UErrorCode
T _ZN7icu_3_821CompactTrieDictionaryC2ERKNS_21MutableTrieDictionaryER10UErrorCode
T _ZN7icu_3_821CompactTrieDictionaryD0Ev
T _ZN7icu_3_821CompactTrieDictionaryD1Ev
T _ZN7icu_3_821CompactTrieDictionaryD2Ev
T _ZN7icu_3_821DictionaryBreakEngine13setCharactersERKNS_10UnicodeSetE
T _ZN7icu_3_821DictionaryBreakEngineC1Ej
T _ZN7icu_3_821DictionaryBreakEngineC2Ej
T _ZN7icu_3_821DictionaryBreakEngineD0Ev
T _ZN7icu_3_821DictionaryBreakEngineD1Ev
T _ZN7icu_3_821DictionaryBreakEngineD2Ev
T _ZN7icu_3_821MutableTrieDictionary7addWordEPKtiR10UErrorCode
T _ZN7icu_3_821MutableTrieDictionaryC1ER10UErrorCode
T _ZN7icu_3_821MutableTrieDictionaryC1EtR10UErrorCode
T _ZN7icu_3_821MutableTrieDictionaryC2ER10UErrorCode
T _ZN7icu_3_821MutableTrieDictionaryC2EtR10UErrorCode
T _ZN7icu_3_821MutableTrieDictionaryD0Ev
T _ZN7icu_3_821MutableTrieDictionaryD1Ev
T _ZN7icu_3_821MutableTrieDictionaryD2Ev
T _ZN7icu_3_821RuleCharacterIterator11skipIgnoredEi
T _ZN7icu_3_821RuleCharacterIterator4nextEiRaR10UErrorCode
T _ZN7icu_3_821RuleCharacterIterator6setPosERKNS0_3PosE
T _ZN7icu_3_821RuleCharacterIterator8_advanceEi
T _ZN7icu_3_821RuleCharacterIterator9jumpaheadEi
T _ZN7icu_3_821RuleCharacterIteratorC1ERKNS_13UnicodeStringEPKNS_11SymbolTableERNS_13ParsePositionE
T _ZN7icu_3_821RuleCharacterIteratorC2ERKNS_13UnicodeStringEPKNS_11SymbolTableERNS_13ParsePositionE
T _ZN7icu_3_822CompactTrieEnumeration16getStaticClassIDEv
T _ZN7icu_3_822CompactTrieEnumeration5snextER10UErrorCode
T _ZN7icu_3_822MutableTrieEnumeration16getStaticClassIDEv
T _ZN7icu_3_822RuleBasedBreakIterator10handleNextEPKNS_14RBBIStateTableE
T _ZN7icu_3_822RuleBasedBreakIterator10isBoundaryEi
T _ZN7icu_3_822RuleBasedBreakIterator12setBreakTypeEi
T _ZN7icu_3_822RuleBasedBreakIterator14getBinaryRulesERj
T _ZN7icu_3_822RuleBasedBreakIterator14handlePreviousEPKNS_14RBBIStateTableE
T _ZN7icu_3_822RuleBasedBreakIterator15checkDictionaryEiia
T _ZN7icu_3_822RuleBasedBreakIterator16getRuleStatusVecEPiiR10UErrorCode
T _ZN7icu_3_822RuleBasedBreakIterator16getStaticClassIDEv
T _ZN7icu_3_822RuleBasedBreakIterator17createBufferCloneEPvRiR10UErrorCode
T _ZN7icu_3_822RuleBasedBreakIterator19makeRuleStatusValidEv
T _ZN7icu_3_822RuleBasedBreakIterator22getLanguageBreakEngineEi
T _ZN7icu_3_822RuleBasedBreakIterator4initEv
T _ZN7icu_3_822RuleBasedBreakIterator4lastEv
T _ZN7icu_3_822RuleBasedBreakIterator4nextEi
T _ZN7icu_3_822RuleBasedBreakIterator4nextEv
T _ZN7icu_3_822RuleBasedBreakIterator5firstEv
T _ZN7icu_3_822RuleBasedBreakIterator5resetEv
T _ZN7icu_3_822RuleBasedBreakIterator7setTextEP5UTextR10UErrorCode
T _ZN7icu_3_822RuleBasedBreakIterator7setTextERKNS_13UnicodeStringE
T _ZN7icu_3_822RuleBasedBreakIterator8previousEv
T _ZN7icu_3_822RuleBasedBreakIterator9adoptTextEPNS_17CharacterIteratorE
T _ZN7icu_3_822RuleBasedBreakIterator9followingEi
T _ZN7icu_3_822RuleBasedBreakIterator9precedingEi
T _ZN7icu_3_822RuleBasedBreakIteratorC1EP11UDataMemoryR10UErrorCode
T _ZN7icu_3_822RuleBasedBreakIteratorC1EPNS_14RBBIDataHeaderER10UErrorCode
T _ZN7icu_3_822RuleBasedBreakIteratorC1ERKNS_13UnicodeStringER11UParseErrorR10UErrorCode
T _ZN7icu_3_822RuleBasedBreakIteratorC1ERKS0_
T _ZN7icu_3_822RuleBasedBreakIteratorC1Ev
T _ZN7icu_3_822RuleBasedBreakIteratorC2EP11UDataMemoryR10UErrorCode
T _ZN7icu_3_822RuleBasedBreakIteratorC2EPNS_14RBBIDataHeaderER10UErrorCode
T _ZN7icu_3_822RuleBasedBreakIteratorC2ERKNS_13UnicodeStringER11UParseErrorR10UErrorCode
T _ZN7icu_3_822RuleBasedBreakIteratorC2ERKS0_
T _ZN7icu_3_822RuleBasedBreakIteratorC2Ev
T _ZN7icu_3_822RuleBasedBreakIteratorD0Ev
T _ZN7icu_3_822RuleBasedBreakIteratorD1Ev
T _ZN7icu_3_822RuleBasedBreakIteratorD2Ev
T _ZN7icu_3_822RuleBasedBreakIteratoraSERKS0_
T _ZN7icu_3_822UCharCharacterIterator10previous32Ev
T _ZN7icu_3_822UCharCharacterIterator10setIndex32Ei
T _ZN7icu_3_822UCharCharacterIterator11hasPreviousEv
T _ZN7icu_3_822UCharCharacterIterator11nextPostIncEv
T _ZN7icu_3_822UCharCharacterIterator12firstPostIncEv
T _ZN7icu_3_822UCharCharacterIterator13next32PostIncEv
T _ZN7icu_3_822UCharCharacterIterator14first32PostIncEv
T _ZN7icu_3_822UCharCharacterIterator16getStaticClassIDEv
T _ZN7icu_3_822UCharCharacterIterator4lastEv
T _ZN7icu_3_822UCharCharacterIterator4moveEiNS_17CharacterIterator7EOriginE
T _ZN7icu_3_822UCharCharacterIterator4nextEv
T _ZN7icu_3_822UCharCharacterIterator5firstEv
T _ZN7icu_3_822UCharCharacterIterator6last32Ev
T _ZN7icu_3_822UCharCharacterIterator6move32EiNS_17CharacterIterator7EOriginE
T _ZN7icu_3_822UCharCharacterIterator6next32Ev
T _ZN7icu_3_822UCharCharacterIterator7first32Ev
T _ZN7icu_3_822UCharCharacterIterator7getTextERNS_13UnicodeStringE
T _ZN7icu_3_822UCharCharacterIterator7hasNextEv
T _ZN7icu_3_822UCharCharacterIterator7setTextEPKti
T _ZN7icu_3_822UCharCharacterIterator8previousEv
T _ZN7icu_3_822UCharCharacterIterator8setIndexEi
T _ZN7icu_3_822UCharCharacterIteratorC1EPKti
T _ZN7icu_3_822UCharCharacterIteratorC1EPKtii
T _ZN7icu_3_822UCharCharacterIteratorC1EPKtiiii
T _ZN7icu_3_822UCharCharacterIteratorC1ERKS0_
T _ZN7icu_3_822UCharCharacterIteratorC1Ev
T _ZN7icu_3_822UCharCharacterIteratorC2EPKti
T _ZN7icu_3_822UCharCharacterIteratorC2EPKtii
T _ZN7icu_3_822UCharCharacterIteratorC2EPKtiiii
T _ZN7icu_3_822UCharCharacterIteratorC2ERKS0_
T _ZN7icu_3_822UCharCharacterIteratorC2Ev
T _ZN7icu_3_822UCharCharacterIteratorD0Ev
T _ZN7icu_3_822UCharCharacterIteratorD1Ev
T _ZN7icu_3_822UCharCharacterIteratorD2Ev
T _ZN7icu_3_822UCharCharacterIteratoraSERKS0_
T _ZN7icu_3_823ICULanguageBreakFactory12getEngineForEii
T _ZN7icu_3_823ICULanguageBreakFactory13loadEngineForEii
T _ZN7icu_3_823ICULanguageBreakFactory17loadDictionaryForE11UScriptCodei
T _ZN7icu_3_823ICULanguageBreakFactoryC1ER10UErrorCode
T _ZN7icu_3_823ICULanguageBreakFactoryC2ER10UErrorCode
T _ZN7icu_3_823ICULanguageBreakFactoryD0Ev
T _ZN7icu_3_823ICULanguageBreakFactoryD1Ev
T _ZN7icu_3_823ICULanguageBreakFactoryD2Ev
T _ZN7icu_3_823StringCharacterIterator16getStaticClassIDEv
T _ZN7icu_3_823StringCharacterIterator7getTextERNS_13UnicodeStringE
T _ZN7icu_3_823StringCharacterIterator7setTextERKNS_13UnicodeStringE
T _ZN7icu_3_823StringCharacterIteratorC1ERKNS_13UnicodeStringE
T _ZN7icu_3_823StringCharacterIteratorC1ERKNS_13UnicodeStringEi
T _ZN7icu_3_823StringCharacterIteratorC1ERKNS_13UnicodeStringEiii
T _ZN7icu_3_823StringCharacterIteratorC1ERKS0_
T _ZN7icu_3_823StringCharacterIteratorC1Ev
T _ZN7icu_3_823StringCharacterIteratorC2ERKNS_13UnicodeStringE
T _ZN7icu_3_823StringCharacterIteratorC2ERKNS_13UnicodeStringEi
T _ZN7icu_3_823StringCharacterIteratorC2ERKNS_13UnicodeStringEiii
T _ZN7icu_3_823StringCharacterIteratorC2ERKS0_
T _ZN7icu_3_823StringCharacterIteratorC2Ev
T _ZN7icu_3_823StringCharacterIteratorD0Ev
T _ZN7icu_3_823StringCharacterIteratorD1Ev
T _ZN7icu_3_823StringCharacterIteratorD2Ev
T _ZN7icu_3_823StringCharacterIteratoraSERKS0_
T _ZN7icu_3_824ForwardCharacterIteratorC1ERKS0_
T _ZN7icu_3_824ForwardCharacterIteratorC1Ev
T _ZN7icu_3_824ForwardCharacterIteratorC2ERKS0_
T _ZN7icu_3_824ForwardCharacterIteratorC2Ev
T _ZN7icu_3_824ForwardCharacterIteratorD0Ev
T _ZN7icu_3_824ForwardCharacterIteratorD1Ev
T _ZN7icu_3_824ForwardCharacterIteratorD2Ev
T _ZN7icu_3_825NonContiguousEnumToOffset4swapEPK12UDataSwapperPKhiPhS6_iP10UErrorCode
T _ZN7icu_3_827locale_set_default_internalEPKc
T _ZN7icu_3_86BMPSet15overrideIllegalEv
T _ZN7icu_3_86BMPSet8initBitsEv
T _ZN7icu_3_86BMPSetC1EPKii
T _ZN7icu_3_86BMPSetC1ERKS0_PKii
T _ZN7icu_3_86BMPSetC2EPKii
T _ZN7icu_3_86BMPSetC2ERKS0_PKii
T _ZN7icu_3_86BMPSetD0Ev
T _ZN7icu_3_86BMPSetD1Ev
T _ZN7icu_3_86BMPSetD2Ev
T _ZN7icu_3_86Locale10getChineseEv
T _ZN7icu_3_86Locale10getDefaultEv
T _ZN7icu_3_86Locale10getEnglishEv
T _ZN7icu_3_86Locale10getGermanyEv
T _ZN7icu_3_86Locale10getItalianEv
T _ZN7icu_3_86Locale10setDefaultERKS0_R10UErrorCode
T _ZN7icu_3_86Locale10setToBogusEv
T _ZN7icu_3_86Locale11getJapaneseEv
T _ZN7icu_3_86Locale14createFromNameEPKc
T _ZN7icu_3_86Locale14getLocaleCacheEv
T _ZN7icu_3_86Locale14setFromPOSIXIDEPKc
T _ZN7icu_3_86Locale15createCanonicalEPKc
T _ZN7icu_3_86Locale15getCanadaFrenchEv
T _ZN7icu_3_86Locale15getISOCountriesEv
T _ZN7icu_3_86Locale15getISOLanguagesEv
T _ZN7icu_3_86Locale16getStaticClassIDEv
T _ZN7icu_3_86Locale19getAvailableLocalesERi
T _ZN7icu_3_86Locale20getSimplifiedChineseEv
T _ZN7icu_3_86Locale21getTraditionalChineseEv
T _ZN7icu_3_86Locale4initEPKca
T _ZN7icu_3_86Locale5getUKEv
T _ZN7icu_3_86Locale5getUSEv
T _ZN7icu_3_86Locale6getPRCEv
T _ZN7icu_3_86Locale8getChinaEv
T _ZN7icu_3_86Locale8getItalyEv
T _ZN7icu_3_86Locale8getJapanEv
T _ZN7icu_3_86Locale8getKoreaEv
T _ZN7icu_3_86Locale9getCanadaEv
T _ZN7icu_3_86Locale9getFranceEv
T _ZN7icu_3_86Locale9getFrenchEv
T _ZN7icu_3_86Locale9getGermanEv
T _ZN7icu_3_86Locale9getKoreanEv
T _ZN7icu_3_86Locale9getLocaleEi
T _ZN7icu_3_86Locale9getTaiwanEv
T _ZN7icu_3_86LocaleC1ENS0_11ELocaleTypeE
T _ZN7icu_3_86LocaleC1EPKcS2_S2_S2_
T _ZN7icu_3_86LocaleC1ERKS0_
T _ZN7icu_3_86LocaleC1Ev
T _ZN7icu_3_86LocaleC2ENS0_11ELocaleTypeE
T _ZN7icu_3_86LocaleC2EPKcS2_S2_S2_
T _ZN7icu_3_86LocaleC2ERKS0_
T _ZN7icu_3_86LocaleC2Ev
T _ZN7icu_3_86LocaleD0Ev
T _ZN7icu_3_86LocaleD1Ev
T _ZN7icu_3_86LocaleD2Ev
T _ZN7icu_3_86LocaleaSERKS0_
T _ZN7icu_3_86UStack16getStaticClassIDEv
T _ZN7icu_3_86UStack3popEv
T _ZN7icu_3_86UStack4popiEv
T _ZN7icu_3_86UStackC1EPFvPvEPFa8UHashTokS4_ER10UErrorCode
T _ZN7icu_3_86UStackC1EPFvPvEPFa8UHashTokS4_EiR10UErrorCode
T _ZN7icu_3_86UStackC1ER10UErrorCode
T _ZN7icu_3_86UStackC1EiR10UErrorCode
T _ZN7icu_3_86UStackC2EPFvPvEPFa8UHashTokS4_ER10UErrorCode
T _ZN7icu_3_86UStackC2EPFvPvEPFa8UHashTokS4_EiR10UErrorCode
T _ZN7icu_3_86UStackC2ER10UErrorCode
T _ZN7icu_3_86UStackC2EiR10UErrorCode
T _ZN7icu_3_86UStackD0Ev
T _ZN7icu_3_86UStackD1Ev
T _ZN7icu_3_86UStackD2Ev
T _ZN7icu_3_87UMemorydaEPv
T _ZN7icu_3_87UMemorydlEPv
T _ZN7icu_3_87UMemorynaEj
T _ZN7icu_3_87UMemorynwEj
T _ZN7icu_3_87UObjectD0Ev
T _ZN7icu_3_87UObjectD1Ev
T _ZN7icu_3_87UObjectD2Ev
T _ZN7icu_3_87UVector10addElementEPvR10UErrorCode
T _ZN7icu_3_87UVector10addElementEiR10UErrorCode
T _ZN7icu_3_87UVector10setDeleterEPFvPvE
T _ZN7icu_3_87UVector11setComparerEPFa8UHashTokS1_E
T _ZN7icu_3_87UVector12setElementAtEPvi
T _ZN7icu_3_87UVector12setElementAtEii
T _ZN7icu_3_87UVector12sortedInsertE8UHashTokPFaS1_S1_ER10UErrorCode
T _ZN7icu_3_87UVector12sortedInsertEPvPFa8UHashTokS2_ER10UErrorCode
T _ZN7icu_3_87UVector12sortedInsertEiPFa8UHashTokS1_ER10UErrorCode
T _ZN7icu_3_87UVector13removeElementEPv
T _ZN7icu_3_87UVector14ensureCapacityEiR10UErrorCode
T _ZN7icu_3_87UVector15insertElementAtEPviR10UErrorCode
T _ZN7icu_3_87UVector15insertElementAtEiiR10UErrorCode
T _ZN7icu_3_87UVector15orphanElementAtEi
T _ZN7icu_3_87UVector15removeElementAtEi
T _ZN7icu_3_87UVector16getStaticClassIDEv
T _ZN7icu_3_87UVector17removeAllElementsEv
T _ZN7icu_3_87UVector5_initEiR10UErrorCode
T _ZN7icu_3_87UVector6assignERKS0_PFvP8UHashTokS4_ER10UErrorCode
T _ZN7icu_3_87UVector7setSizeEi
T _ZN7icu_3_87UVector9removeAllERKS0_
T _ZN7icu_3_87UVector9retainAllERKS0_
T _ZN7icu_3_87UVectorC1EPFvPvEPFa8UHashTokS4_ER10UErrorCode
T _ZN7icu_3_87UVectorC1EPFvPvEPFa8UHashTokS4_EiR10UErrorCode
T _ZN7icu_3_87UVectorC1ER10UErrorCode
T _ZN7icu_3_87UVectorC1EiR10UErrorCode
T _ZN7icu_3_87UVectorC2EPFvPvEPFa8UHashTokS4_ER10UErrorCode
T _ZN7icu_3_87UVectorC2EPFvPvEPFa8UHashTokS4_EiR10UErrorCode
T _ZN7icu_3_87UVectorC2ER10UErrorCode
T _ZN7icu_3_87UVectorC2EiR10UErrorCode
T _ZN7icu_3_87UVectorD0Ev
T _ZN7icu_3_87UVectorD1Ev
T _ZN7icu_3_87UVectorD2Ev
T _ZN7icu_3_87UVectoreqERKS0_
T _ZN7icu_3_88RBBINode11flattenSetsEv
T _ZN7icu_3_88RBBINode16flattenVariablesEv
T _ZN7icu_3_88RBBINode9cloneTreeEv
T _ZN7icu_3_88RBBINode9findNodesEPNS_7UVectorENS0_8NodeTypeER10UErrorCode
T _ZN7icu_3_88RBBINodeC1ENS0_8NodeTypeE
T _ZN7icu_3_88RBBINodeC1ERKS0_
T _ZN7icu_3_88RBBINodeC2ENS0_8NodeTypeE
T _ZN7icu_3_88RBBINodeC2ERKS0_
T _ZN7icu_3_88RBBINodeD1Ev
T _ZN7icu_3_88RBBINodeD2Ev
W _ZN7icu_3_89Hashtable3putERKNS_13UnicodeStringEPvR10UErrorCode
T _ZN7icu_3_89UVector3212setElementAtEii
T _ZN7icu_3_89UVector3212sortedInsertEiR10UErrorCode
T _ZN7icu_3_89UVector3214expandCapacityEiR10UErrorCode
T _ZN7icu_3_89UVector3215insertElementAtEiiR10UErrorCode
T _ZN7icu_3_89UVector3215removeElementAtEi
T _ZN7icu_3_89UVector3216getStaticClassIDEv
T _ZN7icu_3_89UVector3217removeAllElementsEv
T _ZN7icu_3_89UVector325_initEiR10UErrorCode
T _ZN7icu_3_89UVector326assignERKS0_R10UErrorCode
T _ZN7icu_3_89UVector327setSizeEi
T _ZN7icu_3_89UVector329removeAllERKS0_
T _ZN7icu_3_89UVector329retainAllERKS0_
T _ZN7icu_3_89UVector32C1ER10UErrorCode
T _ZN7icu_3_89UVector32C1EiR10UErrorCode
T _ZN7icu_3_89UVector32C2ER10UErrorCode
T _ZN7icu_3_89UVector32C2EiR10UErrorCode
T _ZN7icu_3_89UVector32D0Ev
T _ZN7icu_3_89UVector32D1Ev
T _ZN7icu_3_89UVector32D2Ev
T _ZN7icu_3_89UVector32eqERKS0_
T _ZN7icu_3_8plERKNS_13UnicodeStringES2_
T _ZNK7icu_3_810Normalizer10startIndexEv
T _ZNK7icu_3_810Normalizer17getDynamicClassIDEv
T _ZNK7icu_3_810Normalizer5cloneEv
T _ZNK7icu_3_810Normalizer8endIndexEv
T _ZNK7icu_3_810Normalizer8getIndexEv
T _ZNK7icu_3_810Normalizer8getUModeEv
T _ZNK7icu_3_810Normalizer8hashCodeEv
T _ZNK7icu_3_810Normalizer9getOptionEi
T _ZNK7icu_3_810NormalizereqERKS0_
T _ZNK7icu_3_810UnicodeSet10_toPatternERNS_13UnicodeStringEa
T _ZNK7icu_3_810UnicodeSet11containsAllERKNS_13UnicodeStringE
T _ZNK7icu_3_810UnicodeSet11containsAllERKS0_
T _ZNK7icu_3_810UnicodeSet11getRangeEndEi
T _ZNK7icu_3_810UnicodeSet12containsNoneERKNS_13UnicodeStringE
T _ZNK7icu_3_810UnicodeSet12containsNoneERKS0_
T _ZNK7icu_3_810UnicodeSet12containsNoneEii
T _ZNK7icu_3_810UnicodeSet12spanBackUTF8EPKci17USetSpanCondition
T _ZNK7icu_3_810UnicodeSet13addMatchSetToERS0_
T _ZNK7icu_3_810UnicodeSet13cloneAsThawedEv
T _ZNK7icu_3_810UnicodeSet13findCodePointEi
T _ZNK7icu_3_810UnicodeSet13getRangeCountEv
T _ZNK7icu_3_810UnicodeSet13getRangeStartEi
T _ZNK7icu_3_810UnicodeSet14getStringCountEv
T _ZNK7icu_3_810UnicodeSet16_generatePatternERNS_13UnicodeStringEa
T _ZNK7icu_3_810UnicodeSet17getDynamicClassIDEv
T _ZNK7icu_3_810UnicodeSet17matchesIndexValueEh
T _ZNK7icu_3_810UnicodeSet4sizeEv
T _ZNK7icu_3_810UnicodeSet4spanEPKti17USetSpanCondition
T _ZNK7icu_3_810UnicodeSet5cloneEv
T _ZNK7icu_3_810UnicodeSet6charAtEi
T _ZNK7icu_3_810UnicodeSet7indexOfEi
T _ZNK7icu_3_810UnicodeSet7isEmptyEv
T _ZNK7icu_3_810UnicodeSet8containsERKNS_13UnicodeStringE
T _ZNK7icu_3_810UnicodeSet8containsEi
T _ZNK7icu_3_810UnicodeSet8containsEii
T _ZNK7icu_3_810UnicodeSet8hashCodeEv
T _ZNK7icu_3_810UnicodeSet8spanBackEPKti17USetSpanCondition
T _ZNK7icu_3_810UnicodeSet8spanUTF8EPKci17USetSpanCondition
T _ZNK7icu_3_810UnicodeSet9getStringEi
T _ZNK7icu_3_810UnicodeSet9serializeEPtiR10UErrorCode
T _ZNK7icu_3_810UnicodeSet9toPatternERNS_13UnicodeStringEa
T _ZNK7icu_3_810UnicodeSeteqERKS0_
T _ZNK7icu_3_811LocaleBased11getLocaleIDE18ULocDataLocaleTypeR10UErrorCode
T _ZNK7icu_3_811LocaleBased9getLocaleE18ULocDataLocaleTypeR10UErrorCode
T _ZNK7icu_3_811Replaceable11hasMetaDataEv
T _ZNK7icu_3_811Replaceable5cloneEv
T _ZNK7icu_3_813BreakIterator11getLocaleIDE18ULocDataLocaleTypeR10UErrorCode
T _ZNK7icu_3_813BreakIterator9getLocaleE18ULocDataLocaleTypeR10UErrorCode
T _ZNK7icu_3_813ParsePosition17getDynamicClassIDEv
T _ZNK7icu_3_813ParsePosition5cloneEv
T _ZNK7icu_3_813UnicodeFilter9toMatcherEv
T _ZNK7icu_3_813UnicodeString10doHashCodeEv
T _ZNK7icu_3_813UnicodeString10unescapeAtERi
T _ZNK7icu_3_813UnicodeString11countChar32Eii
T _ZNK7icu_3_813UnicodeString11getChar32AtEi
T _ZNK7icu_3_813UnicodeString11hasMetaDataEv
T _ZNK7icu_3_813UnicodeString11lastIndexOfEPKtiiii
T _ZNK7icu_3_813UnicodeString11moveIndex32Eii
T _ZNK7icu_3_813UnicodeString13doCaseCompareEiiPKtiij
T _ZNK7icu_3_813UnicodeString13doLastIndexOfEiii
T _ZNK7icu_3_813UnicodeString13doLastIndexOfEtii
T _ZNK7icu_3_813UnicodeString14extractBetweenEiiRS0_
T _ZNK7icu_3_813UnicodeString17getDynamicClassIDEv
T _ZNK7icu_3_813UnicodeString17hasMoreChar32ThanEiii
T _ZNK7icu_3_813UnicodeString23doCompareCodePointOrderEiiPKtii
T _ZNK7icu_3_813UnicodeString5cloneEv
T _ZNK7icu_3_813UnicodeString7extractEPciP10UConverterR10UErrorCode
T _ZNK7icu_3_813UnicodeString7extractEPtiR10UErrorCode
T _ZNK7icu_3_813UnicodeString7extractEiiPciNS0_10EInvariantE
T _ZNK7icu_3_813UnicodeString7extractEiiPcjPKc
T _ZNK7icu_3_813UnicodeString7indexOfEPKtiiii
T _ZNK7icu_3_813UnicodeString8refCountEv
T _ZNK7icu_3_813UnicodeString8unescapeEv
T _ZNK7icu_3_813UnicodeString9doCompareEiiPKtii
T _ZNK7icu_3_813UnicodeString9doExtractEiiPciP10UConverterR10UErrorCode
T _ZNK7icu_3_813UnicodeString9doExtractEiiPti
T _ZNK7icu_3_813UnicodeString9doIndexOfEiii
T _ZNK7icu_3_813UnicodeString9doIndexOfEtii
T _ZNK7icu_3_813UnicodeString9getCharAtEi
T _ZNK7icu_3_813UnicodeString9getLengthEv
T _ZNK7icu_3_814RBBISetBuilder12getFirstCharEi
T _ZNK7icu_3_814RBBISetBuilder20getNumCharCategoriesEv
T _ZNK7icu_3_814RBBISetBuilder6sawBOFEv
T _ZNK7icu_3_814ResourceBundle10getVersionEPh
T _ZNK7icu_3_814ResourceBundle11getStringExEPKcR10UErrorCode
T _ZNK7icu_3_814ResourceBundle11getStringExEiR10UErrorCode
T _ZNK7icu_3_814ResourceBundle12getIntVectorERiR10UErrorCode
T _ZNK7icu_3_814ResourceBundle16getVersionNumberEv
T _ZNK7icu_3_814ResourceBundle17getDynamicClassIDEv
T _ZNK7icu_3_814ResourceBundle3getEPKcR10UErrorCode
T _ZNK7icu_3_814ResourceBundle3getEiR10UErrorCode
T _ZNK7icu_3_814ResourceBundle5cloneEv
T _ZNK7icu_3_814ResourceBundle6getIntER10UErrorCode
T _ZNK7icu_3_814ResourceBundle6getKeyEv
T _ZNK7icu_3_814ResourceBundle7getNameEv
T _ZNK7icu_3_814ResourceBundle7getSizeEv
T _ZNK7icu_3_814ResourceBundle7getTypeEv
T _ZNK7icu_3_814ResourceBundle7getUIntER10UErrorCode
T _ZNK7icu_3_814ResourceBundle7hasNextEv
T _ZNK7icu_3_814ResourceBundle9getBinaryERiR10UErrorCode
T _ZNK7icu_3_814ResourceBundle9getLocaleE18ULocDataLocaleTypeR10UErrorCode
T _ZNK7icu_3_814ResourceBundle9getLocaleEv
T _ZNK7icu_3_814ResourceBundle9getStringER10UErrorCode
T _ZNK7icu_3_814UnicodeFunctor10toReplacerEv
T _ZNK7icu_3_814UnicodeFunctor9toMatcherEv
T _ZNK7icu_3_815PropertyAliases11getValueMapEi
T _ZNK7icu_3_815PropertyAliases17chooseNameInGroupEs19UPropertyNameChoice
T _ZNK7icu_3_815RBBIDataWrapper19getRuleSourceStringEv
T _ZNK7icu_3_815RBBIDataWrappereqERKS0_
T _ZNK7icu_3_815RBBISymbolTable10lookupNodeERKNS_13UnicodeStringE
T _ZNK7icu_3_815RBBISymbolTable13lookupMatcherEi
T _ZNK7icu_3_815RBBISymbolTable14parseReferenceERKNS_13UnicodeStringERNS_13ParsePositionEi
T _ZNK7icu_3_815RBBISymbolTable6lookupERKNS_13UnicodeStringE
T _ZNK7icu_3_815ThaiBreakEngine23divideUpDictionaryRangeEP5UTextiiRNS_6UStackE
T _ZNK7icu_3_815UnhandledEngine10findBreaksEP5UTextiiaiRNS_6UStackE
T _ZNK7icu_3_815UnhandledEngine7handlesEii
T _ZNK7icu_3_816RBBITableBuilder12getTableSizeEv
T _ZNK7icu_3_817CanonicalIterator17getDynamicClassIDEv
T _ZNK7icu_3_817StringEnumeration5cloneEv
T _ZNK7icu_3_817StringEnumerationeqERKS0_
T _ZNK7icu_3_817StringEnumerationneERKS0_
T _ZNK7icu_3_818UStringEnumeration17getDynamicClassIDEv
T _ZNK7icu_3_818UStringEnumeration5countER10UErrorCode
T _ZNK7icu_3_818UnicodeSetIterator17getDynamicClassIDEv
T _ZNK7icu_3_820UnicodeSetStringSpan11spanNotBackEPKti
T _ZNK7icu_3_820UnicodeSetStringSpan11spanNotUTF8EPKhi
T _ZNK7icu_3_820UnicodeSetStringSpan12spanBackUTF8EPKhi17USetSpanCondition
T _ZNK7icu_3_820UnicodeSetStringSpan15spanNotBackUTF8EPKhi
T _ZNK7icu_3_820UnicodeSetStringSpan4spanEPKti17USetSpanCondition
T _ZNK7icu_3_820UnicodeSetStringSpan7spanNotEPKti
T _ZNK7icu_3_820UnicodeSetStringSpan8spanBackEPKti17USetSpanCondition
T _ZNK7icu_3_820UnicodeSetStringSpan8spanUTF8EPKhi17USetSpanCondition
T _ZNK7icu_3_821CompactTrieDictionary12cloneMutableER10UErrorCode
T _ZNK7icu_3_821CompactTrieDictionary4dataEv
T _ZNK7icu_3_821CompactTrieDictionary7matchesEP5UTextiPiRii
T _ZNK7icu_3_821CompactTrieDictionary8dataSizeEv
T _ZNK7icu_3_821CompactTrieDictionary9openWordsER10UErrorCode
T _ZNK7icu_3_821DictionaryBreakEngine10findBreaksEP5UTextiiaiRNS_6UStackE
T _ZNK7icu_3_821DictionaryBreakEngine7handlesEii
T _ZNK7icu_3_821MutableTrieDictionary6searchEP5UTextiPiRiiRPNS_11TernaryNodeERa
T _ZNK7icu_3_821MutableTrieDictionary7matchesEP5UTextiPiRii
T _ZNK7icu_3_821MutableTrieDictionary9openWordsER10UErrorCode
T _ZNK7icu_3_821RuleCharacterIterator5atEndEv
T _ZNK7icu_3_821RuleCharacterIterator6getPosERNS0_3PosE
T _ZNK7icu_3_821RuleCharacterIterator8_currentEv
T _ZNK7icu_3_821RuleCharacterIterator9lookaheadERNS_13UnicodeStringEi
T _ZNK7icu_3_822CompactTrieEnumeration17getDynamicClassIDEv
T _ZNK7icu_3_822MutableTrieEnumeration17getDynamicClassIDEv
T _ZNK7icu_3_822RuleBasedBreakIterator13getRuleStatusEv
T _ZNK7icu_3_822RuleBasedBreakIterator17getDynamicClassIDEv
T _ZNK7icu_3_822RuleBasedBreakIterator5cloneEv
T _ZNK7icu_3_822RuleBasedBreakIterator7currentEv
T _ZNK7icu_3_822RuleBasedBreakIterator7getTextEv
T _ZNK7icu_3_822RuleBasedBreakIterator8getRulesEv
T _ZNK7icu_3_822RuleBasedBreakIterator8getUTextEP5UTextR10UErrorCode
T _ZNK7icu_3_822RuleBasedBreakIterator8hashCodeEv
T _ZNK7icu_3_822RuleBasedBreakIteratoreqERKNS_13BreakIteratorE
T _ZNK7icu_3_822UCharCharacterIterator17getDynamicClassIDEv
T _ZNK7icu_3_822UCharCharacterIterator5cloneEv
T _ZNK7icu_3_822UCharCharacterIterator7currentEv
T _ZNK7icu_3_822UCharCharacterIterator8hashCodeEv
T _ZNK7icu_3_822UCharCharacterIterator9current32Ev
T _ZNK7icu_3_822UCharCharacterIteratoreqERKNS_24ForwardCharacterIteratorE
T _ZNK7icu_3_823StringCharacterIterator17getDynamicClassIDEv
T _ZNK7icu_3_823StringCharacterIterator5cloneEv
T _ZNK7icu_3_823StringCharacterIteratoreqERKNS_24ForwardCharacterIteratorE
T _ZNK7icu_3_86BMPSet12spanBackUTF8EPKhi17USetSpanCondition
T _ZNK7icu_3_86BMPSet13findCodePointEiii
T _ZNK7icu_3_86BMPSet4spanEPKtS2_17USetSpanCondition
T _ZNK7icu_3_86BMPSet8containsEi
T _ZNK7icu_3_86BMPSet8spanBackEPKtS2_17USetSpanCondition
T _ZNK7icu_3_86BMPSet8spanUTF8EPKhi17USetSpanCondition
T _ZNK7icu_3_86Locale11getBaseNameEv
T _ZNK7icu_3_86Locale14createKeywordsER10UErrorCode
T _ZNK7icu_3_86Locale14getDisplayNameERKS0_RNS_13UnicodeStringE
T _ZNK7icu_3_86Locale14getDisplayNameERNS_13UnicodeStringE
T _ZNK7icu_3_86Locale14getISO3CountryEv
T _ZNK7icu_3_86Locale15getISO3LanguageEv
T _ZNK7icu_3_86Locale15getKeywordValueEPKcPciR10UErrorCode
T _ZNK7icu_3_86Locale16getDisplayScriptERKS0_RNS_13UnicodeStringE
T _ZNK7icu_3_86Locale16getDisplayScriptERNS_13UnicodeStringE
T _ZNK7icu_3_86Locale17getDisplayCountryERKS0_RNS_13UnicodeStringE
T _ZNK7icu_3_86Locale17getDisplayCountryERNS_13UnicodeStringE
T _ZNK7icu_3_86Locale17getDisplayVariantERKS0_RNS_13UnicodeStringE
T _ZNK7icu_3_86Locale17getDisplayVariantERNS_13UnicodeStringE
T _ZNK7icu_3_86Locale17getDynamicClassIDEv
T _ZNK7icu_3_86Locale18getDisplayLanguageERKS0_RNS_13UnicodeStringE
T _ZNK7icu_3_86Locale18getDisplayLanguageERNS_13UnicodeStringE
T _ZNK7icu_3_86Locale5cloneEv
T _ZNK7icu_3_86Locale7getLCIDEv
T _ZNK7icu_3_86Locale8hashCodeEv
T _ZNK7icu_3_86LocaleeqERKS0_
T _ZNK7icu_3_86UStack17getDynamicClassIDEv
T _ZNK7icu_3_86UStack6searchEPv
T _ZNK7icu_3_87UVector10elementAtiEi
T _ZNK7icu_3_87UVector11containsAllERKS0_
T _ZNK7icu_3_87UVector12containsNoneERKS0_
T _ZNK7icu_3_87UVector17getDynamicClassIDEv
T _ZNK7icu_3_87UVector6equalsERKS0_
T _ZNK7icu_3_87UVector7indexOfE8UHashTokia
T _ZNK7icu_3_87UVector7indexOfEPvi
T _ZNK7icu_3_87UVector7indexOfEii
T _ZNK7icu_3_87UVector7toArrayEPPv
T _ZNK7icu_3_87UVector9elementAtEi
T _ZNK7icu_3_89UVector3211containsAllERKS0_
T _ZNK7icu_3_89UVector3212containsNoneERKS0_
T _ZNK7icu_3_89UVector3217getDynamicClassIDEv
T _ZNK7icu_3_89UVector326equalsERKS0_
T _ZNK7icu_3_89UVector327indexOfEii
D _ZTVN7icu_3_810NormalizerE
D _ZTVN7icu_3_810UnicodeSetE
D _ZTVN7icu_3_811ReplaceableE
D _ZTVN7icu_3_811SymbolTableE
D _ZTVN7icu_3_813BreakIteratorE
D _ZTVN7icu_3_813ParsePositionE
D _ZTVN7icu_3_813UnicodeFilterE
D _ZTVN7icu_3_813UnicodeStringE
D _ZTVN7icu_3_814ResourceBundleE
D _ZTVN7icu_3_814UnicodeFunctorE
D _ZTVN7icu_3_814UnicodeMatcherE
D _ZTVN7icu_3_815RBBIRuleBuilderE
D _ZTVN7icu_3_815RBBIRuleScannerE
D _ZTVN7icu_3_815RBBISymbolTableE
D _ZTVN7icu_3_815ThaiBreakEngineE
D _ZTVN7icu_3_815UnhandledEngineE
D _ZTVN7icu_3_817CanonicalIteratorE
D _ZTVN7icu_3_817CharacterIteratorE
D _ZTVN7icu_3_817StringEnumerationE
V _ZTVN7icu_3_818KeywordEnumerationE
D _ZTVN7icu_3_818TrieWordDictionaryE
D _ZTVN7icu_3_818UStringEnumerationE
D _ZTVN7icu_3_818UnicodeSetIteratorE
D _ZTVN7icu_3_819LanguageBreakEngineE
V _ZTVN7icu_3_820BuildCompactTrieNodeE
D _ZTVN7icu_3_820LanguageBreakFactoryE
D _ZTVN7icu_3_821CompactTrieDictionaryE
D _ZTVN7icu_3_821DictionaryBreakEngineE
D _ZTVN7icu_3_821MutableTrieDictionaryE
D _ZTVN7icu_3_822CompactTrieEnumerationE
D _ZTVN7icu_3_822MutableTrieEnumerationE
D _ZTVN7icu_3_822RuleBasedBreakIteratorE
D _ZTVN7icu_3_822UCharCharacterIteratorE
D _ZTVN7icu_3_823ICULanguageBreakFactoryE
D _ZTVN7icu_3_823StringCharacterIteratorE
D _ZTVN7icu_3_824ForwardCharacterIteratorE
V _ZTVN7icu_3_828BuildCompactTrieVerticalNodeE
V _ZTVN7icu_3_830BuildCompactTrieHorizontalNodeE
D _ZTVN7icu_3_86BMPSetE
D _ZTVN7icu_3_86LocaleE
D _ZTVN7icu_3_86UStackE
D _ZTVN7icu_3_87UObjectE
D _ZTVN7icu_3_87UVectorE
D _ZTVN7icu_3_89UVector32E
T _ZThn4_N7icu_3_810UnicodeSet7matchesERKNS_11ReplaceableERiia
T _ZThn4_N7icu_3_810UnicodeSetD0Ev
T _ZThn4_N7icu_3_810UnicodeSetD1Ev
T _ZThn4_N7icu_3_813UnicodeFilter7matchesERKNS_11ReplaceableERiia
T _ZThn4_N7icu_3_813UnicodeFilterD0Ev
T _ZThn4_N7icu_3_813UnicodeFilterD1Ev
T _ZThn4_NK7icu_3_810UnicodeSet13addMatchSetToERS0_
T _ZThn4_NK7icu_3_810UnicodeSet17matchesIndexValueEh
T _ZThn4_NK7icu_3_810UnicodeSet9toPatternERNS_13UnicodeStringEa
U _ZdlPv
U __aeabi_d2f
U __aeabi_d2iz
U __aeabi_dadd
U __aeabi_dcmpeq
U __aeabi_dcmpgt
U __aeabi_dcmplt
U __aeabi_ddiv
U __aeabi_dmul
U __aeabi_f2iz
U __aeabi_fcmpgt
U __aeabi_fcmplt
U __aeabi_fmul
U __aeabi_i2d
U __aeabi_i2f
U __aeabi_idiv
U __aeabi_idivmod
U __aeabi_ui2d
U __aeabi_uidiv
U __aeabi_uidivmod
U __aeabi_uldivmod
U __aeabi_unwind_cpp_pr0
U __aeabi_unwind_cpp_pr1
A __bss_end__
A __bss_start
A __bss_start__
T __ctype_get_mb_cur_max
U __cxa_pure_virtual
D __data_start
A __end__
A __exidx_end
A __exidx_start
U __stack_chk_fail
U __stack_chk_guard
A _bss_end__
U _ctype_
A _edata
A _end
A _stack
U atol
U ceil
U close
T cmemory_cleanup_3_8
T cmemory_inUse_3_8
B daylight
U floor
U fmod
U free
U getenv
U gmtime
U icudt38_dat
T init
T locale_getKeywords_3_8
T locale_get_default_3_8
T locale_set_default_3_8
U localtime
U log
U malloc
T mbstowcs
U memcmp
U memcpy
U memmove
U memset
U mktime
U mmap
U modf
U munmap
U open
U pow
U pthread_mutex_destroy
U pthread_mutex_init
U pthread_mutex_lock
U pthread_mutex_unlock
U puts
U readlink
U realloc
T res_countArrayItems_3_8
T res_findResource_3_8
T res_getAlias_3_8
T res_getArrayItem_3_8
T res_getBinary_3_8
T res_getIntVector_3_8
T res_getResource_3_8
T res_getString_3_8
T res_getTableItemByIndex_3_8
T res_getTableItemByKey_3_8
T res_load_3_8
T res_unload_3_8
U setlocale
U sprintf
U stat
U strcat
U strchr
U strcmp
U strcpy
U strlen
U strncat
U strncmp
U strncpy
U strrchr
U strstr
U strtod
U strtol
U strtoul
U time
B timezone
T triedict_swap_3_8
T u_UCharsToChars_3_8
T u_austrcpy_3_8
T u_austrncpy_3_8
T u_catclose_3_8
T u_catgets_3_8
T u_catopen_3_8
T u_charAge_3_8
T u_charDigitValue_3_8
T u_charDirection_3_8
T u_charFromName_3_8
T u_charMirror_3_8
T u_charName_3_8
T u_charType_3_8
T u_charsToUChars_3_8
T u_cleanup_3_8
T u_countChar32_3_8
T u_digit_3_8
T u_enumCharNames_3_8
T u_enumCharTypes_3_8
T u_errorName_3_8
T u_foldCase_3_8
T u_forDigit_3_8
T u_getCombiningClass_3_8
T u_getDataDirectory_3_8
T u_getDefaultConverter_3_8
T u_getFC_NFKC_Closure_3_8
T u_getISOComment_3_8
T u_getIntPropertyMaxValue_3_8
T u_getIntPropertyMinValue_3_8
T u_getIntPropertyValue_3_8
T u_getNumericValue_3_8
T u_getPropertyEnum_3_8
T u_getPropertyName_3_8
T u_getPropertyValueEnum_3_8
T u_getPropertyValueName_3_8
T u_getUnicodeProperties_3_8
T u_getUnicodeVersion_3_8
T u_getVersion_3_8
T u_growBufferFromStatic_3_8
T u_hasBinaryProperty_3_8
T u_init_3_8
T u_isIDIgnorable_3_8
T u_isIDPart_3_8
T u_isIDStart_3_8
T u_isISOControl_3_8
T u_isJavaIDPart_3_8
T u_isJavaIDStart_3_8
T u_isJavaSpaceChar_3_8
T u_isMirrored_3_8
T u_isUAlphabetic_3_8
T u_isULowercase_3_8
T u_isUUppercase_3_8
T u_isUWhiteSpace_3_8
T u_isWhitespace_3_8
T u_isalnumPOSIX_3_8
T u_isalnum_3_8
T u_isalpha_3_8
T u_isbase_3_8
T u_isblank_3_8
T u_iscntrl_3_8
T u_isdefined_3_8
T u_isdigit_3_8
T u_isgraphPOSIX_3_8
T u_isgraph_3_8
T u_islower_3_8
T u_isprintPOSIX_3_8
T u_isprint_3_8
T u_ispunct_3_8
T u_isspace_3_8
T u_istitle_3_8
T u_isupper_3_8
T u_isxdigit_3_8
T u_memcasecmp_3_8
T u_memchr32_3_8
T u_memchr_3_8
T u_memcmpCodePointOrder_3_8
T u_memcmp_3_8
T u_memcpy_3_8
T u_memmove_3_8
T u_memrchr32_3_8
T u_memrchr_3_8
T u_memset_3_8
T u_releaseDefaultConverter_3_8
T u_setAtomicIncDecFunctions_3_8
T u_setDataDirectory_3_8
T u_setMemoryFunctions_3_8
T u_setMutexFunctions_3_8
T u_shapeArabic_3_8
T u_strCaseCompare_3_8
T u_strCompareIter_3_8
T u_strCompare_3_8
T u_strFindFirst_3_8
T u_strFindLast_3_8
T u_strFoldCase_3_8
T u_strFromPunycode_3_8
T u_strFromUTF32_3_8
T u_strFromUTF8Lenient_3_8
T u_strFromUTF8WithSub_3_8
T u_strFromUTF8_3_8
T u_strFromWCS_3_8
T u_strHasMoreChar32Than_3_8
T u_strToLower_3_8
T u_strToPunycode_3_8
T u_strToTitle_3_8
T u_strToUTF32_3_8
T u_strToUTF8WithSub_3_8
T u_strToUTF8_3_8
T u_strToUpper_3_8
T u_strToWCS_3_8
T u_strcasecmp_3_8
T u_strcat_3_8
T u_strchr32_3_8
T u_strchr_3_8
T u_strcmpCodePointOrder_3_8
T u_strcmpFold_3_8
T u_strcmp_3_8
T u_strcpy_3_8
T u_strcspn_3_8
T u_strlen_3_8
T u_strncasecmp_3_8
T u_strncat_3_8
T u_strncmpCodePointOrder_3_8
T u_strncmp_3_8
T u_strncpy_3_8
T u_strpbrk_3_8
T u_strrchr32_3_8
T u_strrchr_3_8
T u_strrstr_3_8
T u_strspn_3_8
T u_strstr_3_8
T u_strtok_r_3_8
T u_terminateChars_3_8
T u_terminateUChar32s_3_8
T u_terminateUChars_3_8
T u_terminateWChars_3_8
T u_tolower_3_8
T u_totitle_3_8
T u_toupper_3_8
T u_uastrcpy_3_8
T u_uastrncpy_3_8
T u_unescapeAt_3_8
T u_unescape_3_8
T u_versionFromString_3_8
T u_versionToString_3_8
T ubidi_addPropertyStarts_3_8
T ubidi_closeProps_3_8
T ubidi_close_3_8
T ubidi_countParagraphs_3_8
T ubidi_countRuns_3_8
T ubidi_getClassCallback_3_8
T ubidi_getClass_3_8
T ubidi_getCustomizedClass_3_8
T ubidi_getDirection_3_8
T ubidi_getDummy_3_8
T ubidi_getJoiningGroup_3_8
T ubidi_getJoiningType_3_8
T ubidi_getLength_3_8
T ubidi_getLevelAt_3_8
T ubidi_getLevels_3_8
T ubidi_getLogicalIndex_3_8
T ubidi_getLogicalMap_3_8
T ubidi_getLogicalRun_3_8
T ubidi_getMaxValue_3_8
T ubidi_getMemory_3_8
T ubidi_getMirror_3_8
T ubidi_getParaLevel_3_8
T ubidi_getParagraphByIndex_3_8
T ubidi_getParagraph_3_8
T ubidi_getProcessedLength_3_8
T ubidi_getReorderingMode_3_8
T ubidi_getReorderingOptions_3_8
T ubidi_getResultLength_3_8
T ubidi_getRuns_3_8
T ubidi_getSingleton_3_8
T ubidi_getText_3_8
T ubidi_getVisualIndex_3_8
T ubidi_getVisualMap_3_8
T ubidi_getVisualRun_3_8
T ubidi_invertMap_3_8
T ubidi_isBidiControl_3_8
T ubidi_isInverse_3_8
T ubidi_isJoinControl_3_8
T ubidi_isMirrored_3_8
T ubidi_isOrderParagraphsLTR_3_8
T ubidi_openSized_3_8
T ubidi_open_3_8
T ubidi_orderParagraphsLTR_3_8
T ubidi_reorderLogical_3_8
T ubidi_reorderVisual_3_8
T ubidi_setClassCallback_3_8
T ubidi_setInverse_3_8
T ubidi_setLine_3_8
T ubidi_setPara_3_8
T ubidi_setReorderingMode_3_8
T ubidi_setReorderingOptions_3_8
T ubidi_writeReordered_3_8
T ubidi_writeReverse_3_8
T ublock_getCode_3_8
T ubrk_close_3_8
T ubrk_countAvailable_3_8
T ubrk_current_3_8
T ubrk_first_3_8
T ubrk_following_3_8
T ubrk_getAvailable_3_8
T ubrk_getLocaleByType_3_8
T ubrk_getRuleStatusVec_3_8
T ubrk_getRuleStatus_3_8
T ubrk_isBoundary_3_8
T ubrk_last_3_8
T ubrk_next_3_8
T ubrk_openRules_3_8
T ubrk_open_3_8
T ubrk_preceding_3_8
T ubrk_previous_3_8
T ubrk_safeClone_3_8
T ubrk_setText_3_8
T ubrk_setUText_3_8
T ubrk_swap_3_8
T ucase_addCaseClosure_3_8
T ucase_addPropertyStarts_3_8
T ucase_addStringCaseClosure_3_8
T ucase_close_3_8
T ucase_fold_3_8
T ucase_getCaseLocale_3_8
T ucase_getDummy_3_8
T ucase_getSingleton_3_8
T ucase_getTypeOrIgnorable_3_8
T ucase_getType_3_8
T ucase_hasBinaryProperty_3_8
T ucase_isCaseSensitive_3_8
T ucase_isSoftDotted_3_8
T ucase_toFullFolding_3_8
T ucase_toFullLower_3_8
T ucase_toFullTitle_3_8
T ucase_toFullUpper_3_8
T ucase_tolower_3_8
T ucase_totitle_3_8
T ucase_toupper_3_8
T ucasemap_close_3_8
T ucasemap_getBreakIterator_3_8
T ucasemap_getLocale_3_8
T ucasemap_getOptions_3_8
T ucasemap_open_3_8
T ucasemap_setBreakIterator_3_8
T ucasemap_setLocale_3_8
T ucasemap_setOptions_3_8
T ucasemap_toTitle_3_8
T ucasemap_utf8FoldCase_3_8
T ucasemap_utf8ToLower_3_8
T ucasemap_utf8ToTitle_3_8
T ucasemap_utf8ToUpper_3_8
T uchar_addPropertyStarts_3_8
T uchar_getHST_3_8
T uchar_swapNames_3_8
T ucln_common_registerCleanup_3_8
T ucln_lib_cleanup_3_8
T ucln_registerCleanup_3_8
T ucnv_MBCSFromUChar32_3_8
T ucnv_MBCSFromUnicodeWithOffsets_3_8
T ucnv_MBCSGetFilteredUnicodeSetForUnicode
T ucnv_MBCSGetType_3_8
T ucnv_MBCSGetUnicodeSetForUnicode_3_8
T ucnv_MBCSIsLeadByte_3_8
T ucnv_MBCSSimpleGetNextUChar_3_8
T ucnv_MBCSToUnicodeWithOffsets_3_8
T ucnv_bld_countAvailableConverters_3_8
T ucnv_bld_getAvailableConverter_3_8
T ucnv_cbFromUWriteBytes_3_8
T ucnv_cbFromUWriteSub_3_8
T ucnv_cbFromUWriteUChars_3_8
T ucnv_cbToUWriteSub_3_8
T ucnv_cbToUWriteUChars_3_8
T ucnv_close_3_8
T ucnv_compareNames_3_8
T ucnv_convertEx_3_8
T ucnv_convert_3_8
T ucnv_countAliases_3_8
T ucnv_countAvailable_3_8
T ucnv_countStandards_3_8
T ucnv_createAlgorithmicConverter_3_8
T ucnv_createConverterFromPackage_3_8
T ucnv_createConverterFromSharedData_3_8
T ucnv_createConverter_3_8
T ucnv_detectUnicodeSignature_3_8
T ucnv_extContinueMatchFromU_3_8
T ucnv_extContinueMatchToU_3_8
T ucnv_extGetUnicodeSet_3_8
T ucnv_extInitialMatchFromU_3_8
T ucnv_extInitialMatchToU_3_8
T ucnv_extSimpleMatchFromU_3_8
T ucnv_extSimpleMatchToU_3_8
T ucnv_fixFileSeparator_3_8
T ucnv_flushCache_3_8
T ucnv_fromAlgorithmic_3_8
T ucnv_fromUChars_3_8
T ucnv_fromUCountPending_3_8
T ucnv_fromUWriteBytes_3_8
T ucnv_fromUnicode_3_8
T ucnv_fromUnicode_UTF8_3_8
T ucnv_fromUnicode_UTF8_OFFSETS_LOGIC_3_8
T ucnv_getAlias_3_8
T ucnv_getAliases_3_8
T ucnv_getAvailableName_3_8
T ucnv_getCCSID_3_8
T ucnv_getCanonicalName_3_8
T ucnv_getCompleteUnicodeSet_3_8
T ucnv_getDefaultName_3_8
T ucnv_getDisplayName_3_8
T ucnv_getFromUCallBack_3_8
T ucnv_getInvalidChars_3_8
T ucnv_getInvalidUChars_3_8
T ucnv_getMaxCharSize_3_8
T ucnv_getMinCharSize_3_8
T ucnv_getName_3_8
T ucnv_getNextUChar_3_8
T ucnv_getNonSurrogateUnicodeSet_3_8
T ucnv_getPlatform_3_8
T ucnv_getStandardName_3_8
T ucnv_getStandard_3_8
T ucnv_getStarters_3_8
T ucnv_getSubstChars_3_8
T ucnv_getToUCallBack_3_8
T ucnv_getType_3_8
T ucnv_getUnicodeSet_3_8
T ucnv_incrementRefCount_3_8
T ucnv_io_countKnownConverters_3_8
T ucnv_io_getConverterName_3_8
T ucnv_io_stripASCIIForCompare_3_8
T ucnv_io_stripEBCDICForCompare_3_8
T ucnv_isAmbiguous_3_8
T ucnv_loadSharedData_3_8
T ucnv_load_3_8
T ucnv_openAllNames_3_8
T ucnv_openCCSID_3_8
T ucnv_openPackage_3_8
T ucnv_openStandardNames_3_8
T ucnv_openU_3_8
T ucnv_open_3_8
T ucnv_resetFromUnicode_3_8
T ucnv_resetToUnicode_3_8
T ucnv_reset_3_8
T ucnv_safeClone_3_8
T ucnv_setDefaultName_3_8
T ucnv_setFallback_3_8
T ucnv_setFromUCallBack_3_8
T ucnv_setSubstChars_3_8
T ucnv_setSubstString_3_8
T ucnv_setToUCallBack_3_8
T ucnv_swapAliases_3_8
T ucnv_swap_3_8
T ucnv_toAlgorithmic_3_8
T ucnv_toUChars_3_8
T ucnv_toUCountPending_3_8
T ucnv_toUWriteCodePoint_3_8
T ucnv_toUWriteUChars_3_8
T ucnv_toUnicode_3_8
T ucnv_unloadSharedDataIfReady_3_8
T ucnv_unload_3_8
T ucnv_usesFallback_3_8
T ucol_swapBinary_3_8
T ucol_swapInverseUCA_3_8
T ucol_swap_3_8
T udata_checkCommonData_3_8
T udata_closeSwapper_3_8
T udata_close_3_8
T udata_getHeaderSize_3_8
T udata_getInfoSize_3_8
T udata_getInfo_3_8
T udata_getLength_3_8
T udata_getMemory_3_8
T udata_getRawMemory_3_8
T udata_openChoice_3_8
T udata_openSwapperForInputData_3_8
T udata_openSwapper_3_8
T udata_open_3_8
T udata_printError_3_8
T udata_readInt16_3_8
T udata_readInt32_3_8
T udata_setAppData_3_8
T udata_setCommonData_3_8
T udata_setFileAccess_3_8
T udata_swapDataHeader_3_8
T udata_swapInvStringBlock_3_8
T uenum_close_3_8
T uenum_count_3_8
T uenum_nextDefault_3_8
T uenum_next_3_8
T uenum_openCharStringsEnumeration_3_8
T uenum_openStringEnumeration_3_8
T uenum_reset_3_8
T uenum_unextDefault_3_8
T uenum_unext_3_8
T uhash_close_3_8
T uhash_compareCaselessUnicodeString_3_8
T uhash_compareChars_3_8
T uhash_compareIChars_3_8
T uhash_compareLong_3_8
T uhash_compareUChars_3_8
T uhash_compareUnicodeString_3_8
T uhash_count_3_8
T uhash_deleteHashtable_3_8
T uhash_deleteUVector_3_8
T uhash_deleteUnicodeString_3_8
T uhash_equals_3_8
T uhash_find_3_8
T uhash_freeBlock_3_8
T uhash_get_3_8
T uhash_geti_3_8
T uhash_hashCaselessUnicodeString_3_8
T uhash_hashChars_3_8
T uhash_hashIChars_3_8
T uhash_hashLong_3_8
T uhash_hashUCharsN_3_8
T uhash_hashUChars_3_8
T uhash_hashUnicodeString_3_8
T uhash_iget_3_8
T uhash_igeti_3_8
T uhash_init_3_8
T uhash_iput_3_8
T uhash_iputi_3_8
T uhash_iremove_3_8
T uhash_iremovei_3_8
T uhash_nextElement_3_8
T uhash_openSize_3_8
T uhash_open_3_8
T uhash_put_3_8
T uhash_puti_3_8
T uhash_removeAll_3_8
T uhash_removeElement_3_8
T uhash_remove_3_8
T uhash_removei_3_8
T uhash_setKeyComparator_3_8
T uhash_setKeyDeleter_3_8
T uhash_setKeyHasher_3_8
T uhash_setResizePolicy_3_8
T uhash_setValueComparator_3_8
T uhash_setValueDeleter_3_8
T uhst_addPropertyStarts_3_8
T uidna_IDNToASCII_3_8
T uidna_IDNToUnicode_3_8
T uidna_compare_3_8
T uidna_toASCII_3_8
T uidna_toUnicode_3_8
T uiter_current32_3_8
T uiter_getState_3_8
T uiter_next32_3_8
T uiter_previous32_3_8
T uiter_setCharacterIterator_3_8
T uiter_setReplaceable_3_8
T uiter_setState_3_8
T uiter_setString_3_8
T uiter_setUTF16BE_3_8
T uiter_setUTF8_3_8
T uloc_acceptLanguageFromHTTP_3_8
T uloc_acceptLanguage_3_8
T uloc_canonicalize_3_8
T uloc_countAvailable_3_8
T uloc_getAvailable_3_8
T uloc_getBaseName_3_8
T uloc_getCountry_3_8
T uloc_getDefault_3_8
T uloc_getDisplayCountry_3_8
T uloc_getDisplayKeywordValue_3_8
T uloc_getDisplayKeyword_3_8
T uloc_getDisplayLanguage_3_8
T uloc_getDisplayName_3_8
T uloc_getDisplayScript_3_8
T uloc_getDisplayVariant_3_8
T uloc_getISO3Country_3_8
T uloc_getISO3Language_3_8
T uloc_getISOCountries_3_8
T uloc_getISOLanguages_3_8
T uloc_getKeywordValue_3_8
T uloc_getLCID_3_8
T uloc_getLanguage_3_8
T uloc_getLocaleForLCID_3_8
T uloc_getName_3_8
T uloc_getParent_3_8
T uloc_getScript_3_8
T uloc_getVariant_3_8
T uloc_openKeywordList_3_8
T uloc_openKeywords_3_8
T uloc_setDefault_3_8
T uloc_setKeywordValue_3_8
T umtx_atomic_dec_3_8
T umtx_atomic_inc_3_8
T umtx_cleanup_3_8
T umtx_destroy_3_8
T umtx_init_3_8
T umtx_lock_3_8
T umtx_unlock_3_8
T unorm_addPropertyStarts_3_8
T unorm_closeIter_3_8
T unorm_compare_3_8
T unorm_compose_3_8
T unorm_concatenate_3_8
T unorm_decompose_3_8
T unorm_getCanonStartSet_3_8
T unorm_getCanonicalDecomposition_3_8
T unorm_getDecomposition_3_8
T unorm_getFCD16FromCodePoint_3_8
T unorm_getFCDTrie_3_8
T unorm_getNX_3_8
T unorm_getQuickCheck_3_8
T unorm_getUnicodeVersion_3_8
T unorm_haveData_3_8
T unorm_internalIsFullCompositionExclusion_3_8
T unorm_internalNormalizeWithNX_3_8
T unorm_internalNormalize_3_8
T unorm_internalQuickCheck_3_8
T unorm_isCanonSafeStart_3_8
T unorm_isNFSkippable_3_8
T unorm_isNormalizedWithOptions_3_8
T unorm_isNormalized_3_8
T unorm_next_3_8
T unorm_normalize_3_8
T unorm_openIter_3_8
T unorm_previous_3_8
T unorm_quickCheckWithOptions_3_8
T unorm_quickCheck_3_8
T unorm_setIter_3_8
T upname_swap_3_8
T uprops_getSource_3_8
T upropsvec_addPropertyStarts_3_8
T uprv_asciiFromEbcdic_3_8
T uprv_asciitolower_3_8
T uprv_ceil_3_8
T uprv_compareASCIIPropertyNames_3_8
T uprv_compareEBCDICPropertyNames_3_8
T uprv_compareInvAscii_3_8
T uprv_compareInvEbcdic_3_8
T uprv_convertToLCID_3_8
T uprv_convertToPosix_3_8
T uprv_copyAscii_3_8
T uprv_copyEbcdic_3_8
T uprv_ebcdicFromAscii_3_8
T uprv_ebcdictolower_3_8
T uprv_fabs_3_8
T uprv_floor_3_8
T uprv_fmax_3_8
T uprv_fmin_3_8
T uprv_fmod_3_8
T uprv_free_3_8
T uprv_getCharNameCharacters_3_8
T uprv_getDefaultCodepage_3_8
T uprv_getDefaultLocaleID_3_8
T uprv_getInfinity_3_8
T uprv_getMaxCharNameLength_3_8
T uprv_getMaxValues_3_8
T uprv_getNaN_3_8
T uprv_getUTCtime_3_8
T uprv_haveProperties_3_8
T uprv_int32Comparator_3_8
T uprv_isInfinite_3_8
T uprv_isInvariantString_3_8
T uprv_isInvariantUString_3_8
T uprv_isNaN_3_8
T uprv_isNegativeInfinity_3_8
T uprv_isPositiveInfinity_3_8
T uprv_isRuleWhiteSpace_3_8
T uprv_itou_3_8
T uprv_log_3_8
T uprv_malloc_3_8
T uprv_mapFile_3_8
T uprv_maxMantissa_3_8
T uprv_max_3_8
T uprv_maximumPtr_3_8
T uprv_min_3_8
T uprv_modf_3_8
T uprv_openRuleWhiteSpaceSet_3_8
T uprv_pathIsAbsolute_3_8
T uprv_pow10_3_8
T uprv_pow_3_8
T uprv_realloc_3_8
T uprv_round_3_8
T uprv_sortArray_3_8
T uprv_strCompare_3_8
T uprv_strdup_3_8
T uprv_strndup_3_8
T uprv_syntaxError_3_8
T uprv_timezone_3_8
T uprv_toupper_3_8
T uprv_trunc_3_8
T uprv_tzname_3_8
T uprv_tzset_3_8
T uprv_uint16Comparator_3_8
T uprv_uint32Comparator_3_8
T uprv_unmapFile_3_8
T uprv_wcscat
T uprv_wcscpy
T uprv_wcslen
T ures_clone_3_8
T ures_close_3_8
T ures_copyResb_3_8
T ures_countArrayItems_3_8
T ures_equal_3_8
T ures_findResource_3_8
T ures_findSubResource_3_8
T ures_getBinary_3_8
T ures_getByIndex_3_8
T ures_getByKeyWithFallback_3_8
T ures_getByKey_3_8
T ures_getFunctionalEquivalent_3_8
T ures_getIntVector_3_8
T ures_getInt_3_8
T ures_getKey_3_8
T ures_getKeywordValues_3_8
T ures_getLocaleByType_3_8
T ures_getLocale_3_8
T ures_getName_3_8
T ures_getNextResource_3_8
T ures_getNextString_3_8
T ures_getParentBundle_3_8
T ures_getSize_3_8
T ures_getStringByIndex_3_8
T ures_getStringByKeyWithFallback_3_8
T ures_getStringByKey_3_8
T ures_getString_3_8
T ures_getType_3_8
T ures_getUInt_3_8
T ures_getUTF8StringByIndex_3_8
T ures_getUTF8StringByKey_3_8
T ures_getUTF8String_3_8
T ures_getVersionNumber_3_8
T ures_getVersion_3_8
T ures_hasNext_3_8
T ures_initStackObject_3_8
T ures_openAvailableLocales_3_8
T ures_openDirect_3_8
T ures_openFillIn_3_8
T ures_openU_3_8
T ures_open_3_8
T ures_resetIterator_3_8
T ures_swap_3_8
T uscript_closeRun_3_8
T uscript_getCode_3_8
T uscript_getName_3_8
T uscript_getScript_3_8
T uscript_getShortName_3_8
T uscript_nextRun_3_8
T uscript_openRun_3_8
T uscript_resetRun_3_8
T uscript_setRunText_3_8
T uset_addAllCodePoints_3_8
T uset_addAll_3_8
T uset_addRange_3_8
T uset_addString_3_8
T uset_add_3_8
T uset_applyIntPropertyValue_3_8
T uset_applyPattern_3_8
T uset_applyPropertyAlias_3_8
T uset_charAt_3_8
T uset_clear_3_8
T uset_cloneAsThawed_3_8
T uset_clone_3_8
T uset_close_3_8
T uset_compact_3_8
T uset_complementAll_3_8
T uset_complement_3_8
T uset_containsAllCodePoints_3_8
T uset_containsAll_3_8
T uset_containsNone_3_8
T uset_containsRange_3_8
T uset_containsSome_3_8
T uset_containsString_3_8
T uset_contains_3_8
T uset_equals_3_8
T uset_freeze_3_8
T uset_getItemCount_3_8
T uset_getItem_3_8
T uset_getSerializedRangeCount_3_8
T uset_getSerializedRange_3_8
T uset_getSerializedSet_3_8
T uset_indexOf_3_8
T uset_isEmpty_3_8
T uset_isFrozen_3_8
T uset_openPatternOptions_3_8
T uset_openPattern_3_8
T uset_open_3_8
T uset_removeAll_3_8
T uset_removeRange_3_8
T uset_removeString_3_8
T uset_remove_3_8
T uset_resemblesPattern_3_8
T uset_retainAll_3_8
T uset_retain_3_8
T uset_serialize_3_8
T uset_serializedContains_3_8
T uset_setSerializedToOne_3_8
T uset_set_3_8
T uset_size_3_8
T uset_spanBackUTF8_3_8
T uset_spanBack_3_8
T uset_spanUTF8_3_8
T uset_span_3_8
T uset_toPattern_3_8
T usprep_close_3_8
T usprep_open_3_8
T usprep_prepare_3_8
T usprep_swap_3_8
T ustr_foldCase_3_8
T ustr_toLower_3_8
T ustr_toTitle_3_8
T ustr_toUpper_3_8
T utext_char32At_3_8
T utext_clone_3_8
T utext_close_3_8
T utext_copy_3_8
T utext_current32_3_8
T utext_equals_3_8
T utext_extract_3_8
T utext_freeze_3_8
T utext_getNativeIndex_3_8
T utext_getPreviousNativeIndex_3_8
T utext_hasMetaData_3_8
T utext_isLengthExpensive_3_8
T utext_isWritable_3_8
T utext_moveIndex32_3_8
T utext_nativeLength_3_8
T utext_next32From_3_8
T utext_next32_3_8
T utext_openCharacterIterator_3_8
T utext_openConstUnicodeString_3_8
T utext_openReplaceable_3_8
T utext_openUChars_3_8
T utext_openUTF8_3_8
T utext_openUnicodeString_3_8
T utext_previous32From_3_8
T utext_previous32_3_8
T utext_replace_3_8
T utext_setNativeIndex_3_8
T utext_setup_3_8
T utf8_appendCharSafeBody_3_8
T utf8_back1SafeBody_3_8
R utf8_countTrailBytes_3_8
T utf8_nextCharSafeBody_3_8
T utf8_prevCharSafeBody_3_8
T utrace_cleanup_3_8
T utrace_data_3_8
T utrace_entry_3_8
T utrace_exit_3_8
T utrace_format_3_8
T utrace_functionName_3_8
T utrace_getFunctions_3_8
T utrace_getLevel_3_8
B utrace_level_3_8
T utrace_setFunctions_3_8
T utrace_setLevel_3_8
T utrace_vformat_3_8
T utrie_clone_3_8
T utrie_close_3_8
T utrie_defaultGetFoldingOffset_3_8
T utrie_enum_3_8
T utrie_get32_3_8
T utrie_getData_3_8
T utrie_open_3_8
T utrie_serialize_3_8
T utrie_set32_3_8
T utrie_setRange32_3_8
T utrie_swap_3_8
T utrie_unserializeDummy_3_8
T utrie_unserialize_3_8
T wcstombs
