T JNI_OnLoad
T _ZN10ime_pinyin11Utf16Reader4openEPKcj
T _ZN10ime_pinyin11Utf16Reader5closeEv
T _ZN10ime_pinyin11Utf16Reader8readlineEPtj
T _ZN10ime_pinyin11Utf16ReaderC1Ev
T _ZN10ime_pinyin11Utf16ReaderC2Ev
T _ZN10ime_pinyin11Utf16ReaderD1Ev
T _ZN10ime_pinyin11Utf16ReaderD2Ev
T _ZN10ime_pinyin11comp_doubleEPKvS1_
T _ZN10ime_pinyin11compare_splEPKvS1_
T _ZN10ime_pinyin12MatrixSearch10del_in_pysEjj
T _ZN10ime_pinyin12MatrixSearch10extend_dmiEPNS_11DictExtParaEPNS_13DictMatchInfoE
T _ZN10ime_pinyin12MatrixSearch11flush_cacheEv
T _ZN10ime_pinyin12MatrixSearch11is_split_atEt
T _ZN10ime_pinyin12MatrixSearch12extend_dmi_cEPNS_11DictExtParaEPNS_13DictMatchInfoE
T _ZN10ime_pinyin12MatrixSearch12get_fixedlenEv
T _ZN10ime_pinyin12MatrixSearch12get_predictsEPKtPA8_tj
T _ZN10ime_pinyin12MatrixSearch12reset_searchEjbbb
T _ZN10ime_pinyin12MatrixSearch12reset_searchEv
T _ZN10ime_pinyin12MatrixSearch12set_max_lensEjj
T _ZN10ime_pinyin12MatrixSearch13free_resourceEv
T _ZN10ime_pinyin12MatrixSearch13get_candidateEjPtj
T _ZN10ime_pinyin12MatrixSearch13get_lemma_strEjPtt
T _ZN10ime_pinyin12MatrixSearch13get_spl_startERPKt
T _ZN10ime_pinyin12MatrixSearch13inner_predictEPKttPA8_tj
T _ZN10ime_pinyin12MatrixSearch13reset_search0Ev
T _ZN10ime_pinyin12MatrixSearch14alloc_resourceEv
T _ZN10ime_pinyin12MatrixSearch14extend_mtrx_ndEPNS_10MatrixNodeEPNS_10LmaPsbItemEjtj
T _ZN10ime_pinyin12MatrixSearch14get_candidate0EPtjS1_b
T _ZN10ime_pinyin12MatrixSearch15add_char_qwertyEv
T _ZN10ime_pinyin12MatrixSearch15debug_print_dmiEtt
T _ZN10ime_pinyin12MatrixSearch16get_lemma_splidsEjPttb
T _ZN10ime_pinyin12MatrixSearch16get_spl_start_idEv
T _ZN10ime_pinyin12MatrixSearch16get_xi_an_switchEv
T _ZN10ime_pinyin12MatrixSearch16merge_fixed_lmasEj
T _ZN10ime_pinyin12MatrixSearch16prepare_add_charEc
T _ZN10ime_pinyin12MatrixSearch16set_xi_an_switchEb
T _ZN10ime_pinyin12MatrixSearch16update_dict_freqEv
T _ZN10ime_pinyin12MatrixSearch17get_candidate_numEv
T _ZN10ime_pinyin12MatrixSearch18cancel_last_choiceEv
T _ZN10ime_pinyin12MatrixSearch18prepare_candidatesEv
T _ZN10ime_pinyin12MatrixSearch19add_lma_to_userdictEttf
T _ZN10ime_pinyin12MatrixSearch22reset_pointers_to_nullEv
T _ZN10ime_pinyin12MatrixSearch25try_add_cand0_to_userdictEv
T _ZN10ime_pinyin12MatrixSearch4initEPKcS2_
T _ZN10ime_pinyin12MatrixSearch5closeEv
T _ZN10ime_pinyin12MatrixSearch6chooseEj
T _ZN10ime_pinyin12MatrixSearch6searchEPKcj
T _ZN10ime_pinyin12MatrixSearch7init_fdEillPKc
T _ZN10ime_pinyin12MatrixSearch8add_charEc
T _ZN10ime_pinyin12MatrixSearch8fill_dmiEPNS_13DictMatchInfoEPtttthbhh
T _ZN10ime_pinyin12MatrixSearch8get_lpisEPKtjPNS_10LmaPsbItemEjS2_b
T _ZN10ime_pinyin12MatrixSearch9delsearchEjbb
T _ZN10ime_pinyin12MatrixSearch9get_pystrEPj
T _ZN10ime_pinyin12MatrixSearch9match_dmiEjPtt
T _ZN10ime_pinyin12MatrixSearchC1Ev
T _ZN10ime_pinyin12MatrixSearchC2Ev
T _ZN10ime_pinyin12MatrixSearchD1Ev
T _ZN10ime_pinyin12MatrixSearchD2Ev
D _ZN10ime_pinyin12SpellingTrie11char_flags_E
R _ZN10ime_pinyin12SpellingTrie11kHalfId2Sc_E
T _ZN10ime_pinyin12SpellingTrie12get_instanceEv
T _ZN10ime_pinyin12SpellingTrie13free_son_trieEPNS_12SpellingNodeE
T _ZN10ime_pinyin12SpellingTrie13load_spl_trieEP7__sFILE
T _ZN10ime_pinyin12SpellingTrie13save_spl_trieEP7__sFILE
T _ZN10ime_pinyin12SpellingTrie13szm_enable_ymEb
T _ZN10ime_pinyin12SpellingTrie14get_cpinstanceEv
T _ZN10ime_pinyin12SpellingTrie14szm_enable_shmEb
T _ZN10ime_pinyin12SpellingTrie16get_spelling_numEv
T _ZN10ime_pinyin12SpellingTrie16get_spelling_strEt
T _ZN10ime_pinyin12SpellingTrie18get_spelling_str16Et
T _ZN10ime_pinyin12SpellingTrie18get_spelling_str16EtPtj
T _ZN10ime_pinyin12SpellingTrie26construct_spellings_subsetEjjjPNS_12SpellingNodeE
T _ZN10ime_pinyin12SpellingTrie9build_f2hEv
T _ZN10ime_pinyin12SpellingTrie9constructEPKcjjfh
T _ZN10ime_pinyin12SpellingTrie9get_ym_idEPKc
B _ZN10ime_pinyin12SpellingTrie9instance_E
T _ZN10ime_pinyin12SpellingTrieC1Ev
T _ZN10ime_pinyin12SpellingTrieC2Ev
T _ZN10ime_pinyin12SpellingTrieD1Ev
T _ZN10ime_pinyin12SpellingTrieD2Ev
T _ZN10ime_pinyin12cmp_hanzis_1EPKvS1_
T _ZN10ime_pinyin12cmp_hanzis_2EPKvS1_
T _ZN10ime_pinyin12cmp_hanzis_3EPKvS1_
T _ZN10ime_pinyin12cmp_hanzis_4EPKvS1_
T _ZN10ime_pinyin12cmp_hanzis_5EPKvS1_
T _ZN10ime_pinyin12cmp_hanzis_6EPKvS1_
T _ZN10ime_pinyin12cmp_hanzis_7EPKvS1_
T _ZN10ime_pinyin12cmp_hanzis_8EPKvS1_
T _ZN10ime_pinyin13is_user_lemmaEj
T _ZN10ime_pinyin13iterate_codesEPdjS0_Ph
T _ZN10ime_pinyin14SpellingParser14splstr_to_idxsEPKctPtS3_tRb
T _ZN10ime_pinyin14SpellingParser16get_splid_by_strEPKctPb
T _ZN10ime_pinyin14SpellingParser16splstr16_to_idxsEPKttPtS3_tRb
T _ZN10ime_pinyin14SpellingParser16splstr_to_idxs_fEPKctPtS3_tRb
T _ZN10ime_pinyin14SpellingParser17is_valid_to_parseEc
T _ZN10ime_pinyin14SpellingParser18get_splid_by_str_fEPKctPb
T _ZN10ime_pinyin14SpellingParser18splstr16_to_idxs_fEPKttPtS3_tRb
T _ZN10ime_pinyin14SpellingParser19get_splids_parallelEPKctPttRtRb
T _ZN10ime_pinyin14SpellingParserC1Ev
T _ZN10ime_pinyin14SpellingParserC2Ev
T _ZN10ime_pinyin15align_to_size_tEj
T _ZN10ime_pinyin15cmp_lpi_with_idEPKvS1_
T _ZN10ime_pinyin15is_system_lemmaEj
T _ZN10ime_pinyin15qsearch_nearestEPddii
T _ZN10ime_pinyin15update_code_idxEPdjS0_Ph
T _ZN10ime_pinyin16cmp_lpi_with_psbEPKvS1_
T _ZN10ime_pinyin17cmp_lpsi_with_strEPKvS1_
T _ZN10ime_pinyin17cmp_npre_by_scoreEPKvS1_
T _ZN10ime_pinyin18cmp_lpi_with_hanziEPKvS1_
T _ZN10ime_pinyin18is_composing_lemmaEj
T _ZN10ime_pinyin18recalculate_kernelEPdjS0_Ph
T _ZN10ime_pinyin21remove_duplicate_npreEPNS_12NPredictItemEj
T _ZN10ime_pinyin23cmp_npre_by_hanzi_scoreEPKvS1_
T _ZN10ime_pinyin24cmp_lpi_with_unified_psbEPKvS1_
T _ZN10ime_pinyin24cmp_npre_by_hislen_scoreEPKvS1_
T _ZN10ime_pinyin4Sync10get_lemmasEPti
T _ZN10ime_pinyin4Sync10put_lemmasEPti
T _ZN10ime_pinyin4Sync12get_capacityEv
T _ZN10ime_pinyin4Sync14clear_last_gotEv
T _ZN10ime_pinyin4Sync15get_total_countEv
T _ZN10ime_pinyin4Sync18get_last_got_countEv
T _ZN10ime_pinyin4Sync5beginEPKc
T _ZN10ime_pinyin4Sync6finishEv
T _ZN10ime_pinyin4SyncC1Ev
T _ZN10ime_pinyin4SyncC2Ev
T _ZN10ime_pinyin4SyncD1Ev
T _ZN10ime_pinyin4SyncD2Ev
T _ZN10ime_pinyin5NGram10load_ngramEP7__sFILE
T _ZN10ime_pinyin5NGram10save_ngramEP7__sFILE
T _ZN10ime_pinyin5NGram11get_uni_psbEj
T _ZN10ime_pinyin5NGram12get_instanceEv
T _ZN10ime_pinyin5NGram20convert_psb_to_scoreEd
T _ZN10ime_pinyin5NGram23set_total_freq_none_sysEj
B _ZN10ime_pinyin5NGram9instance_E
T _ZN10ime_pinyin5NGramC1Ev
T _ZN10ime_pinyin5NGramC2Ev
T _ZN10ime_pinyin5NGramD1Ev
T _ZN10ime_pinyin5NGramD2Ev
T _ZN10ime_pinyin7myqsortEPvjjPFiPKvS2_E
T _ZN10ime_pinyin8DictList12get_lemma_idEPKtt
T _ZN10ime_pinyin8DictList13free_resourceEv
T _ZN10ime_pinyin8DictList13get_lemma_strEjPtt
T _ZN10ime_pinyin8DictList14alloc_resourceEjj
T _ZN10ime_pinyin8DictList17convert_to_hanzisEPtt
T _ZN10ime_pinyin8DictList19convert_to_scis_idsEPtt
T _ZN10ime_pinyin8DictList20get_splids_for_hanziEttPtt
T _ZN10ime_pinyin8DictList21find_pos_startedbyhzsEPKtjPFiPKvS4_E
T _ZN10ime_pinyin8DictList7predictEPKttPNS_12NPredictItemEjj
T _ZN10ime_pinyin8DictList9load_listEP7__sFILE
T _ZN10ime_pinyin8DictList9save_listEP7__sFILE
T _ZN10ime_pinyin8DictListC1Ev
T _ZN10ime_pinyin8DictListC2Ev
T _ZN10ime_pinyin8DictListD1Ev
T _ZN10ime_pinyin8DictListD2Ev
T _ZN10ime_pinyin8DictTrie10try_extendEPKttj
T _ZN10ime_pinyin8DictTrie11extend_dictEtPKNS_11DictExtParaEPNS_10LmaPsbItemEjPj
T _ZN10ime_pinyin8DictTrie12extend_dict0EtPKNS_11DictExtParaEPNS_10LmaPsbItemEjPj
T _ZN10ime_pinyin8DictTrie12extend_dict1EtPKNS_11DictExtParaEPNS_10LmaPsbItemEjPj
T _ZN10ime_pinyin8DictTrie12extend_dict2EtPKNS_11DictExtParaEPNS_10LmaPsbItemEjPj
T _ZN10ime_pinyin8DictTrie12get_lemma_idEPKtt
T _ZN10ime_pinyin8DictTrie12load_dict_fdEilljj
T _ZN10ime_pinyin8DictTrie13free_resourceEb
T _ZN10ime_pinyin8DictTrie13get_lemma_strEjPtt
T _ZN10ime_pinyin8DictTrie15fill_lpi_bufferEPNS_10LmaPsbItemEjPNS_10LmaNodeLE0E
T _ZN10ime_pinyin8DictTrie15fill_lpi_bufferEPNS_10LmaPsbItemEjjPNS_10LmaNodeGE1Et
T _ZN10ime_pinyin8DictTrie16get_lemma_splidsEjPttb
T _ZN10ime_pinyin8DictTrie16predict_top_lmasEjPNS_12NPredictItemEjj
T _ZN10ime_pinyin8DictTrie16reset_milestonesEtt
T _ZN10ime_pinyin8DictTrie17convert_to_hanzisEPtt
T _ZN10ime_pinyin8DictTrie19convert_to_scis_idsEPtt
T _ZN10ime_pinyin8DictTrie31set_total_lemma_count_of_othersEj
T _ZN10ime_pinyin8DictTrie7predictEPKttPNS_12NPredictItemEjj
T _ZN10ime_pinyin8DictTrie8get_lpisEPKttPNS_10LmaPsbItemEj
T _ZN10ime_pinyin8DictTrie9load_dictEP7__sFILE
T _ZN10ime_pinyin8DictTrie9load_dictEPKcjj
T _ZN10ime_pinyin8DictTrieC1Ev
T _ZN10ime_pinyin8DictTrieC2Ev
T _ZN10ime_pinyin8DictTrieD0Ev
T _ZN10ime_pinyin8DictTrieD1Ev
T _ZN10ime_pinyin8DictTrieD2Ev
T _ZN10ime_pinyin8LpiCache12get_instanceEv
T _ZN10ime_pinyin8LpiCache9get_cacheEtPNS_10LmaPsbItemEj
B _ZN10ime_pinyin8LpiCache9instance_E
T _ZN10ime_pinyin8LpiCache9is_cachedEt
T _ZN10ime_pinyin8LpiCache9put_cacheEtPNS_10LmaPsbItemEj
T _ZN10ime_pinyin8LpiCacheC1Ev
T _ZN10ime_pinyin8LpiCacheC2Ev
T _ZN10ime_pinyin8LpiCacheD1Ev
T _ZN10ime_pinyin8LpiCacheD2Ev
T _ZN10ime_pinyin8UserDict10_put_lemmaEPtS1_tty
T _ZN10ime_pinyin8UserDict10cache_initEv
T _ZN10ime_pinyin8UserDict10cache_pushENS0_17UserDictCacheTypeEPNS0_18UserDictSearchableEjj
T _ZN10ime_pinyin8UserDict10close_dictEv
T _ZN10ime_pinyin8UserDict10defragmentEv
T _ZN10ime_pinyin8UserDict10load_cacheEPNS0_18UserDictSearchableEPjS3_
T _ZN10ime_pinyin8UserDict10save_cacheEPNS0_18UserDictSearchableEjj
T _ZN10ime_pinyin8UserDict10shift_downEPNS0_23UserDictScoreOffsetPairEii
T _ZN10ime_pinyin8UserDict10write_backEv
T _ZN10ime_pinyin8UserDict11extend_dictEtPKNS_11DictExtParaEPNS_10LmaPsbItemEjPj
T _ZN10ime_pinyin8UserDict11flush_cacheEv
T _ZN10ime_pinyin8UserDict11reset_cacheEv
T _ZN10ime_pinyin8UserDict12get_lemma_idEPtS1_t
T _ZN10ime_pinyin8UserDict12remove_lemmaEj
T _ZN10ime_pinyin8UserDict12update_lemmaEjsb
T _ZN10ime_pinyin8UserDict13get_lemma_strEjPtt
T _ZN10ime_pinyin8UserDict14append_a_lemmaEPtS1_tty
T _ZN10ime_pinyin8UserDict14equal_spell_idEPKttPKNS0_18UserDictSearchableE
T _ZN10ime_pinyin8UserDict14get_sync_countEv
T _ZN10ime_pinyin8UserDict14prepare_locateEPNS0_18UserDictSearchableEPKtt
T _ZN10ime_pinyin8UserDict14write_back_allEi
T _ZN10ime_pinyin8UserDict15get_lemma_scoreEPtS1_t
T _ZN10ime_pinyin8UserDict15get_lemma_scoreEj
T _ZN10ime_pinyin8UserDict15load_miss_cacheEPNS0_18UserDictSearchableE
T _ZN10ime_pinyin8UserDict15save_miss_cacheEPNS0_18UserDictSearchableE
T _ZN10ime_pinyin8UserDict15write_back_syncEi
T _ZN10ime_pinyin8UserDict16_get_lemma_scoreEPtS1_t
T _ZN10ime_pinyin8UserDict16_get_lemma_scoreEj
T _ZN10ime_pinyin8UserDict16get_lemma_splidsEjPttb
T _ZN10ime_pinyin8UserDict16number_of_lemmasEv
T _ZN10ime_pinyin8UserDict16reset_milestonesEtt
T _ZN10ime_pinyin8UserDict16reset_miss_cacheEv
T _ZN10ime_pinyin8UserDict16write_back_lemmaEi
T _ZN10ime_pinyin8UserDict16write_back_scoreEi
T _ZN10ime_pinyin8UserDict17clear_sync_lemmasEjj
T _ZN10ime_pinyin8UserDict17locate_in_offsetsEPtS1_t
T _ZN10ime_pinyin8UserDict17put_lemma_no_syncEPtS1_tty
T _ZN10ime_pinyin8UserDict17write_back_offsetEi
T _ZN10ime_pinyin8UserDict18is_prefix_spell_idEPKttPKNS0_18UserDictSearchableE
T _ZN10ime_pinyin8UserDict20queue_lemma_for_syncEj
T _ZN10ime_pinyin8UserDict21get_total_lemma_countEv
T _ZN10ime_pinyin8UserDict22fuzzy_compare_spell_idEPKttPKNS0_18UserDictSearchableE
T _ZN10ime_pinyin8UserDict23locate_first_in_offsetsEPKNS0_18UserDictSearchableE
T _ZN10ime_pinyin8UserDict24is_fuzzy_prefix_spell_idEPKttPKNS0_18UserDictSearchableE
T _ZN10ime_pinyin8UserDict24locate_first_in_predictsEPKti
T _ZN10ime_pinyin8UserDict27remove_lemma_from_sync_listEj
T _ZN10ime_pinyin8UserDict28remove_lemma_by_offset_indexEi
T _ZN10ime_pinyin8UserDict30remove_lemma_from_predict_listEj
T _ZN10ime_pinyin8UserDict31set_total_lemma_count_of_othersEj
T _ZN10ime_pinyin8UserDict34locate_where_to_insert_in_predictsEPKti
T _ZN10ime_pinyin8UserDict38put_lemmas_no_sync_from_utf16le_stringEPti
T _ZN10ime_pinyin8UserDict48get_sync_lemmas_in_utf16le_string_from_beginningEPtiPi
T _ZN10ime_pinyin8UserDict4loadEPKcj
T _ZN10ime_pinyin8UserDict5resetEPKc
T _ZN10ime_pinyin8UserDict5stateEPNS0_12UserDictStatE
T _ZN10ime_pinyin8UserDict7predictEPKttPNS_12NPredictItemEjj
T _ZN10ime_pinyin8UserDict7reclaimEv
T _ZN10ime_pinyin8UserDict8get_lpisEPKttPNS_10LmaPsbItemEj
T _ZN10ime_pinyin8UserDict8validateEPKc
T _ZN10ime_pinyin8UserDict9_get_lpisEPKttPNS_10LmaPsbItemEjPb
T _ZN10ime_pinyin8UserDict9cache_hitEPNS0_18UserDictSearchableEPjS3_
T _ZN10ime_pinyin8UserDict9load_dictEPKcjj
T _ZN10ime_pinyin8UserDict9put_lemmaEPtS1_tt
T _ZN10ime_pinyin8UserDict9set_limitEjjj
T _ZN10ime_pinyin8UserDictC1Ev
T _ZN10ime_pinyin8UserDictC2Ev
T _ZN10ime_pinyin8UserDictD0Ev
T _ZN10ime_pinyin8UserDictD1Ev
T _ZN10ime_pinyin8UserDictD2Ev
W _ZN10ime_pinyin8distanceEdd
T _ZN10ime_pinyin9mybsearchEPKvS1_jjPFiS1_S1_E
T _ZNK10ime_pinyin12SpellingTrie10is_full_idEt
T _ZNK10ime_pinyin12SpellingTrie10is_half_idEt
T _ZNK10ime_pinyin12SpellingTrie11is_szm_charEc
T _ZNK10ime_pinyin12SpellingTrie12full_to_halfEt
T _ZNK10ime_pinyin12SpellingTrie12half_to_fullEtPt
T _ZNK10ime_pinyin12SpellingTrie13half2full_numEt
T _ZNK10ime_pinyin12SpellingTrie13is_yunmu_charEc
T _ZNK10ime_pinyin12SpellingTrie14is_szm_enabledEc
T _ZNK10ime_pinyin12SpellingTrie14szm_is_enabledEc
T _ZNK10ime_pinyin12SpellingTrie15is_shengmu_charEc
T _ZNK10ime_pinyin12SpellingTrie16is_half_id_yunmuEt
T _ZNK10ime_pinyin12SpellingTrie18if_valid_id_updateEPt
T _ZNK10ime_pinyin12SpellingTrie20half_full_compatibleEtt
V _ZTVN10ime_pinyin12AtomDictBaseE
D _ZTVN10ime_pinyin8DictTrieE
D _ZTVN10ime_pinyin8UserDictE
U _ZdaPv
U _ZdlPv
U _Znaj
U _Znwj
U __aeabi_atexit
U __aeabi_d2f
U __aeabi_d2uiz
U __aeabi_dadd
U __aeabi_dcmpeq
U __aeabi_dcmpgt
U __aeabi_dcmplt
U __aeabi_ddiv
U __aeabi_dmul
U __aeabi_dsub
U __aeabi_f2d
T __aeabi_f2uiz
U __aeabi_fadd
U __aeabi_fcmpgt
U __aeabi_fcmplt
U __aeabi_fsub
U __aeabi_i2d
U __aeabi_i2f
U __aeabi_idivmod
U __aeabi_ldivmod
U __aeabi_lmul
U __aeabi_ui2d
U __aeabi_ui2f
U __aeabi_uidiv
U __aeabi_uldivmod
U __aeabi_unwind_cpp_pr0
U __aeabi_unwind_cpp_pr1
A __bss_end__
A __bss_start
A __bss_start__
U __cxa_pure_virtual
D __data_start
U __dso_handle
A __end__
A __exidx_end
A __exidx_start
T __fixunssfsi
U __stack_chk_fail
U __stack_chk_guard
A _bss_end__
A _edata
A _end
A _stack
U bsearch
U close
U dup
U fclose
U fdopen
U fopen
U fread
U free
U fseek
U ftell
U ftruncate
U fwrite
U gettimeofday
T im_add_letter
T im_cancel_input
T im_cancel_last_choice
T im_choose
T im_close_decoder
T im_delsearch
T im_enable_shm_as_szm
T im_enable_ym_as_szm
T im_flush_cache
T im_get_candidate
T im_get_fixed_len
T im_get_predicts
T im_get_spl_start_pos
T im_get_sps_str
T im_open_decoder
T im_open_decoder_fd
T im_reset_search
T im_search
T im_set_max_lens
U log
U lseek
U malloc
B matrix_search
U memcmp
U memcpy
U memmove
U memset
T nativeImAddLetter
T nativeImCancelInput
T nativeImCancelLastChoice
T nativeImChoose
T nativeImCloseDecoder
T nativeImDelSearch
T nativeImFlushCache
T nativeImGetChoice
T nativeImGetFixedLen
T nativeImGetPredictItem
T nativeImGetPredictsNum
T nativeImGetPyStr
T nativeImGetPyStrLen
T nativeImGetSplStart
T nativeImOpenDecoder
T nativeImOpenDecoderFd
T nativeImResetSearch
T nativeImSearch
T nativeImSetMaxLens
T nativeSyncBegin
T nativeSyncClearLastGot
T nativeSyncFinish
T nativeSyncGetCapacity
T nativeSyncGetLastCount
T nativeSyncGetLemmas
T nativeSyncGetTotalCount
T nativeSyncPutLemmas
U open
B predict_buf
U printf
U pthread_mutex_lock
U pthread_mutex_trylock
U pthread_mutex_unlock
U qsort
U realloc
U snprintf
U strcmp
U strdup
U strlen
U strtod
U time
U unlink
T utf16_atof
T utf16_atoi
T utf16_strcmp
T utf16_strcpy
T utf16_strcpy_tochar
T utf16_strlen
T utf16_strncmp
T utf16_strncpy
T utf16_strtok
U write
