T JNI_OnLoad
U _Z17get_native_cameraP7_JNIEnvP8_jobjectPP16JNICameraContext
T _Z35register_android_media_MediaScannerP7_JNIEnv
T _Z36register_android_media_MediaRecorderP7_JNIEnv
T _Z37register_android_media_AmrInputStreamP7_JNIEnv
T _Z42register_android_media_ResampleInputStreamP7_JNIEnv
T _Z45register_android_media_MediaMetadataRetrieverP7_JNIEnv
U _ZN16CPvGsmAmrEncoder14CleanupEncoderEv
U _ZN16CPvGsmAmrEncoder17InitializeEncoderEiP17TEncodeProperties
U _ZN16CPvGsmAmrEncoder6EncodeER17TInputAudioStreamR18TOutputAudioStream
U _ZN16CPvGsmAmrEncoderC1Ev
U _ZN16CPvGsmAmrEncoderD1Ev
T _ZN22JNIMediaPlayerListener6notifyEiii
T _ZN22JNIMediaPlayerListenerC1EP7_JNIEnvP8_jobjectS3_
T _ZN22JNIMediaPlayerListenerC2EP7_JNIEnvP8_jobjectS3_
T _ZN22JNIMediaPlayerListenerD0Ev
T _ZN22JNIMediaPlayerListenerD1Ev
T _ZN22JNIMediaPlayerListenerD2Ev
T _ZN24JNIMediaRecorderListener6notifyEiii
T _ZN24JNIMediaRecorderListenerC1EP7_JNIEnvP8_jobjectS3_
T _ZN24JNIMediaRecorderListenerC2EP7_JNIEnvP8_jobjectS3_
T _ZN24JNIMediaRecorderListenerD0Ev
T _ZN24JNIMediaRecorderListenerD1Ev
T _ZN24JNIMediaRecorderListenerD2Ev
U _ZN7android11MediaPlayer10disconnectEv
U _ZN7android11MediaPlayer10setLoopingEi
U _ZN7android11MediaPlayer11getDurationEPi
U _ZN7android11MediaPlayer11setListenerERKNS_2spINS_19MediaPlayerListenerEEE
U _ZN7android11MediaPlayer12prepareAsyncEv
U _ZN7android11MediaPlayer13getVideoWidthEPi
U _ZN7android11MediaPlayer13setDataSourceEPKc
U _ZN7android11MediaPlayer13setDataSourceEixx
U _ZN7android11MediaPlayer14getVideoHeightEPi
U _ZN7android11MediaPlayer15setVideoSurfaceERKNS_2spINS_7SurfaceEEE
U _ZN7android11MediaPlayer18getCurrentPositionEPi
U _ZN7android11MediaPlayer18setAudioStreamTypeEi
U _ZN7android11MediaPlayer4stopEv
U _ZN7android11MediaPlayer5pauseEv
U _ZN7android11MediaPlayer5resetEv
U _ZN7android11MediaPlayer5startEv
U _ZN7android11MediaPlayer6seekToEi
U _ZN7android11MediaPlayer7prepareEv
U _ZN7android11MediaPlayer9isLoopingEv
U _ZN7android11MediaPlayer9isPlayingEv
U _ZN7android11MediaPlayer9setVolumeEff
U _ZN7android11MediaPlayerC1Ev
U _ZN7android12MediaScanner11processFileEPKcS2_RNS_18MediaScannerClientE
U _ZN7android12MediaScanner15extractAlbumArtEi
U _ZN7android12MediaScanner16processDirectoryEPKcS2_RNS_18MediaScannerClientEPFbPvES5_
U _ZN7android12MediaScanner9setLocaleEPKc
U _ZN7android12MediaScannerC1Ev
U _ZN7android12MediaScannerD1Ev
U _ZN7android13MediaRecorder11setListenerERKNS_2spINS_21MediaRecorderListenerEEE
U _ZN7android13MediaRecorder12setVideoSizeEii
U _ZN7android13MediaRecorder13setOutputFileEixx
U _ZN7android13MediaRecorder13setParametersERKNS_7String8E
U _ZN7android13MediaRecorder14setAudioSourceEi
U _ZN7android13MediaRecorder14setVideoSourceEi
U _ZN7android13MediaRecorder15getMaxAmplitudeEPi
U _ZN7android13MediaRecorder15setAudioEncoderEi
U _ZN7android13MediaRecorder15setOutputFormatEi
U _ZN7android13MediaRecorder15setVideoEncoderEi
U _ZN7android13MediaRecorder17setPreviewSurfaceERKNS_2spINS_7SurfaceEEE
U _ZN7android13MediaRecorder17setVideoFrameRateEi
U _ZN7android13MediaRecorder4stopEv
U _ZN7android13MediaRecorder5resetEv
U _ZN7android13MediaRecorder5startEv
U _ZN7android13MediaRecorder7prepareEv
U _ZN7android13MediaRecorder7releaseEv
U _ZN7android13MediaRecorder9initCheckEv
U _ZN7android13MediaRecorder9setCameraERKNS_2spINS_7ICameraEEE
U _ZN7android13MediaRecorderC1Ev
U _ZN7android14AndroidRuntime21registerNativeMethodsEP7_JNIEnvPKcPK15JNINativeMethodi
U _ZN7android14AndroidRuntime9getJNIEnvEv
U _ZN7android18MediaScannerClientC1Ev
U _ZN7android18MediaScannerClientD1Ev
U _ZN7android22MediaMetadataRetriever12captureFrameEv
U _ZN7android22MediaMetadataRetriever13setDataSourceEPKc
U _ZN7android22MediaMetadataRetriever13setDataSourceEixx
U _ZN7android22MediaMetadataRetriever15extractAlbumArtEv
U _ZN7android22MediaMetadataRetriever15extractMetadataEi
U _ZN7android22MediaMetadataRetriever7getModeEPi
U _ZN7android22MediaMetadataRetriever7setModeEi
U _ZN7android22MediaMetadataRetrieverC1Ev
U _ZN7android25getParcelFileDescriptorFDEP7_JNIEnvP8_jobject
U _ZN7android5Mutex4lockEv
U _ZN7android5Mutex6unlockEv
U _ZN7android5MutexC1Ev
U _ZN7android5MutexD1Ev
U _ZN7android6Camera6remoteEv
U _ZN7android7RefBase10onFirstRefEv
U _ZN7android7RefBase13onLastWeakRefEPKv
U _ZN7android7RefBase15onLastStrongRefEPKv
U _ZN7android7RefBase20onIncStrongAttemptedEjPKv
U _ZN7android7RefBaseC1Ev
U _ZN7android7RefBaseD1Ev
U _ZN7android7String8C1EPKc
U _ZN7android7String8D1Ev
U _ZN8SkBitmap11allocPixelsEPNS_9AllocatorEP12SkColorTable
U _ZN8SkBitmap9setConfigENS_6ConfigEiii
U _ZN8SkBitmapC1Ev
U _ZN8SkBitmapD1Ev
U _ZNK7android7IMemory7pointerEv
U _ZNK7android7RefBase9decStrongEPKv
U _ZNK7android7RefBase9incStrongEPKv
D _ZTC22JNIMediaPlayerListener0_N7android19MediaPlayerListenerE
D _ZTC24JNIMediaRecorderListener0_N7android21MediaRecorderListenerE
D _ZTT22JNIMediaPlayerListener
D _ZTT24JNIMediaRecorderListener
V _ZTTN7android19MediaPlayerListenerE
V _ZTTN7android21MediaRecorderListenerE
V _ZTV20MyMediaScannerClient
D _ZTV22JNIMediaPlayerListener
D _ZTV24JNIMediaRecorderListener
V _ZTVN7android19MediaPlayerListenerE
V _ZTVN7android21MediaRecorderListenerE
T _ZTv0_n12_N22JNIMediaPlayerListenerD0Ev
T _ZTv0_n12_N22JNIMediaPlayerListenerD1Ev
T _ZTv0_n12_N24JNIMediaRecorderListenerD0Ev
T _ZTv0_n12_N24JNIMediaRecorderListenerD1Ev
W _ZTv0_n12_N7android19MediaPlayerListenerD0Ev
W _ZTv0_n12_N7android19MediaPlayerListenerD1Ev
W _ZTv0_n12_N7android21MediaRecorderListenerD0Ev
W _ZTv0_n12_N7android21MediaRecorderListenerD1Ev
U _ZdlPv
U _Znwj
U __aeabi_atexit
T __aeabi_llsl
U __aeabi_unwind_cpp_pr0
U __aeabi_unwind_cpp_pr1
U __android_log_print
T __ashldi3
A __bss_end__
A __bss_start
A __bss_start__
U __cxa_pure_virtual
D __data_start
U __dso_handle
A __end__
A __exidx_end
A __exidx_start
U __sF
U __stack_chk_fail
U __stack_chk_guard
A _bss_end__
A _edata
A _end
A _stack
U fputs
U free
U jniThrowException
U memcpy
U sprintf
U strlen
U strncmp
