U EAS_Config
U EAS_Init
U EAS_Render
U EAS_Shutdown
U JET_Clear_Queue
U JET_CloseFile
U JET_GetEvent
U JET_Init
U JET_OpenFile
U JET_Pause
U JET_Play
U JET_QueueSegment
U JET_SetMuteFlag
U JET_SetMuteFlags
U JET_Shutdown
U JET_Status
U JET_TriggerClip
T _ZN7android10AudioTrack11getPositionEPj
T _ZN7android10AudioTrack11setPositionEj
T _ZN7android10AudioTrack12obtainBufferEPNS0_6BufferEi
T _ZN7android10AudioTrack12sharedBufferEv
T _ZN7android10AudioTrack13getSampleRateEv
T _ZN7android10AudioTrack13releaseBufferEPNS0_6BufferE
T _ZN7android10AudioTrack13setSampleRateEi
T _ZN7android10AudioTrack16AudioTrackThread10onFirstRefEv
T _ZN7android10AudioTrack16AudioTrackThread10readyToRunEv
T _ZN7android10AudioTrack16AudioTrackThread10threadLoopEv
T _ZN7android10AudioTrack16AudioTrackThreadC1ERS0_b
T _ZN7android10AudioTrack16AudioTrackThreadC2ERS0_b
T _ZN7android10AudioTrack17getMarkerPositionEPj
T _ZN7android10AudioTrack17setMarkerPositionEj
T _ZN7android10AudioTrack18processAudioBufferERKNS_2spINS0_16AudioTrackThreadEEE
T _ZN7android10AudioTrack23getPositionUpdatePeriodEPj
T _ZN7android10AudioTrack23setPositionUpdatePeriodEj
T _ZN7android10AudioTrack3setEijiiijPFviPvS1_ES1_iRKNS_2spINS_7IMemoryEEEb
T _ZN7android10AudioTrack4muteEb
T _ZN7android10AudioTrack4stopEv
T _ZN7android10AudioTrack5flushEv
T _ZN7android10AudioTrack5pauseEv
T _ZN7android10AudioTrack5startEv
T _ZN7android10AudioTrack5writeEPKvj
T _ZN7android10AudioTrack6reloadEv
T _ZN7android10AudioTrack7getLoopEPjS1_Pi
T _ZN7android10AudioTrack7setLoopEjji
T _ZN7android10AudioTrack9getVolumeEPfS1_
T _ZN7android10AudioTrack9setVolumeEff
T _ZN7android10AudioTrackC1EijiiRKNS_2spINS_7IMemoryEEEjPFviPvS6_ES6_i
T _ZN7android10AudioTrackC1EijiiijPFviPvS1_ES1_i
T _ZN7android10AudioTrackC1Ev
T _ZN7android10AudioTrackC2EijiiRKNS_2spINS_7IMemoryEEEjPFviPvS6_ES6_i
T _ZN7android10AudioTrackC2EijiiijPFviPvS1_ES1_i
T _ZN7android10AudioTrackC2Ev
T _ZN7android10AudioTrackD1Ev
T _ZN7android10AudioTrackD2Ev
U _ZN7android10IInterface8asBinderEv
U _ZN7android10VectorImpl13finish_vectorEv
U _ZN7android10VectorImpl19reservedVectorImpl1Ev
U _ZN7android10VectorImpl19reservedVectorImpl2Ev
U _ZN7android10VectorImpl19reservedVectorImpl3Ev
U _ZN7android10VectorImpl19reservedVectorImpl4Ev
U _ZN7android10VectorImpl19reservedVectorImpl5Ev
U _ZN7android10VectorImpl19reservedVectorImpl6Ev
U _ZN7android10VectorImpl19reservedVectorImpl7Ev
U _ZN7android10VectorImpl19reservedVectorImpl8Ev
U _ZN7android10VectorImpl5clearEv
T _ZN7android11AudioRecord11getPositionEPj
T _ZN7android11AudioRecord12obtainBufferEPNS0_6BufferEi
T _ZN7android11AudioRecord13getSampleRateEv
T _ZN7android11AudioRecord13releaseBufferEPNS0_6BufferE
T _ZN7android11AudioRecord17getMarkerPositionEPj
T _ZN7android11AudioRecord17setMarkerPositionEj
T _ZN7android11AudioRecord18ClientRecordThread10threadLoopEv
T _ZN7android11AudioRecord18ClientRecordThreadC1ERS0_b
T _ZN7android11AudioRecord18ClientRecordThreadC2ERS0_b
T _ZN7android11AudioRecord18processAudioBufferERKNS_2spINS0_18ClientRecordThreadEEE
T _ZN7android11AudioRecord23getPositionUpdatePeriodEPj
T _ZN7android11AudioRecord23setPositionUpdatePeriodEj
T _ZN7android11AudioRecord3setEijiiijPFviPvS1_ES1_ib
T _ZN7android11AudioRecord4readEPvj
T _ZN7android11AudioRecord4stopEv
T _ZN7android11AudioRecord5startEv
T _ZN7android11AudioRecordC1EijiiijPFviPvS1_ES1_i
T _ZN7android11AudioRecordC1Ev
T _ZN7android11AudioRecordC2EijiiijPFviPvS1_ES1_i
T _ZN7android11AudioRecordC2Ev
T _ZN7android11AudioRecordD1Ev
T _ZN7android11AudioRecordD2Ev
T _ZN7android11AudioSystem10getRoutingEiPj
T _ZN7android11AudioSystem10setRoutingEijj
B _ZN7android11AudioSystem11gInBuffSizeE
B _ZN7android11AudioSystem11gOutLatencyE
T _ZN7android11AudioSystem11linearToLogEi
T _ZN7android11AudioSystem11logToLinearEf
T _ZN7android11AudioSystem12bluetoothScoEb
B _ZN7android11AudioSystem12gA2dpEnabledE
T _ZN7android11AudioSystem12setParameterEPKcS2_
T _ZN7android11AudioSystem12speakerphoneEb
B _ZN7android11AudioSystem13gAudioFlingerE
D _ZN7android11AudioSystem13gPrevInFormatE
T _ZN7android11AudioSystem13getMasterMuteEPb
T _ZN7android11AudioSystem13getStreamMuteEiPb
T _ZN7android11AudioSystem13isMusicActiveEPb
T _ZN7android11AudioSystem13setMasterMuteEb
T _ZN7android11AudioSystem13setStreamMuteEib
B _ZN7android11AudioSystem14gOutFrameCountE
T _ZN7android11AudioSystem14muteMicrophoneEb
T _ZN7android11AudioSystem15getMasterVolumeEPf
T _ZN7android11AudioSystem15getStreamVolumeEiPf
T _ZN7android11AudioSystem15setMasterVolumeEf
T _ZN7android11AudioSystem15setStreamVolumeEif
B _ZN7android11AudioSystem16gOutSamplingRateE
T _ZN7android11AudioSystem16getOutputLatencyEPji
T _ZN7android11AudioSystem16isBluetoothScoOnEPb
T _ZN7android11AudioSystem16isSpeakerphoneOnEPb
T _ZN7android11AudioSystem16setErrorCallbackEPFviE
T _ZN7android11AudioSystem17get_audio_flingerEv
T _ZN7android11AudioSystem17isMicrophoneMutedEPb
T _ZN7android11AudioSystem18AudioFlingerClient10binderDiedERKNS_2wpINS_7IBinderEEE
T _ZN7android11AudioSystem18AudioFlingerClient18a2dpEnabledChangedEb
T _ZN7android11AudioSystem18getInputBufferSizeEjiiPj
T _ZN7android11AudioSystem18routedToA2dpOutputEi
B _ZN7android11AudioSystem19gAudioErrorCallbackE
B _ZN7android11AudioSystem19gAudioFlingerClientE
D _ZN7android11AudioSystem19gPrevInChannelCountE
D _ZN7android11AudioSystem19gPrevInSamplingRateE
T _ZN7android11AudioSystem19getOutputFrameCountEPii
T _ZN7android11AudioSystem21getOutputSamplingRateEPii
B _ZN7android11AudioSystem5gLockE
T _ZN7android11AudioSystem7getModeEPi
T _ZN7android11AudioSystem7setModeEi
T _ZN7android11AudioSystem9getOutputEi
W _ZN7android11BnInterfaceINS_11IAudioTrackEE10onAsBinderEv
W _ZN7android11BnInterfaceINS_12IAudioRecordEE10onAsBinderEv
W _ZN7android11BnInterfaceINS_12IMediaPlayerEE10onAsBinderEv
W _ZN7android11BnInterfaceINS_13IAudioFlingerEE10onAsBinderEv
W _ZN7android11BnInterfaceINS_14IMediaRecorderEE10onAsBinderEv
W _ZN7android11BnInterfaceINS_18IMediaPlayerClientEE10onAsBinderEv
W _ZN7android11BnInterfaceINS_19IAudioFlingerClientEE10onAsBinderEv
W _ZN7android11BnInterfaceINS_19IMediaPlayerServiceEE10onAsBinderEv
W _ZN7android11BnInterfaceINS_23IMediaMetadataRetrieverEE10onAsBinderEv
B _ZN7android11IAudioTrack10descriptorE
T _ZN7android11IAudioTrack11asInterfaceERKNS_2spINS_7IBinderEEE
T _ZN7android11MediaPlayer10disconnectEv
T _ZN7android11MediaPlayer10onFirstRefEv
T _ZN7android11MediaPlayer10setLoopingEi
T _ZN7android11MediaPlayer11getDurationEPi
T _ZN7android11MediaPlayer11setListenerERKNS_2spINS_19MediaPlayerListenerEEE
T _ZN7android11MediaPlayer12prepareAsyncEv
B _ZN7android11MediaPlayer12sServiceLockE
T _ZN7android11MediaPlayer13DeathNotifier10binderDiedERKNS_2wpINS_7IBinderEEE
T _ZN7android11MediaPlayer13DeathNotifierD0Ev
T _ZN7android11MediaPlayer13DeathNotifierD1Ev
T _ZN7android11MediaPlayer13DeathNotifierD2Ev
T _ZN7android11MediaPlayer13getDuration_lEPi
T _ZN7android11MediaPlayer13getVideoWidthEPi
T _ZN7android11MediaPlayer13setDataSourceEPKc
T _ZN7android11MediaPlayer13setDataSourceERKNS_2spINS_12IMediaPlayerEEE
T _ZN7android11MediaPlayer13setDataSourceEixx
T _ZN7android11MediaPlayer14getVideoHeightEPi
T _ZN7android11MediaPlayer14prepareAsync_lEv
B _ZN7android11MediaPlayer14sDeathNotifierE
B _ZN7android11MediaPlayer15sObitRecipientsE
T _ZN7android11MediaPlayer15setVideoSurfaceERKNS_2spINS_7SurfaceEEE
T _ZN7android11MediaPlayer16addObitRecipientERKNS_2wpIS0_EE
T _ZN7android11MediaPlayer18getCurrentPositionEPi
T _ZN7android11MediaPlayer18setAudioStreamTypeEi
T _ZN7android11MediaPlayer19removeObitRecipientERKNS_2wpIS0_EE
B _ZN7android11MediaPlayer19sMediaPlayerServiceE
T _ZN7android11MediaPlayer21getMediaPlayerServiceEv
T _ZN7android11MediaPlayer4stopEv
T _ZN7android11MediaPlayer5pauseEv
T _ZN7android11MediaPlayer5resetEv
T _ZN7android11MediaPlayer5startEv
T _ZN7android11MediaPlayer6decodeEPKcPjPiS4_
T _ZN7android11MediaPlayer6decodeEixxPjPiS2_
T _ZN7android11MediaPlayer6notifyEiii
T _ZN7android11MediaPlayer6seekToEi
T _ZN7android11MediaPlayer7clear_lEv
T _ZN7android11MediaPlayer7prepareEv
T _ZN7android11MediaPlayer8seekTo_lEi
T _ZN7android11MediaPlayer9isLoopingEv
T _ZN7android11MediaPlayer9isPlayingEv
T _ZN7android11MediaPlayer9setVolumeEff
T _ZN7android11MediaPlayerC1Ev
T _ZN7android11MediaPlayerC2Ev
T _ZN7android11MediaPlayerD0Ev
T _ZN7android11MediaPlayerD1Ev
T _ZN7android11MediaPlayerD2Ev
T _ZN7android12BnAudioTrack10onTransactEjRKNS_6ParcelEPS1_j
B _ZN7android12IAudioRecord10descriptorE
T _ZN7android12IAudioRecord11asInterfaceERKNS_2spINS_7IBinderEEE
B _ZN7android12IMediaPlayer10descriptorE
T _ZN7android12IMediaPlayer11asInterfaceERKNS_2spINS_7IBinderEEE
T _ZN7android13BnAudioRecord10onTransactEjRKNS_6ParcelEPS1_j
T _ZN7android13BnMediaPlayer10onTransactEjRKNS_6ParcelEPS1_j
B _ZN7android13IAudioFlinger10descriptorE
T _ZN7android13IAudioFlinger11asInterfaceERKNS_2spINS_7IBinderEEE
T _ZN7android13MediaRecorder11setListenerERKNS_2spINS_21MediaRecorderListenerEEE
T _ZN7android13MediaRecorder12setVideoSizeEii
T _ZN7android13MediaRecorder13setOutputFileEPKc
T _ZN7android13MediaRecorder13setOutputFileEixx
T _ZN7android13MediaRecorder13setParametersERKNS_7String8E
T _ZN7android13MediaRecorder14setAudioSourceEi
T _ZN7android13MediaRecorder14setVideoSourceEi
T _ZN7android13MediaRecorder15getMaxAmplitudeEPi
T _ZN7android13MediaRecorder15setAudioEncoderEi
T _ZN7android13MediaRecorder15setOutputFormatEi
T _ZN7android13MediaRecorder15setVideoEncoderEi
T _ZN7android13MediaRecorder17setPreviewSurfaceERKNS_2spINS_7SurfaceEEE
T _ZN7android13MediaRecorder17setVideoFrameRateEi
T _ZN7android13MediaRecorder4initEv
T _ZN7android13MediaRecorder4stopEv
T _ZN7android13MediaRecorder5closeEv
T _ZN7android13MediaRecorder5resetEv
T _ZN7android13MediaRecorder5startEv
T _ZN7android13MediaRecorder6notifyEiii
T _ZN7android13MediaRecorder7doResetEv
T _ZN7android13MediaRecorder7prepareEv
T _ZN7android13MediaRecorder7releaseEv
T _ZN7android13MediaRecorder9doCleanUpEv
T _ZN7android13MediaRecorder9initCheckEv
T _ZN7android13MediaRecorder9setCameraERKNS_2spINS_7ICameraEEE
T _ZN7android13MediaRecorderC1Ev
T _ZN7android13MediaRecorderC2Ev
T _ZN7android13MediaRecorderD0Ev
T _ZN7android13MediaRecorderD1Ev
T _ZN7android13MediaRecorderD2Ev
T _ZN7android13ToneGenerator11prepareWaveEv
T _ZN7android13ToneGenerator13WaveGenerator10getSamplesEPsjj
T _ZN7android13ToneGenerator13WaveGeneratorC1Ettf
T _ZN7android13ToneGenerator13WaveGeneratorC2Ettf
T _ZN7android13ToneGenerator13WaveGeneratorD1Ev
T _ZN7android13ToneGenerator13WaveGeneratorD2Ev
T _ZN7android13ToneGenerator13audioCallbackEiPvS1_
T _ZN7android13ToneGenerator13clearWaveGensEv
T _ZN7android13ToneGenerator14initAudioTrackEv
T _ZN7android13ToneGenerator16getToneForRegionEi
R _ZN7android13ToneGenerator16sToneDescriptorsE
R _ZN7android13ToneGenerator17sToneMappingTableE
T _ZN7android13ToneGenerator8numWavesEj
T _ZN7android13ToneGenerator8stopToneEv
T _ZN7android13ToneGenerator9startToneEi
T _ZN7android13ToneGeneratorC1Eif
T _ZN7android13ToneGeneratorC2Eif
T _ZN7android13ToneGeneratorD1Ev
T _ZN7android13ToneGeneratorD2Ev
T _ZN7android14BnAudioFlinger10onTransactEjRKNS_6ParcelEPS1_j
B _ZN7android14IMediaRecorder10descriptorE
T _ZN7android14IMediaRecorder11asInterfaceERKNS_2spINS_7IBinderEEE
U _ZN7android14IPCThreadState13flushCommandsEv
U _ZN7android14IPCThreadState4selfEv
T _ZN7android15BnMediaRecorder10onTransactEjRKNS_6ParcelEPS1_j
U _ZN7android16SortedVectorImpl25reservedSortedVectorImpl1Ev
U _ZN7android16SortedVectorImpl25reservedSortedVectorImpl2Ev
U _ZN7android16SortedVectorImpl25reservedSortedVectorImpl3Ev
U _ZN7android16SortedVectorImpl25reservedSortedVectorImpl4Ev
U _ZN7android16SortedVectorImpl25reservedSortedVectorImpl5Ev
U _ZN7android16SortedVectorImpl25reservedSortedVectorImpl6Ev
U _ZN7android16SortedVectorImpl25reservedSortedVectorImpl7Ev
U _ZN7android16SortedVectorImpl25reservedSortedVectorImpl8Ev
U _ZN7android16SortedVectorImpl3addEPKv
U _ZN7android16SortedVectorImpl6removeEPKv
U _ZN7android16SortedVectorImplC1Ejj
U _ZN7android16SortedVectorImplD1Ev
U _ZN7android16SortedVectorImplaSERKS0_
W _ZN7android17move_forward_typeINS_2wpINS_11MediaPlayerEEEEEvPT_PKS4_j
B _ZN7android18IMediaPlayerClient10descriptorE
T _ZN7android18IMediaPlayerClient11asInterfaceERKNS_2spINS_7IBinderEEE
T _ZN7android18audio_track_cblk_t10stepServerEj
T _ZN7android18audio_track_cblk_t11framesReadyEv
T _ZN7android18audio_track_cblk_t15framesAvailableEv
T _ZN7android18audio_track_cblk_t17framesAvailable_lEv
T _ZN7android18audio_track_cblk_t8stepUserEj
T _ZN7android18audio_track_cblk_tC1Ev
T _ZN7android18audio_track_cblk_tC2Ev
W _ZN7android18move_backward_typeINS_2wpINS_11MediaPlayerEEEEEvPT_PKS4_j
T _ZN7android19BnMediaPlayerClient10onTransactEjRKNS_6ParcelEPS1_j
B _ZN7android19IAudioFlingerClient10descriptorE
T _ZN7android19IAudioFlingerClient11asInterfaceERKNS_2spINS_7IBinderEEE
B _ZN7android19IMediaPlayerService10descriptorE
T _ZN7android19IMediaPlayerService11asInterfaceERKNS_2spINS_7IBinderEEE
T _ZN7android20BnAudioFlingerClient10onTransactEjRKNS_6ParcelEPS1_j
T _ZN7android20BnMediaPlayerService10onTransactEjRKNS_6ParcelEPS1_j
U _ZN7android21defaultServiceManagerEv
T _ZN7android22MediaMetadataRetriever10disconnectEv
T _ZN7android22MediaMetadataRetriever10getServiceEv
T _ZN7android22MediaMetadataRetriever12captureFrameEv
B _ZN7android22MediaMetadataRetriever12sServiceLockE
T _ZN7android22MediaMetadataRetriever13DeathNotifier10binderDiedERKNS_2wpINS_7IBinderEEE
T _ZN7android22MediaMetadataRetriever13DeathNotifierD0Ev
T _ZN7android22MediaMetadataRetriever13DeathNotifierD1Ev
T _ZN7android22MediaMetadataRetriever13DeathNotifierD2Ev
T _ZN7android22MediaMetadataRetriever13setDataSourceEPKc
T _ZN7android22MediaMetadataRetriever13setDataSourceEixx
B _ZN7android22MediaMetadataRetriever14sDeathNotifierE
T _ZN7android22MediaMetadataRetriever15extractAlbumArtEv
T _ZN7android22MediaMetadataRetriever15extractMetadataEi
T _ZN7android22MediaMetadataRetriever7getModeEPi
T _ZN7android22MediaMetadataRetriever7setModeEi
B _ZN7android22MediaMetadataRetriever8sServiceE
T _ZN7android22MediaMetadataRetrieverC1Ev
T _ZN7android22MediaMetadataRetrieverC2Ev
T _ZN7android22MediaMetadataRetrieverD0Ev
T _ZN7android22MediaMetadataRetrieverD1Ev
T _ZN7android22MediaMetadataRetrieverD2Ev
B _ZN7android23IMediaMetadataRetriever10descriptorE
T _ZN7android23IMediaMetadataRetriever11asInterfaceERKNS_2spINS_7IBinderEEE
T _ZN7android24BnMediaMetadataRetriever10onTransactEjRKNS_6ParcelEPS1_j
W _ZN7android2spINS_10AudioTrack16AudioTrackThreadEEaSEPS2_
W _ZN7android2spINS_11AudioRecord18ClientRecordThreadEEaSEPS2_
W _ZN7android2spINS_11AudioSystem18AudioFlingerClientEEaSEPS2_
W _ZN7android2spINS_11IAudioTrackEEaSEPS1_
W _ZN7android2spINS_11IAudioTrackEEaSERKS2_
W _ZN7android2spINS_11IAudioTrackEEaSINS_12BpAudioTrackEEERS2_PT_
W _ZN7android2spINS_11MediaPlayer13DeathNotifierEEaSEPS2_
W _ZN7android2spINS_12IAudioRecordEEaSEPS1_
W _ZN7android2spINS_12IAudioRecordEEaSERKS2_
W _ZN7android2spINS_12IAudioRecordEEaSINS_13BpAudioRecordEEERS2_PT_
W _ZN7android2spINS_12IMediaPlayerEEaSEPS1_
W _ZN7android2spINS_12IMediaPlayerEEaSERKS2_
W _ZN7android2spINS_12IMediaPlayerEEaSINS_13BpMediaPlayerEEERS2_PT_
W _ZN7android2spINS_13IAudioFlingerEEaSEPS1_
W _ZN7android2spINS_13IAudioFlingerEEaSERKS2_
W _ZN7android2spINS_13IAudioFlingerEEaSINS_14BpAudioFlingerEEERS2_PT_
W _ZN7android2spINS_14IMediaRecorderEEaSEPS1_
W _ZN7android2spINS_14IMediaRecorderEEaSERKS2_
W _ZN7android2spINS_14IMediaRecorderEEaSINS_15BpMediaRecorderEEERS2_PT_
W _ZN7android2spINS_18IMediaPlayerClientEEaSEPS1_
W _ZN7android2spINS_18IMediaPlayerClientEEaSINS_19BpMediaPlayerClientEEERS2_PT_
W _ZN7android2spINS_19IAudioFlingerClientEEaSEPS1_
W _ZN7android2spINS_19IAudioFlingerClientEEaSINS_20BpAudioFlingerClientEEERS2_PT_
W _ZN7android2spINS_19IMediaPlayerServiceEEaSEPS1_
W _ZN7android2spINS_19IMediaPlayerServiceEEaSERKS2_
W _ZN7android2spINS_19IMediaPlayerServiceEEaSINS_20BpMediaPlayerServiceEEERS2_PT_
W _ZN7android2spINS_19MediaPlayerListenerEEaSEPS1_
W _ZN7android2spINS_19MediaPlayerListenerEEaSERKS2_
W _ZN7android2spINS_21MediaRecorderListenerEEaSERKS2_
W _ZN7android2spINS_22MediaMetadataRetriever13DeathNotifierEEaSEPS2_
W _ZN7android2spINS_23IMediaMetadataRetrieverEEaSEPS1_
W _ZN7android2spINS_23IMediaMetadataRetrieverEEaSERKS2_
W _ZN7android2spINS_23IMediaMetadataRetrieverEEaSINS_24BpMediaMetadataRetrieverEEERS2_PT_
W _ZN7android2spINS_7IBinderEEaSERKS2_
W _ZN7android2spINS_7IMemoryEEaSERKS2_
U _ZN7android5Mutex4lockEv
U _ZN7android5Mutex6unlockEv
U _ZN7android5Mutex7tryLockEv
U _ZN7android5MutexC1Ev
U _ZN7android5MutexD1Ev
U _ZN7android6Parcel10writeFloatEf
U _ZN7android6Parcel10writeInt32Ei
U _ZN7android6Parcel10writeInt64Ex
U _ZN7android6Parcel12writeCStringEPKc
U _ZN7android6Parcel12writeString8ERKNS_7String8E
U _ZN7android6Parcel17writeStrongBinderERKNS_2spINS_7IBinderEEE
U _ZN7android6Parcel19writeFileDescriptorEi
U _ZN7android6Parcel19writeInterfaceTokenERKNS_8String16E
U _ZN7android6ParcelC1Ev
U _ZN7android6ParcelD1Ev
U _ZN7android6Thread10readyToRunEv
U _ZN7android6Thread11requestExitEv
U _ZN7android6Thread18requestExitAndWaitEv
U _ZN7android6Thread3runEPKcij
U _ZN7android6ThreadC2Eb
U _ZN7android6ThreadD0Ev
U _ZN7android6ThreadD1Ev
U _ZN7android6ThreadD2Ev
U _ZN7android7BBinder10onTransactEjRKNS_6ParcelEPS1_j
U _ZN7android7BBinder10pingBinderEv
U _ZN7android7BBinder11linkToDeathERKNS_2spINS_7IBinder14DeathRecipientEEEPvj
U _ZN7android7BBinder11localBinderEv
U _ZN7android7BBinder12attachObjectEPKvPvS3_PFvS2_S3_S3_E
U _ZN7android7BBinder12detachObjectEPKv
U _ZN7android7BBinder13unlinkToDeathERKNS_2wpINS_7IBinder14DeathRecipientEEEPvjPS4_
U _ZN7android7BBinder4dumpEiRKNS_6VectorINS_8String16EEE
U _ZN7android7BBinder8transactEjRKNS_6ParcelEPS1_j
U _ZN7android7BBinderC2Ev
U _ZN7android7BBinderD0Ev
U _ZN7android7BBinderD1Ev
U _ZN7android7BBinderD2Ev
U _ZN7android7IBinder11localBinderEv
U _ZN7android7IBinder12remoteBinderEv
U _ZN7android7IBinder19queryLocalInterfaceERKNS_8String16E
U _ZN7android7ICamera11asInterfaceERKNS_2spINS_7IBinderEEE
U _ZN7android7IMemory11asInterfaceERKNS_2spINS_7IBinderEEE
U _ZN7android7RefBase10onFirstRefEv
U _ZN7android7RefBase12weakref_type16attemptIncStrongEPKv
U _ZN7android7RefBase12weakref_type7decWeakEPKv
U _ZN7android7RefBase12weakref_type7incWeakEPKv
U _ZN7android7RefBase13onLastWeakRefEPKv
U _ZN7android7RefBase15onLastStrongRefEPKv
U _ZN7android7RefBase20onIncStrongAttemptedEjPKv
U _ZN7android7RefBaseC1Ev
U _ZN7android7RefBaseD1Ev
U _ZN7android7String86appendEPKc
U _ZN7android7String8C1Ev
U _ZN7android7String8D1Ev
U _ZN7android8ISurface11asInterfaceERKNS_2spINS_7IBinderEEE
U _ZN7android8String16C1EPKc
U _ZN7android8String16C1ERKS0_
U _ZN7android8String16D1Ev
U _ZN7android9BpRefBase10onFirstRefEv
U _ZN7android9BpRefBase15onLastStrongRefEPKv
U _ZN7android9BpRefBase20onIncStrongAttemptedEjPKv
U _ZN7android9BpRefBaseC2ERKNS_2spINS_7IBinderEEE
U _ZN7android9BpRefBaseD0Ev
U _ZN7android9BpRefBaseD1Ev
U _ZN7android9BpRefBaseD2Ev
U _ZN7android9Condition12waitRelativeERNS_5MutexEx
U _ZN7android9Condition4waitERNS_5MutexE
U _ZN7android9Condition6signalEv
U _ZN7android9ConditionC1Ev
U _ZN7android9ConditionD1Ev
T _ZN7android9JetPlayer10clearQueueEv
T _ZN7android9JetPlayer10loadFromFDEixx
T _ZN7android9JetPlayer11setMuteFlagEibb
T _ZN7android9JetPlayer11triggerClipEi
T _ZN7android9JetPlayer12loadFromFileEPKc
T _ZN7android9JetPlayer12queueSegmentEiiiimh
T _ZN7android9JetPlayer12renderThreadEPv
T _ZN7android9JetPlayer12setMuteFlagsEmb
T _ZN7android9JetPlayer13dumpJetStatusEP16s_jet_status_tag
T _ZN7android9JetPlayer16setEventCallbackEPFviiiPvE
T _ZN7android9JetPlayer22fireEventsFromJetQueueEv
T _ZN7android9JetPlayer24fireUpdateOnStatusChangeEv
T _ZN7android9JetPlayer4dumpEv
T _ZN7android9JetPlayer4initEv
T _ZN7android9JetPlayer4playEv
T _ZN7android9JetPlayer5pauseEv
T _ZN7android9JetPlayer6renderEv
T _ZN7android9JetPlayer7releaseEv
T _ZN7android9JetPlayer9closeFileEv
T _ZN7android9JetPlayerC1EP8_jobjectii
T _ZN7android9JetPlayerC2EP8_jobjectii
T _ZN7android9JetPlayerD1Ev
T _ZN7android9JetPlayerD2Ev
T _ZNK7android10AudioTrack10frameCountEv
T _ZNK7android10AudioTrack10streamTypeEv
T _ZNK7android10AudioTrack12channelCountEv
T _ZNK7android10AudioTrack4dumpEiRKNS_6VectorINS_8String16EEE
T _ZNK7android10AudioTrack5mutedEv
T _ZNK7android10AudioTrack6formatEv
T _ZNK7android10AudioTrack7latencyEv
T _ZNK7android10AudioTrack7stoppedEv
T _ZNK7android10AudioTrack9frameSizeEv
T _ZNK7android10AudioTrack9initCheckEv
T _ZNK7android11AudioRecord10frameCountEv
T _ZNK7android11AudioRecord11inputSourceEv
T _ZNK7android11AudioRecord12channelCountEv
T _ZNK7android11AudioRecord6formatEv
T _ZNK7android11AudioRecord7latencyEv
T _ZNK7android11AudioRecord7stoppedEv
T _ZNK7android11AudioRecord9frameSizeEv
T _ZNK7android11AudioRecord9initCheckEv
T _ZNK7android11IAudioTrack22getInterfaceDescriptorEv
T _ZNK7android12IAudioRecord22getInterfaceDescriptorEv
T _ZNK7android12IMediaPlayer22getInterfaceDescriptorEv
W _ZNK7android12SortedVectorINS_16key_value_pair_tItPNS_13ToneGenerator13WaveGeneratorEEEE10do_compareEPKvS8_
W _ZNK7android12SortedVectorINS_16key_value_pair_tItPNS_13ToneGenerator13WaveGeneratorEEEE10do_destroyEPvj
W _ZNK7android12SortedVectorINS_16key_value_pair_tItPNS_13ToneGenerator13WaveGeneratorEEEE12do_constructEPvj
W _ZNK7android12SortedVectorINS_16key_value_pair_tItPNS_13ToneGenerator13WaveGeneratorEEEE15do_move_forwardEPvPKvj
W _ZNK7android12SortedVectorINS_16key_value_pair_tItPNS_13ToneGenerator13WaveGeneratorEEEE16do_move_backwardEPvPKvj
W _ZNK7android12SortedVectorINS_16key_value_pair_tItPNS_13ToneGenerator13WaveGeneratorEEEE7do_copyEPvPKvj
W _ZNK7android12SortedVectorINS_16key_value_pair_tItPNS_13ToneGenerator13WaveGeneratorEEEE8do_splatEPvPKvj
W _ZNK7android12SortedVectorINS_2wpINS_11MediaPlayerEEEE10do_compareEPKvS6_
W _ZNK7android12SortedVectorINS_2wpINS_11MediaPlayerEEEE10do_destroyEPvj
W _ZNK7android12SortedVectorINS_2wpINS_11MediaPlayerEEEE12do_constructEPvj
W _ZNK7android12SortedVectorINS_2wpINS_11MediaPlayerEEEE15do_move_forwardEPvPKvj
W _ZNK7android12SortedVectorINS_2wpINS_11MediaPlayerEEEE16do_move_backwardEPvPKvj
W _ZNK7android12SortedVectorINS_2wpINS_11MediaPlayerEEEE7do_copyEPvPKvj
W _ZNK7android12SortedVectorINS_2wpINS_11MediaPlayerEEEE8do_splatEPvPKvj
T _ZNK7android13IAudioFlinger22getInterfaceDescriptorEv
T _ZNK7android14IMediaRecorder22getInterfaceDescriptorEv
U _ZNK7android16SortedVectorImpl7indexOfEPKv
T _ZNK7android18IMediaPlayerClient22getInterfaceDescriptorEv
T _ZNK7android18audio_track_cblk_t6bufferEj
T _ZNK7android19IAudioFlingerClient22getInterfaceDescriptorEv
T _ZNK7android19IMediaPlayerService22getInterfaceDescriptorEv
T _ZNK7android23IMediaMetadataRetriever22getInterfaceDescriptorEv
U _ZNK7android6Parcel11readCStringEv
U _ZNK7android6Parcel11readString8Ev
U _ZNK7android6Parcel16enforceInterfaceERKNS_8String16E
U _ZNK7android6Parcel16readStrongBinderEv
U _ZNK7android6Parcel18readFileDescriptorEv
U _ZNK7android6Parcel9readFloatEv
U _ZNK7android6Parcel9readInt32Ev
U _ZNK7android6Parcel9readInt64Ev
U _ZNK7android6Thread11exitPendingEv
U _ZNK7android7BBinder10findObjectEPKv
U _ZNK7android7BBinder13isBinderAliveEv
U _ZNK7android7BBinder22getInterfaceDescriptorEv
U _ZNK7android7IBinder13checkSubclassEPKv
U _ZNK7android7IMemory4sizeEv
U _ZNK7android7IMemory7pointerEv
U _ZNK7android7RefBase10createWeakEPKv
U _ZNK7android7RefBase9decStrongEPKv
U _ZNK7android7RefBase9incStrongEPKv
D _ZTCN7android10AudioTrack16AudioTrackThreadE0_NS_6ThreadE
D _ZTCN7android11AudioRecord18ClientRecordThreadE0_NS_6ThreadE
D _ZTCN7android11AudioSystem18AudioFlingerClientE0_NS_7IBinder14DeathRecipientE
D _ZTCN7android11AudioSystem18AudioFlingerClientE4_NS_10IInterfaceE
D _ZTCN7android11AudioSystem18AudioFlingerClientE4_NS_11BnInterfaceINS_19IAudioFlingerClientEEE
D _ZTCN7android11AudioSystem18AudioFlingerClientE4_NS_19IAudioFlingerClientE
D _ZTCN7android11AudioSystem18AudioFlingerClientE4_NS_20BnAudioFlingerClientE
D _ZTCN7android11AudioSystem18AudioFlingerClientE8_NS_7BBinderE
D _ZTCN7android11AudioSystem18AudioFlingerClientE8_NS_7IBinderE
V _ZTCN7android11BnInterfaceINS_11IAudioTrackEEE0_NS_10IInterfaceE
V _ZTCN7android11BnInterfaceINS_11IAudioTrackEEE0_S1_
V _ZTCN7android11BnInterfaceINS_11IAudioTrackEEE4_NS_7BBinderE
V _ZTCN7android11BnInterfaceINS_11IAudioTrackEEE4_NS_7IBinderE
V _ZTCN7android11BnInterfaceINS_12IAudioRecordEEE0_NS_10IInterfaceE
V _ZTCN7android11BnInterfaceINS_12IAudioRecordEEE0_S1_
V _ZTCN7android11BnInterfaceINS_12IAudioRecordEEE4_NS_7BBinderE
V _ZTCN7android11BnInterfaceINS_12IAudioRecordEEE4_NS_7IBinderE
V _ZTCN7android11BnInterfaceINS_12IMediaPlayerEEE0_NS_10IInterfaceE
V _ZTCN7android11BnInterfaceINS_12IMediaPlayerEEE0_S1_
V _ZTCN7android11BnInterfaceINS_12IMediaPlayerEEE4_NS_7BBinderE
V _ZTCN7android11BnInterfaceINS_12IMediaPlayerEEE4_NS_7IBinderE
V _ZTCN7android11BnInterfaceINS_13IAudioFlingerEEE0_NS_10IInterfaceE
V _ZTCN7android11BnInterfaceINS_13IAudioFlingerEEE0_S1_
V _ZTCN7android11BnInterfaceINS_13IAudioFlingerEEE4_NS_7BBinderE
V _ZTCN7android11BnInterfaceINS_13IAudioFlingerEEE4_NS_7IBinderE
V _ZTCN7android11BnInterfaceINS_14IMediaRecorderEEE0_NS_10IInterfaceE
V _ZTCN7android11BnInterfaceINS_14IMediaRecorderEEE0_S1_
V _ZTCN7android11BnInterfaceINS_14IMediaRecorderEEE4_NS_7BBinderE
V _ZTCN7android11BnInterfaceINS_14IMediaRecorderEEE4_NS_7IBinderE
V _ZTCN7android11BnInterfaceINS_18IMediaPlayerClientEEE0_NS_10IInterfaceE
V _ZTCN7android11BnInterfaceINS_18IMediaPlayerClientEEE0_S1_
V _ZTCN7android11BnInterfaceINS_18IMediaPlayerClientEEE4_NS_7BBinderE
V _ZTCN7android11BnInterfaceINS_18IMediaPlayerClientEEE4_NS_7IBinderE
V _ZTCN7android11BnInterfaceINS_19IAudioFlingerClientEEE0_NS_10IInterfaceE
V _ZTCN7android11BnInterfaceINS_19IAudioFlingerClientEEE0_S1_
V _ZTCN7android11BnInterfaceINS_19IAudioFlingerClientEEE4_NS_7BBinderE
V _ZTCN7android11BnInterfaceINS_19IAudioFlingerClientEEE4_NS_7IBinderE
V _ZTCN7android11BnInterfaceINS_19IMediaPlayerServiceEEE0_NS_10IInterfaceE
V _ZTCN7android11BnInterfaceINS_19IMediaPlayerServiceEEE0_S1_
V _ZTCN7android11BnInterfaceINS_19IMediaPlayerServiceEEE4_NS_7BBinderE
V _ZTCN7android11BnInterfaceINS_19IMediaPlayerServiceEEE4_NS_7IBinderE
V _ZTCN7android11BnInterfaceINS_23IMediaMetadataRetrieverEEE0_NS_10IInterfaceE
V _ZTCN7android11BnInterfaceINS_23IMediaMetadataRetrieverEEE0_S1_
V _ZTCN7android11BnInterfaceINS_23IMediaMetadataRetrieverEEE4_NS_7BBinderE
V _ZTCN7android11BnInterfaceINS_23IMediaMetadataRetrieverEEE4_NS_7IBinderE
V _ZTCN7android11BpInterfaceINS_11IAudioTrackEEE0_NS_10IInterfaceE
V _ZTCN7android11BpInterfaceINS_11IAudioTrackEEE0_S1_
V _ZTCN7android11BpInterfaceINS_11IAudioTrackEEE4_NS_9BpRefBaseE
V _ZTCN7android11BpInterfaceINS_12IAudioRecordEEE0_NS_10IInterfaceE
V _ZTCN7android11BpInterfaceINS_12IAudioRecordEEE0_S1_
V _ZTCN7android11BpInterfaceINS_12IAudioRecordEEE4_NS_9BpRefBaseE
V _ZTCN7android11BpInterfaceINS_12IMediaPlayerEEE0_NS_10IInterfaceE
V _ZTCN7android11BpInterfaceINS_12IMediaPlayerEEE0_S1_
V _ZTCN7android11BpInterfaceINS_12IMediaPlayerEEE4_NS_9BpRefBaseE
V _ZTCN7android11BpInterfaceINS_13IAudioFlingerEEE0_NS_10IInterfaceE
V _ZTCN7android11BpInterfaceINS_13IAudioFlingerEEE0_S1_
V _ZTCN7android11BpInterfaceINS_13IAudioFlingerEEE4_NS_9BpRefBaseE
V _ZTCN7android11BpInterfaceINS_14IMediaRecorderEEE0_NS_10IInterfaceE
V _ZTCN7android11BpInterfaceINS_14IMediaRecorderEEE0_S1_
V _ZTCN7android11BpInterfaceINS_14IMediaRecorderEEE4_NS_9BpRefBaseE
V _ZTCN7android11BpInterfaceINS_18IMediaPlayerClientEEE0_NS_10IInterfaceE
V _ZTCN7android11BpInterfaceINS_18IMediaPlayerClientEEE0_S1_
V _ZTCN7android11BpInterfaceINS_18IMediaPlayerClientEEE4_NS_9BpRefBaseE
V _ZTCN7android11BpInterfaceINS_19IAudioFlingerClientEEE0_NS_10IInterfaceE
V _ZTCN7android11BpInterfaceINS_19IAudioFlingerClientEEE0_S1_
V _ZTCN7android11BpInterfaceINS_19IAudioFlingerClientEEE4_NS_9BpRefBaseE
V _ZTCN7android11BpInterfaceINS_19IMediaPlayerServiceEEE0_NS_10IInterfaceE
V _ZTCN7android11BpInterfaceINS_19IMediaPlayerServiceEEE0_S1_
V _ZTCN7android11BpInterfaceINS_19IMediaPlayerServiceEEE4_NS_9BpRefBaseE
V _ZTCN7android11BpInterfaceINS_23IMediaMetadataRetrieverEEE0_NS_10IInterfaceE
V _ZTCN7android11BpInterfaceINS_23IMediaMetadataRetrieverEEE0_S1_
V _ZTCN7android11BpInterfaceINS_23IMediaMetadataRetrieverEEE4_NS_9BpRefBaseE
D _ZTCN7android11IAudioTrackE0_NS_10IInterfaceE
D _ZTCN7android11MediaPlayer13DeathNotifierE0_NS_7IBinder14DeathRecipientE
D _ZTCN7android11MediaPlayerE0_NS_10IInterfaceE
D _ZTCN7android11MediaPlayerE0_NS_11BnInterfaceINS_18IMediaPlayerClientEEE
D _ZTCN7android11MediaPlayerE0_NS_18IMediaPlayerClientE
D _ZTCN7android11MediaPlayerE0_NS_19BnMediaPlayerClientE
D _ZTCN7android11MediaPlayerE4_NS_7BBinderE
D _ZTCN7android11MediaPlayerE4_NS_7IBinderE
D _ZTCN7android12BnAudioTrackE0_NS_10IInterfaceE
D _ZTCN7android12BnAudioTrackE0_NS_11BnInterfaceINS_11IAudioTrackEEE
D _ZTCN7android12BnAudioTrackE0_NS_11IAudioTrackE
D _ZTCN7android12BnAudioTrackE4_NS_7BBinderE
D _ZTCN7android12BnAudioTrackE4_NS_7IBinderE
V _ZTCN7android12BpAudioTrackE0_NS_10IInterfaceE
V _ZTCN7android12BpAudioTrackE0_NS_11BpInterfaceINS_11IAudioTrackEEE
V _ZTCN7android12BpAudioTrackE0_NS_11IAudioTrackE
V _ZTCN7android12BpAudioTrackE4_NS_9BpRefBaseE
D _ZTCN7android12IAudioRecordE0_NS_10IInterfaceE
D _ZTCN7android12IMediaPlayerE0_NS_10IInterfaceE
D _ZTCN7android13BnAudioRecordE0_NS_10IInterfaceE
D _ZTCN7android13BnAudioRecordE0_NS_11BnInterfaceINS_12IAudioRecordEEE
D _ZTCN7android13BnAudioRecordE0_NS_12IAudioRecordE
D _ZTCN7android13BnAudioRecordE4_NS_7BBinderE
D _ZTCN7android13BnAudioRecordE4_NS_7IBinderE
D _ZTCN7android13BnMediaPlayerE0_NS_10IInterfaceE
D _ZTCN7android13BnMediaPlayerE0_NS_11BnInterfaceINS_12IMediaPlayerEEE
D _ZTCN7android13BnMediaPlayerE0_NS_12IMediaPlayerE
D _ZTCN7android13BnMediaPlayerE4_NS_7BBinderE
D _ZTCN7android13BnMediaPlayerE4_NS_7IBinderE
V _ZTCN7android13BpAudioRecordE0_NS_10IInterfaceE
V _ZTCN7android13BpAudioRecordE0_NS_11BpInterfaceINS_12IAudioRecordEEE
V _ZTCN7android13BpAudioRecordE0_NS_12IAudioRecordE
V _ZTCN7android13BpAudioRecordE4_NS_9BpRefBaseE
V _ZTCN7android13BpMediaPlayerE0_NS_10IInterfaceE
V _ZTCN7android13BpMediaPlayerE0_NS_11BpInterfaceINS_12IMediaPlayerEEE
V _ZTCN7android13BpMediaPlayerE0_NS_12IMediaPlayerE
V _ZTCN7android13BpMediaPlayerE4_NS_9BpRefBaseE
D _ZTCN7android13IAudioFlingerE0_NS_10IInterfaceE
D _ZTCN7android13MediaRecorderE0_NS_10IInterfaceE
D _ZTCN7android13MediaRecorderE0_NS_11BnInterfaceINS_18IMediaPlayerClientEEE
D _ZTCN7android13MediaRecorderE0_NS_18IMediaPlayerClientE
D _ZTCN7android13MediaRecorderE0_NS_19BnMediaPlayerClientE
D _ZTCN7android13MediaRecorderE4_NS_7BBinderE
D _ZTCN7android13MediaRecorderE4_NS_7IBinderE
D _ZTCN7android14BnAudioFlingerE0_NS_10IInterfaceE
D _ZTCN7android14BnAudioFlingerE0_NS_11BnInterfaceINS_13IAudioFlingerEEE
D _ZTCN7android14BnAudioFlingerE0_NS_13IAudioFlingerE
D _ZTCN7android14BnAudioFlingerE4_NS_7BBinderE
D _ZTCN7android14BnAudioFlingerE4_NS_7IBinderE
V _ZTCN7android14BpAudioFlingerE0_NS_10IInterfaceE
V _ZTCN7android14BpAudioFlingerE0_NS_11BpInterfaceINS_13IAudioFlingerEEE
V _ZTCN7android14BpAudioFlingerE0_NS_13IAudioFlingerE
V _ZTCN7android14BpAudioFlingerE4_NS_9BpRefBaseE
D _ZTCN7android14IMediaRecorderE0_NS_10IInterfaceE
D _ZTCN7android15BnMediaRecorderE0_NS_10IInterfaceE
D _ZTCN7android15BnMediaRecorderE0_NS_11BnInterfaceINS_14IMediaRecorderEEE
D _ZTCN7android15BnMediaRecorderE0_NS_14IMediaRecorderE
D _ZTCN7android15BnMediaRecorderE4_NS_7BBinderE
D _ZTCN7android15BnMediaRecorderE4_NS_7IBinderE
V _ZTCN7android15BpMediaRecorderE0_NS_10IInterfaceE
V _ZTCN7android15BpMediaRecorderE0_NS_11BpInterfaceINS_14IMediaRecorderEEE
V _ZTCN7android15BpMediaRecorderE0_NS_14IMediaRecorderE
V _ZTCN7android15BpMediaRecorderE4_NS_9BpRefBaseE
D _ZTCN7android18IMediaPlayerClientE0_NS_10IInterfaceE
D _ZTCN7android19BnMediaPlayerClientE0_NS_10IInterfaceE
D _ZTCN7android19BnMediaPlayerClientE0_NS_11BnInterfaceINS_18IMediaPlayerClientEEE
D _ZTCN7android19BnMediaPlayerClientE0_NS_18IMediaPlayerClientE
D _ZTCN7android19BnMediaPlayerClientE4_NS_7BBinderE
D _ZTCN7android19BnMediaPlayerClientE4_NS_7IBinderE
V _ZTCN7android19BpMediaPlayerClientE0_NS_10IInterfaceE
V _ZTCN7android19BpMediaPlayerClientE0_NS_11BpInterfaceINS_18IMediaPlayerClientEEE
V _ZTCN7android19BpMediaPlayerClientE0_NS_18IMediaPlayerClientE
V _ZTCN7android19BpMediaPlayerClientE4_NS_9BpRefBaseE
D _ZTCN7android19IAudioFlingerClientE0_NS_10IInterfaceE
D _ZTCN7android19IMediaPlayerServiceE0_NS_10IInterfaceE
D _ZTCN7android20BnAudioFlingerClientE0_NS_10IInterfaceE
D _ZTCN7android20BnAudioFlingerClientE0_NS_11BnInterfaceINS_19IAudioFlingerClientEEE
D _ZTCN7android20BnAudioFlingerClientE0_NS_19IAudioFlingerClientE
D _ZTCN7android20BnAudioFlingerClientE4_NS_7BBinderE
D _ZTCN7android20BnAudioFlingerClientE4_NS_7IBinderE
D _ZTCN7android20BnMediaPlayerServiceE0_NS_10IInterfaceE
D _ZTCN7android20BnMediaPlayerServiceE0_NS_11BnInterfaceINS_19IMediaPlayerServiceEEE
D _ZTCN7android20BnMediaPlayerServiceE0_NS_19IMediaPlayerServiceE
D _ZTCN7android20BnMediaPlayerServiceE4_NS_7BBinderE
D _ZTCN7android20BnMediaPlayerServiceE4_NS_7IBinderE
V _ZTCN7android20BpAudioFlingerClientE0_NS_10IInterfaceE
V _ZTCN7android20BpAudioFlingerClientE0_NS_11BpInterfaceINS_19IAudioFlingerClientEEE
V _ZTCN7android20BpAudioFlingerClientE0_NS_19IAudioFlingerClientE
V _ZTCN7android20BpAudioFlingerClientE4_NS_9BpRefBaseE
V _ZTCN7android20BpMediaPlayerServiceE0_NS_10IInterfaceE
V _ZTCN7android20BpMediaPlayerServiceE0_NS_11BpInterfaceINS_19IMediaPlayerServiceEEE
V _ZTCN7android20BpMediaPlayerServiceE0_NS_19IMediaPlayerServiceE
V _ZTCN7android20BpMediaPlayerServiceE4_NS_9BpRefBaseE
D _ZTCN7android22MediaMetadataRetriever13DeathNotifierE0_NS_7IBinder14DeathRecipientE
D _ZTCN7android23IMediaMetadataRetrieverE0_NS_10IInterfaceE
D _ZTCN7android24BnMediaMetadataRetrieverE0_NS_10IInterfaceE
D _ZTCN7android24BnMediaMetadataRetrieverE0_NS_11BnInterfaceINS_23IMediaMetadataRetrieverEEE
D _ZTCN7android24BnMediaMetadataRetrieverE0_NS_23IMediaMetadataRetrieverE
D _ZTCN7android24BnMediaMetadataRetrieverE4_NS_7BBinderE
D _ZTCN7android24BnMediaMetadataRetrieverE4_NS_7IBinderE
V _ZTCN7android24BpMediaMetadataRetrieverE0_NS_10IInterfaceE
V _ZTCN7android24BpMediaMetadataRetrieverE0_NS_11BpInterfaceINS_23IMediaMetadataRetrieverEEE
V _ZTCN7android24BpMediaMetadataRetrieverE0_NS_23IMediaMetadataRetrieverE
V _ZTCN7android24BpMediaMetadataRetrieverE4_NS_9BpRefBaseE
D _ZTTN7android10AudioTrack16AudioTrackThreadE
V _ZTTN7android10IInterfaceE
D _ZTTN7android11AudioRecord18ClientRecordThreadE
D _ZTTN7android11AudioSystem18AudioFlingerClientE
V _ZTTN7android11BnInterfaceINS_11IAudioTrackEEE
V _ZTTN7android11BnInterfaceINS_12IAudioRecordEEE
V _ZTTN7android11BnInterfaceINS_12IMediaPlayerEEE
V _ZTTN7android11BnInterfaceINS_13IAudioFlingerEEE
V _ZTTN7android11BnInterfaceINS_14IMediaRecorderEEE
V _ZTTN7android11BnInterfaceINS_18IMediaPlayerClientEEE
V _ZTTN7android11BnInterfaceINS_19IAudioFlingerClientEEE
V _ZTTN7android11BnInterfaceINS_19IMediaPlayerServiceEEE
V _ZTTN7android11BnInterfaceINS_23IMediaMetadataRetrieverEEE
V _ZTTN7android11BpInterfaceINS_11IAudioTrackEEE
V _ZTTN7android11BpInterfaceINS_12IAudioRecordEEE
V _ZTTN7android11BpInterfaceINS_12IMediaPlayerEEE
V _ZTTN7android11BpInterfaceINS_13IAudioFlingerEEE
V _ZTTN7android11BpInterfaceINS_14IMediaRecorderEEE
V _ZTTN7android11BpInterfaceINS_18IMediaPlayerClientEEE
V _ZTTN7android11BpInterfaceINS_19IAudioFlingerClientEEE
V _ZTTN7android11BpInterfaceINS_19IMediaPlayerServiceEEE
V _ZTTN7android11BpInterfaceINS_23IMediaMetadataRetrieverEEE
D _ZTTN7android11IAudioTrackE
D _ZTTN7android11MediaPlayer13DeathNotifierE
D _ZTTN7android11MediaPlayerE
D _ZTTN7android12BnAudioTrackE
V _ZTTN7android12BpAudioTrackE
D _ZTTN7android12IAudioRecordE
D _ZTTN7android12IMediaPlayerE
D _ZTTN7android13BnAudioRecordE
D _ZTTN7android13BnMediaPlayerE
V _ZTTN7android13BpAudioRecordE
V _ZTTN7android13BpMediaPlayerE
D _ZTTN7android13IAudioFlingerE
D _ZTTN7android13MediaRecorderE
D _ZTTN7android14BnAudioFlingerE
V _ZTTN7android14BpAudioFlingerE
D _ZTTN7android14IMediaRecorderE
D _ZTTN7android15BnMediaRecorderE
V _ZTTN7android15BpMediaRecorderE
D _ZTTN7android18IMediaPlayerClientE
D _ZTTN7android19BnMediaPlayerClientE
V _ZTTN7android19BpMediaPlayerClientE
D _ZTTN7android19IAudioFlingerClientE
D _ZTTN7android19IMediaPlayerServiceE
D _ZTTN7android20BnAudioFlingerClientE
D _ZTTN7android20BnMediaPlayerServiceE
V _ZTTN7android20BpAudioFlingerClientE
V _ZTTN7android20BpMediaPlayerServiceE
D _ZTTN7android22MediaMetadataRetriever13DeathNotifierE
D _ZTTN7android23IMediaMetadataRetrieverE
D _ZTTN7android24BnMediaMetadataRetrieverE
V _ZTTN7android24BpMediaMetadataRetrieverE
V _ZTTN7android7IBinder14DeathRecipientE
D _ZTVN7android10AudioTrack16AudioTrackThreadE
V _ZTVN7android10IInterfaceE
D _ZTVN7android11AudioRecord18ClientRecordThreadE
D _ZTVN7android11AudioSystem18AudioFlingerClientE
V _ZTVN7android11BnInterfaceINS_11IAudioTrackEEE
V _ZTVN7android11BnInterfaceINS_12IAudioRecordEEE
V _ZTVN7android11BnInterfaceINS_12IMediaPlayerEEE
V _ZTVN7android11BnInterfaceINS_13IAudioFlingerEEE
V _ZTVN7android11BnInterfaceINS_14IMediaRecorderEEE
V _ZTVN7android11BnInterfaceINS_18IMediaPlayerClientEEE
V _ZTVN7android11BnInterfaceINS_19IAudioFlingerClientEEE
V _ZTVN7android11BnInterfaceINS_19IMediaPlayerServiceEEE
V _ZTVN7android11BnInterfaceINS_23IMediaMetadataRetrieverEEE
V _ZTVN7android11BpInterfaceINS_11IAudioTrackEEE
V _ZTVN7android11BpInterfaceINS_12IAudioRecordEEE
V _ZTVN7android11BpInterfaceINS_12IMediaPlayerEEE
V _ZTVN7android11BpInterfaceINS_13IAudioFlingerEEE
V _ZTVN7android11BpInterfaceINS_14IMediaRecorderEEE
V _ZTVN7android11BpInterfaceINS_18IMediaPlayerClientEEE
V _ZTVN7android11BpInterfaceINS_19IAudioFlingerClientEEE
V _ZTVN7android11BpInterfaceINS_19IMediaPlayerServiceEEE
V _ZTVN7android11BpInterfaceINS_23IMediaMetadataRetrieverEEE
D _ZTVN7android11IAudioTrackE
D _ZTVN7android11MediaPlayer13DeathNotifierE
D _ZTVN7android11MediaPlayerE
D _ZTVN7android12BnAudioTrackE
V _ZTVN7android12BpAudioTrackE
D _ZTVN7android12IAudioRecordE
D _ZTVN7android12IMediaPlayerE
V _ZTVN7android12SortedVectorINS_16key_value_pair_tItPNS_13ToneGenerator13WaveGeneratorEEEEE
V _ZTVN7android12SortedVectorINS_2wpINS_11MediaPlayerEEEEE
D _ZTVN7android13BnAudioRecordE
D _ZTVN7android13BnMediaPlayerE
V _ZTVN7android13BpAudioRecordE
V _ZTVN7android13BpMediaPlayerE
D _ZTVN7android13IAudioFlingerE
D _ZTVN7android13MediaRecorderE
D _ZTVN7android14BnAudioFlingerE
V _ZTVN7android14BpAudioFlingerE
D _ZTVN7android14IMediaRecorderE
D _ZTVN7android15BnMediaRecorderE
V _ZTVN7android15BpMediaRecorderE
D _ZTVN7android18IMediaPlayerClientE
D _ZTVN7android19BnMediaPlayerClientE
V _ZTVN7android19BpMediaPlayerClientE
D _ZTVN7android19IAudioFlingerClientE
D _ZTVN7android19IMediaPlayerServiceE
D _ZTVN7android20BnAudioFlingerClientE
D _ZTVN7android20BnMediaPlayerServiceE
V _ZTVN7android20BpAudioFlingerClientE
V _ZTVN7android20BpMediaPlayerServiceE
D _ZTVN7android22MediaMetadataRetriever13DeathNotifierE
D _ZTVN7android22MediaMetadataRetrieverE
D _ZTVN7android23IMediaMetadataRetrieverE
D _ZTVN7android24BnMediaMetadataRetrieverE
V _ZTVN7android24BpMediaMetadataRetrieverE
V _ZTVN7android7IBinder14DeathRecipientE
U _ZTVN7android7IBinderE
T _ZThn4_N7android11AudioSystem18AudioFlingerClient18a2dpEnabledChangedEb
T _ZThn4_N7android11MediaPlayerD0Ev
T _ZThn4_N7android11MediaPlayerD1Ev
T _ZThn4_N7android12BnAudioTrack10onTransactEjRKNS_6ParcelEPS1_j
T _ZThn4_N7android13BnAudioRecord10onTransactEjRKNS_6ParcelEPS1_j
T _ZThn4_N7android13BnMediaPlayer10onTransactEjRKNS_6ParcelEPS1_j
T _ZThn4_N7android13MediaRecorderD0Ev
T _ZThn4_N7android13MediaRecorderD1Ev
T _ZThn4_N7android14BnAudioFlinger10onTransactEjRKNS_6ParcelEPS1_j
T _ZThn4_N7android15BnMediaRecorder10onTransactEjRKNS_6ParcelEPS1_j
T _ZThn4_N7android19BnMediaPlayerClient10onTransactEjRKNS_6ParcelEPS1_j
T _ZThn4_N7android20BnAudioFlingerClient10onTransactEjRKNS_6ParcelEPS1_j
T _ZThn4_N7android20BnMediaPlayerService10onTransactEjRKNS_6ParcelEPS1_j
T _ZThn4_N7android24BnMediaMetadataRetriever10onTransactEjRKNS_6ParcelEPS1_j
W _ZTv0_n12_N7android10AudioTrack16AudioTrackThreadD0Ev
W _ZTv0_n12_N7android10AudioTrack16AudioTrackThreadD1Ev
W _ZTv0_n12_N7android10IInterfaceD0Ev
W _ZTv0_n12_N7android10IInterfaceD1Ev
W _ZTv0_n12_N7android11AudioRecord18ClientRecordThreadD0Ev
W _ZTv0_n12_N7android11AudioRecord18ClientRecordThreadD1Ev
W _ZTv0_n12_N7android11AudioSystem18AudioFlingerClientD0Ev
W _ZTv0_n12_N7android11AudioSystem18AudioFlingerClientD1Ev
W _ZTv0_n12_N7android11BnInterfaceINS_11IAudioTrackEED0Ev
W _ZTv0_n12_N7android11BnInterfaceINS_11IAudioTrackEED1Ev
W _ZTv0_n12_N7android11BnInterfaceINS_12IAudioRecordEED0Ev
W _ZTv0_n12_N7android11BnInterfaceINS_12IAudioRecordEED1Ev
W _ZTv0_n12_N7android11BnInterfaceINS_12IMediaPlayerEED0Ev
W _ZTv0_n12_N7android11BnInterfaceINS_12IMediaPlayerEED1Ev
W _ZTv0_n12_N7android11BnInterfaceINS_13IAudioFlingerEED0Ev
W _ZTv0_n12_N7android11BnInterfaceINS_13IAudioFlingerEED1Ev
W _ZTv0_n12_N7android11BnInterfaceINS_14IMediaRecorderEED0Ev
W _ZTv0_n12_N7android11BnInterfaceINS_14IMediaRecorderEED1Ev
W _ZTv0_n12_N7android11BnInterfaceINS_18IMediaPlayerClientEED0Ev
W _ZTv0_n12_N7android11BnInterfaceINS_18IMediaPlayerClientEED1Ev
W _ZTv0_n12_N7android11BnInterfaceINS_19IAudioFlingerClientEED0Ev
W _ZTv0_n12_N7android11BnInterfaceINS_19IAudioFlingerClientEED1Ev
W _ZTv0_n12_N7android11BnInterfaceINS_19IMediaPlayerServiceEED0Ev
W _ZTv0_n12_N7android11BnInterfaceINS_19IMediaPlayerServiceEED1Ev
W _ZTv0_n12_N7android11BnInterfaceINS_23IMediaMetadataRetrieverEED0Ev
W _ZTv0_n12_N7android11BnInterfaceINS_23IMediaMetadataRetrieverEED1Ev
W _ZTv0_n12_N7android11BpInterfaceINS_11IAudioTrackEED0Ev
W _ZTv0_n12_N7android11BpInterfaceINS_11IAudioTrackEED1Ev
W _ZTv0_n12_N7android11BpInterfaceINS_12IAudioRecordEED0Ev
W _ZTv0_n12_N7android11BpInterfaceINS_12IAudioRecordEED1Ev
W _ZTv0_n12_N7android11BpInterfaceINS_12IMediaPlayerEED0Ev
W _ZTv0_n12_N7android11BpInterfaceINS_12IMediaPlayerEED1Ev
W _ZTv0_n12_N7android11BpInterfaceINS_13IAudioFlingerEED0Ev
W _ZTv0_n12_N7android11BpInterfaceINS_13IAudioFlingerEED1Ev
W _ZTv0_n12_N7android11BpInterfaceINS_14IMediaRecorderEED0Ev
W _ZTv0_n12_N7android11BpInterfaceINS_14IMediaRecorderEED1Ev
W _ZTv0_n12_N7android11BpInterfaceINS_18IMediaPlayerClientEED0Ev
W _ZTv0_n12_N7android11BpInterfaceINS_18IMediaPlayerClientEED1Ev
W _ZTv0_n12_N7android11BpInterfaceINS_19IAudioFlingerClientEED0Ev
W _ZTv0_n12_N7android11BpInterfaceINS_19IAudioFlingerClientEED1Ev
W _ZTv0_n12_N7android11BpInterfaceINS_19IMediaPlayerServiceEED0Ev
W _ZTv0_n12_N7android11BpInterfaceINS_19IMediaPlayerServiceEED1Ev
W _ZTv0_n12_N7android11BpInterfaceINS_23IMediaMetadataRetrieverEED0Ev
W _ZTv0_n12_N7android11BpInterfaceINS_23IMediaMetadataRetrieverEED1Ev
W _ZTv0_n12_N7android11IAudioTrackD0Ev
W _ZTv0_n12_N7android11IAudioTrackD1Ev
T _ZTv0_n12_N7android11MediaPlayer13DeathNotifierD0Ev
T _ZTv0_n12_N7android11MediaPlayer13DeathNotifierD1Ev
T _ZTv0_n12_N7android11MediaPlayerD0Ev
T _ZTv0_n12_N7android11MediaPlayerD1Ev
W _ZTv0_n12_N7android12BnAudioTrackD0Ev
W _ZTv0_n12_N7android12BnAudioTrackD1Ev
W _ZTv0_n12_N7android12BpAudioTrackD0Ev
W _ZTv0_n12_N7android12BpAudioTrackD1Ev
W _ZTv0_n12_N7android12IAudioRecordD0Ev
W _ZTv0_n12_N7android12IAudioRecordD1Ev
W _ZTv0_n12_N7android12IMediaPlayerD0Ev
W _ZTv0_n12_N7android12IMediaPlayerD1Ev
W _ZTv0_n12_N7android13BnAudioRecordD0Ev
W _ZTv0_n12_N7android13BnAudioRecordD1Ev
W _ZTv0_n12_N7android13BnMediaPlayerD0Ev
W _ZTv0_n12_N7android13BnMediaPlayerD1Ev
W _ZTv0_n12_N7android13BpAudioRecordD0Ev
W _ZTv0_n12_N7android13BpAudioRecordD1Ev
W _ZTv0_n12_N7android13BpMediaPlayerD0Ev
W _ZTv0_n12_N7android13BpMediaPlayerD1Ev
W _ZTv0_n12_N7android13IAudioFlingerD0Ev
W _ZTv0_n12_N7android13IAudioFlingerD1Ev
T _ZTv0_n12_N7android13MediaRecorderD0Ev
T _ZTv0_n12_N7android13MediaRecorderD1Ev
W _ZTv0_n12_N7android14BnAudioFlingerD0Ev
W _ZTv0_n12_N7android14BnAudioFlingerD1Ev
W _ZTv0_n12_N7android14BpAudioFlingerD0Ev
W _ZTv0_n12_N7android14BpAudioFlingerD1Ev
W _ZTv0_n12_N7android14IMediaRecorderD0Ev
W _ZTv0_n12_N7android14IMediaRecorderD1Ev
W _ZTv0_n12_N7android15BnMediaRecorderD0Ev
W _ZTv0_n12_N7android15BnMediaRecorderD1Ev
W _ZTv0_n12_N7android15BpMediaRecorderD0Ev
W _ZTv0_n12_N7android15BpMediaRecorderD1Ev
W _ZTv0_n12_N7android18IMediaPlayerClientD0Ev
W _ZTv0_n12_N7android18IMediaPlayerClientD1Ev
W _ZTv0_n12_N7android19BnMediaPlayerClientD0Ev
W _ZTv0_n12_N7android19BnMediaPlayerClientD1Ev
W _ZTv0_n12_N7android19BpMediaPlayerClientD0Ev
W _ZTv0_n12_N7android19BpMediaPlayerClientD1Ev
W _ZTv0_n12_N7android19IAudioFlingerClientD0Ev
W _ZTv0_n12_N7android19IAudioFlingerClientD1Ev
W _ZTv0_n12_N7android19IMediaPlayerServiceD0Ev
W _ZTv0_n12_N7android19IMediaPlayerServiceD1Ev
W _ZTv0_n12_N7android20BnAudioFlingerClientD0Ev
W _ZTv0_n12_N7android20BnAudioFlingerClientD1Ev
W _ZTv0_n12_N7android20BnMediaPlayerServiceD0Ev
W _ZTv0_n12_N7android20BnMediaPlayerServiceD1Ev
W _ZTv0_n12_N7android20BpAudioFlingerClientD0Ev
W _ZTv0_n12_N7android20BpAudioFlingerClientD1Ev
W _ZTv0_n12_N7android20BpMediaPlayerServiceD0Ev
W _ZTv0_n12_N7android20BpMediaPlayerServiceD1Ev
T _ZTv0_n12_N7android22MediaMetadataRetriever13DeathNotifierD0Ev
T _ZTv0_n12_N7android22MediaMetadataRetriever13DeathNotifierD1Ev
W _ZTv0_n12_N7android23IMediaMetadataRetrieverD0Ev
W _ZTv0_n12_N7android23IMediaMetadataRetrieverD1Ev
W _ZTv0_n12_N7android24BnMediaMetadataRetrieverD0Ev
W _ZTv0_n12_N7android24BnMediaMetadataRetrieverD1Ev
W _ZTv0_n12_N7android24BpMediaMetadataRetrieverD0Ev
W _ZTv0_n12_N7android24BpMediaMetadataRetrieverD1Ev
U _ZTv0_n12_N7android6ThreadD0Ev
U _ZTv0_n12_N7android6ThreadD1Ev
U _ZTv0_n12_N7android7BBinderD0Ev
U _ZTv0_n12_N7android7BBinderD1Ev
W _ZTv0_n12_N7android7IBinder14DeathRecipientD0Ev
W _ZTv0_n12_N7android7IBinder14DeathRecipientD1Ev
W _ZTv0_n12_N7android7IBinderD0Ev
W _ZTv0_n12_N7android7IBinderD1Ev
U _ZTv0_n12_N7android9BpRefBaseD0Ev
U _ZTv0_n12_N7android9BpRefBaseD1Ev
T _ZTv0_n16_N7android10AudioTrack16AudioTrackThread10onFirstRefEv
W _ZTv0_n16_N7android11AudioRecord18ClientRecordThread10onFirstRefEv
T _ZTv0_n16_N7android11MediaPlayer10onFirstRefEv
U _ZTv0_n16_N7android9BpRefBase10onFirstRefEv
U _ZTv0_n20_N7android9BpRefBase15onLastStrongRefEPKv
U _ZTv0_n24_N7android9BpRefBase20onIncStrongAttemptedEjPKv
U _ZdaPv
U _ZdlPv
U _Znaj
U _Znwj
U __aeabi_atexit
U __aeabi_d2f
U __aeabi_d2iz
U __aeabi_dadd
U __aeabi_dcmpgt
U __aeabi_ddiv
U __aeabi_dmul
U __aeabi_f2d
U __aeabi_f2iz
U __aeabi_fcmpeq
U __aeabi_fdiv
U __aeabi_fmul
U __aeabi_i2d
U __aeabi_i2f
U __aeabi_idiv
U __aeabi_ldivmod
U __aeabi_ui2d
U __aeabi_ui2f
U __aeabi_uidiv
U __aeabi_unwind_cpp_pr0
U __android_log_print
A __bss_end__
A __bss_start
A __bss_start__
U __cxa_pure_virtual
D __data_start
U __dso_handle
A __end__
A __exidx_end
A __exidx_start
U __stack_chk_fail
U __stack_chk_guard
A _bss_end__
A _edata
A _end
A _stack
U androidCreateThreadEtc
U androidGetThreadId
U android_atomic_and
U android_atomic_or
U cos
U dup
U exp
U free
U getpid
U gettid
U log
U malloc
U memcpy
U memmove
U memset
U property_get
U setpriority
U sin
U snprintf
U strcmp
U strerror
U strlen
U strncpy
U strzcmp16
U systemTime
U usleep
U write
