U EAS_CloseFile
U EAS_Config
U EAS_GetLocation
U EAS_Init
U EAS_Locate
U EAS_OpenFile
U EAS_ParseMetaData
U EAS_Pause
U EAS_Prepare
U EAS_Render
U EAS_Resume
U EAS_SetParameter
U EAS_SetRepeat
U EAS_Shutdown
U EAS_State
U _ZN7android10AudioTrack4stopEv
U _ZN7android10AudioTrack5flushEv
U _ZN7android10AudioTrack5pauseEv
U _ZN7android10AudioTrack5startEv
U _ZN7android10AudioTrack5writeEPKvj
U _ZN7android10AudioTrack9setVolumeEff
U _ZN7android10AudioTrackC1EijiiijPFviPvS1_ES1_i
U _ZN7android10AudioTrackD1Ev
U _ZN7android10MemoryBaseC1ERKNS_2spINS_11IMemoryHeapEEElj
U _ZN7android10VectorImpl13finish_vectorEv
U _ZN7android10VectorImpl19reservedVectorImpl1Ev
U _ZN7android10VectorImpl19reservedVectorImpl2Ev
U _ZN7android10VectorImpl19reservedVectorImpl3Ev
U _ZN7android10VectorImpl19reservedVectorImpl4Ev
U _ZN7android10VectorImpl19reservedVectorImpl5Ev
U _ZN7android10VectorImpl19reservedVectorImpl6Ev
U _ZN7android10VectorImpl19reservedVectorImpl7Ev
U _ZN7android10VectorImpl19reservedVectorImpl8Ev
U _ZN7android11AudioSystem19getOutputFrameCountEPii
U _ZN7android11AudioSystem21getOutputSamplingRateEPii
W _ZN7android11BnInterfaceINS_12IMediaPlayerEE10onAsBinderEv
W _ZN7android11BnInterfaceINS_14IMediaRecorderEE10onAsBinderEv
W _ZN7android11BnInterfaceINS_19IMediaPlayerServiceEE10onAsBinderEv
W _ZN7android11BnInterfaceINS_23IMediaMetadataRetrieverEE10onAsBinderEv
U _ZN7android12IMediaPlayer10descriptorE
U _ZN7android12MemoryDealerC1EjjPKc
T _ZN7android12VorbisPlayer10onFirstRefEv
T _ZN7android12VorbisPlayer10setLoopingEi
T _ZN7android12VorbisPlayer11getDurationEPi
T _ZN7android12VorbisPlayer12prepareAsyncEv
T _ZN7android12VorbisPlayer12renderThreadEPv
T _ZN7android12VorbisPlayer12reset_nosyncEv
T _ZN7android12VorbisPlayer13setDataSourceEPKc
T _ZN7android12VorbisPlayer13setDataSourceEixx
T _ZN7android12VorbisPlayer13setdatasourceEPKcixx
T _ZN7android12VorbisPlayer17createOutputTrackEv
T _ZN7android12VorbisPlayer18getCurrentPositionEPi
T _ZN7android12VorbisPlayer4stopEv
T _ZN7android12VorbisPlayer5pauseEv
T _ZN7android12VorbisPlayer5resetEv
T _ZN7android12VorbisPlayer5startEv
T _ZN7android12VorbisPlayer6renderEv
T _ZN7android12VorbisPlayer6seekToEi
T _ZN7android12VorbisPlayer7prepareEv
T _ZN7android12VorbisPlayer7releaseEv
T _ZN7android12VorbisPlayer8vp_freadEPvjjS1_
T _ZN7android12VorbisPlayer8vp_fseekEPvxi
T _ZN7android12VorbisPlayer8vp_ftellEPv
T _ZN7android12VorbisPlayer9initCheckEv
T _ZN7android12VorbisPlayer9isPlayingEv
T _ZN7android12VorbisPlayer9vp_fcloseEPv
T _ZN7android12VorbisPlayerC1Ev
T _ZN7android12VorbisPlayerC2Ev
T _ZN7android12VorbisPlayerD0Ev
T _ZN7android12VorbisPlayerD1Ev
T _ZN7android12VorbisPlayerD2Ev
U _ZN7android13BnMediaPlayer10onTransactEjRKNS_6ParcelEPS1_j
U _ZN7android14IMediaRecorder10descriptorE
U _ZN7android14IPCThreadState13flushCommandsEv
U _ZN7android14IPCThreadState13getCallingPidEv
U _ZN7android14IPCThreadState13getCallingUidEv
U _ZN7android14IPCThreadState4selfEv
U _ZN7android14MemoryHeapBaseC1EjjPKc
U _ZN7android15BnMediaRecorder10onTransactEjRKNS_6ParcelEPS1_j
U _ZN7android15PVMediaRecorder11setListenerERKNS_2spINS_18IMediaPlayerClientEEE
U _ZN7android15PVMediaRecorder12setVideoSizeEii
U _ZN7android15PVMediaRecorder13setOutputFileEPKc
U _ZN7android15PVMediaRecorder13setOutputFileEixx
U _ZN7android15PVMediaRecorder13setParametersERKNS_7String8E
U _ZN7android15PVMediaRecorder14setAudioSourceENS_12audio_sourceE
U _ZN7android15PVMediaRecorder14setVideoSourceENS_12video_sourceE
U _ZN7android15PVMediaRecorder15getMaxAmplitudeEPi
U _ZN7android15PVMediaRecorder15setAudioEncoderENS_13audio_encoderE
U _ZN7android15PVMediaRecorder15setOutputFormatENS_13output_formatE
U _ZN7android15PVMediaRecorder15setVideoEncoderENS_13video_encoderE
U _ZN7android15PVMediaRecorder17setPreviewSurfaceERKNS_2spINS_8ISurfaceEEE
U _ZN7android15PVMediaRecorder17setVideoFrameRateEi
U _ZN7android15PVMediaRecorder4initEv
U _ZN7android15PVMediaRecorder4stopEv
U _ZN7android15PVMediaRecorder5closeEv
U _ZN7android15PVMediaRecorder5resetEv
U _ZN7android15PVMediaRecorder5startEv
U _ZN7android15PVMediaRecorder7prepareEv
U _ZN7android15PVMediaRecorder9setCameraERKNS_2spINS_7ICameraEEE
U _ZN7android15PVMediaRecorderC1Ev
U _ZN7android15PVMediaRecorderD1Ev
U _ZN7android16SortedVectorImpl25reservedSortedVectorImpl1Ev
U _ZN7android16SortedVectorImpl25reservedSortedVectorImpl2Ev
U _ZN7android16SortedVectorImpl25reservedSortedVectorImpl3Ev
U _ZN7android16SortedVectorImpl25reservedSortedVectorImpl4Ev
U _ZN7android16SortedVectorImpl25reservedSortedVectorImpl5Ev
U _ZN7android16SortedVectorImpl25reservedSortedVectorImpl6Ev
U _ZN7android16SortedVectorImpl25reservedSortedVectorImpl7Ev
U _ZN7android16SortedVectorImpl25reservedSortedVectorImpl8Ev
U _ZN7android16SortedVectorImpl3addEPKv
U _ZN7android16SortedVectorImpl6removeEPKv
U _ZN7android16SortedVectorImplC1Ejj
U _ZN7android16SortedVectorImplD1Ev
D _ZN7android16cameraPermissionE
W _ZN7android17move_forward_typeINS_2wpINS_18MediaPlayerService6ClientEEEEEvPT_PKS5_j
T _ZN7android18MediaPlayerService10AudioCache4openEjiii
T _ZN7android18MediaPlayerService10AudioCache4waitEv
T _ZN7android18MediaPlayerService10AudioCache5writeEPKvj
T _ZN7android18MediaPlayerService10AudioCache6notifyEPviii
T _ZN7android18MediaPlayerService10AudioCacheC1EPKc
T _ZN7android18MediaPlayerService10AudioCacheC2EPKc
T _ZN7android18MediaPlayerService11AudioOutput12isOnEmulatorEv
B _ZN7android18MediaPlayerService11AudioOutput13mIsOnEmulatorE
D _ZN7android18MediaPlayerService11AudioOutput15mMinBufferCountE
T _ZN7android18MediaPlayerService11AudioOutput17getMinBufferCountEv
T _ZN7android18MediaPlayerService11AudioOutput17setMinBufferCountEv
R _ZN7android18MediaPlayerService11AudioOutput18kAudioVideoDelayMsE
T _ZN7android18MediaPlayerService11AudioOutput4openEjiii
T _ZN7android18MediaPlayerService11AudioOutput4stopEv
T _ZN7android18MediaPlayerService11AudioOutput5closeEv
T _ZN7android18MediaPlayerService11AudioOutput5flushEv
T _ZN7android18MediaPlayerService11AudioOutput5pauseEv
T _ZN7android18MediaPlayerService11AudioOutput5startEv
T _ZN7android18MediaPlayerService11AudioOutput5writeEPKvj
T _ZN7android18MediaPlayerService11AudioOutput9setVolumeEff
T _ZN7android18MediaPlayerService11AudioOutputC1Ev
T _ZN7android18MediaPlayerService11AudioOutputC2Ev
T _ZN7android18MediaPlayerService11AudioOutputD0Ev
T _ZN7android18MediaPlayerService11AudioOutputD1Ev
T _ZN7android18MediaPlayerService11AudioOutputD2Ev
T _ZN7android18MediaPlayerService11instantiateEv
T _ZN7android18MediaPlayerService12removeClientENS_2wpINS0_6ClientEEE
T _ZN7android18MediaPlayerService19createMediaRecorderEi
T _ZN7android18MediaPlayerService23createMetadataRetrieverEi
T _ZN7android18MediaPlayerService4dumpEiRKNS_6VectorINS_8String16EEE
T _ZN7android18MediaPlayerService6Client10disconnectEv
T _ZN7android18MediaPlayerService6Client10setLoopingEi
T _ZN7android18MediaPlayerService6Client11getDurationEPi
T _ZN7android18MediaPlayerService6Client12createPlayerENS_11player_typeE
T _ZN7android18MediaPlayerService6Client12prepareAsyncEv
T _ZN7android18MediaPlayerService6Client13setDataSourceEPKc
T _ZN7android18MediaPlayerService6Client13setDataSourceEixx
T _ZN7android18MediaPlayerService6Client15setVideoSurfaceERKNS_2spINS_8ISurfaceEEE
T _ZN7android18MediaPlayerService6Client18getCurrentPositionEPi
T _ZN7android18MediaPlayerService6Client18setAudioStreamTypeEi
T _ZN7android18MediaPlayerService6Client4stopEv
T _ZN7android18MediaPlayerService6Client5pauseEv
T _ZN7android18MediaPlayerService6Client5resetEv
T _ZN7android18MediaPlayerService6Client5startEv
T _ZN7android18MediaPlayerService6Client6notifyEPviii
T _ZN7android18MediaPlayerService6Client6seekToEi
T _ZN7android18MediaPlayerService6Client9isPlayingEPb
T _ZN7android18MediaPlayerService6Client9setVolumeEff
T _ZN7android18MediaPlayerService6ClientC1ERKNS_2spIS0_EEiiRKNS2_INS_18IMediaPlayerClientEEE
T _ZN7android18MediaPlayerService6ClientC2ERKNS_2spIS0_EEiiRKNS2_INS_18IMediaPlayerClientEEE
T _ZN7android18MediaPlayerService6ClientD0Ev
T _ZN7android18MediaPlayerService6ClientD1Ev
T _ZN7android18MediaPlayerService6ClientD2Ev
T _ZN7android18MediaPlayerService6createEiRKNS_2spINS_18IMediaPlayerClientEEEPKc
T _ZN7android18MediaPlayerService6createEiRKNS_2spINS_18IMediaPlayerClientEEEixx
T _ZN7android18MediaPlayerService6decodeEPKcPjPiS4_
T _ZN7android18MediaPlayerService6decodeEixxPjPiS2_
T _ZN7android18MediaPlayerServiceC1Ev
T _ZN7android18MediaPlayerServiceC2Ev
T _ZN7android18MediaPlayerServiceD0Ev
T _ZN7android18MediaPlayerServiceD1Ev
T _ZN7android18MediaPlayerServiceD2Ev
W _ZN7android18move_backward_typeINS_2wpINS_18MediaPlayerService6ClientEEEEEvPT_PKS5_j
U _ZN7android19IMediaPlayerService10descriptorE
T _ZN7android19MediaRecorderClient11setListenerERKNS_2spINS_18IMediaPlayerClientEEE
T _ZN7android19MediaRecorderClient12setVideoSizeEii
T _ZN7android19MediaRecorderClient13setOutputFileEPKc
T _ZN7android19MediaRecorderClient13setOutputFileEixx
T _ZN7android19MediaRecorderClient13setParametersERKNS_7String8E
T _ZN7android19MediaRecorderClient14setAudioSourceEi
T _ZN7android19MediaRecorderClient14setVideoSourceEi
T _ZN7android19MediaRecorderClient15getMaxAmplitudeEPi
T _ZN7android19MediaRecorderClient15setAudioEncoderEi
T _ZN7android19MediaRecorderClient15setOutputFormatEi
T _ZN7android19MediaRecorderClient15setVideoEncoderEi
T _ZN7android19MediaRecorderClient17setPreviewSurfaceERKNS_2spINS_8ISurfaceEEE
T _ZN7android19MediaRecorderClient17setVideoFrameRateEi
T _ZN7android19MediaRecorderClient4initEv
T _ZN7android19MediaRecorderClient4stopEv
T _ZN7android19MediaRecorderClient5closeEv
T _ZN7android19MediaRecorderClient5resetEv
T _ZN7android19MediaRecorderClient5startEv
T _ZN7android19MediaRecorderClient7prepareEv
T _ZN7android19MediaRecorderClient7releaseEv
T _ZN7android19MediaRecorderClient9setCameraERKNS_2spINS_7ICameraEEE
T _ZN7android19MediaRecorderClientC1Ei
T _ZN7android19MediaRecorderClientC2Ei
T _ZN7android19MediaRecorderClientD0Ev
T _ZN7android19MediaRecorderClientD1Ev
T _ZN7android19MediaRecorderClientD2Ev
U _ZN7android19PVMetadataRetrieverC1Ev
U _ZN7android20BnMediaPlayerService10onTransactEjRKNS_6ParcelEPS1_j
U _ZN7android21defaultServiceManagerEv
D _ZN7android21recordAudioPermissionE
U _ZN7android22checkCallingPermissionERKNS_8String16E
U _ZN7android23IMediaMetadataRetriever10descriptorE
T _ZN7android23MetadataRetrieverClient10disconnectEv
T _ZN7android23MetadataRetrieverClient12captureFrameEv
T _ZN7android23MetadataRetrieverClient13setDataSourceEPKc
T _ZN7android23MetadataRetrieverClient13setDataSourceEixx
T _ZN7android23MetadataRetrieverClient15extractAlbumArtEv
T _ZN7android23MetadataRetrieverClient15extractMetadataEi
T _ZN7android23MetadataRetrieverClient7setModeEi
T _ZN7android23MetadataRetrieverClientC1Ei
T _ZN7android23MetadataRetrieverClientC2Ei
T _ZN7android23MetadataRetrieverClientD0Ev
T _ZN7android23MetadataRetrieverClientD1Ev
T _ZN7android23MetadataRetrieverClientD2Ev
U _ZN7android23openContentProviderFileERKNS_8String16E
U _ZN7android24BnMediaMetadataRetriever10onTransactEjRKNS_6ParcelEPS1_j
W _ZN7android2spINS_10MemoryBaseEEaSEPS1_
W _ZN7android2spINS_12MemoryDealerEEaSEPS1_
W _ZN7android2spINS_14MemoryHeapBaseEEaSEPS1_
W _ZN7android2spINS_15MediaPlayerBase9AudioSinkEEaSERKS3_
W _ZN7android2spINS_15MediaPlayerBaseEEaSERKS2_
W _ZN7android2spINS_15MediaPlayerBaseEEaSINS_12VorbisPlayerEEERS2_PT_
W _ZN7android2spINS_15MediaPlayerBaseEEaSINS_8MidiFileEEERS2_PT_
W _ZN7android2spINS_15MediaPlayerBaseEEaSINS_8PVPlayerEEERS2_PT_
W _ZN7android2spINS_18IMediaPlayerClientEEaSERKS2_
W _ZN7android2spINS_18MediaPlayerService11AudioOutputEEaSEPS2_
W _ZN7android2spINS_18MediaPlayerServiceEEaSERKS2_
W _ZN7android2spINS_26MediaMetadataRetrieverBaseEEaSINS_19PVMetadataRetrieverEEERS2_PT_
W _ZN7android2spINS_7IMemoryEEaSEPS1_
W _ZN7android2spINS_7IMemoryEEaSERKS2_
U _ZN7android5Mutex4lockEv
U _ZN7android5Mutex6unlockEv
U _ZN7android5MutexC1Ev
U _ZN7android5MutexD1Ev
U _ZN7android7BBinder10onTransactEjRKNS_6ParcelEPS1_j
U _ZN7android7BBinder10pingBinderEv
U _ZN7android7BBinder11linkToDeathERKNS_2spINS_7IBinder14DeathRecipientEEEPvj
U _ZN7android7BBinder11localBinderEv
U _ZN7android7BBinder12attachObjectEPKvPvS3_PFvS2_S3_S3_E
U _ZN7android7BBinder12detachObjectEPKv
U _ZN7android7BBinder13unlinkToDeathERKNS_2wpINS_7IBinder14DeathRecipientEEEPvjPS4_
U _ZN7android7BBinder4dumpEiRKNS_6VectorINS_8String16EEE
U _ZN7android7BBinder8transactEjRKNS_6ParcelEPS1_j
U _ZN7android7BBinderC2Ev
U _ZN7android7BBinderD0Ev
U _ZN7android7BBinderD1Ev
U _ZN7android7BBinderD2Ev
U _ZN7android7IBinder11localBinderEv
U _ZN7android7IBinder12remoteBinderEv
U _ZN7android7IBinder19queryLocalInterfaceERKNS_8String16E
U _ZN7android7RefBase10onFirstRefEv
U _ZN7android7RefBase12weakref_type16attemptIncStrongEPKv
U _ZN7android7RefBase12weakref_type7decWeakEPKv
U _ZN7android7RefBase12weakref_type7incWeakEPKv
U _ZN7android7RefBase13onLastWeakRefEPKv
U _ZN7android7RefBase15onLastStrongRefEPKv
U _ZN7android7RefBase20onIncStrongAttemptedEjPKv
U _ZN7android7RefBaseC1Ev
U _ZN7android7RefBaseD1Ev
U _ZN7android7String86appendEPKc
U _ZN7android7String8C1Ev
U _ZN7android7String8D1Ev
T _ZN7android8MidiFile10setLoopingEi
T _ZN7android8MidiFile11getDurationEPi
T _ZN7android8MidiFile12prepareAsyncEv
T _ZN7android8MidiFile12renderThreadEPv
T _ZN7android8MidiFile12reset_nosyncEv
T _ZN7android8MidiFile13setDataSourceEPKc
T _ZN7android8MidiFile13setDataSourceEixx
T _ZN7android8MidiFile17createOutputTrackEv
T _ZN7android8MidiFile18getCurrentPositionEPi
T _ZN7android8MidiFile4stopEv
T _ZN7android8MidiFile5pauseEv
T _ZN7android8MidiFile5resetEv
T _ZN7android8MidiFile5startEv
T _ZN7android8MidiFile6renderEv
T _ZN7android8MidiFile6seekToEi
T _ZN7android8MidiFile7prepareEv
T _ZN7android8MidiFile7releaseEv
T _ZN7android8MidiFile9initCheckEv
T _ZN7android8MidiFile9isPlayingEv
T _ZN7android8MidiFileC1Ev
T _ZN7android8MidiFileC2Ev
T _ZN7android8MidiFileD0Ev
T _ZN7android8MidiFileD1Ev
T _ZN7android8MidiFileD2Ev
U _ZN7android8PVPlayerC1Ev
U _ZN7android8String16C1EPKc
U _ZN7android8String16D1Ev
U _ZN7android9Condition4waitERNS_5MutexE
U _ZN7android9Condition6signalEv
U _ZN7android9ConditionC1Ev
U _ZN7android9ConditionD1Ev
D _ZN7android9FILE_EXTSE
T _ZN7android9memStatusEiRKNS_6VectorINS_8String16EEE
U _ZNK7android10AudioTrack10frameCountEv
U _ZNK7android10AudioTrack12channelCountEv
U _ZNK7android10AudioTrack4dumpEiRKNS_6VectorINS_8String16EEE
U _ZNK7android10AudioTrack7latencyEv
U _ZNK7android10AudioTrack9frameSizeEv
U _ZNK7android10AudioTrack9initCheckEv
U _ZNK7android12IMediaPlayer22getInterfaceDescriptorEv
W _ZNK7android12SortedVectorINS_2wpINS_18MediaPlayerService6ClientEEEE10do_compareEPKvS7_
W _ZNK7android12SortedVectorINS_2wpINS_18MediaPlayerService6ClientEEEE10do_destroyEPvj
W _ZNK7android12SortedVectorINS_2wpINS_18MediaPlayerService6ClientEEEE12do_constructEPvj
W _ZNK7android12SortedVectorINS_2wpINS_18MediaPlayerService6ClientEEEE15do_move_forwardEPvPKvj
W _ZNK7android12SortedVectorINS_2wpINS_18MediaPlayerService6ClientEEEE16do_move_backwardEPvPKvj
W _ZNK7android12SortedVectorINS_2wpINS_18MediaPlayerService6ClientEEEE7do_copyEPvPKvj
W _ZNK7android12SortedVectorINS_2wpINS_18MediaPlayerService6ClientEEEE8do_splatEPvPKvj
U _ZNK7android14IMediaRecorder22getInterfaceDescriptorEv
U _ZNK7android14MemoryHeapBase9getDeviceEv
T _ZNK7android18MediaPlayerService10AudioCache13msecsPerFrameEv
T _ZNK7android18MediaPlayerService10AudioCache4dumpEiRKNS_6VectorINS_8String16EEE
T _ZNK7android18MediaPlayerService10AudioCache7latencyEv
T _ZNK7android18MediaPlayerService11AudioOutput10bufferSizeEv
T _ZNK7android18MediaPlayerService11AudioOutput10frameCountEv
T _ZNK7android18MediaPlayerService11AudioOutput12channelCountEv
T _ZNK7android18MediaPlayerService11AudioOutput13msecsPerFrameEv
T _ZNK7android18MediaPlayerService11AudioOutput4dumpEiRKNS_6VectorINS_8String16EEE
T _ZNK7android18MediaPlayerService11AudioOutput7latencyEv
T _ZNK7android18MediaPlayerService11AudioOutput9frameSizeEv
T _ZNK7android18MediaPlayerService6Client4dumpEiRKNS_6VectorINS_8String16EEE
U _ZNK7android19IMediaPlayerService22getInterfaceDescriptorEv
U _ZNK7android23IMediaMetadataRetriever22getInterfaceDescriptorEv
T _ZNK7android23MetadataRetrieverClient4dumpEiRKNS_6VectorINS_8String16EEE
T _ZNK7android23MetadataRetrieverClient7getModeEPi
U _ZNK7android7BBinder10findObjectEPKv
U _ZNK7android7BBinder13isBinderAliveEv
U _ZNK7android7BBinder22getInterfaceDescriptorEv
U _ZNK7android7IBinder13checkSubclassEPKv
U _ZNK7android7IMemory7pointerEv
U _ZNK7android7RefBase10createWeakEPKv
U _ZNK7android7RefBase9decStrongEPKv
U _ZNK7android7RefBase9incStrongEPKv
V _ZTCN7android11BnInterfaceINS_12IMediaPlayerEEE0_NS_10IInterfaceE
V _ZTCN7android11BnInterfaceINS_12IMediaPlayerEEE0_S1_
V _ZTCN7android11BnInterfaceINS_12IMediaPlayerEEE4_NS_7BBinderE
V _ZTCN7android11BnInterfaceINS_12IMediaPlayerEEE4_NS_7IBinderE
V _ZTCN7android11BnInterfaceINS_14IMediaRecorderEEE0_NS_10IInterfaceE
V _ZTCN7android11BnInterfaceINS_14IMediaRecorderEEE0_S1_
V _ZTCN7android11BnInterfaceINS_14IMediaRecorderEEE4_NS_7BBinderE
V _ZTCN7android11BnInterfaceINS_14IMediaRecorderEEE4_NS_7IBinderE
V _ZTCN7android11BnInterfaceINS_19IMediaPlayerServiceEEE0_NS_10IInterfaceE
V _ZTCN7android11BnInterfaceINS_19IMediaPlayerServiceEEE0_S1_
V _ZTCN7android11BnInterfaceINS_19IMediaPlayerServiceEEE4_NS_7BBinderE
V _ZTCN7android11BnInterfaceINS_19IMediaPlayerServiceEEE4_NS_7IBinderE
V _ZTCN7android11BnInterfaceINS_23IMediaMetadataRetrieverEEE0_NS_10IInterfaceE
V _ZTCN7android11BnInterfaceINS_23IMediaMetadataRetrieverEEE0_S1_
V _ZTCN7android11BnInterfaceINS_23IMediaMetadataRetrieverEEE4_NS_7BBinderE
V _ZTCN7android11BnInterfaceINS_23IMediaMetadataRetrieverEEE4_NS_7IBinderE
D _ZTCN7android18MediaPlayerService6ClientE0_NS_10IInterfaceE
D _ZTCN7android18MediaPlayerService6ClientE0_NS_11BnInterfaceINS_12IMediaPlayerEEE
D _ZTCN7android18MediaPlayerService6ClientE0_NS_12IMediaPlayerE
D _ZTCN7android18MediaPlayerService6ClientE0_NS_13BnMediaPlayerE
D _ZTCN7android18MediaPlayerService6ClientE4_NS_7BBinderE
D _ZTCN7android18MediaPlayerService6ClientE4_NS_7IBinderE
D _ZTCN7android18MediaPlayerServiceE0_NS_10IInterfaceE
D _ZTCN7android18MediaPlayerServiceE0_NS_11BnInterfaceINS_19IMediaPlayerServiceEEE
D _ZTCN7android18MediaPlayerServiceE0_NS_19IMediaPlayerServiceE
D _ZTCN7android18MediaPlayerServiceE0_NS_20BnMediaPlayerServiceE
D _ZTCN7android18MediaPlayerServiceE4_NS_7BBinderE
D _ZTCN7android18MediaPlayerServiceE4_NS_7IBinderE
D _ZTCN7android19MediaRecorderClientE0_NS_10IInterfaceE
D _ZTCN7android19MediaRecorderClientE0_NS_11BnInterfaceINS_14IMediaRecorderEEE
D _ZTCN7android19MediaRecorderClientE0_NS_14IMediaRecorderE
D _ZTCN7android19MediaRecorderClientE0_NS_15BnMediaRecorderE
D _ZTCN7android19MediaRecorderClientE4_NS_7BBinderE
D _ZTCN7android19MediaRecorderClientE4_NS_7IBinderE
D _ZTCN7android23MetadataRetrieverClientE0_NS_10IInterfaceE
D _ZTCN7android23MetadataRetrieverClientE0_NS_11BnInterfaceINS_23IMediaMetadataRetrieverEEE
D _ZTCN7android23MetadataRetrieverClientE0_NS_23IMediaMetadataRetrieverE
D _ZTCN7android23MetadataRetrieverClientE0_NS_24BnMediaMetadataRetrieverE
D _ZTCN7android23MetadataRetrieverClientE4_NS_7BBinderE
D _ZTCN7android23MetadataRetrieverClientE4_NS_7IBinderE
V _ZTTN7android10IInterfaceE
V _ZTTN7android11BnInterfaceINS_12IMediaPlayerEEE
V _ZTTN7android11BnInterfaceINS_14IMediaRecorderEEE
V _ZTTN7android11BnInterfaceINS_19IMediaPlayerServiceEEE
V _ZTTN7android11BnInterfaceINS_23IMediaMetadataRetrieverEEE
U _ZTTN7android12IMediaPlayerE
U _ZTTN7android13BnMediaPlayerE
U _ZTTN7android14IMediaRecorderE
U _ZTTN7android15BnMediaRecorderE
D _ZTTN7android18MediaPlayerService6ClientE
D _ZTTN7android18MediaPlayerServiceE
U _ZTTN7android19IMediaPlayerServiceE
D _ZTTN7android19MediaRecorderClientE
U _ZTTN7android20BnMediaPlayerServiceE
U _ZTTN7android23IMediaMetadataRetrieverE
D _ZTTN7android23MetadataRetrieverClientE
U _ZTTN7android24BnMediaMetadataRetrieverE
V _ZTVN7android10IInterfaceE
V _ZTVN7android11BnInterfaceINS_12IMediaPlayerEEE
V _ZTVN7android11BnInterfaceINS_14IMediaRecorderEEE
V _ZTVN7android11BnInterfaceINS_19IMediaPlayerServiceEEE
V _ZTVN7android11BnInterfaceINS_23IMediaMetadataRetrieverEEE
U _ZTVN7android12IMediaPlayerE
V _ZTVN7android12SortedVectorINS_2wpINS_18MediaPlayerService6ClientEEEEE
D _ZTVN7android12VorbisPlayerE
U _ZTVN7android13BnMediaPlayerE
U _ZTVN7android14IMediaRecorderE
U _ZTVN7android15BnMediaRecorderE
V _ZTVN7android15MediaPlayerBase9AudioSinkE
V _ZTVN7android15MediaPlayerBaseE
D _ZTVN7android18MediaPlayerService10AudioCacheE
D _ZTVN7android18MediaPlayerService11AudioOutputE
D _ZTVN7android18MediaPlayerService6ClientE
D _ZTVN7android18MediaPlayerServiceE
U _ZTVN7android19IMediaPlayerServiceE
D _ZTVN7android19MediaRecorderClientE
U _ZTVN7android20BnMediaPlayerServiceE
V _ZTVN7android20MediaPlayerInterfaceE
U _ZTVN7android23IMediaMetadataRetrieverE
D _ZTVN7android23MetadataRetrieverClientE
U _ZTVN7android24BnMediaMetadataRetrieverE
U _ZTVN7android7IBinderE
D _ZTVN7android8MidiFileE
U _ZThn4_N7android13BnMediaPlayer10onTransactEjRKNS_6ParcelEPS1_j
U _ZThn4_N7android15BnMediaRecorder10onTransactEjRKNS_6ParcelEPS1_j
T _ZThn4_N7android18MediaPlayerService4dumpEiRKNS_6VectorINS_8String16EEE
T _ZThn4_N7android18MediaPlayerService6ClientD0Ev
T _ZThn4_N7android18MediaPlayerService6ClientD1Ev
T _ZThn4_N7android18MediaPlayerServiceD0Ev
T _ZThn4_N7android18MediaPlayerServiceD1Ev
T _ZThn4_N7android19MediaRecorderClientD0Ev
T _ZThn4_N7android19MediaRecorderClientD1Ev
U _ZThn4_N7android20BnMediaPlayerService10onTransactEjRKNS_6ParcelEPS1_j
T _ZThn4_N7android23MetadataRetrieverClientD0Ev
T _ZThn4_N7android23MetadataRetrieverClientD1Ev
U _ZThn4_N7android24BnMediaMetadataRetriever10onTransactEjRKNS_6ParcelEPS1_j
W _ZTv0_n12_N7android10IInterfaceD0Ev
W _ZTv0_n12_N7android10IInterfaceD1Ev
W _ZTv0_n12_N7android11BnInterfaceINS_12IMediaPlayerEED0Ev
W _ZTv0_n12_N7android11BnInterfaceINS_12IMediaPlayerEED1Ev
W _ZTv0_n12_N7android11BnInterfaceINS_14IMediaRecorderEED0Ev
W _ZTv0_n12_N7android11BnInterfaceINS_14IMediaRecorderEED1Ev
W _ZTv0_n12_N7android11BnInterfaceINS_19IMediaPlayerServiceEED0Ev
W _ZTv0_n12_N7android11BnInterfaceINS_19IMediaPlayerServiceEED1Ev
W _ZTv0_n12_N7android11BnInterfaceINS_23IMediaMetadataRetrieverEED0Ev
W _ZTv0_n12_N7android11BnInterfaceINS_23IMediaMetadataRetrieverEED1Ev
W _ZTv0_n12_N7android12IMediaPlayerD0Ev
W _ZTv0_n12_N7android12IMediaPlayerD1Ev
W _ZTv0_n12_N7android13BnMediaPlayerD0Ev
W _ZTv0_n12_N7android13BnMediaPlayerD1Ev
W _ZTv0_n12_N7android14IMediaRecorderD0Ev
W _ZTv0_n12_N7android14IMediaRecorderD1Ev
W _ZTv0_n12_N7android15BnMediaRecorderD0Ev
W _ZTv0_n12_N7android15BnMediaRecorderD1Ev
T _ZTv0_n12_N7android18MediaPlayerService6ClientD0Ev
T _ZTv0_n12_N7android18MediaPlayerService6ClientD1Ev
T _ZTv0_n12_N7android18MediaPlayerServiceD0Ev
T _ZTv0_n12_N7android18MediaPlayerServiceD1Ev
W _ZTv0_n12_N7android19IMediaPlayerServiceD0Ev
W _ZTv0_n12_N7android19IMediaPlayerServiceD1Ev
T _ZTv0_n12_N7android19MediaRecorderClientD0Ev
T _ZTv0_n12_N7android19MediaRecorderClientD1Ev
W _ZTv0_n12_N7android20BnMediaPlayerServiceD0Ev
W _ZTv0_n12_N7android20BnMediaPlayerServiceD1Ev
W _ZTv0_n12_N7android23IMediaMetadataRetrieverD0Ev
W _ZTv0_n12_N7android23IMediaMetadataRetrieverD1Ev
T _ZTv0_n12_N7android23MetadataRetrieverClientD0Ev
T _ZTv0_n12_N7android23MetadataRetrieverClientD1Ev
W _ZTv0_n12_N7android24BnMediaMetadataRetrieverD0Ev
W _ZTv0_n12_N7android24BnMediaMetadataRetrieverD1Ev
U _ZTv0_n12_N7android7BBinderD0Ev
U _ZTv0_n12_N7android7BBinderD1Ev
W _ZTv0_n12_N7android7IBinderD0Ev
W _ZTv0_n12_N7android7IBinderD1Ev
U _ZdaPv
U _ZdlPv
U _Znaj
U _Znwj
U __aeabi_f2d
T __aeabi_f2uiz
U __aeabi_fdiv
U __aeabi_ui2f
U __aeabi_uidiv
U __aeabi_unwind_cpp_pr0
U __android_log_print
A __bss_end__
A __bss_start
A __bss_start__
U __cxa_pure_virtual
D __data_start
A __end__
U __errno
A __exidx_end
A __exidx_start
T __fixunssfsi
U __stack_chk_fail
U __stack_chk_guard
A _bss_end__
A _edata
A _end
A _stack
U androidCreateThreadEtc
U android_atomic_inc
U close
U closedir
U dup
U fclose
U fdopen
U fgets
U fopen
U fread
U free
U free_malloc_leak_info
U fseek
U fstat
U ftell
U get_malloc_leak_info
U getpid
U gettid
U lseek
U lstat
U memcpy
U memset
U opendir
U ov_clear
U ov_comment
U ov_info
U ov_open_callbacks
U ov_read
U ov_time_seek
U ov_time_tell
U ov_time_total
U property_get
U read
U readdir
U readlink
U snprintf
U stat
U strcmp
U strdup
U strerror
U strlen
U strncmp
U strstr
U strzcmp16
U write
