T PVGetInterface
T PVReleaseInterface
U _Z11oscl_strcatPcPKc
U _Z11oscl_strcmpPKcS0_
U _Z11oscl_strlenPKc
U _Z11oscl_strlenPKw
U _Z11oscl_strsetPccj
U _Z11oscl_strstrPKcS0_
U _Z11oscl_strstrPcPKc
U _Z12oscl_strncatPcPKcj
U _Z12oscl_strncmpPKcS0_j
U _Z12oscl_strncmpPKwS0_j
U _Z12oscl_strncpyPcPKcj
U _Z12oscl_tolowerc
U _Z13oscl_CIstrcmpPKcS0_
U _Z13oscl_snprintfPcjPKcz
U _Z14oscl_CIstrncmpPKcS0_j
U _Z14parseRtspRangePKciR13RtspRangeType
U _Z14pv_mime_strcmpPKcS0_
U _Z15skip_whitespacePKcS0_
U _Z17_oscl_default_newj
U _Z17skip_to_line_termPKcS0_
U _Z18oscl_UTF8ToUnicodePKciPwi
U _Z18oscl_UnicodeToUTF8PKwiPci
U _Z18skip_to_whitespacePKcS0_
U _Z19compose_RTSP_stringPcjRK13RtspRangeTypeRi
U _Z20GetTypeFromKeyStringPc
U _Z21convertToPVMFMediaMsgR13OsclSharedPtrI12PVMFMediaMsgERS_I13PVMFMediaDataE
U _Z22convertToPVMFMediaDataR13OsclSharedPtrI13PVMFMediaDataERS_I12PVMFMediaMsgE
U _Z22pv_mime_string_compcntPc
U _Z23GetValTypeFromKeyStringPc
U _Z24GetAttrTypeFromKeyStringPc
U _Z24convertToPVMFMediaCmdMsgR13OsclSharedPtrI12PVMFMediaMsgERS_I12PVMFMediaCmdE
U _Z27pv_mime_string_extract_typeiPcRS_
U _Z28pv_mime_string_extract_paramiPcRS_
U _Z29skip_whitespace_and_line_termPKcS0_
U _Z7PV_atofPKciRf
U _Z7PV_atoiPKccRj
U _Z7PV_atoiPKcciRj
U _Z7PV_atoiPKcciRy
T _ZN10RTSPParser17getDataBufferSpecEv
T _ZN10RTSPParser18registerEntityBodyEP18OsclMemoryFragment
T _ZN10RTSPParser24registerNewRequestStructEP19RTSPIncomingMessage
T _ZN10RTSPParser25registerDataBufferWrittenEj
T _ZN10RTSPParser26registerEmbeddedDataMemoryEP18OsclMemoryFragment
T _ZN10RTSPParser5flushEv
T _ZN10RTSPParser8getStateEv
T _ZN10RTSPParserC1Ev
T _ZN10RTSPParserC2Ev
T _ZN10SDP_Parser16parseSDPDownloadEPKciP7SDPInfoP10_movieInfo
T _ZN10SDP_Parser17getNumberOfTracksEv
T _ZN10SDP_Parser17setNumberOfTracksEi
T _ZN10SDP_Parser8parseSDPEPKciP7SDPInfo
T _ZN10SDP_ParserC1ERP22SDPMediaParserRegistryb
T _ZN10SDP_ParserC2ERP22SDPMediaParserRegistryb
T _ZN10SDP_ParserD1Ev
T _ZN10SDP_ParserD2Ev
U _ZN11OSCL_String5writeEjc
U _ZN11OSCL_String5writeEjjPKc
U _ZN11OSCL_StringC1Ev
U _ZN11OSCL_StringD1Ev
U _ZN11OSCL_StringaSEPKc
U _ZN11OSCL_StringaSERKS_
U _ZN11OSCL_StringpLEPKc
U _ZN11OSCL_StringpLERKS_
U _ZN11OSCL_StringpLEc
U _ZN11PVStringUri27PersentageToEscapedEncodingEPcRj
U _ZN11PVStringUri34IllegalCharactersToEscapedEncodingEPcRj
U _ZN12OSCL_wString5writeEjjPKw
U _ZN12OSCL_wString5writeEjw
U _ZN12OSCL_wStringC1Ev
U _ZN12OSCL_wStringD1Ev
U _ZN12OSCL_wStringaSEPKw
U _ZN12PVMFMediaCmd14createMediaCmdEP13Oscl_DefAlloc
T _ZN12RTCP_Decoder10DecodeSDESERK18OsclMemoryFragmentR9RTCP_SDES
T _ZN12RTCP_Decoder20scan_compound_packetER18OsclMemoryFragmentiRiP14RTCPPacketTypePS0_
T _ZN12RTCP_Decoder8DecodeRRER18OsclMemoryFragmentR7RTCP_RR
T _ZN12RTCP_Decoder8DecodeSRERK18OsclMemoryFragmentR7RTCP_SR
T _ZN12RTCP_Decoder9DecodeAPPERK18OsclMemoryFragmentR8RTCP_APP
T _ZN12RTCP_Decoder9DecodeBYEERK18OsclMemoryFragmentR8RTCP_BYE
T _ZN12RTCP_DecoderC1Eh
T _ZN12RTCP_DecoderC2Eh
T _ZN12RTCP_DecoderD0Ev
T _ZN12RTCP_DecoderD1Ev
T _ZN12RTCP_DecoderD2Ev
T _ZN12RTCP_Encoder16EncodeCompoundRRERK7RTCP_RRR18OsclMemoryFragmentPK8RTCP_APPh
T _ZN12RTCP_EncoderC1EPKhijh
T _ZN12RTCP_EncoderC2EPKhijh
U _ZN13OsclErrorTrap15GetErrorTrapImpEv
U _ZN13OsclTCPSocket10CancelRecvEv
U _ZN13OsclTCPSocket10CancelSendEv
U _ZN13OsclTCPSocket11GetRecvDataEPi
U _ZN13OsclTCPSocket13CancelConnectEv
U _ZN13OsclTCPSocket4NewLER13Oscl_DefAllocR14OsclSocketServP18OsclSocketObserverj
U _ZN13OsclTCPSocket4RecvEPhji
U _ZN13OsclTCPSocket4SendEPKhji
U _ZN13OsclTCPSocket7ConnectER18OsclNetworkAddressi
U _ZN13OsclTCPSocket8ShutdownE17TPVSocketShutdowni
U _ZN13PVMFMediaData13getFilledSizeEv
U _ZN13PVMFMediaData13getMarkerInfoEv
U _ZN13PVMFMediaData13setMarkerInfoEj
U _ZN13PVMFMediaData15createMediaDataER13OsclSharedPtrI17PVMFMediaDataImplEP13Oscl_DefAlloc
U _ZN13PVMFMediaData15createMediaDataER13OsclSharedPtrI17PVMFMediaDataImplEPK18PVMFMediaMsgHeaderP13Oscl_DefAlloc
U _ZN13PVMFMediaData15getNumFragmentsEv
U _ZN13PVMFMediaData16getMediaDataImplER13OsclSharedPtrI17PVMFMediaDataImplE
U _ZN13PVMFMediaData16getMediaFragmentEjR21OsclRefCounterMemFrag
U _ZN13StrCSumPtrLen11setCheckSumEv
U _ZN14OsclSocketServ4NewLER13Oscl_DefAlloc
U _ZN14OsclSocketServ5CloseEb
U _ZN14OsclSocketServ7ConnectEj
U _ZN14PVMFCPMFactory26CreateContentPolicyManagerER21PVMFCPMStatusObserver
U _ZN14PVMFCPMFactory27DestroyContentPolicyManagerEP7PVMFCPM
U _ZN14PVMFMediaClock16GetCurrentTime32ERjRb24PVMFMediaClock_TimeUnitsS0_
U _ZN14PVMFMediaClock16SetClockTimebaseER12PVMFTimebase
U _ZN14PVMFMediaClock39DestroyMediaClockNotificationsInterfaceEP36PVMFMediaClockNotificationsInterface
U _ZN14PVMFMediaClock41ConstructMediaClockNotificationsInterfaceERP36PVMFMediaClockNotificationsInterfaceR34PVMFMediaClockNotificationsObsBasej
U _ZN14PVMFMediaClock4StopEv
U _ZN14PVMFMediaClock5StartEv
U _ZN14PVMFMediaClockC1Ev
U _ZN14PVMFMediaClockD1Ev
U _ZN14PVMFSocketNode13GetPortConfigER17PVMFPortInterfaceR18OsclNetworkAddressS3_
U _ZN14PVMFSocketNode13SetPortConfigER17PVMFPortInterface18OsclNetworkAddressS2_
U _ZN14PVMFSocketNodeC1Ei
U _ZN15BitStreamParser10ReadUInt16Ev
U _ZN15BitStreamParser8NextBitsEj
U _ZN15BitStreamParser8ReadBitsEh
U _ZN15BitStreamParserC1EPhj
U _ZN15OSCL_FastStringC1EPcj
U _ZN15OSCL_FastStringD1Ev
U _ZN15OsclTLSRegistry11getInstanceEjRi
U _ZN15OsclTLSRegistry16registerInstanceEPvjRi
U _ZN15OsclTimerObject13RunIfNotReadyEj
U _ZN15OsclTimerObject14AddToSchedulerEv
U _ZN15OsclTimerObject19RemoveFromSchedulerEv
U _ZN15OsclTimerObject6CancelEv
U _ZN15OsclTimerObject8DoCancelEv
U _ZN15OsclTimerObject8RunErrorEi
U _ZN15OsclTimerObjectC1EiPKc
U _ZN15OsclTimerObjectD1Ev
U _ZN15Oscl_FileServer5CloseEv
U _ZN15Oscl_FileServer7ConnectEv
U _ZN15Oscl_FileServerC1Ev
U _ZN15Oscl_FileServerD1Ev
T _ZN16AMRPayloadParser10RepositionEbjj
T _ZN16AMRPayloadParser19GetMinCurrTimestampEv
T _ZN16AMRPayloadParser4InitEP9mediaInfo
T _ZN16AMRPayloadParser5ParseERKN14IPayloadParser7PayloadER11Oscl_VectorIS1_16OsclMemAllocatorE
T _ZN16AMRPayloadParserC1Ev
T _ZN16AMRPayloadParserC2Ev
T _ZN16AMRPayloadParserD0Ev
T _ZN16AMRPayloadParserD1Ev
T _ZN16AMRPayloadParserD2Ev
T _ZN16M4VPayloadParser10RepositionEbjj
T _ZN16M4VPayloadParser19GetMinCurrTimestampEv
T _ZN16M4VPayloadParser4InitEP9mediaInfo
T _ZN16M4VPayloadParser5ParseERKN14IPayloadParser7PayloadER11Oscl_VectorIS1_16OsclMemAllocatorE
T _ZN16M4VPayloadParserC1Ev
T _ZN16M4VPayloadParserC2Ev
T _ZN16M4VPayloadParserD0Ev
T _ZN16M4VPayloadParserD1Ev
T _ZN16M4VPayloadParserD2Ev
U _ZN16OsclActiveObject13RunIfNotReadyEv
U _ZN16OsclActiveObject14AddToSchedulerEv
U _ZN16OsclActiveObject19RemoveFromSchedulerEv
U _ZN16OsclActiveObject6CancelEv
U _ZN16OsclActiveObject8DoCancelEv
U _ZN16OsclActiveObject8RunErrorEi
U _ZN16OsclActiveObjectC1EiPKc
U _ZN16OsclActiveObjectD1Ev
U _ZN16OsclErrorTrapImp4TrapEv
U _ZN16OsclErrorTrapImp6UnTrapEv
U _ZN16OsclErrorTrapImp9TrapNoTlsEPS_
U _ZN16Oscl_Int64_Utils10set_uint64ERyjj
U _ZN16Oscl_Int64_Utils18get_uint64_lower32ERKy
U _ZN16Oscl_Vector_Base10push_frontEPKv
U _ZN16Oscl_Vector_Base13assign_vectorERKS_
U _ZN16Oscl_Vector_Base5eraseEPv
U _ZN16Oscl_Vector_Base5eraseEPvS0_
U _ZN16Oscl_Vector_Base7destroyEv
U _ZN16Oscl_Vector_Base7reserveEj
U _ZN16Oscl_Vector_Base9constructEP22Oscl_Opaque_Type_Alloc
U _ZN16Oscl_Vector_Base9constructEP22Oscl_Opaque_Type_AllocRKS_
U _ZN16Oscl_Vector_Base9constructEP22Oscl_Opaque_Type_Allocj
U _ZN16Oscl_Vector_Base9push_backEPKv
T _ZN16PVRTSPEngineNode10SetSDPInfoER13OsclSharedPtrI7SDPInfoER11Oscl_VectorI10StreamInfo16OsclMemAllocatorE
T _ZN16PVRTSPEngineNode11ReleasePortEiR17PVMFPortInterfacePKv
T _ZN16PVRTSPEngineNode11RequestPortEiiPK11OSCL_StringPKv
T _ZN16PVRTSPEngineNode11ThreadLogonEv
T _ZN16PVRTSPEngineNode12GetRtspProxyER11OSCL_StringRj
T _ZN16PVRTSPEngineNode12GetUserAgentER12OSCL_wString
T _ZN16PVRTSPEngineNode12SetRdtParserEP14IPayloadParser
T _ZN16PVRTSPEngineNode12SetRtspProxyER11OSCL_Stringj
T _ZN16PVRTSPEngineNode12ThreadLogoffEv
T _ZN16PVRTSPEngineNode13CancelCommandEiiPKv
T _ZN16PVRTSPEngineNode13GetCapabilityER18PVMFNodeCapability
T _ZN16PVRTSPEngineNode13GetServerInfoER26PVRTSPEngineNodeServerInfo
T _ZN16PVRTSPEngineNode13GetStreamInfoER11Oscl_VectorI10StreamInfo16OsclMemAllocatorE
T _ZN16PVRTSPEngineNode13SetSessionURLER12OSCL_wString
T _ZN16PVRTSPEngineNode14GetRTSPTimeOutERi
T _ZN16PVRTSPEngineNode14HandleDNSEventEi9TPVDNSFxn11TPVDNSEventi
T _ZN16PVRTSPEngineNode14IsRdtTransportEv
T _ZN16PVRTSPEngineNode14QueryInterfaceEiRK8OsclUuidRP11PVInterfacePKv
T _ZN16PVRTSPEngineNode14SetRTSPTimeOutEi
T _ZN16PVRTSPEngineNode14queryInterfaceERK8OsclUuidRP11PVInterface
T _ZN16PVRTSPEngineNode15TimeoutOccurredEii
T _ZN16PVRTSPEngineNode16SetStreamingTypeE19PVRTSPStreamingType
T _ZN16PVRTSPEngineNode17CancelAllCommandsEiPKv
T _ZN16PVRTSPEngineNode17HandleSocketEventEi12TPVSocketFxn14TPVSocketEventi
T _ZN16PVRTSPEngineNode18GetActualPlayRangeER13RtspRangeType
T _ZN16PVRTSPEngineNode18GetKeepAliveMethodERiRbS1_
T _ZN16PVRTSPEngineNode18HandlePortActivityERK16PVMFPortActivity
T _ZN16PVRTSPEngineNode18SetPortRdtStreamIdEP17PVMFPortInterfacei
T _ZN16PVRTSPEngineNode19SetClientParametersER12OSCL_wStringS1_S1_
T _ZN16PVRTSPEngineNode19SetRequestPlayRangeERK13RtspRangeType
T _ZN16PVRTSPEngineNode26SetKeepAliveMethod_timeoutEi
T _ZN16PVRTSPEngineNode26SetRealChallengeCalculatorEP17IRealChallengeGen
T _ZN16PVRTSPEngineNode27SetAuthenticationParametersER12OSCL_wStringS1_S1_S1_S1_S1_
T _ZN16PVRTSPEngineNode36SetKeepAliveMethod_use_SET_PARAMETEREb
T _ZN16PVRTSPEngineNode37SetKeepAliveMethod_keep_alive_in_playEb
T _ZN16PVRTSPEngineNode4InitEiPKv
T _ZN16PVRTSPEngineNode4StopEiPKv
T _ZN16PVRTSPEngineNode5FlushEiPKv
T _ZN16PVRTSPEngineNode5PauseEiPKv
T _ZN16PVRTSPEngineNode5ResetEiPKv
T _ZN16PVRTSPEngineNode5StartEiPKv
T _ZN16PVRTSPEngineNode6GetSDPER21OsclRefCounterMemFrag
T _ZN16PVRTSPEngineNode6addRefEv
T _ZN16PVRTSPEngineNode7PrepareEiPKv
T _ZN16PVRTSPEngineNode8GetPortsEPK14PVMFPortFilter
T _ZN16PVRTSPEngineNode9QueryUUIDEiRK11OSCL_StringR11Oscl_VectorI8OsclUuid16OsclMemAllocatorEbPKv
T _ZN16PVRTSPEngineNode9removeRefEv
T _ZN16PVRTSPEngineNodeC1Ei
T _ZN16PVRTSPEngineNodeC2Ei
T _ZN16PVRTSPEngineNodeD0Ev
T _ZN16PVRTSPEngineNodeD1Ev
T _ZN16PVRTSPEngineNodeD2Ev
U _ZN16PvmfPortBaseImpl10DisconnectEv
U _ZN16PvmfPortBaseImpl11PeerConnectEP17PVMFPortInterface
U _ZN16PvmfPortBaseImpl11ResumeInputEv
U _ZN16PvmfPortBaseImpl12PortActivityE20PVMFPortActivityType
U _ZN16PvmfPortBaseImpl12SuspendInputEv
U _ZN16PvmfPortBaseImpl14ClearMsgQueuesEv
U _ZN16PvmfPortBaseImpl14PeerDisconnectEv
U _ZN16PvmfPortBaseImpl14ReadyToReceiveEv
U _ZN16PvmfPortBaseImpl14isIncomingFullEv
U _ZN16PvmfPortBaseImpl14isOutgoingFullEv
U _ZN16PvmfPortBaseImpl16QueueOutgoingMsgE13OsclSharedPtrI12PVMFMediaMsgE
U _ZN16PvmfPortBaseImpl18DequeueIncomingMsgER13OsclSharedPtrI12PVMFMediaMsgE
U _ZN16PvmfPortBaseImpl19IsConnectedPortBusyEv
U _ZN16PvmfPortBaseImpl19IsOutgoingQueueBusyEv
U _ZN16PvmfPortBaseImpl20EvaluateIncomingBusyEv
U _ZN16PvmfPortBaseImpl20EvaluateOutgoingBusyEv
U _ZN16PvmfPortBaseImpl20IncomingMsgQueueSizeEv
U _ZN16PvmfPortBaseImpl20OutgoingMsgQueueSizeEv
U _ZN16PvmfPortBaseImpl4SendEv
U _ZN16PvmfPortBaseImpl7ConnectEP17PVMFPortInterface
U _ZN16PvmfPortBaseImpl7ReceiveE13OsclSharedPtrI12PVMFMediaMsgE
U _ZN16PvmfPortBaseImpl8GetStatsER21PvmfPortBaseImplStats
U _ZN16PvmfPortBaseImplC1EiP23PVMFPortActivityHandlerPKc
U _ZN16PvmfPortBaseImplC1EiP23PVMFPortActivityHandlerjjjjjjPKc
U _ZN16PvmfPortBaseImplD1Ev
T _ZN17H263PayloadParser10RepositionEbjj
T _ZN17H263PayloadParser19GetMinCurrTimestampEv
T _ZN17H263PayloadParser4InitEP9mediaInfo
T _ZN17H263PayloadParser5ParseERKN14IPayloadParser7PayloadER11Oscl_VectorIS1_16OsclMemAllocatorE
T _ZN17H263PayloadParserC1Ev
T _ZN17H263PayloadParserC2Ev
T _ZN17H263PayloadParserD0Ev
T _ZN17H263PayloadParserD1Ev
T _ZN17H263PayloadParserD2Ev
T _ZN17H264PayloadParser10RepositionEbjj
T _ZN17H264PayloadParser19GetMinCurrTimestampEv
T _ZN17H264PayloadParser4InitEP9mediaInfo
T _ZN17H264PayloadParser5ParseERKN14IPayloadParser7PayloadER11Oscl_VectorIS1_16OsclMemAllocatorE
T _ZN17H264PayloadParserC1Ev
T _ZN17H264PayloadParserC2Ev
T _ZN17H264PayloadParserD0Ev
T _ZN17H264PayloadParserD1Ev
T _ZN17H264PayloadParserD2Ev
U _ZN17Oscl_Rb_Tree_Base9rebalanceEP22Oscl_Rb_Tree_Node_BaseRS1_
U _ZN17PVMFNodeInterface15ReportInfoEventERK14PVMFAsyncEvent
U _ZN17PVMFNodeInterface15ReportInfoEventEiPvP11PVInterface
U _ZN17PVMFNodeInterface16ReportErrorEventERK14PVMFAsyncEvent
U _ZN17PVMFNodeInterface16ReportErrorEventEiPvP11PVInterface
U _ZN17PVMFNodeInterface22ReportCmdCompleteEventEiRK11PVMFCmdResp
U _ZN17PVMFNodeInterface8SetStateE23TPVMFNodeInterfaceState
T _ZN17PVMFSMFSPBaseNode11ReleasePortEiR17PVMFPortInterfacePKv
T _ZN17PVMFSMFSPBaseNode11RequestPortEiiPK11OSCL_StringPKv
T _ZN17PVMFSMFSPBaseNode11ThreadLogonEv
T _ZN17PVMFSMFSPBaseNode12ThreadLogoffEv
T _ZN17PVMFSMFSPBaseNode13CancelCommandEiiPKv
T _ZN17PVMFSMFSPBaseNode13GetCapabilityER18PVMFNodeCapability
T _ZN17PVMFSMFSPBaseNode14QueryInterfaceEiRK8OsclUuidRP11PVInterfacePKv
T _ZN17PVMFSMFSPBaseNode17CancelAllCommandsEiPKv
T _ZN17PVMFSMFSPBaseNode4InitEiPKv
T _ZN17PVMFSMFSPBaseNode4StopEiPKv
T _ZN17PVMFSMFSPBaseNode5FlushEiPKv
T _ZN17PVMFSMFSPBaseNode5PauseEiPKv
T _ZN17PVMFSMFSPBaseNode5ResetEiPKv
T _ZN17PVMFSMFSPBaseNode5StartEiPKv
T _ZN17PVMFSMFSPBaseNode7ConnectERK15PVMFNodeSession
T _ZN17PVMFSMFSPBaseNode7ConnectERK19PVMFNodeSessionInfo
T _ZN17PVMFSMFSPBaseNode7PrepareEiPKv
T _ZN17PVMFSMFSPBaseNode8GetPortsEPK14PVMFPortFilter
T _ZN17PVMFSMFSPBaseNode9QueryUUIDEiRK11OSCL_StringR11Oscl_VectorI8OsclUuid16OsclMemAllocatorEbPKv
T _ZN17PVMFSMFSPBaseNodeD0Ev
T _ZN17PVMFSMFSPBaseNodeD1Ev
T _ZN17PVMFSMFSPBaseNodeD2Ev
U _ZN18PVMFCreateKVPUtils20CreateKVPForKSVValueER9__PvmiKvpPKcPvPc
U _ZN18PVMFCreateKVPUtils21CreateKVPForBoolValueER9__PvmiKvpPKcRbPc
U _ZN18PVMFCreateKVPUtils23CreateKVPForUInt32ValueER9__PvmiKvpPKcRjPc
U _ZN18PVMFCreateKVPUtils24CreateKVPForWStringValueER9__PvmiKvpPKcR12OSCL_wStringPcjj
U _ZN18PVMFCreateKVPUtils26CreateKVPForByteArrayValueER9__PvmiKvpPKcPhjPcj
U _ZN18PVMFCreateKVPUtils27CreateKVPForCharStringValueER9__PvmiKvpPKcS3_Pcjj
T _ZN18PVMFMediaLayerNode11ReleasePortEiR17PVMFPortInterfacePKv
T _ZN18PVMFMediaLayerNode11RequestPortEiiPK11OSCL_StringPKv
T _ZN18PVMFMediaLayerNode11ThreadLogonEv
T _ZN18PVMFMediaLayerNode12ThreadLogoffEv
T _ZN18PVMFMediaLayerNode13CancelCommandEiiPKv
T _ZN18PVMFMediaLayerNode13GetCapabilityER18PVMFNodeCapability
T _ZN18PVMFMediaLayerNode14QueryInterfaceEiRK8OsclUuidRP11PVInterfacePKv
T _ZN18PVMFMediaLayerNode17CancelAllCommandsEiPKv
T _ZN18PVMFMediaLayerNode18setInPortReposFlagEP17PVMFPortInterfacej
T _ZN18PVMFMediaLayerNode22getMaxOutPortTimestampEP17PVMFPortInterfaceb
T _ZN18PVMFMediaLayerNode4InitEiPKv
T _ZN18PVMFMediaLayerNode4StopEiPKv
T _ZN18PVMFMediaLayerNode5FlushEiPKv
T _ZN18PVMFMediaLayerNode5PauseEiPKv
T _ZN18PVMFMediaLayerNode5ResetEiPKv
T _ZN18PVMFMediaLayerNode5StartEiPKv
T _ZN18PVMFMediaLayerNode7PrepareEiPKv
T _ZN18PVMFMediaLayerNode8GetPortsEPK14PVMFPortFilter
T _ZN18PVMFMediaLayerNode9QueryUUIDEiRK11OSCL_StringR11Oscl_VectorI8OsclUuid16OsclMemAllocatorEbPKv
T _ZN18PVMFMediaLayerNodeC1Ei
T _ZN18PVMFMediaLayerNodeC2Ei
T _ZN18PVMFMediaLayerNodeD0Ev
T _ZN18PVMFMediaLayerNodeD1Ev
T _ZN18PVMFMediaLayerNodeD2Ev
T _ZN18RTSPGenericMessage5resetEv
U _ZN19MediaClockConverter12update_clockEj
U _ZN19MediaClockConverter13set_timescaleEj
U _ZN19MediaClockConverter25set_clock_other_timescaleEjj
T _ZN19PVMFJBEventNotifier14CancelCallBackERK34PVMFJBEventNotificationRequestInfoj
T _ZN19PVMFJBEventNotifier15RequestCallBackERK34PVMFJBEventNotificationRequestInfojRj
T _ZN19PVMFJBEventNotifier25CancelAllPendingCallbacksE28CLOCK_NOTIFICATION_INTF_TYPEP27PVMFJBEventNotifierObserver
T _ZN19PVMFJBEventNotifier25CancelAllPendingCallbacksEv
T _ZN19PVMFJBEventNotifier27RequestAbsoluteTimeCallBackERK34PVMFJBEventNotificationRequestInfojRj
T _ZN19PVMFJBEventNotifier3NewER14PVMFMediaClockS1_S1_
T _ZN19PVMFJBEventNotifierD1Ev
T _ZN19PVMFJBEventNotifierD2Ev
T _ZN19RTSPIncomingMessage15parseEntityBodyEP18OsclMemoryFragment
T _ZN19RTSPIncomingMessage5resetEv
T _ZN19RTSPOutgoingMessage22retrieveComposedBufferEv
T _ZN19RTSPOutgoingMessage4bindERK19RTSPIncomingMessage
T _ZN19RTSPOutgoingMessage5resetEv
T _ZN19RTSPOutgoingMessage7composeEv
T _ZN19RTSPOutgoingMessage8addFieldEP13StrCSumPtrLenPK9StrPtrLen
T _ZN19RTSPOutgoingMessage8addFieldEP13StrCSumPtrLenPKc
T _ZN20PVMFJitterBufferImpl12SetPlayRangeEibbi
T _ZN20PVMFJitterBufferImpl12SetTimeScaleEj
T _ZN20PVMFJitterBufferImpl14RetrievePacketER13OsclSharedPtrI12PVMFMediaMsgERb
T _ZN20PVMFJitterBufferImpl14SetTrackConfigER21OsclRefCounterMemFrag
T _ZN20PVMFJitterBufferImpl15CreateMediaDataER13OsclSharedPtrI13PVMFMediaDataERS0_I17PVMFMediaDataImplE
T _ZN20PVMFJitterBufferImpl15ProcessCallbackE28CLOCK_NOTIFICATION_INTF_TYPEjPKvi
T _ZN20PVMFJitterBufferImpl15QueueBOSCommandEj
T _ZN20PVMFJitterBufferImpl15addMediaCommandER13OsclSharedPtrI12PVMFMediaMsgE
T _ZN20PVMFJitterBufferImpl16CheckNumElementsEv
T _ZN20PVMFJitterBufferImpl16GetRTPInfoParamsEv
T _ZN20PVMFJitterBufferImpl16RegisterMediaMsgER13OsclSharedPtrI12PVMFMediaMsgE
T _ZN20PVMFJitterBufferImpl17FlushJitterBufferEv
T _ZN20PVMFJitterBufferImpl17GetPendingCommandER13OsclSharedPtrI12PVMFMediaMsgE
T _ZN20PVMFJitterBufferImpl17HasPendingCommandEv
T _ZN20PVMFJitterBufferImpl17IsCallbackPendingE18JB_NOTIFY_CALLBACKPv
T _ZN20PVMFJitterBufferImpl17RegisterCmdPacketER13OsclSharedPtrI12PVMFMediaMsgE
T _ZN20PVMFJitterBufferImpl17ReportJBInfoEventER14PVMFAsyncEvent
T _ZN20PVMFJitterBufferImpl17ResetJitterBufferEv
T _ZN20PVMFJitterBufferImpl17SetAdjustedTSInMSEj
T _ZN20PVMFJitterBufferImpl18IsDelayEstablishedERj
T _ZN20PVMFJitterBufferImpl18PerformFlowControlEb
T _ZN20PVMFJitterBufferImpl18freechunkavailableEPv
T _ZN20PVMFJitterBufferImpl19CanRegisterMediaMsgEv
T _ZN20PVMFJitterBufferImpl19CancelEventCallBackE18JB_NOTIFY_CALLBACKPv
T _ZN20PVMFJitterBufferImpl19SetBroadCastSessionEv
T _ZN20PVMFJitterBufferImpl20CheckForLowWaterMarkEv
T _ZN20PVMFJitterBufferImpl20RequestEventCallBackE18JB_NOTIFY_CALLBACKjPv
T _ZN20PVMFJitterBufferImpl20SetJitterBufferStateE25PVMFJitterBufferDataState
T _ZN20PVMFJitterBufferImpl20getJitterBufferStatsEv
T _ZN20PVMFJitterBufferImpl21CheckForHighWaterMarkEv
T _ZN20PVMFJitterBufferImpl21GetRTPTimeStampOffsetERj
T _ZN20PVMFJitterBufferImpl21RetrievePacketPayloadEv
T _ZN20PVMFJitterBufferImpl22CheckSpaceAvailabilityER13OsclSharedPtrI12PVMFMediaMsgE
T _ZN20PVMFJitterBufferImpl22CheckSpaceAvailabilityEv
T _ZN20PVMFJitterBufferImpl22SetMediaClockConverterEP19MediaClockConverter
T _ZN20PVMFJitterBufferImpl22StreamingSessionPausedEv
T _ZN20PVMFJitterBufferImpl23NotifyCanRetrievePacketEv
T _ZN20PVMFJitterBufferImpl23PrepareForRepositioningEv
T _ZN20PVMFJitterBufferImpl23StreamingSessionStartedEv
T _ZN20PVMFJitterBufferImpl23StreamingSessionStoppedEv
T _ZN20PVMFJitterBufferImpl23peekMaxElementTimeStampEv
T _ZN20PVMFJitterBufferImpl24NotifyFreeSpaceAvailableEv
T _ZN20PVMFJitterBufferImpl24SetInPlaceProcessingModeEb
T _ZN20PVMFJitterBufferImpl24peekNextElementTimeStampEv
T _ZN20PVMFJitterBufferImpl25GenerateAndSendEOSCommandER13OsclSharedPtrI12PVMFMediaMsgERb
T _ZN20PVMFJitterBufferImpl25SetDurationInMilliSecondsEj
T _ZN20PVMFJitterBufferImpl26SetJitterBufferMemPoolInfoEjjjj
T _ZN20PVMFJitterBufferImpl29CancelNotifyCanRetrievePacketEv
T _ZN20PVMFJitterBufferImpl29SetInputPacketHeaderPreparsedEb
T _ZN20PVMFJitterBufferImpl29SetJitterBufferChunkAllocatorEP29OsclMemPoolResizableAllocator
T _ZN20PVMFJitterBufferImpl32LogClientAndEstimatedServerClockERP8PVLogger
T _ZN20PVMFJitterBufferImpl37SetRebufferingThresholdInMilliSecondsEj
T _ZN20PVMFJitterBufferImpl6GetEOSEv
T _ZN20PVMFJitterBufferImpl6SetEOSEb
T _ZN20PVMFJitterBufferImpl7IsEmptyEv
T _ZN20PVMFJitterBufferImpl7setSSRCEj
T _ZN20PVMFJitterBufferImpl8AllocateER13OsclSharedPtrI17PVMFMediaDataImplE
T _ZN20PVMFJitterBufferImpl9ConstructEv
T _ZN20PVMFJitterBufferImplC1ERK31PVMFJitterBufferConstructParams
T _ZN20PVMFJitterBufferImplC2ERK31PVMFJitterBufferConstructParams
T _ZN20PVMFJitterBufferImplD0Ev
T _ZN20PVMFJitterBufferImplD1Ev
T _ZN20PVMFJitterBufferImplD2Ev
T _ZN20PVMFJitterBufferMisc11SetPortSSRCEP17PVMFPortInterfacej
T _ZN20PVMFJitterBufferMisc12ResetSessionEv
T _ZN20PVMFJitterBufferMisc12SetPlayRangeEiibb
T _ZN20PVMFJitterBufferMisc13SetServerInfoER34PVMFJitterBufferFireWallPacketInfo
T _ZN20PVMFJitterBufferMisc16GetEventNotifierEv
T _ZN20PVMFJitterBufferMisc16IsSessionExpiredEv
T _ZN20PVMFJitterBufferMisc17GetMaxMediaDataTSEv
T _ZN20PVMFJitterBufferMisc17SetPortRTCPParamsEP17PVMFPortInterfaceijj
T _ZN20PVMFJitterBufferMisc19SetBroadcastSessionEv
T _ZN20PVMFJitterBufferMisc21SetRateAdaptationInfoEP17PVMFPortInterfacebjj
T _ZN20PVMFJitterBufferMisc22ProcessFeedbackMessageER26PVMFJitterBufferPortParams13OsclSharedPtrI12PVMFMediaMsgE
T _ZN20PVMFJitterBufferMisc22SetMediaClockConverterEP17PVMFPortInterfaceP19MediaClockConverter
T _ZN20PVMFJitterBufferMisc22StreamingSessionPausedEv
T _ZN20PVMFJitterBufferMisc23GetEstimatedServerClockEv
T _ZN20PVMFJitterBufferMisc23PrepareForRepositioningEbj
T _ZN20PVMFJitterBufferMisc23StreamingSessionStartedEv
T _ZN20PVMFJitterBufferMisc23StreamingSessionStoppedEv
T _ZN20PVMFJitterBufferMisc25ResetEstimatedServerClockEv
T _ZN20PVMFJitterBufferMisc25SetSessionDurationExpiredEv
T _ZN20PVMFJitterBufferMisc26SetRTCPIntervalInMicroSecsEj
T _ZN20PVMFJitterBufferMisc27ProcessFirstPacketAfterSeekEv
T _ZN20PVMFJitterBufferMisc28GetEstimatedServerClockValueEv
T _ZN20PVMFJitterBufferMisc28PrepareMediaReceivingChannelEv
T _ZN20PVMFJitterBufferMisc28PurgeElementsWithNPTLessThanER13NptTimeFormat
T _ZN20PVMFJitterBufferMisc28StreamingSessionBufferingEndEv
T _ZN20PVMFJitterBufferMisc29GetActualMediaDataTSAfterSeekEv
T _ZN20PVMFJitterBufferMisc30StreamingSessionBufferingStartEv
T _ZN20PVMFJitterBufferMisc38CancelMediaReceivingChannelPreparationEv
T _ZN20PVMFJitterBufferMisc3NewEP28PVMFJitterBufferMiscObserverR14PVMFMediaClockR11Oscl_VectorIP26PVMFJitterBufferPortParams16OsclMemAllocatorE
T _ZN20PVMFJitterBufferMisc40MediaReceivingChannelPreparationRequiredEb
T _ZN20PVMFJitterBufferMisc5ResetEv
T _ZN20PVMFJitterBufferMisc7PrepareEv
T _ZN20PVMFJitterBufferMiscD0Ev
T _ZN20PVMFJitterBufferMiscD1Ev
T _ZN20PVMFJitterBufferMiscD2Ev
T _ZN20PVMFJitterBufferNode11ReleasePortEiR17PVMFPortInterfacePKv
T _ZN20PVMFJitterBufferNode11RequestPortEiiPK11OSCL_StringPKv
T _ZN20PVMFJitterBufferNode11ThreadLogonEv
T _ZN20PVMFJitterBufferNode12ThreadLogoffEv
T _ZN20PVMFJitterBufferNode13CancelCommandEiiPKv
T _ZN20PVMFJitterBufferNode13GetCapabilityER18PVMFNodeCapability
T _ZN20PVMFJitterBufferNode14QueryInterfaceEiRK8OsclUuidRP11PVInterfacePKv
T _ZN20PVMFJitterBufferNode17CancelAllCommandsEiPKv
T _ZN20PVMFJitterBufferNode4InitEiPKv
T _ZN20PVMFJitterBufferNode4StopEiPKv
T _ZN20PVMFJitterBufferNode5FlushEiPKv
T _ZN20PVMFJitterBufferNode5PauseEiPKv
T _ZN20PVMFJitterBufferNode5ResetEiPKv
T _ZN20PVMFJitterBufferNode5StartEiPKv
T _ZN20PVMFJitterBufferNode7PrepareEiPKv
T _ZN20PVMFJitterBufferNode8GetPortsEPK14PVMFPortFilter
T _ZN20PVMFJitterBufferNode9QueryUUIDEiRK11OSCL_StringR11Oscl_VectorI8OsclUuid16OsclMemAllocatorEbPKv
T _ZN20PVMFJitterBufferNodeC1EiP19JitterBufferFactory
T _ZN20PVMFJitterBufferNodeC2EiP19JitterBufferFactory
T _ZN20PVMFJitterBufferNodeD0Ev
T _ZN20PVMFJitterBufferNodeD1Ev
T _ZN20PVMFJitterBufferNodeD2Ev
T _ZN20RFC3640PayloadParser10RepositionEbjj
T _ZN20RFC3640PayloadParser19GetMinCurrTimestampEv
T _ZN20RFC3640PayloadParser4InitEP9mediaInfo
T _ZN20RFC3640PayloadParser5ParseERKN14IPayloadParser7PayloadER11Oscl_VectorIS1_16OsclMemAllocatorE
T _ZN20RFC3640PayloadParserC1Ev
T _ZN20RFC3640PayloadParserC2Ev
T _ZN20RFC3640PayloadParserD0Ev
T _ZN20RFC3640PayloadParserD1Ev
T _ZN20RFC3640PayloadParserD2Ev
T _ZN21M4VAudioPayloadParser10RepositionEbjj
T _ZN21M4VAudioPayloadParser19GetMinCurrTimestampEv
T _ZN21M4VAudioPayloadParser4InitEP9mediaInfo
T _ZN21M4VAudioPayloadParser5ParseERKN14IPayloadParser7PayloadER11Oscl_VectorIS1_16OsclMemAllocatorE
T _ZN21M4VAudioPayloadParserC1Ev
T _ZN21M4VAudioPayloadParserC2Ev
T _ZN21M4VAudioPayloadParserD0Ev
T _ZN21M4VAudioPayloadParserD1Ev
T _ZN21M4VAudioPayloadParserD2Ev
U _ZN21OsclPriorityQueueBase8pop_heapEPvS0_
U _ZN21OsclPriorityQueueBase9push_heapEPvS0_
U _ZN21OsclSingletonRegistry18lockAndGetInstanceEjRi
U _ZN21OsclSingletonRegistry25registerInstanceAndUnlockEPvjRi
U _ZN21PVMFSimpleMediaBufferC1EPvjP14OsclRefCounter
U _ZN21PVTimeComparisonUtils9IsEarlierEjjRj
U _ZN22PVMFTimebase_Tickcount16GetCurrentTime32ERjRb24PVMFMediaClock_TimeUnits
T _ZN22PVRTCPProtoImplementor17ProcessRTCPReportEP17PVMFPortInterfaceR13OsclSharedPtrI12PVMFMediaMsgE
T _ZN22PVRTCPProtoImplementor17SetPortRTCPParamsEP17PVMFPortInterfaceijj
T _ZN22PVRTCPProtoImplementor23StopRTCPMessageExchangeEv
T _ZN22PVRTCPProtoImplementor24PauseRTCPMessageExchangeEv
T _ZN22PVRTCPProtoImplementor24StartRTCPMessageExchangeEv
T _ZN22PVRTCPProtoImplementor26AddPVRTCPChannelControllerEP23PVRTCPChannelController
T _ZN22PVRTCPProtoImplementor26SetRTCPIntervalInMicroSecsEj
T _ZN22PVRTCPProtoImplementor31RemoveAllRTCPChannelControllersEv
T _ZN22PVRTCPProtoImplementor3NewER14PVMFMediaClockS1_P30PVRTCPProtoImplementorObserverb
T _ZN22PVRTCPProtoImplementor5ResetEv
T _ZN22PVRTCPProtoImplementor7PrepareEb
T _ZN22PVRTCPProtoImplementorD1Ev
T _ZN22PVRTCPProtoImplementorD2Ev
T _ZN22RTPJitterBufferFactory6CreateERK31PVMFJitterBufferConstructParams
T _ZN22RTPJitterBufferFactory7DestroyERP16PVMFJitterBuffer
T _ZN23AmrPayloadParserFactory19createPayloadParserEv
T _ZN23AmrPayloadParserFactory20destroyPayloadParserEP14IPayloadParser
T _ZN23M4VPayloadParserFactory19createPayloadParserEv
T _ZN23M4VPayloadParserFactory20destroyPayloadParserEP14IPayloadParser
U _ZN23PVMFBufferPoolAllocatorC1Eb
T _ZN23PVMFRTPJitterBufferImpl16setRTPInfoParamsE20tagPVMFRTPInfoParamsb
T _ZN23PVMFRTPJitterBufferImpl17ResetJitterBufferEv
T _ZN23PVMFRTPJitterBufferImpl17SetBurstThresholdEf
T _ZN23PVMFRTPJitterBufferImpl18AdjustRTPTimeStampEv
T _ZN23PVMFRTPJitterBufferImpl18GetFirstDataPacketEv
T _ZN23PVMFRTPJitterBufferImpl18IsDelayEstablishedERj
T _ZN23PVMFRTPJitterBufferImpl18IsSeqTsValidForPktEjjR21PVMFJitterBufferStats
T _ZN23PVMFRTPJitterBufferImpl21GetRTPTimeStampOffsetERj
T _ZN23PVMFRTPJitterBufferImpl21SetRTPTimeStampOffsetEj
T _ZN23PVMFRTPJitterBufferImpl21getInterArrivalJitterEv
T _ZN23PVMFRTPJitterBufferImpl23StreamingSessionStartedEv
T _ZN23PVMFRTPJitterBufferImpl24NotifyFreeSpaceAvailableEv
T _ZN23PVMFRTPJitterBufferImpl32PurgeElementsWithSeqNumsLessThanEjj
T _ZN23PVMFRTPJitterBufferImpl34PurgeElementsWithTimestampLessThanEj
T _ZN23PVMFRTPJitterBufferImpl34SetEarlyDecodingTimeInMilliSecondsEj
T _ZN23PVMFRTPJitterBufferImpl3NewERK31PVMFJitterBufferConstructParams
T _ZN23PVMFRTPJitterBufferImplD0Ev
T _ZN23PVMFRTPJitterBufferImplD1Ev
T _ZN23PVMFRTPJitterBufferImplD2Ev
T _ZN24H263PayloadParserFactory19createPayloadParserEv
T _ZN24H263PayloadParserFactory20destroyPayloadParserEP14IPayloadParser
T _ZN24H264PayloadParserFactory19createPayloadParserEv
T _ZN24H264PayloadParserFactory20destroyPayloadParserEP14IPayloadParser
T _ZN24PVMFStreamingManagerNode11ReleasePortEiR17PVMFPortInterfacePKv
T _ZN24PVMFStreamingManagerNode11RequestPortEiiPK11OSCL_StringPKv
T _ZN24PVMFStreamingManagerNode11ThreadLogonEv
T _ZN24PVMFStreamingManagerNode12ThreadLogoffEv
T _ZN24PVMFStreamingManagerNode13CancelCommandEiiPKv
T _ZN24PVMFStreamingManagerNode13GetCapabilityER18PVMFNodeCapability
T _ZN24PVMFStreamingManagerNode14QueryInterfaceEiRK8OsclUuidRP11PVInterfacePKv
T _ZN24PVMFStreamingManagerNode17CancelAllCommandsEiPKv
T _ZN24PVMFStreamingManagerNode3NewEi
T _ZN24PVMFStreamingManagerNode4InitEiPKv
T _ZN24PVMFStreamingManagerNode4StopEiPKv
T _ZN24PVMFStreamingManagerNode5FlushEiPKv
T _ZN24PVMFStreamingManagerNode5PauseEiPKv
T _ZN24PVMFStreamingManagerNode5ResetEiPKv
T _ZN24PVMFStreamingManagerNode5StartEiPKv
T _ZN24PVMFStreamingManagerNode7PrepareEiPKv
T _ZN24PVMFStreamingManagerNode8GetPortsEPK14PVMFPortFilter
T _ZN24PVMFStreamingManagerNode9QueryUUIDEiRK11OSCL_StringR11Oscl_VectorI8OsclUuid16OsclMemAllocatorEbPKv
T _ZN24PVMFStreamingManagerNodeC1Ei
T _ZN24PVMFStreamingManagerNodeC2Ei
T _ZN24PVMFStreamingManagerNodeD0Ev
T _ZN24PVMFStreamingManagerNodeD1Ev
T _ZN24PVMFStreamingManagerNodeD2Ev
U _ZN25PVMFBasicErrorInfoMessageC1EiR8OsclUuidP29PVMFErrorInfoMessageInterface
T _ZN26PVMFRrtspEngineNodeFactory24CreatePVMFRtspEngineNodeEi
T _ZN26PVMFRrtspEngineNodeFactory24DeletePVMFRtspEngineNodeEP17PVMFNodeInterface
T _ZN27RFC3640PayloadParserFactory19createPayloadParserEv
T _ZN27RFC3640PayloadParserFactory20destroyPayloadParserEP14IPayloadParser
T _ZN28M4VAudioPayloadParserFactory19createPayloadParserEv
T _ZN28M4VAudioPayloadParserFactory20destroyPayloadParserEP14IPayloadParser
T _ZN28PVFirewallPacketExchangeImpl28CancelFirewallPacketExchangeEv
T _ZN28PVFirewallPacketExchangeImpl30InitiateFirewallPacketExchangeEv
T _ZN28PVFirewallPacketExchangeImpl36SetRTPSessionInfoForFirewallExchangeERK33RTPSessionInfoForFirewallExchange
T _ZN28PVFirewallPacketExchangeImpl3NewER34PVMFJitterBufferFireWallPacketInfoR19PVMFJBEventNotifierP28PVMFJitterBufferMiscObserver
T _ZN28PVFirewallPacketExchangeImplD1Ev
T _ZN28PVFirewallPacketExchangeImplD2Ev
T _ZN28PVMFSMRTSPUnicastNodeFactory30CreateSMRTSPUnicastNodeFactoryEi
T _ZN28PVMFSMRTSPUnicastNodeFactory30DeleteSMRTSPUnicastNodeFactoryEP17PVMFSMFSPBaseNode
U _ZN29OsclMemPoolResizableAllocator6addRefEv
U _ZN29OsclMemPoolResizableAllocator9removeRefEv
U _ZN29OsclMemPoolResizableAllocatorC1EjjjP13Oscl_DefAlloc
U _ZN30OsclMemPoolFixedChunkAllocator10deallocateEPv
U _ZN30OsclMemPoolFixedChunkAllocator8allocateEj
U _ZN30OsclMemPoolFixedChunkAllocator9removeRefEv
U _ZN30OsclMemPoolFixedChunkAllocatorC1EjjP13Oscl_DefAlloc
U _ZN30OsclMemPoolFixedChunkAllocatorD1Ev
T _ZN31PVMFStreamingManagerNodeFactory26CreateStreamingManagerNodeEi
T _ZN31PVMFStreamingManagerNodeFactory26DeleteStreamingManagerNodeEP17PVMFNodeInterface
T _ZN31SDPMediaParserRegistryPopulater15CleanupRegistryERP22SDPMediaParserRegistry
T _ZN31SDPMediaParserRegistryPopulater16PopulateRegistryEv
U _ZN34PVMFSimpleMediaBufferCombinedAlloc8allocateEj
U _ZN37PvmiCapabilityAndConfigPortFormatImpl20verifyParametersSyncEPvP9__PvmiKvpi
T _ZN38PVMFJitterBufferExtensionInterfaceImpl11setPortSSRCEP17PVMFPortInterfacej
T _ZN38PVMFJitterBufferExtensionInterfaceImpl12setPlayRangeEiibb
T _ZN38PVMFJitterBufferExtensionInterfaceImpl13setPortParamsEP17PVMFPortInterfacejjR21OsclRefCounterMemFragbj
T _ZN38PVMFJitterBufferExtensionInterfaceImpl13setServerInfoER34PVMFJitterBufferFireWallPacketInfo
T _ZN38PVMFJitterBufferExtensionInterfaceImpl14SendBOSMessageEj
T _ZN38PVMFJitterBufferExtensionInterfaceImpl15StopOutputPortsEv
T _ZN38PVMFJitterBufferExtensionInterfaceImpl16StartOutputPortsEv
T _ZN38PVMFJitterBufferExtensionInterfaceImpl16setPortRTPParamsEP17PVMFPortInterfacebjbjbjb
T _ZN38PVMFJitterBufferExtensionInterfaceImpl17ClearJitterBufferEP17PVMFPortInterfacej
T _ZN38PVMFJitterBufferExtensionInterfaceImpl17FlushJitterBufferEv
T _ZN38PVMFJitterBufferExtensionInterfaceImpl17getMaxMediaDataTSEv
T _ZN38PVMFJitterBufferExtensionInterfaceImpl17setBurstThresholdEf
T _ZN38PVMFJitterBufferExtensionInterfaceImpl17setPortRTCPParamsEP17PVMFPortInterfaceijj
T _ZN38PVMFJitterBufferExtensionInterfaceImpl18NotifyOutOfBandEOSEv
T _ZN38PVMFJitterBufferExtensionInterfaceImpl19SetBroadCastSessionEv
T _ZN38PVMFJitterBufferExtensionInterfaceImpl22DisableFireWallPacketsEv
T _ZN38PVMFJitterBufferExtensionInterfaceImpl22setClientPlayBackClockEP14PVMFMediaClock
T _ZN38PVMFJitterBufferExtensionInterfaceImpl23NotifyAutoPauseCompleteEv
T _ZN38PVMFJitterBufferExtensionInterfaceImpl23PrepareForRepositioningEbj
T _ZN38PVMFJitterBufferExtensionInterfaceImpl23UpdateJitterBufferStateEv
T _ZN38PVMFJitterBufferExtensionInterfaceImpl24NotifyAutoResumeCompleteEv
T _ZN38PVMFJitterBufferExtensionInterfaceImpl24PrepareForPlaylistSwitchEv
T _ZN38PVMFJitterBufferExtensionInterfaceImpl25HasSessionDurationExpiredERb
T _ZN38PVMFJitterBufferExtensionInterfaceImpl26SetJitterBufferMemPoolInfoEPK16PvmfPortBaseImpljjjj
T _ZN38PVMFJitterBufferExtensionInterfaceImpl26setRTCPIntervalInMicroSecsEj
T _ZN38PVMFJitterBufferExtensionInterfaceImpl27GetSharedBufferResizeParamsERjS0_
T _ZN38PVMFJitterBufferExtensionInterfaceImpl27SetSharedBufferResizeParamsEjj
T _ZN38PVMFJitterBufferExtensionInterfaceImpl28PurgeElementsWithNPTLessThanER13NptTimeFormat
T _ZN38PVMFJitterBufferExtensionInterfaceImpl28SetInputMediaHeaderPreParsedEP17PVMFPortInterfaceb
T _ZN38PVMFJitterBufferExtensionInterfaceImpl29SetJitterBufferChunkAllocatorEP29OsclMemPoolResizableAllocatorPK17PVMFPortInterface
T _ZN38PVMFJitterBufferExtensionInterfaceImpl29getActualMediaDataTSAfterSeekEv
T _ZN38PVMFJitterBufferExtensionInterfaceImpl34setEarlyDecodingTimeInMilliSecondsEj
T _ZN38PVMFJitterBufferExtensionInterfaceImpl34setPlayBackThresholdInMilliSecondsEj
T _ZN38PVMFJitterBufferExtensionInterfaceImpl36getMaxInactivityDurationForMediaInMsERj
T _ZN38PVMFJitterBufferExtensionInterfaceImpl36setMaxInactivityDurationForMediaInMsEj
T _ZN38PVMFJitterBufferExtensionInterfaceImpl37getJitterBufferDurationInMilliSecondsERj
T _ZN38PVMFJitterBufferExtensionInterfaceImpl37setJitterBufferDurationInMilliSecondsEj
T _ZN38PVMFJitterBufferExtensionInterfaceImpl49getJitterBufferRebufferingThresholdInMilliSecondsERj
T _ZN38PVMFJitterBufferExtensionInterfaceImpl49setJitterBufferRebufferingThresholdInMilliSecondsEj
T _ZN38PVRTSPEngineNodeExtensionInterfaceImpl10SetSDPInfoER13OsclSharedPtrI7SDPInfoER11Oscl_VectorI10StreamInfo16OsclMemAllocatorE
T _ZN38PVRTSPEngineNodeExtensionInterfaceImpl12GetRtspProxyER11OSCL_StringRj
T _ZN38PVRTSPEngineNodeExtensionInterfaceImpl12GetUserAgentER12OSCL_wString
T _ZN38PVRTSPEngineNodeExtensionInterfaceImpl12SetRdtParserEP14IPayloadParser
T _ZN38PVRTSPEngineNodeExtensionInterfaceImpl12SetRtspProxyER11OSCL_Stringj
T _ZN38PVRTSPEngineNodeExtensionInterfaceImpl13GetServerInfoER26PVRTSPEngineNodeServerInfo
T _ZN38PVRTSPEngineNodeExtensionInterfaceImpl13GetStreamInfoER11Oscl_VectorI10StreamInfo16OsclMemAllocatorE
T _ZN38PVRTSPEngineNodeExtensionInterfaceImpl13SetSessionURLER12OSCL_wString
T _ZN38PVRTSPEngineNodeExtensionInterfaceImpl14GetRTSPTimeOutERi
T _ZN38PVRTSPEngineNodeExtensionInterfaceImpl14IsRdtTransportEv
T _ZN38PVRTSPEngineNodeExtensionInterfaceImpl14SetRTSPTimeOutEi
T _ZN38PVRTSPEngineNodeExtensionInterfaceImpl14queryInterfaceERK8OsclUuidRP11PVInterface
T _ZN38PVRTSPEngineNodeExtensionInterfaceImpl16SetStreamingTypeE19PVRTSPStreamingType
T _ZN38PVRTSPEngineNodeExtensionInterfaceImpl18GetActualPlayRangeER13RtspRangeType
T _ZN38PVRTSPEngineNodeExtensionInterfaceImpl18GetKeepAliveMethodERiRbS1_
T _ZN38PVRTSPEngineNodeExtensionInterfaceImpl18SetPortRdtStreamIdEP17PVMFPortInterfacei
T _ZN38PVRTSPEngineNodeExtensionInterfaceImpl19SetClientParametersER12OSCL_wStringS1_S1_
T _ZN38PVRTSPEngineNodeExtensionInterfaceImpl19SetRequestPlayRangeERK13RtspRangeType
T _ZN38PVRTSPEngineNodeExtensionInterfaceImpl26SetKeepAliveMethod_timeoutEi
T _ZN38PVRTSPEngineNodeExtensionInterfaceImpl26SetRealChallengeCalculatorEP17IRealChallengeGen
T _ZN38PVRTSPEngineNodeExtensionInterfaceImpl27SetAuthenticationParametersER12OSCL_wStringS1_S1_S1_S1_S1_
T _ZN38PVRTSPEngineNodeExtensionInterfaceImpl29UpdateSessionCompletionStatusEb
T _ZN38PVRTSPEngineNodeExtensionInterfaceImpl36SetKeepAliveMethod_use_SET_PARAMETEREb
T _ZN38PVRTSPEngineNodeExtensionInterfaceImpl37SetKeepAliveMethod_keep_alive_in_playEb
T _ZN38PVRTSPEngineNodeExtensionInterfaceImpl6GetSDPER21OsclRefCounterMemFrag
T _ZN38PVRTSPEngineNodeExtensionInterfaceImpl6addRefEv
T _ZN38PVRTSPEngineNodeExtensionInterfaceImpl9removeRefEv
U _ZN7NTPTime19set_to_current_timeEv
U _ZN7OsclDNS13GetHostByNameEPcR18OsclNetworkAddressi
U _ZN7OsclDNS19CancelGetHostByNameEv
U _ZN7OsclDNS4NewLER13Oscl_DefAllocR14OsclSocketServR15OsclDNSObserverj
T _ZN7RTCP_RR16get_report_blockEj
T _ZN7SDPInfo12getMediaInfoEi
T _ZN7SDPInfo13getMediaArrayEv
T _ZN7SDPInfo14copyFmDefMediaEP9mediaInfo
T _ZN7SDPInfo14getSdpFilenameERj
T _ZN7SDPInfo14getSessionInfoEv
T _ZN7SDPInfo14setSDPFilenameER12OSCL_wString
T _ZN7SDPInfo15getSegmentCountEv
T _ZN7SDPInfo15isSegmentActiveEi
T _ZN7SDPInfo15setSegmentCountEi
T _ZN7SDPInfo16setSegmentActiveEib
T _ZN7SDPInfo18getNumMediaObjectsEv
T _ZN7SDPInfo19getMediaObjectIndexEv
T _ZN7SDPInfo20getPreferedMediaInfoEi
T _ZN7SDPInfo21getMediaInfoBasedOnIDEj
T _ZN7SDPInfo21getMediaInfoInSegmentEiR11Oscl_VectorIP9mediaInfo16OsclMemAllocatorE
T _ZN7SDPInfo23freeLastMediaInfoObjectEv
T _ZN7SDPInfo24getPreferedPayloadNumberEi
T _ZN7SDPInfo26setSegmentPayloadOrderPrefEiPii
T _ZN7SDPInfo27isPayloadOrderPreferenceSetEi
T _ZN7SDPInfo30getMediaInfoBasedOnDependsOnIDEj
T _ZN7SDPInfo38IncrementAlternateMediaInfoVectorIndexEv
T _ZN7SDPInfo5allocEib
T _ZN7SDPInfo5resetEv
T _ZN7SDPInfo7deallocEPv
T _ZN7SDPInfoC1ERKS_
T _ZN7SDPInfoC1Ev
T _ZN7SDPInfoC2ERKS_
T _ZN7SDPInfoC2Ev
T _ZN7SDPInfoD1Ev
T _ZN7SDPInfoD2Ev
U _ZN8CHeapRep10append_repERPS_R13Oscl_DefAllocPKcj
U _ZN8CHeapRep10append_repERPS_R13Oscl_DefAllocPKwj
U _ZN8CHeapRep10remove_refER13Oscl_DefAlloc
U _ZN8CHeapRep6assignERPS_S0_R13Oscl_DefAlloc
U _ZN8CHeapRep7set_repERPS_R13Oscl_DefAllocPKcj
U _ZN8CHeapRep7set_repERPS_R13Oscl_DefAllocPKwj
U _ZN8PVLogger15GetLoggerObjectEPKc
U _ZN9CStackRep3setEPKcj
U _ZN9CStackRep3setEPKwj
U _ZN9CStackRep6appendEPKcj
U _ZN9CStackRep6appendEPKwj
U _ZN9OsclError11LeaveIfNullEPv
U _ZN9OsclError5LeaveEi
U _ZN9Oscl_File13SetFileHandleEP14OsclFileHandle
U _ZN9Oscl_File14SetPVCacheSizeEj
U _ZN9Oscl_File16SetLoggingEnableEb
U _ZN9Oscl_File28SetSummaryStatsLoggingEnableEb
U _ZN9Oscl_File4OpenEPKcjR15Oscl_FileServer
U _ZN9Oscl_File4OpenEPKwjR15Oscl_FileServer
U _ZN9Oscl_File4ReadEPvjj
U _ZN9Oscl_File4SeekElNS_9seek_typeE
U _ZN9Oscl_File4TellEv
U _ZN9Oscl_File5CloseEv
U _ZN9Oscl_File5FlushEv
U _ZN9Oscl_File5WriteEPKvjj
U _ZN9Oscl_FileC1Ev
U _ZN9Oscl_FileD1Ev
T _ZN9RTCP_BaseD0Ev
T _ZN9RTCP_BaseD1Ev
T _ZN9RTCP_BaseD2Ev
U _ZN9TimeValue21get_rfc822_gmtime_strEiPc
U _ZNK11OSCL_String11is_writableEv
U _ZNK11OSCL_String4hashEv
U _ZNK11OSCL_String4readEj
U _ZNK11OSCL_StringeqEPKc
U _ZNK12OSCL_wString11is_writableEv
U _ZNK12OSCL_wString4hashEv
U _ZNK12OSCL_wString4readEj
U _ZNK12PVActiveBase7IsAddedEv
U _ZNK14PVMFFormatType12isCompressedEv
U _ZNK15OsclTimerObject6StatusEv
U _ZNK16OsclActiveObject6IsBusyEv
U _ZNK16PvmfPortBaseImpl10GetPortTagEv
T _ZNK18RTSPGenericMessage10queryFieldERK13StrCSumPtrLen
U _ZNK19MediaClockConverter16get_converted_tsEj
T _ZNK20PVMFJitterBufferImpl11GetMimeTypeEv
T _ZNK20PVMFJitterBufferImpl12GetTimeScaleEv
T _ZNK20PVMFJitterBufferImpl15GetNumOfPacketsER13OsclSharedPtrI12PVMFMediaMsgE
T _ZNK20PVMFJitterBufferImpl26GetJitterBufferMemPoolInfoERjS0_S0_S0_
T _ZNK20PVMFJitterBufferImpl7GetSSRCEv
T _ZNK20PVMFJitterBufferImpl8GetStateEv
T _ZNK20PVMFJitterBufferMisc21PlayStopTimeAvailableEv
T _ZNK22PVRTCPProtoImplementor24GetRTCPChannelControllerEPK17PVMFPortInterface
U _ZNK29OsclMemPoolResizableAllocator13getBufferSizeEv
T _ZNK38PVMFJitterBufferExtensionInterfaceImpl26GetJitterBufferMemPoolInfoEPK16PvmfPortBaseImplRjS3_S3_S3_
D _ZTT20PVMFJitterBufferNode
V _ZTT27PVMFMediaClockStateObserver
V _ZTT30PVMFMediaClockNotificationsObs
D _ZTT38NonDecClkNotificationInterfaceObserver
D _ZTT45EstimatedSrvrClkNotificationInterfaceObserver
D _ZTT46ClientPlaybackClkNotificationInterfaceObserver
V _ZTV10Oscl_Alloc
V _ZTV11Oscl_TAllocI12PVMFRTSPPort16OsclMemAllocatorE
V _ZTV11Oscl_TAllocI15OSCL_HeapStringI16OsclMemAllocatorES1_E
V _ZTV11Oscl_TAllocI17Oscl_Rb_Tree_NodeI9Oscl_PairIK15OSCL_HeapStringI16OsclMemAllocatorEP21IPayloadParserFactoryEES3_E
V _ZTV11Oscl_TAllocI17Oscl_Rb_Tree_NodeI9Oscl_PairIK15OSCL_HeapStringI16OsclMemAllocatorEP21SDPMediaParserFactoryEES3_E
V _ZTV11Oscl_TAllocI18BinaryFileAppender16OsclMemAllocatorE
V _ZTV11Oscl_TAllocI18PVMFMediaLayerPort16OsclMemAllocatorE
V _ZTV11Oscl_TAllocI20PVMFJitterBufferPort16OsclMemAllocatorE
V _ZTV11Oscl_TAllocI21PayloadParserRegistry16OsclMemAllocatorE
V _ZTV11Oscl_TAllocI22SDPMediaParserRegistry16OsclMemAllocatorE
V _ZTV11Oscl_TAllocI8OsclUuid16OsclMemAllocatorE
V _ZTV11Oscl_TAllocIN9OsclTimerI16OsclMemAllocatorE11_TimerEntryES1_E
V _ZTV11Oscl_VectorI10StreamInfo16OsclMemAllocatorE
V _ZTV11Oscl_VectorI13OsclSharedPtrI13PVMFMediaDataE16OsclMemAllocatorE
V _ZTV11Oscl_VectorI13PVMFSMFSPInfo16OsclMemAllocatorE
V _ZTV11Oscl_VectorI13PVMFTrackInfo16OsclMemAllocatorE
V _ZTV11Oscl_VectorI14PVMFFormatType16OsclMemAllocatorE
V _ZTV11Oscl_VectorI15OSCL_HeapStringI16OsclMemAllocatorES1_E
V _ZTV11Oscl_VectorI15PVMFNodeSession16OsclMemAllocatorE
V _ZTV11Oscl_VectorI16PVMFPortActivity16OsclMemAllocatorE
V _ZTV11Oscl_VectorI17PVMFRTSPTrackInfo16OsclMemAllocatorE
V _ZTV11Oscl_VectorI17mime_payload_pair16OsclMemAllocatorE
V _ZTV11Oscl_VectorI18OsclMemoryFragment16OsclMemAllocatorE
V _ZTV11Oscl_VectorI19PVRTSPEngineCommand16OsclMemAllocatorE
V _ZTV11Oscl_VectorI20tagPVMFRTPInfoParams16OsclMemAllocatorE
V _ZTV11Oscl_VectorI21MediaCommandMsgHolder16OsclMemAllocatorE
V _ZTV11Oscl_VectorI21OsclRefCounterMemFrag16OsclMemAllocatorE
V _ZTV11Oscl_VectorI21OsclRefCounterMemFrag30OsclMemPoolFixedChunkAllocatorE
V _ZTV11Oscl_VectorI22PVMFGenericNodeCommandI16OsclMemAllocatorES1_E
V _ZTV11Oscl_VectorI23PVMFSMTrackMetaDataInfo16OsclMemAllocatorE
V _ZTV11Oscl_VectorI24PVMFSMFSPBaseNodeCommand16OsclMemAllocatorE
V _ZTV11Oscl_VectorI25PVMFMediaLayerNodeCommand16OsclMemAllocatorE
V _ZTV11Oscl_VectorI27PVMFJitterBufferNodeCommand16OsclMemAllocatorE
V _ZTV11Oscl_VectorI27PVMFMediaLayerPortContainer16OsclMemAllocatorE
V _ZTV11Oscl_VectorI27PVMFSMFSPChildNodeContainer16OsclMemAllocatorE
V _ZTV11Oscl_VectorI28PVH264PayLoadOutputMediaData16OsclMemAllocatorE
V _ZTV11Oscl_VectorI33RTPSessionInfoForFirewallExchange16OsclMemAllocatorE
V _ZTV11Oscl_VectorI8OsclUuid16OsclMemAllocatorE
V _ZTV11Oscl_VectorI9__PvmiKvp16OsclMemAllocatorE
V _ZTV11Oscl_VectorIN14IPayloadParser7PayloadE16OsclMemAllocatorE
V _ZTV11Oscl_VectorIN16PVRTSPEngineNode12_SocketEventE16OsclMemAllocatorE
V _ZTV11Oscl_VectorIN17SequenceGenerator18StreamSequenceInfoE16OsclMemAllocatorE
V _ZTV11Oscl_VectorIN20PVMFJitterBufferMisc10RTCPParamsE16OsclMemAllocatorE
V _ZTV11Oscl_VectorIN20PVMFJitterBufferMisc19RateAdapatationInfoE16OsclMemAllocatorE
V _ZTV11Oscl_VectorIP11PVInterface16OsclMemAllocatorE
V _ZTV11Oscl_VectorIP12PVMFRTSPPort16OsclMemAllocatorE
V _ZTV11Oscl_VectorIP17PVMFPortInterface16OsclMemAllocatorE
V _ZTV11Oscl_VectorIP18PVMFMediaLayerPort16OsclMemAllocatorE
V _ZTV11Oscl_VectorIP19RTSPOutgoingMessage16OsclMemAllocatorE
V _ZTV11Oscl_VectorIP20PVMFJitterBufferPort16OsclMemAllocatorE
V _ZTV11Oscl_VectorIP23PVRTCPChannelController16OsclMemAllocatorE
V _ZTV11Oscl_VectorIP25PVFirewallPacketExchanger16OsclMemAllocatorE
V _ZTV11Oscl_VectorIP26PVMFJitterBufferPortParams16OsclMemAllocatorE
V _ZTV11Oscl_VectorIP27PayloadSpecificInfoTypeBase16OsclMemAllocatorE
V _ZTV11Oscl_VectorIP30PVMFJBEventNotifierRequestInfo16OsclMemAllocatorE
V _ZTV11Oscl_VectorIP9mediaInfo16OsclMemAllocatorE
V _ZTV11Oscl_VectorIPN9OsclTimerI16OsclMemAllocatorE11_TimerEntryES1_E
V _ZTV11Oscl_VectorIPh16OsclMemAllocatorE
V _ZTV11Oscl_VectorIi16OsclMemAllocatorE
V _ZTV11Oscl_VectorIj16OsclMemAllocatorE
V _ZTV11Oscl_VectorIt16OsclMemAllocatorE
V _ZTV11Oscl_VectorIy16OsclMemAllocatorE
V _ZTV11PVInterface
U _ZTV11PVMFCmdResp
V _ZTV12Oscl_Dealloc
V _ZTV12PVMFPortIter
D _ZTV12PVMFRTSPPort
V _ZTV12PVMFTimebase
D _ZTV12RTCP_Decoder
V _ZTV12RTCP_Encoder
V _ZTV13CallbackTimerI16OsclMemAllocatorE
V _ZTV13OsclSharedPtrI12PVMFMediaCmdE
V _ZTV13OsclSharedPtrI12PVMFMediaMsgE
V _ZTV13OsclSharedPtrI13PVMFMediaDataE
V _ZTV13OsclSharedPtrI16OsclMemAllocatorE
V _ZTV13OsclSharedPtrI16PVLoggerAppenderE
V _ZTV13OsclSharedPtrI17PVMFMediaDataImplE
V _ZTV13OsclSharedPtrI7SDPInfoE
V _ZTV13OsclSharedPtrIhE
V _ZTV13Oscl_DefAlloc
V _ZTV13PVMFEventBase
V _ZTV13PVMFTrackInfo
D _ZTV13PvmfRtcpTimer
V _ZTV13VirtualBufferIhE
V _ZTV13_OsclHeapBase
V _ZTV13aac_mediaInfo
V _ZTV13amr_mediaInfo
V _ZTV13m4v_mediaInfo
V _ZTV14IPayloadParser
V _ZTV14OsclBinOStream
V _ZTV14OsclRefCounter
U _ZTV14PVMFAsyncEvent
V _ZTV14PVMFFormatType
V _ZTV14PVMFPortVectorI12PVMFRTSPPort16OsclMemAllocatorE
V _ZTV14PVMFPortVectorI18PVMFMediaLayerPort16OsclMemAllocatorE
V _ZTV14PVMFPortVectorI20PVMFJitterBufferPort16OsclMemAllocatorE
V _ZTV14h263_mediaInfo
V _ZTV14h264_mediaInfo
V _ZTV14pcma_mediaInfo
V _ZTV14pcmu_mediaInfo
V _ZTV15OSCL_HeapStringI16OsclMemAllocatorE
V _ZTV15OsclDNSObserver
V _ZTV15PVInterfaceImplI16OsclMemAllocatorE
D _ZTV16AMRPayloadParser
D _ZTV16M4VPayloadParser
V _ZTV16OSCL_StackStringILj128EE
V _ZTV16OSCL_StackStringILj15EE
V _ZTV16OSCL_StackStringILj16EE
V _ZTV16OSCL_StackStringILj20EE
V _ZTV16OSCL_StackStringILj256EE
V _ZTV16OSCL_StackStringILj32EE
V _ZTV16OSCL_StackStringILj64EE
V _ZTV16OSCL_StackStringILj8EE
V _ZTV16OSCL_wHeapStringI16OsclMemAllocatorE
V _ZTV16OsclExclusivePtrI16PVMFJitterBufferE
V _ZTV16OsclExclusivePtrI17PVMFNodeInterfaceE
V _ZTV16OsclExclusivePtrI18PVMFMediaLayerPortE
V _ZTV16OsclExclusivePtrI20PVMFJitterBufferPortE
V _ZTV16OsclExclusivePtrI7RTCP_RRE
V _ZTV16OsclMemAllocator
V _ZTV16OsclRefCounterDA
V _ZTV16OsclRefCounterSAI20PVMFSMSharedPtrAllocI7SDPInfoEE
V _ZTV16OsclRefCounterSAI23SDPAllocDestructDeallocIhEE
V _ZTV16OsclRefCounterSAI26RTSPNodeMemDestructDeallocE
V _ZTV16OsclRefCounterSAI27OsclMemAllocDestructDeallocIhEE
V _ZTV16OsclRefCounterSAI39PVMFMediaLayerNodeLoggerDestructDeallocE
V _ZTV16Oscl_Vector_Base
V _ZTV16PVLoggerAppender
V _ZTV16PVMFJitterBuffer
D _ZTV16PVRTSPEngineNode
D _ZTV17H263PayloadParser
D _ZTV17H264PayloadParser
V _ZTV17OSCL_wStackStringILj8EE
V _ZTV17OsclPriorityQueueI28PVH264PayLoadOutputMediaData16OsclMemAllocator11Oscl_VectorIS0_S1_E39PVH264PayLoadOutputMediaDataCompareLessE
V _ZTV17OsclPriorityQueueIP19RTSPOutgoingMessage16OsclMemAllocator11Oscl_VectorIS1_S2_E31PVRTSPGenericMessageCompareLessE
V _ZTV17OsclTimerObserver
V _ZTV17PVMFMediaDataImpl
U _ZTV17PVMFNodeInterface
V _ZTV17PVMFRTSPTrackInfo
D _ZTV17PVMFSMFSPBaseNode
D _ZTV17PVMFSMFSPRegistry
D _ZTV17SequenceGenerator
V _ZTV17rfc3640_mediaInfo
V _ZTV18BinaryFileAppender
V _ZTV18OsclSocketObserver
V _ZTV18PVMFMediaFragGroupI16OsclMemAllocatorE
V _ZTV18PVMFMediaFragGroupI30OsclMemPoolFixedChunkAllocatorE
D _ZTV18PVMFMediaLayerNode
D _ZTV18PVMFMediaLayerPort
V _ZTV19JitterBufferFactory
V _ZTV19OsclDestructDealloc
V _ZTV19PVRTSPEngineCommand
D _ZTV20PVMFJitterBufferImpl
D _ZTV20PVMFJitterBufferMisc
D _ZTV20PVMFJitterBufferNode
D _ZTV20PVMFJitterBufferPort
V _ZTV20PVMFSMSharedPtrAllocI7SDPInfoE
D _ZTV20RFC3640PayloadParser
V _ZTV21CallbackTimerObserver
V _ZTV21IPayloadParserFactory
D _ZTV21M4VAudioPayloadParser
V _ZTV21OsclPriorityQueueBase
V _ZTV21PVMFCPMStatusObserver
D _ZTV21PVMFSMRTSPUnicastNode
V _ZTV21PVMFSourceContextData
V _ZTV21PayloadParserRegistry
V _ZTV21PvmfRtcpTimerObserver
D _ZTV21SDPAACMediaInfoParser
D _ZTV21SDPAMRMediaInfoParser
V _ZTV21SDPMediaParserFactory
V _ZTV21still_image_mediaInfo
V _ZTV22Oscl_Opaque_Type_Alloc
V _ZTV22PVMFGenericNodeCommandI16OsclMemAllocatorE
U _ZTV22PVMFTimebase_Tickcount
D _ZTV22PVRTCPProtoImplementor
D _ZTV22RTPJitterBufferFactory
V _ZTV22SDPBaseMediaInfoParser
D _ZTV22SDPH263MediaInfoParser
D _ZTV22SDPH264MediaInfoParser
V _ZTV22SDPMediaParserRegistry
D _ZTV22SDPPCMAMediaInfoParser
D _ZTV22SDPPCMUMediaInfoParser
D _ZTV23AmrPayloadParserFactory
D _ZTV23M4VPayloadParserFactory
V _ZTV23OsclBinOStreamBigEndian
V _ZTV23PVMFPortActivityHandler
D _ZTV23PVMFRTPJitterBufferImpl
V _ZTV23PVMFStreamingDataSource
D _ZTV23PVRTCPChannelController
V _ZTV23PvmiCapabilityAndConfig
V _ZTV23SDPAllocDestructDeallocIhE
D _ZTV23SDPMPEG4MediaInfoParser
V _ZTV23StreamingNodesInterface
D _ZTV24H263PayloadParserFactory
D _ZTV24H264PayloadParserFactory
D _ZTV24H264PayloadParserUtility
V _ZTV24OsclAllocDestructDealloc
V _ZTV24Oscl_Opaque_Type_Compare
V _ZTV24PVMFDynamicCircularArrayI16OsclMemAllocatorE
V _ZTV24PVMFFSPRegistryInterface
V _ZTV24PVMFJitterBufferObserver
D _ZTV24PVMFSMFSPBaseNodeCommand
V _ZTV24PVMFSourceContextDataPVR
D _ZTV24PVMFStreamingManagerNode
D _ZTV24SDPAACMediaParserFactory
D _ZTV24SDPAMRMediaParserFactory
V _ZTV25PVMFMediaLayerNodeCommand
V _ZTV25PVMFNodeCmdStatusObserver
V _ZTV25PVMFNodeInfoEventObserver
D _ZTV25SDPH263MediaParserFactory
D _ZTV25SDPH264MediaParserFactory
D _ZTV25SDPPCMAMediaParserFactory
D _ZTV25SDPPCMUMediaParserFactory
D _ZTV25SDPRFC3640MediaInfoParser
V _ZTV26AacPayloadSpecificInfoType
V _ZTV26AmrPayloadSpecificInfoType
V _ZTV26M4vPayloadSpecificInfoType
V _ZTV26NodeSharedLibraryInterface
V _ZTV26OsclSharedLibraryInterface
V _ZTV26PVMFNodeErrorEventObserver
V _ZTV26PVRTSPEngineNodeServerInfo
D _ZTV26PvmfJBSessionDurationTimer
V _ZTV26RTSPNodeMemDestructDealloc
D _ZTV26SDPMPEG4MediaParserFactory
V _ZTV27H263PayloadSpecificInfoType
V _ZTV27H264PayloadSpecificInfoType
V _ZTV27OsclMemAllocDestructDeallocIhE
V _ZTV27PVMFJBEventNotifierObserver
V _ZTV27PVMFJitterBufferNodeCommand
V _ZTV27PVMFMediaClockStateObserver
V _ZTV27PVMFMediaLayerPortContainer
V _ZTV27PVMFSMFSPChildNodeContainer
V _ZTV27PVMFSourceContextDataCommon
V _ZTV27PayloadSpecificInfoTypeBase
V _ZTV27PcmaPayloadSpecificInfoType
V _ZTV27PcmuPayloadSpecificInfoType
D _ZTV27RFC3640PayloadParserFactory
D _ZTV28M4VAudioPayloadParserFactory
D _ZTV28PVFirewallPacketExchangeImpl
V _ZTV28PVMFJitterBufferMiscObserver
D _ZTV28SDPRFC3640MediaParserFactory
D _ZTV28SDPStillImageMediaInfoParser
D _ZTV29H264PayloadParserUtilityForFU
V _ZTV29PVMFCPMPluginLicenseInterface
V _ZTV30PVMFMediaClockNotificationsObs
V _ZTV30PVMFMetadataExtensionInterface
V _ZTV30PVMFSourceContextDataStreaming
V _ZTV30PVRTCPProtoImplementorObserver
V _ZTV30RFC3640PayloadSpecificInfoType
D _ZTV31H264PayloadParserUtilityForMTAP
D _ZTV31H264PayloadParserUtilityForNALU
D _ZTV31H264PayloadParserUtilityForSTAP
V _ZTV31PVMFMediaFragGroupCombinedAllocI16OsclMemAllocatorE
V _ZTV31PVMFMediaFragGroupCombinedAllocI30OsclMemPoolFixedChunkAllocatorE
V _ZTV31PVRTCPChannelControllerObserver
V _ZTV31PvmfAssetInfo3GPPLocationStruct
D _ZTV31SDPStillImageMediaParserFactory
V _ZTV32PVMFResizableSimpleMediaMsgAlloc
V _ZTV32PVMFSourceContextDataDownloadPVX
V _ZTV33PVMFSourceContextDataDownloadHTTP
V _ZTV33PVMFSourceContextDataPacketSource
V _ZTV34PVMFJitterBufferExtensionInterface
V _ZTV34PVMFJitterBufferFireWallPacketInfo
V _ZTV34PVMFMediaClockNotificationsObsBase
V _ZTV34PVMFSimpleMediaBufferCombinedAlloc
V _ZTV34PVRTSPEngineNodeExtensionInterface
V _ZTV34PvmfJBSessionDurationTimerObserver
V _ZTV36PVMFMediaLayerNodeExtensionInterface
V _ZTV36PVMFTrackSelectionExtensionInterface
U _ZTV37PvmiCapabilityAndConfigPortFormatImpl
D _ZTV38NonDecClkNotificationInterfaceObserver
V _ZTV38OsclMemPoolFixedChunkAllocatorObserver
V _ZTV38OsclMemPoolResizableAllocatorCleanupDA
D _ZTV38PVMFJitterBufferExtensionInterfaceImpl
D _ZTV38PVRTSPEngineNodeExtensionInterfaceImpl
V _ZTV38PvmfDataSourcePlaybackControlInterface
V _ZTV39PVMFMediaLayerNodeLoggerDestructDealloc
D _ZTV40PVMFMediaLayerNodeExtensionInterfaceImpl
D _ZTV45EstimatedSrvrClkNotificationInterfaceObserver
D _ZTV46ClientPlaybackClkNotificationInterfaceObserver
V _ZTV46PVMFDataSourceInitializationExtensionInterface
V _ZTV8HeapBase
V _ZTV9OsclTimerI16OsclMemAllocatorE
D _ZTV9RTCP_Base
V _ZTV9mediaInfo
T _ZThn132_N17PVMFSMFSPBaseNodeD0Ev
T _ZThn132_N17PVMFSMFSPBaseNodeD1Ev
T _ZThn132_N24PVMFStreamingManagerNodeD0Ev
T _ZThn132_N24PVMFStreamingManagerNodeD1Ev
T _ZThn136_N16PVRTSPEngineNode17HandleSocketEventEi12TPVSocketFxn14TPVSocketEventi
T _ZThn136_N16PVRTSPEngineNodeD0Ev
T _ZThn136_N16PVRTSPEngineNodeD1Ev
T _ZThn136_N18PVMFMediaLayerNodeD0Ev
T _ZThn136_N18PVMFMediaLayerNodeD1Ev
T _ZThn136_N20PVMFJitterBufferNodeD0Ev
T _ZThn136_N20PVMFJitterBufferNodeD1Ev
T _ZThn140_N16PVRTSPEngineNode14HandleDNSEventEi9TPVDNSFxn11TPVDNSEventi
T _ZThn140_N16PVRTSPEngineNodeD0Ev
T _ZThn140_N16PVRTSPEngineNodeD1Ev
T _ZThn140_N17PVMFSMFSPBaseNodeD0Ev
T _ZThn140_N17PVMFSMFSPBaseNodeD1Ev
T _ZThn140_N18PVMFMediaLayerNodeD0Ev
T _ZThn140_N18PVMFMediaLayerNodeD1Ev
T _ZThn144_N16PVRTSPEngineNode15TimeoutOccurredEii
T _ZThn144_N16PVRTSPEngineNodeD0Ev
T _ZThn144_N16PVRTSPEngineNodeD1Ev
T _ZThn144_N17PVMFSMFSPBaseNodeD0Ev
T _ZThn144_N17PVMFSMFSPBaseNodeD1Ev
T _ZThn144_N18PVMFMediaLayerNodeD0Ev
T _ZThn144_N18PVMFMediaLayerNodeD1Ev
T _ZThn148_N16PVRTSPEngineNodeD0Ev
T _ZThn148_N16PVRTSPEngineNodeD1Ev
T _ZThn148_N17PVMFSMFSPBaseNodeD0Ev
T _ZThn148_N17PVMFSMFSPBaseNodeD1Ev
T _ZThn148_N20PVMFJitterBufferNodeD0Ev
T _ZThn148_N20PVMFJitterBufferNodeD1Ev
T _ZThn152_N17PVMFSMFSPBaseNodeD0Ev
T _ZThn152_N17PVMFSMFSPBaseNodeD1Ev
T _ZThn156_N17PVMFSMFSPBaseNodeD0Ev
T _ZThn156_N17PVMFSMFSPBaseNodeD1Ev
T _ZThn160_N17PVMFSMFSPBaseNodeD0Ev
T _ZThn160_N17PVMFSMFSPBaseNodeD1Ev
T _ZThn164_N17PVMFSMFSPBaseNodeD0Ev
T _ZThn164_N17PVMFSMFSPBaseNodeD1Ev
T _ZThn168_N17PVMFSMFSPBaseNodeD0Ev
T _ZThn168_N17PVMFSMFSPBaseNodeD1Ev
T _ZThn172_N17PVMFSMFSPBaseNodeD0Ev
T _ZThn172_N17PVMFSMFSPBaseNodeD1Ev
T _ZThn24_N38PVMFJitterBufferExtensionInterfaceImpl11setPortSSRCEP17PVMFPortInterfacej
T _ZThn24_N38PVMFJitterBufferExtensionInterfaceImpl12setPlayRangeEiibb
T _ZThn24_N38PVMFJitterBufferExtensionInterfaceImpl13setPortParamsEP17PVMFPortInterfacejjR21OsclRefCounterMemFragbj
T _ZThn24_N38PVMFJitterBufferExtensionInterfaceImpl13setServerInfoER34PVMFJitterBufferFireWallPacketInfo
T _ZThn24_N38PVMFJitterBufferExtensionInterfaceImpl14SendBOSMessageEj
T _ZThn24_N38PVMFJitterBufferExtensionInterfaceImpl15StopOutputPortsEv
T _ZThn24_N38PVMFJitterBufferExtensionInterfaceImpl16StartOutputPortsEv
T _ZThn24_N38PVMFJitterBufferExtensionInterfaceImpl16setPortRTPParamsEP17PVMFPortInterfacebjbjbjb
T _ZThn24_N38PVMFJitterBufferExtensionInterfaceImpl17ClearJitterBufferEP17PVMFPortInterfacej
T _ZThn24_N38PVMFJitterBufferExtensionInterfaceImpl17FlushJitterBufferEv
T _ZThn24_N38PVMFJitterBufferExtensionInterfaceImpl17getMaxMediaDataTSEv
T _ZThn24_N38PVMFJitterBufferExtensionInterfaceImpl17setBurstThresholdEf
T _ZThn24_N38PVMFJitterBufferExtensionInterfaceImpl17setPortRTCPParamsEP17PVMFPortInterfaceijj
T _ZThn24_N38PVMFJitterBufferExtensionInterfaceImpl18NotifyOutOfBandEOSEv
T _ZThn24_N38PVMFJitterBufferExtensionInterfaceImpl19SetBroadCastSessionEv
T _ZThn24_N38PVMFJitterBufferExtensionInterfaceImpl22DisableFireWallPacketsEv
T _ZThn24_N38PVMFJitterBufferExtensionInterfaceImpl22setClientPlayBackClockEP14PVMFMediaClock
T _ZThn24_N38PVMFJitterBufferExtensionInterfaceImpl23NotifyAutoPauseCompleteEv
T _ZThn24_N38PVMFJitterBufferExtensionInterfaceImpl23PrepareForRepositioningEbj
T _ZThn24_N38PVMFJitterBufferExtensionInterfaceImpl23UpdateJitterBufferStateEv
T _ZThn24_N38PVMFJitterBufferExtensionInterfaceImpl24NotifyAutoResumeCompleteEv
T _ZThn24_N38PVMFJitterBufferExtensionInterfaceImpl24PrepareForPlaylistSwitchEv
T _ZThn24_N38PVMFJitterBufferExtensionInterfaceImpl25HasSessionDurationExpiredERb
T _ZThn24_N38PVMFJitterBufferExtensionInterfaceImpl26SetJitterBufferMemPoolInfoEPK16PvmfPortBaseImpljjjj
T _ZThn24_N38PVMFJitterBufferExtensionInterfaceImpl26setRTCPIntervalInMicroSecsEj
T _ZThn24_N38PVMFJitterBufferExtensionInterfaceImpl27GetSharedBufferResizeParamsERjS0_
T _ZThn24_N38PVMFJitterBufferExtensionInterfaceImpl27SetSharedBufferResizeParamsEjj
T _ZThn24_N38PVMFJitterBufferExtensionInterfaceImpl28PurgeElementsWithNPTLessThanER13NptTimeFormat
T _ZThn24_N38PVMFJitterBufferExtensionInterfaceImpl28SetInputMediaHeaderPreParsedEP17PVMFPortInterfaceb
T _ZThn24_N38PVMFJitterBufferExtensionInterfaceImpl29SetJitterBufferChunkAllocatorEP29OsclMemPoolResizableAllocatorPK17PVMFPortInterface
T _ZThn24_N38PVMFJitterBufferExtensionInterfaceImpl29getActualMediaDataTSAfterSeekEv
T _ZThn24_N38PVMFJitterBufferExtensionInterfaceImpl34setEarlyDecodingTimeInMilliSecondsEj
T _ZThn24_N38PVMFJitterBufferExtensionInterfaceImpl34setPlayBackThresholdInMilliSecondsEj
T _ZThn24_N38PVMFJitterBufferExtensionInterfaceImpl36getMaxInactivityDurationForMediaInMsERj
T _ZThn24_N38PVMFJitterBufferExtensionInterfaceImpl36setMaxInactivityDurationForMediaInMsEj
T _ZThn24_N38PVMFJitterBufferExtensionInterfaceImpl37getJitterBufferDurationInMilliSecondsERj
T _ZThn24_N38PVMFJitterBufferExtensionInterfaceImpl37setJitterBufferDurationInMilliSecondsEj
T _ZThn24_N38PVMFJitterBufferExtensionInterfaceImpl49getJitterBufferRebufferingThresholdInMilliSecondsERj
T _ZThn24_N38PVMFJitterBufferExtensionInterfaceImpl49setJitterBufferRebufferingThresholdInMilliSecondsEj
T _ZThn24_N38PVRTSPEngineNodeExtensionInterfaceImpl10SetSDPInfoER13OsclSharedPtrI7SDPInfoER11Oscl_VectorI10StreamInfo16OsclMemAllocatorE
T _ZThn24_N38PVRTSPEngineNodeExtensionInterfaceImpl12GetRtspProxyER11OSCL_StringRj
T _ZThn24_N38PVRTSPEngineNodeExtensionInterfaceImpl12GetUserAgentER12OSCL_wString
T _ZThn24_N38PVRTSPEngineNodeExtensionInterfaceImpl12SetRdtParserEP14IPayloadParser
T _ZThn24_N38PVRTSPEngineNodeExtensionInterfaceImpl12SetRtspProxyER11OSCL_Stringj
T _ZThn24_N38PVRTSPEngineNodeExtensionInterfaceImpl13GetServerInfoER26PVRTSPEngineNodeServerInfo
T _ZThn24_N38PVRTSPEngineNodeExtensionInterfaceImpl13GetStreamInfoER11Oscl_VectorI10StreamInfo16OsclMemAllocatorE
T _ZThn24_N38PVRTSPEngineNodeExtensionInterfaceImpl13SetSessionURLER12OSCL_wString
T _ZThn24_N38PVRTSPEngineNodeExtensionInterfaceImpl14GetRTSPTimeOutERi
T _ZThn24_N38PVRTSPEngineNodeExtensionInterfaceImpl14IsRdtTransportEv
T _ZThn24_N38PVRTSPEngineNodeExtensionInterfaceImpl14SetRTSPTimeOutEi
T _ZThn24_N38PVRTSPEngineNodeExtensionInterfaceImpl14queryInterfaceERK8OsclUuidRP11PVInterface
T _ZThn24_N38PVRTSPEngineNodeExtensionInterfaceImpl16SetStreamingTypeE19PVRTSPStreamingType
T _ZThn24_N38PVRTSPEngineNodeExtensionInterfaceImpl18GetActualPlayRangeER13RtspRangeType
T _ZThn24_N38PVRTSPEngineNodeExtensionInterfaceImpl18GetKeepAliveMethodERiRbS1_
T _ZThn24_N38PVRTSPEngineNodeExtensionInterfaceImpl18SetPortRdtStreamIdEP17PVMFPortInterfacei
T _ZThn24_N38PVRTSPEngineNodeExtensionInterfaceImpl19SetClientParametersER12OSCL_wStringS1_S1_
T _ZThn24_N38PVRTSPEngineNodeExtensionInterfaceImpl19SetRequestPlayRangeERK13RtspRangeType
T _ZThn24_N38PVRTSPEngineNodeExtensionInterfaceImpl26SetKeepAliveMethod_timeoutEi
T _ZThn24_N38PVRTSPEngineNodeExtensionInterfaceImpl26SetRealChallengeCalculatorEP17IRealChallengeGen
T _ZThn24_N38PVRTSPEngineNodeExtensionInterfaceImpl27SetAuthenticationParametersER12OSCL_wStringS1_S1_S1_S1_S1_
T _ZThn24_N38PVRTSPEngineNodeExtensionInterfaceImpl29UpdateSessionCompletionStatusEb
T _ZThn24_N38PVRTSPEngineNodeExtensionInterfaceImpl36SetKeepAliveMethod_use_SET_PARAMETEREb
T _ZThn24_N38PVRTSPEngineNodeExtensionInterfaceImpl37SetKeepAliveMethod_keep_alive_in_playEb
T _ZThn24_N38PVRTSPEngineNodeExtensionInterfaceImpl6GetSDPER21OsclRefCounterMemFrag
T _ZThn24_N38PVRTSPEngineNodeExtensionInterfaceImpl6addRefEv
T _ZThn24_N38PVRTSPEngineNodeExtensionInterfaceImpl9removeRefEv
T _ZThn24_NK38PVMFJitterBufferExtensionInterfaceImpl26GetJitterBufferMemPoolInfoEPK16PvmfPortBaseImplRjS3_S3_S3_
T _ZThn48_N17PVMFSMFSPBaseNodeD0Ev
T _ZThn48_N17PVMFSMFSPBaseNodeD1Ev
T _ZThn48_N24PVMFStreamingManagerNodeD0Ev
T _ZThn48_N24PVMFStreamingManagerNodeD1Ev
U _ZThn4_N15OsclTimerObject8DoCancelEv
U _ZThn4_N15OsclTimerObject8RunErrorEi
U _ZThn4_N16OsclActiveObject8RunErrorEi
T _ZThn4_N16PVRTSPEngineNode11ReleasePortEiR17PVMFPortInterfacePKv
T _ZThn4_N16PVRTSPEngineNode11RequestPortEiiPK11OSCL_StringPKv
T _ZThn4_N16PVRTSPEngineNode11ThreadLogonEv
T _ZThn4_N16PVRTSPEngineNode12ThreadLogoffEv
T _ZThn4_N16PVRTSPEngineNode13CancelCommandEiiPKv
T _ZThn4_N16PVRTSPEngineNode13GetCapabilityER18PVMFNodeCapability
T _ZThn4_N16PVRTSPEngineNode14QueryInterfaceEiRK8OsclUuidRP11PVInterfacePKv
T _ZThn4_N16PVRTSPEngineNode17CancelAllCommandsEiPKv
T _ZThn4_N16PVRTSPEngineNode18HandlePortActivityERK16PVMFPortActivity
T _ZThn4_N16PVRTSPEngineNode4InitEiPKv
T _ZThn4_N16PVRTSPEngineNode4StopEiPKv
T _ZThn4_N16PVRTSPEngineNode5FlushEiPKv
T _ZThn4_N16PVRTSPEngineNode5PauseEiPKv
T _ZThn4_N16PVRTSPEngineNode5ResetEiPKv
T _ZThn4_N16PVRTSPEngineNode5StartEiPKv
T _ZThn4_N16PVRTSPEngineNode7PrepareEiPKv
T _ZThn4_N16PVRTSPEngineNode8GetPortsEPK14PVMFPortFilter
T _ZThn4_N16PVRTSPEngineNode9QueryUUIDEiRK11OSCL_StringR11Oscl_VectorI8OsclUuid16OsclMemAllocatorEbPKv
T _ZThn4_N16PVRTSPEngineNodeD0Ev
T _ZThn4_N16PVRTSPEngineNodeD1Ev
T _ZThn4_N18PVMFMediaLayerNode11ReleasePortEiR17PVMFPortInterfacePKv
T _ZThn4_N18PVMFMediaLayerNode11RequestPortEiiPK11OSCL_StringPKv
T _ZThn4_N18PVMFMediaLayerNode11ThreadLogonEv
T _ZThn4_N18PVMFMediaLayerNode12ThreadLogoffEv
T _ZThn4_N18PVMFMediaLayerNode13CancelCommandEiiPKv
T _ZThn4_N18PVMFMediaLayerNode13GetCapabilityER18PVMFNodeCapability
T _ZThn4_N18PVMFMediaLayerNode14QueryInterfaceEiRK8OsclUuidRP11PVInterfacePKv
T _ZThn4_N18PVMFMediaLayerNode17CancelAllCommandsEiPKv
T _ZThn4_N18PVMFMediaLayerNode4InitEiPKv
T _ZThn4_N18PVMFMediaLayerNode4StopEiPKv
T _ZThn4_N18PVMFMediaLayerNode5FlushEiPKv
T _ZThn4_N18PVMFMediaLayerNode5PauseEiPKv
T _ZThn4_N18PVMFMediaLayerNode5ResetEiPKv
T _ZThn4_N18PVMFMediaLayerNode5StartEiPKv
T _ZThn4_N18PVMFMediaLayerNode7PrepareEiPKv
T _ZThn4_N18PVMFMediaLayerNode8GetPortsEPK14PVMFPortFilter
T _ZThn4_N18PVMFMediaLayerNode9QueryUUIDEiRK11OSCL_StringR11Oscl_VectorI8OsclUuid16OsclMemAllocatorEbPKv
T _ZThn4_N18PVMFMediaLayerNodeD0Ev
T _ZThn4_N18PVMFMediaLayerNodeD1Ev
T _ZThn4_N20PVMFJitterBufferImpl18freechunkavailableEPv
T _ZThn4_N20PVMFJitterBufferImplD0Ev
T _ZThn4_N20PVMFJitterBufferImplD1Ev
T _ZThn4_N20PVMFJitterBufferNode11ReleasePortEiR17PVMFPortInterfacePKv
T _ZThn4_N20PVMFJitterBufferNode11RequestPortEiiPK11OSCL_StringPKv
T _ZThn4_N20PVMFJitterBufferNode11ThreadLogonEv
T _ZThn4_N20PVMFJitterBufferNode12ThreadLogoffEv
T _ZThn4_N20PVMFJitterBufferNode13CancelCommandEiiPKv
T _ZThn4_N20PVMFJitterBufferNode13GetCapabilityER18PVMFNodeCapability
T _ZThn4_N20PVMFJitterBufferNode14QueryInterfaceEiRK8OsclUuidRP11PVInterfacePKv
T _ZThn4_N20PVMFJitterBufferNode17CancelAllCommandsEiPKv
T _ZThn4_N20PVMFJitterBufferNode4InitEiPKv
T _ZThn4_N20PVMFJitterBufferNode4StopEiPKv
T _ZThn4_N20PVMFJitterBufferNode5FlushEiPKv
T _ZThn4_N20PVMFJitterBufferNode5PauseEiPKv
T _ZThn4_N20PVMFJitterBufferNode5ResetEiPKv
T _ZThn4_N20PVMFJitterBufferNode5StartEiPKv
T _ZThn4_N20PVMFJitterBufferNode7PrepareEiPKv
T _ZThn4_N20PVMFJitterBufferNode8GetPortsEPK14PVMFPortFilter
T _ZThn4_N20PVMFJitterBufferNode9QueryUUIDEiRK11OSCL_StringR11Oscl_VectorI8OsclUuid16OsclMemAllocatorEbPKv
T _ZThn4_N20PVMFJitterBufferNodeD0Ev
T _ZThn4_N20PVMFJitterBufferNodeD1Ev
T _ZThn4_N23PVMFRTPJitterBufferImplD0Ev
T _ZThn4_N23PVMFRTPJitterBufferImplD1Ev
T _ZThn52_N16PVRTSPEngineNodeD0Ev
T _ZThn52_N16PVRTSPEngineNodeD1Ev
T _ZThn52_N17PVMFSMFSPBaseNodeD0Ev
T _ZThn52_N17PVMFSMFSPBaseNodeD1Ev
T _ZThn52_N18PVMFMediaLayerNodeD0Ev
T _ZThn52_N18PVMFMediaLayerNodeD1Ev
T _ZThn52_N20PVMFJitterBufferNodeD0Ev
T _ZThn52_N20PVMFJitterBufferNodeD1Ev
T _ZThn52_N24PVMFStreamingManagerNodeD0Ev
T _ZThn52_N24PVMFStreamingManagerNodeD1Ev
T _ZThn56_N16PVRTSPEngineNodeD0Ev
T _ZThn56_N16PVRTSPEngineNodeD1Ev
T _ZThn56_N18PVMFMediaLayerNodeD0Ev
T _ZThn56_N18PVMFMediaLayerNodeD1Ev
T _ZThn56_N20PVMFJitterBufferNodeD0Ev
T _ZThn56_N20PVMFJitterBufferNodeD1Ev
T _ZThn8_N20PVMFJitterBufferImpl15ProcessCallbackE28CLOCK_NOTIFICATION_INTF_TYPEjPKvi
T _ZThn8_N20PVMFJitterBufferMiscD0Ev
T _ZThn8_N20PVMFJitterBufferMiscD1Ev
T _ZTv0_n12_N20PVMFJitterBufferNodeD0Ev
T _ZTv0_n12_N20PVMFJitterBufferNodeD1Ev
U _ZdaPv
U _ZdlPv
U _Znaj
U _Znwj
U __aeabi_d2f
U __aeabi_d2uiz
U __aeabi_dadd
U __aeabi_dcmpge
U __aeabi_dcmpgt
U __aeabi_dcmple
U __aeabi_ddiv
U __aeabi_dmul
U __aeabi_dsub
U __aeabi_f2d
U __aeabi_f2iz
U __aeabi_f2uiz
U __aeabi_fadd
U __aeabi_fcmpgt
U __aeabi_fdiv
U __aeabi_fmul
U __aeabi_i2d
U __aeabi_idiv
U __aeabi_idivmod
U __aeabi_lmul
U __aeabi_ui2d
U __aeabi_ui2f
U __aeabi_uidiv
U __aeabi_uidivmod
U __aeabi_uldivmod
U __aeabi_unwind_cpp_pr0
U __aeabi_unwind_cpp_pr1
A __bss_end__
A __bss_start
A __bss_start__
U __cxa_pure_virtual
A __data_start
A __end__
A __exidx_end
A __exidx_start
U __stack_chk_fail
U __stack_chk_guard
A _bss_end__
A _edata
A _end
A _stack
U free
U gettimeofday
U inet_addr
U lrand48
U malloc
U memcmp
U memcpy
U memmove
U memset
U setjmp
U srand48
