U EAS_CloseFile
U EAS_Config
U EAS_Init
U EAS_OpenFile
U EAS_ParseMetaData
U EAS_Prepare
U EAS_Shutdown
U _Z11oscl_strchrPci
U _Z11oscl_strcmpPKcS0_
U _Z11oscl_strlenPKc
U _Z11oscl_strlenPKw
U _Z11oscl_strsetPccj
U _Z11oscl_strstrPKcS0_
U _Z11oscl_strstrPKwS0_
U _Z11oscl_strstrPcPKc
U _Z12oscl_strncatPcPKcj
U _Z12oscl_strncmpPKcS0_j
U _Z12oscl_strncmpPKwS0_j
U _Z12oscl_strncpyPcPKcj
U _Z12oscl_strncpyPwPKwj
U _Z13oscl_CIstrcmpPKcS0_
U _Z13oscl_snprintfPcjPKcz
U _Z14OMX_MasterInitv
U _Z14oscl_CIstrncmpPKcS0_j
U _Z14pv_mime_strcmpPKcS0_
U _Z14pv_mime_strstrPcS_
U _Z16OMX_MasterDeinitv
U _Z17_oscl_default_newj
U _Z18GetActualAacConfigPhS_PiS_Pj
U _Z18PVMFStatusToStringi
U _Z18oscl_UTF8ToUnicodePKciPwi
U _Z18oscl_UnicodeToUTF8PKwiPci
T _Z19InitializeForThreadv
U _Z20GetTypeFromKeyStringPc
T _Z21UninitializeForThreadv
U _Z21convertToPVMFMediaMsgR13OsclSharedPtrI12PVMFMediaMsgERS_I13PVMFMediaDataE
T _Z21findPossibleEncodingsi
U _Z21pvmiSetPortFormatSyncP23PvmiCapabilityAndConfigPKc14PVMFFormatType
U _Z22oscl_str_is_valid_utf8PKhRjjjPj
U _Z22pv_mime_string_compcntPc
U _Z23GetValTypeFromKeyStringPc
U _Z24GetAttrTypeFromKeyStringPc
U _Z24convertToPVMFMediaCmdMsgR13OsclSharedPtrI12PVMFMediaMsgERS_I12PVMFMediaCmdE
U _Z25ExpandWChar2BytesTo4BytesPwPti
U _Z26pv_mime_string_parse_paramPcS_RS_
U _Z27pv_mime_string_extract_typeiPcRS_
U _Z7PV_atoiPKccRj
U _Z7PV_atoiPKcciRj
T _ZN10CPVXParser8ParsePVXER18OsclMemoryFragmentR15OSCL_HeapStringI16OsclMemAllocatorER8CPVXInfo
T _ZN10CPVXParserC1Ev
T _ZN10CPVXParserC2Ev
T _ZN10IMpeg3File11ScanMP3FileEj
T _ZN10IMpeg3File11SetFileSizeEj
T _ZN10IMpeg3File12GetNumTracksEv
T _ZN10IMpeg3File12ParseMp3FileEv
T _ZN10IMpeg3File13ResetPlaybackEj
T _ZN10IMpeg3File15GetMetadataKeysER11Oscl_VectorI15OSCL_HeapStringI16OsclMemAllocatorES2_EjiPc
T _ZN10IMpeg3File15GetMetadataSizeERj
T _ZN10IMpeg3File15SeekToTimestampEj
T _ZN10IMpeg3File16GetConfigDetailsER24_MP3ContentFormatTypeTag
T _ZN10IMpeg3File17GetMetadataValuesER11Oscl_VectorI15OSCL_HeapStringI16OsclMemAllocatorES2_ERS0_I9__PvmiKvpS2_Eji
T _ZN10IMpeg3File18GetMaxBufferSizeDBEv
T _ZN10IMpeg3File18GetNextMediaSampleEPhjRjS1_
T _ZN10IMpeg3File18GetNumMetadataKeysEPc
T _ZN10IMpeg3File18RandomAccessDeniedEv
T _ZN10IMpeg3File19GetMinBytesRequiredEb
T _ZN10IMpeg3File19GetNumSampleEntriesEv
T _ZN10IMpeg3File20GetNumMetadataValuesER11Oscl_VectorI15OSCL_HeapStringI16OsclMemAllocatorES2_E
T _ZN10IMpeg3File20ReleaseMetadataValueER9__PvmiKvp
T _ZN10IMpeg3File22SeekPointFromTimestampERj
T _ZN10IMpeg3File25GetNextBundledAccessUnitsEPjP3GAUR12MP3ErrorType
T _ZN10IMpeg3File26GetDecoderSpecificInfoSizeEv
T _ZN10IMpeg3File26GetFileOffsetForAutoResumeERj
T _ZN10IMpeg3File26PeekNextBundledAccessUnitsEPjP13MediaMetaInfo
T _ZN10IMpeg3File28GetTimestampForCurrentSampleEv
T _ZN10IMpeg3File31RequestReadCapacityNotificationER22PvmiDataStreamObserverjPv
T _ZN10IMpeg3File9IsMp3FileER12OSCL_wStringP35PVMFCPMPluginAccessInterfaceFactoryj
T _ZN10IMpeg3FileC1ER12MP3ErrorType
T _ZN10IMpeg3FileC1ER12OSCL_wStringR12MP3ErrorTypeP15Oscl_FileServerP35PVMFCPMPluginAccessInterfaceFactoryP14OsclFileHandleb
T _ZN10IMpeg3FileC2ER12MP3ErrorType
T _ZN10IMpeg3FileC2ER12OSCL_wStringR12MP3ErrorTypeP15Oscl_FileServerP35PVMFCPMPluginAccessInterfaceFactoryP14OsclFileHandleb
T _ZN10IMpeg3FileD1Ev
T _ZN10IMpeg3FileD2Ev
T _ZN10IMpeg4File11readMP4FileER12OSCL_wStringP35PVMFCPMPluginAccessInterfaceFactoryP14OsclFileHandlejP15Oscl_FileServer
T _ZN10IMpeg4File15GetMetaDataSizeEP35PVMFCPMPluginAccessInterfaceFactoryRbRj
T _ZN10IMpeg4File20DestroyMP4FileObjectEPS_
T _ZN10IMpeg4File25IsProgressiveDownloadableEP9Oscl_FilejRbRj
T _ZN10IMpeg4File9IsXXXableEP9Oscl_FileRiS2_PjS3_
T _ZN10IMpeg4File9IsXXXableER12OSCL_wStringRiS2_PjS3_P15Oscl_FileServer
U _ZN10OsclThread6CreateEPFPvS0_EiS0_16OsclThread_Stateb
U _ZN10OsclThreadC1Ev
U _ZN10OsclThreadD1Ev
U _ZN11OSCL_String5writeEjc
U _ZN11OSCL_String5writeEjjPKc
U _ZN11OSCL_StringC1Ev
U _ZN11OSCL_StringD1Ev
U _ZN11OSCL_StringaSEPKc
U _ZN11OSCL_StringaSERKS_
U _ZN11OSCL_StringpLEPKc
T _ZN11PVID3ParCom11GetID3FrameERK11OSCL_StringR11Oscl_VectorI13OsclSharedPtrI9__PvmiKvpE16OsclMemAllocatorE
T _ZN11PVID3ParCom11ParseID3TagEP6PVFilej
T _ZN11PVID3ParCom11SetID3FrameERK9__PvmiKvp
T _ZN11PVID3ParCom12GetID3FramesER11Oscl_VectorI13OsclSharedPtrI9__PvmiKvpE16OsclMemAllocatorE
T _ZN11PVID3ParCom13ComposeID3TagER21OsclRefCounterMemFrag
T _ZN11PVID3ParCom13GetID3TagSizeEP6PVFile
T _ZN11PVID3ParCom13GetID3TagSizeEv
T _ZN11PVID3ParCom13SetID3VersionE12PVID3Version
T _ZN11PVID3ParCom14IsID3V2PresentEP6PVFileRj
T _ZN11PVID3ParCom14RemoveID3FrameERK11OSCL_String
T _ZN11PVID3ParCom16SetMaxID3TagSizeEbjb
T _ZN11PVID3ParCom17LookForV2_4FooterEjj
T _ZN11PVID3ParCom19IsID3FrameAvailableERK11OSCL_String
T _ZN11PVID3ParCom5ResetEv
T _ZN11PVID3ParComC1Ev
T _ZN11PVID3ParComC2Ev
T _ZN11PVID3ParComD1Ev
T _ZN11PVID3ParComD2Ev
T _ZN11PVMFCPMImpl11OpenSessionERiPKv
T _ZN11PVMFCPMImpl11ThreadLogonEv
T _ZN11PVMFCPMImpl12ApproveUsageEiR9__PvmiKvpS1_S1_RiPKv
T _ZN11PVMFCPMImpl12CloseSessionERiPKv
T _ZN11PVMFCPMImpl12ThreadLogoffEv
T _ZN11PVMFCPMImpl13UsageCompleteEiRiPv
T _ZN11PVMFCPMImpl14QueryInterfaceEiRK8OsclUuidRP11PVInterfacePKv
T _ZN11PVMFCPMImpl14queryInterfaceERK8OsclUuidRP11PVInterface
T _ZN11PVMFCPMImpl15RegisterContentEiR12OSCL_wStringR14PVMFFormatTypePvPKv
T _ZN11PVMFCPMImpl17GetCPMContentTypeEi
T _ZN11PVMFCPMImpl18GetNumMetadataKeysEPc
T _ZN11PVMFCPMImpl19GetNodeMetadataKeysEiR11Oscl_VectorI15OSCL_HeapStringI16OsclMemAllocatorES2_EjiPcPKv
T _ZN11PVMFCPMImpl20GetNumMetadataValuesER11Oscl_VectorI15OSCL_HeapStringI16OsclMemAllocatorES2_E
T _ZN11PVMFCPMImpl21GetCPMContentFilenameEiR12OSCL_wString
T _ZN11PVMFCPMImpl21GetNodeMetadataValuesEiR11Oscl_VectorI15OSCL_HeapStringI16OsclMemAllocatorES2_ERS0_I9__PvmiKvpS2_EjiPKv
T _ZN11PVMFCPMImpl23GetContentAccessFactoryEiRP35PVMFCPMPluginAccessInterfaceFactory
T _ZN11PVMFCPMImpl23ReleaseNodeMetadataKeysER11Oscl_VectorI15OSCL_HeapStringI16OsclMemAllocatorES2_Ejj
T _ZN11PVMFCPMImpl25CPMPluginCommandCompletedERK11PVMFCmdResp
T _ZN11PVMFCPMImpl25ReleaseNodeMetadataValuesER11Oscl_VectorI9__PvmiKvp16OsclMemAllocatorEjj
T _ZN11PVMFCPMImpl4InitEPKv
T _ZN11PVMFCPMImpl5ResetEPKv
T _ZN11PVMFCPMImpl6addRefEv
T _ZN11PVMFCPMImpl9removeRefEv
T _ZN11PVMFCPMImplC1ER21PVMFCPMStatusObserveri
T _ZN11PVMFCPMImplC2ER21PVMFCPMStatusObserveri
T _ZN12FileTypeAtomC1EP11MP4_FF_FILEjj
T _ZN12FileTypeAtomC2EP11MP4_FF_FILEjj
T _ZN12FileTypeAtomD0Ev
T _ZN12FileTypeAtomD1Ev
T _ZN12FileTypeAtomD2Ev
U _ZN12OSCL_wString5writeEjjPKw
U _ZN12OSCL_wString5writeEjw
U _ZN12OSCL_wStringC1Ev
U _ZN12OSCL_wStringD1Ev
U _ZN12OSCL_wStringaSEPKw
U _ZN12OSCL_wStringaSERKS_
U _ZN12OSCL_wStringpLEPKw
U _ZN12OSCL_wStringpLERKS_
U _ZN12PVMFMediaCmd14createMediaCmdEP13Oscl_DefAlloc
T _ZN12PlayerDriver10handleInitEP10PlayerInit
T _ZN12PlayerDriver10handleQuitEP10PlayerQuit
T _ZN12PlayerDriver10handleSeekEP10PlayerSeek
T _ZN12PlayerDriver10handleStopEP10PlayerStop
T _ZN12PlayerDriver11handlePauseEP11PlayerPause
T _ZN12PlayerDriver11handleResetEP11PlayerReset
T _ZN12PlayerDriver11handleSetupEP11PlayerSetup
T _ZN12PlayerDriver11handleStartEP11PlayerStart
T _ZN12PlayerDriver12playerThreadEv
T _ZN12PlayerDriver13commandFailedEP13PlayerCommand
T _ZN12PlayerDriver13handlePrepareEP13PlayerPrepare
T _ZN12PlayerDriver14dequeueCommandEv
T _ZN12PlayerDriver14enqueueCommandEP13PlayerCommand
T _ZN12PlayerDriver14syncCompletionEiPvb
T _ZN12PlayerDriver15handleGetStatusEP15PlayerGetStatus
T _ZN12PlayerDriver16CommandCompletedERK13PVCmdResponse
T _ZN12PlayerDriver16HandleErrorEventERK17PVAsyncErrorEvent
T _ZN12PlayerDriver17FinishSyncCommandEP13PlayerCommand
T _ZN12PlayerDriver17handleGetDurationEP17PlayerGetDuration
T _ZN12PlayerDriver17handleGetPositionEP17PlayerGetPosition
T _ZN12PlayerDriver17startPlayerThreadEPv
T _ZN12PlayerDriver18handleSetAudioSinkEP18PlayerSetAudioSink
T _ZN12PlayerDriver18setupHttpStreamPreEv
T _ZN12PlayerDriver19handleSetDataSourceEP19PlayerSetDataSource
T _ZN12PlayerDriver19setupHttpStreamPostEv
T _ZN12PlayerDriver21handleSetVideoSurfaceEP21PlayerSetVideoSurface
T _ZN12PlayerDriver22handleRemoveDataSourceEP22PlayerRemoveDataSource
T _ZN12PlayerDriver23handleCancelAllCommandsEP23PlayerCancelAllCommands
T _ZN12PlayerDriver24HandleInformationalEventERK25PVAsyncInformationalEvent
T _ZN12PlayerDriver25handleGetDurationCompleteEP17PlayerGetDuration
T _ZN12PlayerDriver3RunEv
T _ZN12PlayerDriverC1EPN7android8PVPlayerE
T _ZN12PlayerDriverC2EPN7android8PVPlayerE
T _ZN12PlayerDriverD0Ev
T _ZN12PlayerDriverD1Ev
T _ZN12PlayerDriverD2Ev
U _ZN13OsclErrorTrap4InitEP13Oscl_DefAlloc
U _ZN13OsclErrorTrap7CleanupEv
U _ZN13OsclScheduler4InitEPKcP13Oscl_DefAlloci
U _ZN13OsclScheduler7CleanupEv
U _ZN13OsclSemaphore4WaitEv
U _ZN13OsclSemaphore5CloseEv
U _ZN13OsclSemaphore6CreateEj
U _ZN13OsclSemaphore6SignalEv
U _ZN13OsclSemaphoreC1Ev
U _ZN13OsclSemaphoreD1Ev
U _ZN13PVMFMediaData13getMarkerInfoEv
U _ZN13PVMFMediaData15createMediaDataER13OsclSharedPtrI17PVMFMediaDataImplEP13Oscl_DefAlloc
U _ZN13PVMFMediaData16getMediaFragmentEjR21OsclRefCounterMemFrag
U _ZN13PV_Wav_Parser10GetPCMDataEPhjjRj
U _ZN13PV_Wav_Parser13InitWavParserER12OSCL_wStringP15Oscl_FileServer
U _ZN13PV_Wav_Parser13SeekPCMSampleEj
U _ZN13PV_Wav_Parser16RetrieveFileInfoER13PVWAVFileInfo
U _ZN13PV_Wav_Parser26SetOutputToUncompressedPCMEv
U _ZN13PV_Wav_ParserD1Ev
U _ZN13StrCSumPtrLen11setCheckSumEv
T _ZN14CAACFileParser10IsID3FrameERK11OSCL_String
T _ZN14CAACFileParser11GetID3FrameERK11OSCL_StringR11Oscl_VectorI13OsclSharedPtrI9__PvmiKvpE16OsclMemAllocatorE
T _ZN14CAACFileParser11InitAACFileER12OSCL_wStringbP15Oscl_FileServerP35PVMFCPMPluginAccessInterfaceFactoryP14OsclFileHandle
T _ZN14CAACFileParser12GetAACFormatEv
T _ZN14CAACFileParser13ResetPlaybackEjRj
T _ZN14CAACFileParser15RetrieveID3InfoER11Oscl_VectorI13OsclSharedPtrI9__PvmiKvpE16OsclMemAllocatorE
T _ZN14CAACFileParser15getAACHeaderLenER12OSCL_wStringbP15Oscl_FileServerP35PVMFCPMPluginAccessInterfaceFactoryP14OsclFileHandlePj
T _ZN14CAACFileParser16RetrieveFileInfoER14TPVAacFileInfo
T _ZN14CAACFileParser17PeekNextTimestampERj
T _ZN14CAACFileParser22SeekPointFromTimestampEj
T _ZN14CAACFileParser25GetNextBundledAccessUnitsEPjP3GAUb
T _ZN14CAACFileParser31GetTrackDecoderSpecificInfoSizeEv
T _ZN14CAACFileParser34GetTrackDecoderSpecificInfoContentEv
T _ZN14CAACFileParser9IsAACFileER12OSCL_wStringP15Oscl_FileServerP35PVMFCPMPluginAccessInterfaceFactoryP14OsclFileHandle
T _ZN14CAACFileParserC1Ev
T _ZN14CAACFileParserC2Ev
T _ZN14CAACFileParserD1Ev
T _ZN14CAACFileParserD2Ev
U _ZN14CAMRFileParser11InitAMRFileER12OSCL_wStringbP15Oscl_FileServerP35PVMFCPMPluginAccessInterfaceFactoryP14OsclFileHandlej
U _ZN14CAMRFileParser13ResetPlaybackEi
U _ZN14CAMRFileParser16RetrieveFileInfoER14TPVAmrFileInfo
U _ZN14CAMRFileParser17PeekNextTimestampEPj
U _ZN14CAMRFileParser20getCodecSpecificInfoEv
U _ZN14CAMRFileParser22SeekPointFromTimestampEj
U _ZN14CAMRFileParser25GetNextBundledAccessUnitsEPjP3GAU
U _ZN14CAMRFileParserC1Ev
U _ZN14CAMRFileParserD1Ev
U _ZN14ColorConvert164NewLEv
T _ZN14PVMFCPMFactory26CreateContentPolicyManagerER21PVMFCPMStatusObserver
T _ZN14PVMFCPMFactory27DestroyContentPolicyManagerEP7PVMFCPM
U _ZN14PVMFMediaClock14SetStartTime32ERj24PVMFMediaClock_TimeUnitsRb
U _ZN14PVMFMediaClock16GetCurrentTime32ERjRb24PVMFMediaClock_TimeUnits
U _ZN14PVMFMediaClock16SetClockTimebaseER12PVMFTimebase
U _ZN14PVMFMediaClock39DestroyMediaClockNotificationsInterfaceEP36PVMFMediaClockNotificationsInterface
U _ZN14PVMFMediaClock41ConstructMediaClockNotificationsInterfaceERP36PVMFMediaClockNotificationsInterfaceR34PVMFMediaClockNotificationsObsBasej
U _ZN14PVMFMediaClock4StopEv
U _ZN14PVMFMediaClock5PauseEv
U _ZN14PVMFMediaClock5StartEv
U _ZN14PVMFMediaClockC1Ev
U _ZN14PVMFMediaClockD1Ev
T _ZN15AndroidAudioMIO10disconnectEPv
T _ZN15AndroidAudioMIO10writeAsyncEhiPhjRK21__PvmiMediaXferHeaderPv
T _ZN15AndroidAudioMIO11DiscardDataEPKv
T _ZN15AndroidAudioMIO11DiscardDataEjPKv
T _ZN15AndroidAudioMIO11ThreadLogonEv
T _ZN15AndroidAudioMIO12ThreadLogoffEv
T _ZN15AndroidAudioMIO12sendResponseEiPKvj
T _ZN15AndroidAudioMIO12setAudioSinkERKN7android2spINS0_15MediaPlayerBase9AudioSinkEEE
T _ZN15AndroidAudioMIO13CancelCommandEiPKv
T _ZN15AndroidAudioMIO14CheckWriteBusyEj
T _ZN15AndroidAudioMIO14QueryInterfaceERK8OsclUuidRP11PVInterfacePKv
T _ZN15AndroidAudioMIO16QueueCmdResponseEiPKv
T _ZN15AndroidAudioMIO17CancelAllCommandsEPKv
T _ZN15AndroidAudioMIO17getParametersSyncEPvPcRP9__PvmiKvpRiS0_
T _ZN15AndroidAudioMIO17releaseParametersEPvP9__PvmiKvpi
T _ZN15AndroidAudioMIO17setParametersSyncEPvP9__PvmiKvpiRS2_
T _ZN15AndroidAudioMIO19createMediaTransferERPvP9__PvmiKvpiS3_i
T _ZN15AndroidAudioMIO20verifyParametersSyncEPvP9__PvmiKvpi
T _ZN15AndroidAudioMIO25ProcessWriteResponseQueueEv
T _ZN15AndroidAudioMIO3RunEv
T _ZN15AndroidAudioMIO4InitEPKv
T _ZN15AndroidAudioMIO4StopEPKv
T _ZN15AndroidAudioMIO5FlushEPKv
T _ZN15AndroidAudioMIO5PauseEPKv
T _ZN15AndroidAudioMIO5ResetEPKv
T _ZN15AndroidAudioMIO5StartEPKv
T _ZN15AndroidAudioMIO7CleanupEv
T _ZN15AndroidAudioMIO7connectERPvP15PvmiMIOObserver
T _ZN15AndroidAudioMIO7setPeerEP17PvmiMediaTransfer
T _ZN15AndroidAudioMIO8initDataEv
T _ZN15AndroidAudioMIO9QueryUUIDERK11OSCL_StringR11Oscl_VectorI8OsclUuid16OsclMemAllocatorEbPKv
T _ZN15AndroidAudioMIO9ResetDataEv
T _ZN15AndroidAudioMIOC1EPKc
T _ZN15AndroidAudioMIOC2EPKc
T _ZN15AndroidAudioMIOD0Ev
T _ZN15AndroidAudioMIOD1Ev
T _ZN15AndroidAudioMIOD2Ev
U _ZN15OSCL_FastStringC1EPKc
U _ZN15OSCL_FastStringC1Ev
U _ZN15OSCL_FastStringD1Ev
U _ZN15OSCL_FastStringaSEPKc
U _ZN15OsclLibraryList16GetLibraryPathAtEj
U _ZN15OsclLibraryList4SizeEv
U _ZN15OsclLibraryList8PopulateERK8OsclUuidRK11OSCL_String
U _ZN15OsclLibraryListC1Ev
U _ZN15OsclLibraryListD1Ev
U _ZN15OsclTLSRegistry11getInstanceEjRi
U _ZN15OsclTLSRegistry16registerInstanceEPvjRi
U _ZN15OsclTimerObject13RunIfNotReadyEj
U _ZN15OsclTimerObject14AddToSchedulerEv
U _ZN15OsclTimerObject19RemoveFromSchedulerEv
U _ZN15OsclTimerObject6CancelEv
U _ZN15OsclTimerObject8DoCancelEv
U _ZN15OsclTimerObject8RunErrorEi
U _ZN15OsclTimerObjectC1EiPKc
U _ZN15OsclTimerObjectD1Ev
U _ZN15Oscl_FileServer5CloseEv
U _ZN15Oscl_FileServer7ConnectEv
U _ZN15Oscl_FileServerC1Ev
U _ZN15Oscl_FileServerD1Ev
T _ZN15PVPlayerFactory12CreatePlayerEP23PVCommandStatusObserverP20PVErrorEventObserverP28PVInformationalEventObserver
T _ZN15PVPlayerFactory12DeletePlayerEP17PVPlayerInterface
T _ZN15TextSampleEntry10getBoxLeftEv
T _ZN15TextSampleEntry10getEndCharEv
T _ZN15TextSampleEntry11getBoxRightEv
T _ZN15TextSampleEntry11getfontSizeEv
T _ZN15TextSampleEntry12getBoxBottomEv
T _ZN15TextSampleEntry12getStartCharEv
T _ZN15TextSampleEntry15getFontListSizeEv
T _ZN15TextSampleEntry15getFontRecordAtEt
T _ZN15TextSampleEntry17getFontStyleFlagsEv
T _ZN15TextSampleEntry17getTextColourRGBAEv
T _ZN15TextSampleEntry9getBoxTopEv
T _ZN15TextSampleEntry9getFontIDEv
T _ZN15TextSampleEntryC1EP11MP4_FF_FILEjj
T _ZN15TextSampleEntryC2EP11MP4_FF_FILEjj
T _ZN15TextSampleEntryD0Ev
T _ZN15TextSampleEntryD1Ev
T _ZN15TextSampleEntryD2Ev
U _ZN15ThreadSafeQueue10AddToQueueEPvPj
U _ZN15ThreadSafeQueue10IsInThreadEv
U _ZN15ThreadSafeQueue7DeQueueERjRPv
U _ZN15ThreadSafeQueue9ConfigureEP23ThreadSafeQueueObserverjj
U _ZN15ThreadSafeQueueC1Ev
U _ZN15ThreadSafeQueueD1Ev
U _ZN16OSCL_HeapStringAC1EPKcjP13Oscl_DefAllocP14OsclRefCounter
U _ZN16OSCL_HeapStringAD1Ev
U _ZN16OsclActiveObject11PendForExecEv
U _ZN16OsclActiveObject12PendCompleteEi
U _ZN16OsclActiveObject13RunIfNotReadyEv
U _ZN16OsclActiveObject14AddToSchedulerEv
U _ZN16OsclActiveObject19RemoveFromSchedulerEv
U _ZN16OsclActiveObject6CancelEv
U _ZN16OsclActiveObject8DoCancelEv
U _ZN16OsclActiveObject8RunErrorEi
U _ZN16OsclActiveObjectC1EiPKc
U _ZN16OsclActiveObjectD1Ev
U _ZN16OsclErrorTrapImp4TrapEv
U _ZN16OsclErrorTrapImp6UnTrapEv
U _ZN16Oscl_Int64_Utils10set_uint64ERyjj
U _ZN16Oscl_Int64_Utils18get_uint64_lower32ERKy
U _ZN16Oscl_Vector_Base10push_frontEPKv
U _ZN16Oscl_Vector_Base13assign_vectorERKS_
U _ZN16Oscl_Vector_Base5eraseEPv
U _ZN16Oscl_Vector_Base5eraseEPvS0_
U _ZN16Oscl_Vector_Base7destroyEv
U _ZN16Oscl_Vector_Base7reserveEj
U _ZN16Oscl_Vector_Base9constructEP22Oscl_Opaque_Type_Alloc
U _ZN16Oscl_Vector_Base9constructEP22Oscl_Opaque_Type_AllocRKS_
U _ZN16Oscl_Vector_Base9push_backEPKv
U _ZN16PvmfPortBaseImpl10DisconnectEv
U _ZN16PvmfPortBaseImpl11PeerConnectEP17PVMFPortInterface
U _ZN16PvmfPortBaseImpl11ResumeInputEv
U _ZN16PvmfPortBaseImpl12PortActivityE20PVMFPortActivityType
U _ZN16PvmfPortBaseImpl12SuspendInputEv
U _ZN16PvmfPortBaseImpl14ClearMsgQueuesEv
U _ZN16PvmfPortBaseImpl14PeerDisconnectEv
U _ZN16PvmfPortBaseImpl14ReadyToReceiveEv
U _ZN16PvmfPortBaseImpl14isIncomingFullEv
U _ZN16PvmfPortBaseImpl14isOutgoingFullEv
U _ZN16PvmfPortBaseImpl16QueueOutgoingMsgE13OsclSharedPtrI12PVMFMediaMsgE
U _ZN16PvmfPortBaseImpl18DequeueIncomingMsgER13OsclSharedPtrI12PVMFMediaMsgE
U _ZN16PvmfPortBaseImpl19IsConnectedPortBusyEv
U _ZN16PvmfPortBaseImpl19IsOutgoingQueueBusyEv
U _ZN16PvmfPortBaseImpl20EvaluateIncomingBusyEv
U _ZN16PvmfPortBaseImpl20EvaluateOutgoingBusyEv
U _ZN16PvmfPortBaseImpl20IncomingMsgQueueSizeEv
U _ZN16PvmfPortBaseImpl20OutgoingMsgQueueSizeEv
U _ZN16PvmfPortBaseImpl4SendEv
U _ZN16PvmfPortBaseImpl7ReceiveE13OsclSharedPtrI12PVMFMediaMsgE
U _ZN16PvmfPortBaseImplC1EiP23PVMFPortActivityHandlerPKc
U _ZN16PvmfPortBaseImplC1EiP23PVMFPortActivityHandlerjjjjjjPKc
U _ZN16PvmfPortBaseImplD1Ev
T _ZN17MP4FileRecognizer9IsMP4FileEP35PVMFCPMPluginAccessInterfaceFactoryP15Oscl_FileServerP14OsclFileHandle
T _ZN17MP4FileRecognizer9IsMP4FileEP9Oscl_File
T _ZN17MP4FileRecognizer9IsMP4FileER12OSCL_wStringP15Oscl_FileServer
U _ZN17OSCL_wHeapStringAC1EPKwjP13Oscl_DefAllocP14OsclRefCounter
U _ZN17OSCL_wHeapStringAC1Ev
U _ZN17OSCL_wHeapStringAD1Ev
U _ZN17OSCL_wHeapStringAaSERKS_
U _ZN17OsclExecScheduler7CurrentEv
U _ZN17OsclSharedLibrary14QueryInterfaceERK8OsclUuidRPv
U _ZN17OsclSharedLibrary5CloseEv
U _ZN17OsclSharedLibrary7LoadLibERK11OSCL_String
U _ZN17OsclSharedLibraryC1Ev
U _ZN17OsclSharedLibraryD1Ev
U _ZN17Oscl_Rb_Tree_Base19rebalance_for_eraseEP22Oscl_Rb_Tree_Node_BaseRS1_S2_S2_
U _ZN17Oscl_Rb_Tree_Base9rebalanceEP22Oscl_Rb_Tree_Node_BaseRS1_
U _ZN17PVMFNodeInterface15ReportInfoEventERK14PVMFAsyncEvent
U _ZN17PVMFNodeInterface15ReportInfoEventEiPvP11PVInterface
U _ZN17PVMFNodeInterface16ReportErrorEventERK14PVMFAsyncEvent
U _ZN17PVMFNodeInterface16ReportErrorEventEiPvP11PVInterface
U _ZN17PVMFNodeInterface22ReportCmdCompleteEventEiRK11PVMFCmdResp
U _ZN17PVMFNodeInterface8SetStateE23TPVMFNodeInterfaceState
T _ZN17PVPlayerInterface10GetSDKInfoER9PVSDKInfo
T _ZN18AndroidAudioOutput11DiscardDataEjPKv
T _ZN18AndroidAudioOutput13cancelCommandEi
T _ZN18AndroidAudioOutput14QueryInterfaceERK8OsclUuidRP11PVInterfacePKv
T _ZN18AndroidAudioOutput16returnAllBuffersEv
T _ZN18AndroidAudioOutput16writeAudioBufferEPhjiPvj
T _ZN18AndroidAudioOutput17setParametersSyncEPvP9__PvmiKvpiRS2_
T _ZN18AndroidAudioOutput18audout_thread_funcEv
T _ZN18AndroidAudioOutput24start_audout_thread_funcEPv
T _ZN18AndroidAudioOutput27RequestAndWaitForThreadExitEv
T _ZN18AndroidAudioOutput3RunEv
T _ZN18AndroidAudioOutput4StopEPKv
T _ZN18AndroidAudioOutput5ResetEPKv
T _ZN18AndroidAudioOutput9QueryUUIDERK11OSCL_StringR11Oscl_VectorI8OsclUuid16OsclMemAllocatorEbPKv
T _ZN18AndroidAudioOutputC1Ev
T _ZN18AndroidAudioOutputC2Ev
T _ZN18AndroidAudioOutputD0Ev
T _ZN18AndroidAudioOutputD1Ev
T _ZN18AndroidAudioOutputD2Ev
T _ZN18AndroidAudioStream14QueryInterfaceERK8OsclUuidRP11PVInterfacePKv
T _ZN18AndroidAudioStream16writeAudioBufferEPhjiPvj
T _ZN18AndroidAudioStream17setParametersSyncEPvP9__PvmiKvpiRS2_
T _ZN18AndroidAudioStream9QueryUUIDERK11OSCL_StringR11Oscl_VectorI8OsclUuid16OsclMemAllocatorEbPKv
T _ZN18AndroidAudioStreamC1Ev
T _ZN18AndroidAudioStreamC2Ev
T _ZN18AndroidAudioStreamD0Ev
T _ZN18AndroidAudioStreamD1Ev
T _ZN18AndroidAudioStreamD2Ev
U _ZN18OsclConfigFileList15GetConfigfileAtEj
U _ZN18OsclConfigFileList4SizeEv
U _ZN18OsclConfigFileList8PopulateERK11OSCL_StringNS_8SortTypeE
U _ZN18OsclConfigFileListC1Ev
U _ZN18OsclConfigFileListD1Ev
U _ZN18OsclRegistryClient10UnRegisterER11OSCL_String
U _ZN18OsclRegistryClient5CloseEv
U _ZN18OsclRegistryClient7ConnectEb
U _ZN18OsclRegistryClient8RegisterER11OSCL_StringPv
U _ZN18OsclRegistryClientC1Ev
U _ZN18PVMFCreateKVPUtils21CreateKVPForBoolValueER9__PvmiKvpPKcRbPc
U _ZN18PVMFCreateKVPUtils23CreateKVPForUInt32ValueER9__PvmiKvpPKcRjPc
U _ZN18PVMFCreateKVPUtils27CreateKVPForCharStringValueER9__PvmiKvpPKcS3_Pcjj
T _ZN19AVCConfigurationBox18getPictureParamSetEiRtRPh
T _ZN19AVCConfigurationBox19getSequenceParamSetEiRtRPh
U _ZN19MediaClockConverter12update_clockEj
U _ZN19MediaClockConverter13set_timescaleEj
U _ZN19MediaClockConverter25set_clock_other_timescaleEjj
T _ZN19PVMFCPMContainerMp319CPMCommandCompletedERK11PVMFCmdResp
T _ZN20AndroidSurfaceOutput10disconnectEPv
T _ZN20AndroidSurfaceOutput10writeAsyncEhiPhjRK21__PvmiMediaXferHeaderPv
T _ZN20AndroidSurfaceOutput11DiscardDataEPKv
T _ZN20AndroidSurfaceOutput11DiscardDataEjPKv
T _ZN20AndroidSurfaceOutput11ThreadLogonEv
T _ZN20AndroidSurfaceOutput11setObserverEP34PvmiConfigAndCapabilityCmdObserver
T _ZN20AndroidSurfaceOutput12GetVideoSizeEPiS0_
T _ZN20AndroidSurfaceOutput12ThreadLogoffEv
T _ZN20AndroidSurfaceOutput12readCompleteEiiiRK21__PvmiMediaXferHeaderPv
T _ZN20AndroidSurfaceOutput12statusUpdateEj
T _ZN20AndroidSurfaceOutput13CancelCommandEiPKv
T _ZN20AndroidSurfaceOutput13DeleteContextEPvRS0_
T _ZN20AndroidSurfaceOutput13cancelCommandEi
T _ZN20AndroidSurfaceOutput13closeFrameBufEv
T _ZN20AndroidSurfaceOutput13createContextEPvRS0_
T _ZN20AndroidSurfaceOutput13postLastFrameEv
T _ZN20AndroidSurfaceOutput13writeCompleteEiiPv
T _ZN20AndroidSurfaceOutput13writeFrameBufEPhjRK21__PvmiMediaXferHeader
T _ZN20AndroidSurfaceOutput14CheckWriteBusyEj
T _ZN20AndroidSurfaceOutput14QueryInterfaceERK8OsclUuidRP11PVInterfacePKv
T _ZN20AndroidSurfaceOutput15setVideoSurfaceERKN7android2spINS0_8ISurfaceEEE
T _ZN20AndroidSurfaceOutput17CancelAllCommandsEPKv
T _ZN20AndroidSurfaceOutput17cancelAllCommandsEv
T _ZN20AndroidSurfaceOutput17getParametersSyncEPvPcRP9__PvmiKvpRiS0_
T _ZN20AndroidSurfaceOutput17releaseParametersEPvP9__PvmiKvpi
T _ZN20AndroidSurfaceOutput17setParametersSyncEPvP9__PvmiKvpiRS2_
T _ZN20AndroidSurfaceOutput18setParametersAsyncEPvP9__PvmiKvpiRS2_S0_
T _ZN20AndroidSurfaceOutput19createMediaTransferERPvP9__PvmiKvpiS3_i
T _ZN20AndroidSurfaceOutput19deleteMediaTransferERPvP17PvmiMediaTransfer
T _ZN20AndroidSurfaceOutput19getCapabilityMetricEPv
T _ZN20AndroidSurfaceOutput19useMemoryAllocatorsEP16OsclMemAllocator
T _ZN20AndroidSurfaceOutput20QueueCommandResponseERNS_15CommandResponseE
T _ZN20AndroidSurfaceOutput20setContextParametersEPvRS0_P9__PvmiKvpi
T _ZN20AndroidSurfaceOutput20verifyParametersSyncEPvP9__PvmiKvpi
T _ZN20AndroidSurfaceOutput24checkVideoParameterFlagsEv
T _ZN20AndroidSurfaceOutput24resetVideoParameterFlagsEv
T _ZN20AndroidSurfaceOutput25processWriteResponseQueueEi
T _ZN20AndroidSurfaceOutput3RunEv
T _ZN20AndroidSurfaceOutput3setEPN7android8PVPlayerERKNS0_2spINS0_8ISurfaceEEEb
T _ZN20AndroidSurfaceOutput4InitEPKv
T _ZN20AndroidSurfaceOutput4StopEPKv
T _ZN20AndroidSurfaceOutput5FlushEPKv
T _ZN20AndroidSurfaceOutput5PauseEPKv
T _ZN20AndroidSurfaceOutput5ResetEPKv
T _ZN20AndroidSurfaceOutput5StartEPKv
T _ZN20AndroidSurfaceOutput7CleanupEv
T _ZN20AndroidSurfaceOutput7connectERPvP15PvmiMIOObserver
T _ZN20AndroidSurfaceOutput7setPeerEP17PvmiMediaTransfer
T _ZN20AndroidSurfaceOutput8initDataEv
T _ZN20AndroidSurfaceOutput9QueryUUIDERK11OSCL_StringR11Oscl_VectorI8OsclUuid16OsclMemAllocatorEbPKv
T _ZN20AndroidSurfaceOutput9ResetDataEv
T _ZN20AndroidSurfaceOutput9initCheckEv
T _ZN20AndroidSurfaceOutput9readAsyncEPhjPvPit
T _ZN20AndroidSurfaceOutputC1Ev
T _ZN20AndroidSurfaceOutputC2Ev
T _ZN20AndroidSurfaceOutputD0Ev
T _ZN20AndroidSurfaceOutputD1Ev
T _ZN20AndroidSurfaceOutputD2Ev
U _ZN20ThreadSafeCallbackAO12ReceiveEventEPv
U _ZN20ThreadSafeCallbackAO7DeQueueERi
U _ZN20ThreadSafeCallbackAOC1EPvjPKci
U _ZN20ThreadSafeCallbackAOD1Ev
T _ZN21CPMPluginRegistryImpl12lookupPluginER11OSCL_String
T _ZN21CPMPluginRegistryImpl13GetNumPlugInsEv
T _ZN21CPMPluginRegistryImpl17GetPluginMimeTypeEjR11OSCL_String
T _ZN21CPMPluginRegistryImpl19addPluginToRegistryER11OSCL_StringR18CPMPluginContainer
T _ZN21CPMPluginRegistryImpl24removePluginFromRegistryER11OSCL_String
T _ZN21CPMPluginRegistryImplC1Ev
T _ZN21CPMPluginRegistryImplC2Ev
T _ZN21CPMPluginRegistryImplD0Ev
T _ZN21CPMPluginRegistryImplD1Ev
T _ZN21CPMPluginRegistryImplD2Ev
U _ZN21OsclPriorityQueueBase6removeEPKv
U _ZN21OsclPriorityQueueBase8pop_heapEPvS0_
U _ZN21OsclPriorityQueueBase9push_heapEPvS0_
U _ZN21OsclSharedLibraryList16QueryInterfaceAtEjRPv
U _ZN21OsclSharedLibraryList8PopulateERK11OSCL_StringRK8OsclUuid
U _ZN21OsclSharedLibraryListC1Ev
U _ZN21OsclSharedLibraryListD1Ev
U _ZN21OsclSingletonRegistry18lockAndGetInstanceEjRi
U _ZN21OsclSingletonRegistry25registerInstanceAndUnlockEPvjRi
U _ZN21PVMFSimpleMediaBufferC1EPvjP14OsclRefCounter
U _ZN21PVTimeComparisonUtils9IsEarlierEjjRj
T _ZN22PVMFRecognizerRegistry11OpenSessionERiR29PVMFRecognizerCommmandHandler
T _ZN22PVMFRecognizerRegistry12CloseSessionEi
T _ZN22PVMFRecognizerRegistry12RemovePluginER27PVMFRecognizerPluginFactory
T _ZN22PVMFRecognizerRegistry13CancelCommandEiiPv
T _ZN22PVMFRecognizerRegistry14RegisterPluginER27PVMFRecognizerPluginFactory
T _ZN22PVMFRecognizerRegistry4InitEv
T _ZN22PVMFRecognizerRegistry7CleanupEv
T _ZN22PVMFRecognizerRegistry9RecognizeEiR35PVMFCPMPluginAccessInterfaceFactoryP11Oscl_VectorI15OSCL_HeapStringI16OsclMemAllocatorES4_ERS2_I20PVMFRecognizerResultS4_EPvj
U _ZN22PVMFTimebase_Tickcount16GetCurrentTick32ERjRb
U _ZN23PVFileOutputNodeFactory16CreateFileOutputEi
U _ZN23PVFileOutputNodeFactory16DeleteFileOutputEP17PVMFNodeInterface
U _ZN23PVMFDurationInfoMessageC1Eji8OsclUuid
U _ZN24OsclRegistryAccessClient12GetFactoriesER11OSCL_StringR11Oscl_VectorI25OsclRegistryAccessElement16OsclMemAllocatorE
U _ZN24OsclRegistryAccessClient5CloseEv
U _ZN24OsclRegistryAccessClient7ConnectEv
U _ZN24OsclRegistryAccessClientC1Ev
U _ZN24OsclRegistryAccessClientD1Ev
T _ZN24PVAACFFRecognizerFactory22CreateRecognizerPluginEv
T _ZN24PVAACFFRecognizerFactory23DestroyRecognizerPluginEP29PVMFRecognizerPluginInterface
T _ZN24PVAMRFFRecognizerFactory22CreateRecognizerPluginEv
T _ZN24PVAMRFFRecognizerFactory23DestroyRecognizerPluginEP29PVMFRecognizerPluginInterface
T _ZN24PVMP3FFRecognizerFactory22CreateRecognizerPluginEv
T _ZN24PVMP3FFRecognizerFactory23DestroyRecognizerPluginEP29PVMFRecognizerPluginInterface
U _ZN24PVMediaOutputNodeFactory21CreateMediaOutputNodeEP14PvmiMIOControl
U _ZN24PVMediaOutputNodeFactory21DeleteMediaOutputNodeEP17PVMFNodeInterface
T _ZN24PVWAVFFRecognizerFactory22CreateRecognizerPluginEv
T _ZN24PVWAVFFRecognizerFactory23DestroyRecognizerPluginEP29PVMFRecognizerPluginInterface
T _ZN25PVFrameAndMetadataFactory29CreateFrameAndMetadataUtilityEPcP23PVCommandStatusObserverP20PVErrorEventObserverP28PVInformationalEventObserver
T _ZN25PVFrameAndMetadataFactory29DeleteFrameAndMetadataUtilityEP27PVFrameAndMetadataInterface
U _ZN25PVMFBasicErrorInfoMessageC1EiR8OsclUuidP29PVMFErrorInfoMessageInterface
T _ZN25PVMFCPMPassThruPlugInOMA110GetLicenseEiR11OSCL_StringPvjiS2_
T _ZN25PVMFCPMPassThruPlugInOMA110GetLicenseEiR12OSCL_wStringPvjiS2_
T _ZN25PVMFCPMPassThruPlugInOMA113GetLicenseURLEiR11OSCL_StringS1_
T _ZN25PVMFCPMPassThruPlugInOMA113GetLicenseURLEiR12OSCL_wStringS1_
T _ZN25PVMFCPMPassThruPlugInOMA113UsageCompleteEiPKv
T _ZN25PVMFCPMPassThruPlugInOMA114AuthorizeUsageEiR9__PvmiKvpS1_S1_RjPv
T _ZN25PVMFCPMPassThruPlugInOMA114QueryInterfaceEiRK8OsclUuidRP11PVInterfacePKv
T _ZN25PVMFCPMPassThruPlugInOMA116AuthenticateUserEiPvS0_
T _ZN25PVMFCPMPassThruPlugInOMA116CancelGetLicenseEiiPv
T _ZN25PVMFCPMPassThruPlugInOMA117GetCPMContentTypeEv
T _ZN25PVMFCPMPassThruPlugInOMA118GetNumMetadataKeysEPc
T _ZN25PVMFCPMPassThruPlugInOMA119GetNodeMetadataKeysEiR11Oscl_VectorI15OSCL_HeapStringI16OsclMemAllocatorES2_EjiPcPKv
T _ZN25PVMFCPMPassThruPlugInOMA120GetNumMetadataValuesER11Oscl_VectorI15OSCL_HeapStringI16OsclMemAllocatorES2_E
T _ZN25PVMFCPMPassThruPlugInOMA121GetNodeMetadataValuesEiR11Oscl_VectorI15OSCL_HeapStringI16OsclMemAllocatorES2_ERS0_I9__PvmiKvpS2_EjiPKv
T _ZN25PVMFCPMPassThruPlugInOMA123ReleaseNodeMetadataKeysER11Oscl_VectorI15OSCL_HeapStringI16OsclMemAllocatorES2_Ejj
T _ZN25PVMFCPMPassThruPlugInOMA125QueryAccessInterfaceUUIDsER11Oscl_VectorI8OsclUuid16OsclMemAllocatorE
T _ZN25PVMFCPMPassThruPlugInOMA125ReleaseNodeMetadataValuesER11Oscl_VectorI9__PvmiKvp16OsclMemAllocatorEjj
T _ZN25PVMFCPMPassThruPlugInOMA127SetSourceInitializationDataER12OSCL_wStringR14PVMFFormatTypePv
T _ZN25PVMFCPMPassThruPlugInOMA129SetStreamReadCapacityObserverEP34PVMFDataStreamReadCapacityObserver
T _ZN25PVMFCPMPassThruPlugInOMA134CreatePVMFCPMPluginAccessInterfaceER8OsclUuid
T _ZN25PVMFCPMPassThruPlugInOMA135DestroyPVMFCPMPluginAccessInterfaceER8OsclUuidP11PVInterface
T _ZN25PVMFCPMPassThruPlugInOMA14InitEiPKv
T _ZN25PVMFCPMPassThruPlugInOMA15ResetEiPKv
T _ZN25PVMFCPMPassThruPlugInOMA19QueryUUIDEiRK11OSCL_StringR11Oscl_VectorI8OsclUuid16OsclMemAllocatorEbPKv
T _ZN25PVMFCPMPassThruPlugInOMA1C1Ebbbji
T _ZN25PVMFCPMPassThruPlugInOMA1C2Ebbbji
T _ZN26PVMFAACFFParserNodeFactory25CreatePVMFAACFFParserNodeEi
T _ZN26PVMFAACFFParserNodeFactory25DeletePVMFAACFFParserNodeEP17PVMFNodeInterface
T _ZN26PVMFAMRFFParserNodeFactory25CreatePVMFAMRFFParserNodeEi
T _ZN26PVMFAMRFFParserNodeFactory25DeletePVMFAMRFFParserNodeEP17PVMFNodeInterface
T _ZN26PVMFMP3FFParserNodeFactory25CreatePVMFMP3FFParserNodeEi
T _ZN26PVMFMP3FFParserNodeFactory25DeletePVMFMP3FFParserNodeEP17PVMFNodeInterface
U _ZN26PVMFOMXAudioDecNodeFactory25CreatePVMFOMXAudioDecNodeEi
U _ZN26PVMFOMXAudioDecNodeFactory25DeletePVMFOMXAudioDecNodeEP17PVMFNodeInterface
U _ZN26PVMFOMXVideoDecNodeFactory25CreatePVMFOMXVideoDecNodeEi
U _ZN26PVMFOMXVideoDecNodeFactory25DeletePVMFOMXVideoDecNodeEP17PVMFNodeInterface
T _ZN26PVMFWAVFFParserNodeFactory25CreatePVMFWAVFFParserNodeEi
T _ZN26PVMFWAVFFParserNodeFactory25DeletePVMFWAVFFParserNodeEP17PVMFNodeInterface
U _ZN27OsclExecSchedulerCommonBase13StopSchedulerEv
U _ZN27OsclExecSchedulerCommonBase14StartSchedulerEP13OsclSemaphore
U _ZN29OsclMemPoolResizableAllocator9removeRefEv
U _ZN29OsclMemPoolResizableAllocatorC1EjjjP13Oscl_DefAlloc
T _ZN29PVMFOma1PassthruPluginFactory15CreateCPMPluginEv
T _ZN29PVMFOma1PassthruPluginFactory16DestroyCPMPluginEP22PVMFCPMPluginInterface
T _ZN29PVMFOma1PassthruPluginFactoryC1Ebbbj
T _ZN29PVMFOma1PassthruPluginFactoryC1Ev
T _ZN29PVMFOma1PassthruPluginFactoryC2Ebbbj
T _ZN29PVMFOma1PassthruPluginFactoryC2Ev
U _ZN30OsclMemPoolFixedChunkAllocator10deallocateEPv
U _ZN30OsclMemPoolFixedChunkAllocator8allocateEj
U _ZN30OsclMemPoolFixedChunkAllocator9removeRefEv
U _ZN30OsclMemPoolFixedChunkAllocatorC1EjjP13Oscl_DefAlloc
U _ZN30OsclMemPoolFixedChunkAllocatorD1Ev
U _ZN30PVMFMemPoolFixedChunkAllocatorC1EPKcjjP13Oscl_DefAlloc
T _ZN34AndroidAudioMIOActiveTimingSupport11UpdateClockEv
T _ZN34AndroidAudioMIOActiveTimingSupport14queryInterfaceERK8OsclUuidRP11PVInterface
T _ZN34AndroidAudioMIOActiveTimingSupport16setDriverLatencyEj
T _ZN34AndroidAudioMIOActiveTimingSupport17ClockStateUpdatedEv
T _ZN34AndroidAudioMIOActiveTimingSupport31NotificationsInterfaceDestroyedEv
W _ZN34AndroidAudioMIOActiveTimingSupport6addRefEv
T _ZN34AndroidAudioMIOActiveTimingSupport8SetClockEP14PVMFMediaClock
T _ZN34AndroidAudioMIOActiveTimingSupport9queryUuidER8OsclUuid
W _ZN34AndroidAudioMIOActiveTimingSupport9removeRefEv
T _ZN34PVMFCPMPluginFactoryRegistryClient14RegisterPluginER11OSCL_StringR20PVMFCPMPluginFactory
T _ZN34PVMFCPMPluginFactoryRegistryClient16UnRegisterPluginER11OSCL_String
T _ZN34PVMFCPMPluginFactoryRegistryClient5CloseEv
T _ZN34PVMFCPMPluginFactoryRegistryClient7ConnectEb
T _ZN34PVMFCPMPluginFactoryRegistryClientC1Ev
T _ZN34PVMFCPMPluginFactoryRegistryClientC2Ev
T _ZN34PVMFCPMPluginFactoryRegistryClientD1Ev
T _ZN34PVMFCPMPluginFactoryRegistryClientD2Ev
U _ZN34PVMFSimpleMediaBufferCombinedAlloc8allocateEj
U _ZN37PVMIDataStreamSyncInterfaceRefFactoryC1ER12OSCL_wString
U _ZN37PvmiCapabilityAndConfigPortFormatImpl17getParametersSyncEPvPcRP9__PvmiKvpRiS0_
U _ZN37PvmiCapabilityAndConfigPortFormatImpl17releaseParametersEPvP9__PvmiKvpi
U _ZN37PvmiCapabilityAndConfigPortFormatImpl17setParametersSyncEPvP9__PvmiKvpiRS2_
U _ZN37PvmiCapabilityAndConfigPortFormatImpl20verifyParametersSyncEPvP9__PvmiKvpi
T _ZN38AndroidAudioOutputThreadSafeCallbackAO12ProcessEventEPv
T _ZN38AndroidAudioOutputThreadSafeCallbackAO3RunEv
T _ZN38AndroidAudioOutputThreadSafeCallbackAO7DequeueERi
T _ZN38AndroidAudioOutputThreadSafeCallbackAOC1EPvjPKci
T _ZN38AndroidAudioOutputThreadSafeCallbackAOC2EPvjPKci
T _ZN38AndroidAudioOutputThreadSafeCallbackAOD0Ev
T _ZN38AndroidAudioOutputThreadSafeCallbackAOD1Ev
T _ZN38AndroidAudioOutputThreadSafeCallbackAOD2Ev
U _ZN3GAUC1Ev
U _ZN3GAUD1Ev
T _ZN52PVMFCPMPassThruPlugInOMA1DataStreamSyncInterfaceImpl11OpenSessionERi18PvmiDataStreamModeb
T _ZN52PVMFCPMPassThruPlugInOMA1DataStreamSyncInterfaceImpl12CloseSessionEi
T _ZN52PVMFCPMPassThruPlugInOMA1DataStreamSyncInterfaceImpl14queryInterfaceERK8OsclUuidRP11PVInterface
T _ZN52PVMFCPMPassThruPlugInOMA1DataStreamSyncInterfaceImpl17QueryReadCapacityEiRj
T _ZN52PVMFCPMPassThruPlugInOMA1DataStreamSyncInterfaceImpl18CancelNotificationEiR22PvmiDataStreamObserveriPv
T _ZN52PVMFCPMPassThruPlugInOMA1DataStreamSyncInterfaceImpl18QueryWriteCapacityEiRj
T _ZN52PVMFCPMPassThruPlugInOMA1DataStreamSyncInterfaceImpl25GetCurrentPointerPositionEi
T _ZN52PVMFCPMPassThruPlugInOMA1DataStreamSyncInterfaceImpl27QueryRandomAccessCapabilityEv
T _ZN52PVMFCPMPassThruPlugInOMA1DataStreamSyncInterfaceImpl31RequestReadCapacityNotificationEiR22PvmiDataStreamObserverjPv
T _ZN52PVMFCPMPassThruPlugInOMA1DataStreamSyncInterfaceImpl32RequestWriteCapacityNotificationEiR22PvmiDataStreamObserverjPv
T _ZN52PVMFCPMPassThruPlugInOMA1DataStreamSyncInterfaceImpl4ReadEiPhjRj
T _ZN52PVMFCPMPassThruPlugInOMA1DataStreamSyncInterfaceImpl4SeekEii22PvmiDataStreamSeekType
T _ZN52PVMFCPMPassThruPlugInOMA1DataStreamSyncInterfaceImpl5FlushEi
T _ZN52PVMFCPMPassThruPlugInOMA1DataStreamSyncInterfaceImpl5WriteEiPhjRj
U _ZN6PVFile16GetContentLengthEv
U _ZN6PVFile17GetRemainingBytesERj
U _ZN6PVFile19GetCurrentByteRangeERjS0_
U _ZN6PVFile22CancelNotificationSyncEv
U _ZN6PVFile24GetFileBufferingCapacityEv
U _ZN6PVFile31RequestReadCapacityNotificationER22PvmiDataStreamObserverjPv
U _ZN6PVFile4OpenEPKwjR15Oscl_FileServer
U _ZN6PVFile4ReadEPvjj
U _ZN6PVFile4SeekEiN9Oscl_File9seek_typeE
U _ZN6PVFile4SkipEiN9Oscl_File9seek_typeE
U _ZN6PVFile4TellEv
U _ZN6PVFile5CloseEv
U _ZN6PVFile5FlushEv
T _ZN7EnctBox10getBoxLeftEv
T _ZN7EnctBox10getEndCharEv
T _ZN7EnctBox11getBoxRightEv
T _ZN7EnctBox11getfontSizeEv
T _ZN7EnctBox12getBoxBottomEv
T _ZN7EnctBox12getStartCharEv
T _ZN7EnctBox15getFontListSizeEv
T _ZN7EnctBox15getFontRecordAtEt
T _ZN7EnctBox17getFontStyleFlagsEv
T _ZN7EnctBox17getTextColourRGBAEv
T _ZN7EnctBox9getBoxTopEv
T _ZN7EnctBox9getFontIDEv
T _ZN7EnctBoxC1EP11MP4_FF_FILEjj
T _ZN7EnctBoxC2EP11MP4_FF_FILEjj
T _ZN7EnctBoxD0Ev
T _ZN7EnctBoxD1Ev
T _ZN7EnctBoxD2Ev
U _ZN7OsclMem4InitEv
U _ZN7OsclMem7CleanupEv
T _ZN7android12MediaScanner11processFileEPKcS2_RNS_18MediaScannerClientE
T _ZN7android12MediaScanner15extractAlbumArtEi
T _ZN7android12MediaScanner16processDirectoryEPKcS2_RNS_18MediaScannerClientEPFbPvES5_
T _ZN7android12MediaScanner18doProcessDirectoryEPciPKcRNS_18MediaScannerClientEPFbPvES6_
T _ZN7android12MediaScanner9setLocaleEPKc
T _ZN7android12MediaScannerC1Ev
T _ZN7android12MediaScannerC2Ev
T _ZN7android12MediaScannerD1Ev
T _ZN7android12MediaScannerD2Ev
U _ZN7android14MemoryHeapBaseC1EjjPKc
T _ZN7android14MetadataDriver10clearCacheEv
T _ZN7android14MetadataDriver12captureFrameEv
T _ZN7android14MetadataDriver12handleCreateEv
D _ZN7android14MetadataDriver13ALBUM_ART_KEYE
D _ZN7android14MetadataDriver13METADATA_KEYSE
T _ZN7android14MetadataDriver13handleCleanUpEv
T _ZN7android14MetadataDriver13setDataSourceEPKc
T _ZN7android14MetadataDriver14handleGetFrameEv
T _ZN7android14MetadataDriver15doSetDataSourceEPKc
T _ZN7android14MetadataDriver15extractAlbumArtEv
T _ZN7android14MetadataDriver15extractMetadataEPKcPcj
T _ZN7android14MetadataDriver15extractMetadataEi
T _ZN7android14MetadataDriver15retrieverThreadEv
T _ZN7android14MetadataDriver15setDataSourceFdEixx
T _ZN7android14MetadataDriver16CommandCompletedERK13PVCmdResponse
T _ZN7android14MetadataDriver16HandleErrorEventERK17PVAsyncErrorEvent
T _ZN7android14MetadataDriver17doColorConversionEv
T _ZN7android14MetadataDriver17doExtractAlbumArtEv
T _ZN7android14MetadataDriver17startDriverThreadEPv
T _ZN7android14MetadataDriver19handleAddDataSourceEv
T _ZN7android14MetadataDriver20handleCommandFailureEv
T _ZN7android14MetadataDriver21handleGetMetadataKeysEv
T _ZN7android14MetadataDriver22handleRemoveDataSourceEv
T _ZN7android14MetadataDriver23extractEmbeddedAlbumArtEPK14PvmfApicStruct
T _ZN7android14MetadataDriver23extractExternalAlbumArtEPKc
T _ZN7android14MetadataDriver23handleGetMetadataValuesEv
T _ZN7android14MetadataDriver24HandleInformationalEventERK25PVAsyncInformationalEvent
T _ZN7android14MetadataDriver24closeSharedFdIfNecessaryEv
T _ZN7android14MetadataDriver29cacheMetadataRetrievalResultsEv
T _ZN7android14MetadataDriver3RunEv
T _ZN7android14MetadataDriver8trimKeysEv
T _ZN7android14MetadataDriverC1Ej
T _ZN7android14MetadataDriverC2Ej
T _ZN7android14MetadataDriverD0Ev
T _ZN7android14MetadataDriverD1Ev
T _ZN7android14MetadataDriverD2Ev
T _ZN7android18MediaScannerClient12addStringTagEPKcS2_
T _ZN7android18MediaScannerClient13convertValuesEj
T _ZN7android18MediaScannerClient7endFileEv
T _ZN7android18MediaScannerClient9beginFileEv
T _ZN7android18MediaScannerClient9setLocaleEPKc
T _ZN7android18MediaScannerClientC1Ev
T _ZN7android18MediaScannerClientC2Ev
T _ZN7android18MediaScannerClientD0Ev
T _ZN7android18MediaScannerClientD1Ev
T _ZN7android18MediaScannerClientD2Ev
T _ZN7android19PVMetadataRetriever12captureFrameEv
T _ZN7android19PVMetadataRetriever13setDataSourceEPKc
T _ZN7android19PVMetadataRetriever13setDataSourceEixx
T _ZN7android19PVMetadataRetriever15extractAlbumArtEv
T _ZN7android19PVMetadataRetriever15extractMetadataEi
T _ZN7android19PVMetadataRetriever7setModeEi
T _ZN7android19PVMetadataRetrieverC1Ev
T _ZN7android19PVMetadataRetrieverC2Ev
T _ZN7android19PVMetadataRetrieverD0Ev
T _ZN7android19PVMetadataRetrieverD1Ev
T _ZN7android19PVMetadataRetrieverD2Ev
U _ZN7android22MediaMetadataRetriever10disconnectEv
U _ZN7android22MediaMetadataRetriever13setDataSourceEPKc
U _ZN7android22MediaMetadataRetriever15extractMetadataEi
U _ZN7android22MediaMetadataRetriever7setModeEi
U _ZN7android22MediaMetadataRetrieverC1Ev
W _ZN7android2spINS_11IMemoryHeapEEaSERKS2_
W _ZN7android2spINS_15MediaPlayerBase9AudioSinkEEaSERKS3_
W _ZN7android2spINS_8ISurfaceEEaSEPS1_
W _ZN7android2spINS_8ISurfaceEEaSERKS2_
U _ZN7android5Mutex4lockEv
U _ZN7android5Mutex6unlockEv
U _ZN7android5MutexC1Ev
U _ZN7android5MutexD1Ev
U _ZN7android7RefBase10onFirstRefEv
U _ZN7android7RefBase13onLastWeakRefEPKv
U _ZN7android7RefBase15onLastStrongRefEPKv
U _ZN7android7RefBase20onIncStrongAttemptedEjPKv
U _ZN7android7RefBaseC1Ev
U _ZN7android7RefBaseD1Ev
U _ZN7android8ISurface10BufferHeapC1EjjiiiRKNS_2spINS_11IMemoryHeapEEE
U _ZN7android8ISurface10BufferHeapC1Ev
U _ZN7android8ISurface10BufferHeapD1Ev
T _ZN7android8PVPlayer10setLoopingEi
T _ZN7android8PVPlayer11getDurationEPi
T _ZN7android8PVPlayer11run_prepareEiPvb
T _ZN7android8PVPlayer12prepareAsyncEv
B _ZN7android8PVPlayer13sNumInstancesE
T _ZN7android8PVPlayer13setDataSourceEPKc
T _ZN7android8PVPlayer13setDataSourceEixx
T _ZN7android8PVPlayer15setVideoSurfaceERKNS_2spINS_8ISurfaceEEE
T _ZN7android8PVPlayer18getCurrentPositionEPi
T _ZN7android8PVPlayer20run_set_audio_outputEiPvb
T _ZN7android8PVPlayer21run_set_video_surfaceEiPvb
T _ZN7android8PVPlayer4stopEv
T _ZN7android8PVPlayer5pauseEv
T _ZN7android8PVPlayer5resetEv
T _ZN7android8PVPlayer5startEv
T _ZN7android8PVPlayer6seekToEi
T _ZN7android8PVPlayer7prepareEv
T _ZN7android8PVPlayer8run_initEiPvb
T _ZN7android8PVPlayer9initCheckEv
T _ZN7android8PVPlayer9isPlayingEv
T _ZN7android8PVPlayerC1Ev
T _ZN7android8PVPlayerC2Ev
T _ZN7android8PVPlayerD0Ev
T _ZN7android8PVPlayerD1Ev
T _ZN7android8PVPlayerD2Ev
U _ZN8CHeapRep10append_repERPS_R13Oscl_DefAllocPKcj
U _ZN8CHeapRep10append_repERPS_R13Oscl_DefAllocPKwj
U _ZN8CHeapRep10remove_refER13Oscl_DefAlloc
U _ZN8CHeapRep6assignERPS_S0_R13Oscl_DefAlloc
U _ZN8CHeapRep7set_repERPS_R13Oscl_DefAllocPKcj
U _ZN8CHeapRep7set_repERPS_R13Oscl_DefAllocPKwj
T _ZN8CPVXInfoC1Ev
T _ZN8CPVXInfoC2Ev
T _ZN8CPVXInfoD1Ev
T _ZN8CPVXInfoD2Ev
T _ZN8FullAtomD0Ev
T _ZN8FullAtomD1Ev
T _ZN8FullAtomD2Ev
U _ZN8OsclBase4InitEv
U _ZN8OsclBase7CleanupEv
U _ZN8PVLogger15GetLoggerObjectEPKc
U _ZN8PVLogger23SetLogLevelAndPropagateEi
U _ZN8PVLogger4InitEv
U _ZN8PVLogger7CleanupEv
U _ZN8SkBitmap11allocPixelsEPNS_9AllocatorEP12SkColorTable
U _ZN8SkBitmap9setConfigENS_6ConfigEiii
U _ZN8SkBitmapC1Ev
U _ZN8SkBitmapD1Ev
T _ZN9AtomUtils10read8read8EP11MP4_FF_FILERhS2_
T _ZN9AtomUtils10readStringEP11MP4_FF_FILEjR26MP4FFParserOriginalCharEncR12OSCL_wString
T _ZN9AtomUtils11OpenMP4FileER12OSCL_wStringjP11MP4_FF_FILE
T _ZN9AtomUtils12CloseMP4FileEP11MP4_FF_FILE
T _ZN9AtomUtils12peekNextByteEP11MP4_FF_FILE
T _ZN9AtomUtils12read16read16EP11MP4_FF_FILERtS2_
T _ZN9AtomUtils12read32read32EP11MP4_FF_FILERjS2_
T _ZN9AtomUtils12read32read32ERPhRjS2_
T _ZN9AtomUtils12readByteDataEP11MP4_FF_FILEjPh
T _ZN9AtomUtils12readByteDataERPhjS0_
T _ZN9AtomUtils13seekFromStartEP11MP4_FF_FILEj
T _ZN9AtomUtils13skipFromStartEP11MP4_FF_FILEj
T _ZN9AtomUtils14readUTF8StringEP11MP4_FF_FILEjR12OSCL_wString
T _ZN9AtomUtils15getNextAtomSizeEP11MP4_FF_FILE
T _ZN9AtomUtils15getNextAtomSizeEPh
T _ZN9AtomUtils15getNextAtomTypeEP11MP4_FF_FILERjS2_
T _ZN9AtomUtils15getNextAtomTypeEPh
T _ZN9AtomUtils15readAsciiStringEP11MP4_FF_FILEjR12OSCL_wString
T _ZN9AtomUtils15readUnicodeDataEP11MP4_FF_FILEjPt
T _ZN9AtomUtils15seekFromCurrPosEP11MP4_FF_FILEj
T _ZN9AtomUtils16getContentLengthEP11MP4_FF_FILE
T _ZN9AtomUtils16peekNextNthBytesEP11MP4_FF_FILEi
T _ZN9AtomUtils17readUnicodeStringEP11MP4_FF_FILEjR12OSCL_wString
T _ZN9AtomUtils18getCurrentFileSizeEP11MP4_FF_FILERj
T _ZN9AtomUtils19getCurrentByteRangeEP11MP4_FF_FILERjS2_
T _ZN9AtomUtils20rewindFilePointerByNEP11MP4_FF_FILEj
T _ZN9AtomUtils22getCurrentFilePositionEP11MP4_FF_FILE
T _ZN9AtomUtils24getFileBufferingCapacityEP11MP4_FF_FILE
T _ZN9AtomUtils24readNullTerminatedStringEP11MP4_FF_FILER12OSCL_wString
T _ZN9AtomUtils27getMediaTypeFromHandlerTypeEj
T _ZN9AtomUtils29readNullTerminatedAsciiStringEP11MP4_FF_FILER12OSCL_wString
T _ZN9AtomUtils31readNullTerminatedUnicodeStringEP11MP4_FF_FILER12OSCL_wString
T _ZN9AtomUtils34getNumberOfBytesUsedToStoreContentEj
T _ZN9AtomUtils38getNumberOfBytesUsedToStoreSizeOfClassEj
T _ZN9AtomUtils5FlushEP11MP4_FF_FILE
T _ZN9AtomUtils5read8EP11MP4_FF_FILERh
T _ZN9AtomUtils5read8ERPhRh
T _ZN9AtomUtils6read16EP11MP4_FF_FILERt
T _ZN9AtomUtils6read16ERPhRt
T _ZN9AtomUtils6read24EP11MP4_FF_FILERj
T _ZN9AtomUtils6read32EP11MP4_FF_FILERj
T _ZN9AtomUtils6read32ERPhRj
T _ZN9AtomUtils6read64EP11MP4_FF_FILERy
T _ZN9AtomUtils9seekToEndEP11MP4_FF_FILE
U _ZN9CStackRep3setEPKcj
U _ZN9CStackRep3setEPKwj
U _ZN9CStackRep6appendEPKcj
U _ZN9CStackRep6appendEPKwj
T _ZN9MovieAtom13getTrackForIDEj
T _ZN9MovieAtom13getTrackWidthEj
T _ZN9MovieAtom14getTrackHeightEj
T _ZN9MovieAtom14getTrackIDListEPji
T _ZN9MovieAtom21getSampleCountInTrackEj
T _ZN9MovieAtom24getMovieFragmentDurationEv
T _ZN9MovieAtom24getTrackNumSampleEntriesEj
T _ZN9MovieAtom36isMultipleSampleDescriptionAvailableEj
T _ZN9MovieAtomC1EP11MP4_FF_FILER12OSCL_wStringjjbbj
T _ZN9MovieAtomC2EP11MP4_FF_FILER12OSCL_wStringjjbbj
T _ZN9MovieAtomD0Ev
T _ZN9MovieAtomD1Ev
T _ZN9MovieAtomD2Ev
U _ZN9OsclError11LeaveIfNullEPv
U _ZN9OsclError5LeaveEi
U _ZN9OsclMutex4LockEv
U _ZN9OsclMutex5CloseEv
U _ZN9OsclMutex6CreateEv
U _ZN9OsclMutex6UnlockEv
U _ZN9OsclMutexC1Ev
U _ZN9OsclMutexD1Ev
U _ZN9Oscl_File4OpenEPKwjR15Oscl_FileServer
U _ZN9Oscl_File4ReadEPvjj
U _ZN9Oscl_File4SeekElNS_9seek_typeE
U _ZN9Oscl_File4SizeEv
U _ZN9Oscl_File4TellEv
U _ZN9Oscl_File5CloseEv
U _ZN9Oscl_File5FlushEv
U _ZN9Oscl_FileC1EjP14OsclFileHandle
U _ZN9Oscl_FileC1Ev
U _ZN9Oscl_FileD1Ev
T _ZN9TrackAtom23getObjectTypeIndicationEv
T _ZNK10IMpeg3File11GetDurationEv
T _ZNK10IMpeg3File12GetTimescaleEv
T _ZNK10IMpeg3File17ConvertSizeToTimeEjRj
T _ZNK10IMpeg3File29GetDecoderSpecificInfoContentEv
U _ZNK11OSCL_String11is_writableEv
U _ZNK11OSCL_String4hashEv
U _ZNK11OSCL_String4readEj
U _ZNK11OSCL_StringeqEPKc
U _ZNK11OSCL_StringeqERKS_
T _ZNK11PVID3ParCom13GetID3VersionEv
T _ZNK11PVID3ParCom14IsID3V1PresentEv
T _ZNK11PVID3ParCom14IsID3V2PresentEv
U _ZNK11PVMFCmdResp3IsAEv
U _ZNK12OSCL_wString11is_writableEv
U _ZNK12OSCL_wString4hashEv
U _ZNK12OSCL_wString4readEj
U _ZNK12PVActiveBase7IsAddedEv
T _ZNK13PlayerCommand8toStringEv
T _ZNK14CAACFileParser13GetID3VersionEv
U _ZNK14PVMFAsyncEvent3IsAEv
U _ZNK14PVMFFormatType12isCompressedEv
U _ZNK15OsclTimerObject6IsBusyEv
U _ZNK15OsclTimerObject6StatusEv
U _ZNK16OSCL_HeapStringA8get_cstrEv
U _ZNK16OSCL_HeapStringA8get_sizeEv
U _ZNK16PvmfPortBaseImpl10GetPortTagEv
U _ZNK19MediaClockConverter16get_converted_tsEj
T _ZNK7android14MetadataDriver19isCommandSuccessfulERK13PVCmdResponse
T _ZNK7android14MetadataDriver20containsSupportedKeyERK15OSCL_HeapStringI16OsclMemAllocatorE
T _ZNK7android19PVMetadataRetriever7getModeEPi
U _ZNK7android7RefBase9decStrongEPKv
U _ZNK7android7RefBase9incStrongEPKv
W _ZNK8FullAtom14getDefaultSizeEv
D _ZTC34AndroidAudioMIOActiveTimingSupport4_27PVMFMediaClockStateObserver
D _ZTT14PVPlayerEngine
V _ZTT27PVMFMediaClockStateObserver
V _ZTT30PVMFMediaClockNotificationsObs
D _ZTT34AndroidAudioMIOActiveTimingSupport
D _ZTV10FontRecord
V _ZTV10IMpeg4File
V _ZTV10Oscl_Alloc
V _ZTV10PlayerInit
V _ZTV10PlayerQuit
V _ZTV10PlayerSeek
V _ZTV10PlayerStop
V _ZTV10Renderable
D _ZTV10TextBoxBox
D _ZTV11HandlerAtom
D _ZTV11MediaBuffer
V _ZTV11Oscl_TAllocI15OSCL_HeapStringI16OsclMemAllocatorES1_E
V _ZTV11Oscl_TAllocI17Oscl_Rb_Tree_NodeI9Oscl_PairIK15OSCL_HeapStringI16OsclMemAllocatorEP18CPMPluginContainerEES3_E
V _ZTV11Oscl_TAllocI19PVMFMP3FFParserPort16OsclMemAllocatorE
V _ZTV11Oscl_TAllocI22PVMFAMRFFParserOutPort16OsclMemAllocatorE
V _ZTV11Oscl_TAllocI26PVMFRecognizerRegistryImpl16OsclMemAllocatorE
V _ZTV11Oscl_TAllocI8OsclUuid16OsclMemAllocatorE
V _ZTV11Oscl_TAllocIN9OsclTimerI16OsclMemAllocatorE11_TimerEntryES1_E
V _ZTV11Oscl_VectorI13OsclSharedPtrI9__PvmiKvpE16OsclMemAllocatorE
V _ZTV11Oscl_VectorI13PVMFTrackInfo16OsclMemAllocatorE
V _ZTV11Oscl_VectorI13WriteResponse16OsclMemAllocatorE
V _ZTV11Oscl_VectorI14CPMSessionInfo16OsclMemAllocatorE
V _ZTV11Oscl_VectorI14PVMFCPMCommand16OsclMemAllocatorE
V _ZTV11Oscl_VectorI14PVMFFormatType16OsclMemAllocatorE
V _ZTV11Oscl_VectorI15CPMPlugInParams16OsclMemAllocatorE
V _ZTV11Oscl_VectorI15OSCL_HeapStringI16OsclMemAllocatorES1_E
V _ZTV11Oscl_VectorI15PVMFNodeSession16OsclMemAllocatorE
V _ZTV11Oscl_VectorI16OSCL_wHeapStringI16OsclMemAllocatorES1_E
V _ZTV11Oscl_VectorI16PVMFPortActivity16OsclMemAllocatorE
V _ZTV11Oscl_VectorI16PVPlayerNodeInfo16OsclMemAllocatorE
V _ZTV11Oscl_VectorI18PVFMUtilityCommand16OsclMemAllocatorE
V _ZTV11Oscl_VectorI20PVMFAMRFFNodeCommand16OsclMemAllocatorE
V _ZTV11Oscl_VectorI20PVMFCPMPluginSession16OsclMemAllocatorE
V _ZTV11Oscl_VectorI20PVMFRecognizerResult16OsclMemAllocatorE
V _ZTV11Oscl_VectorI20PVMFWAVFFNodeCommand16OsclMemAllocatorE
V _ZTV11Oscl_VectorI21PVMFRecRegImplCommand16OsclMemAllocatorE
V _ZTV11Oscl_VectorI21PVMFRecRegSessionInfo16OsclMemAllocatorE
V _ZTV11Oscl_VectorI21PVPlayerEngineCommand16OsclMemAllocatorE
V _ZTV11Oscl_VectorI22CPMContentUsageContext16OsclMemAllocatorE
V _ZTV11Oscl_VectorI22PVPlayerEngineDatapath16OsclMemAllocatorE
V _ZTV11Oscl_VectorI24PVAACFFNodeTrackPortInfo16OsclMemAllocatorE
V _ZTV11Oscl_VectorI24PVAMRFFNodeTrackPortInfo16OsclMemAllocatorE
V _ZTV11Oscl_VectorI24PVWAVFFNodeTrackPortInfo16OsclMemAllocatorE
V _ZTV11Oscl_VectorI25OsclRegistryAccessElement16OsclMemAllocatorE
V _ZTV11Oscl_VectorI26MP4FFParserOriginalCharEnc16OsclMemAllocatorE
V _ZTV11Oscl_VectorI26PVMFAACFFParserNodeCommand16OsclMemAllocatorE
V _ZTV11Oscl_VectorI26PVMFMP3FFParserNodeCommand16OsclMemAllocatorE
V _ZTV11Oscl_VectorI28PVFMUtilityCommandParamUnion16OsclMemAllocatorE
V _ZTV11Oscl_VectorI28PVPlayerEngineTrackSelection16OsclMemAllocatorE
V _ZTV11Oscl_VectorI31PVMFRecRegImplCommandParamUnion16OsclMemAllocatorE
V _ZTV11Oscl_VectorI31PVPlayerEngineCommandParamUnion16OsclMemAllocatorE
V _ZTV11Oscl_VectorI32PVMFCPMPassThruPlugInOMA1Command16OsclMemAllocatorE
V _ZTV11Oscl_VectorI8OsclUuid16OsclMemAllocatorE
V _ZTV11Oscl_VectorI9__PvmiKvp16OsclMemAllocatorE
V _ZTV11Oscl_VectorIN12PVFMAudioMIO13WriteResponseE16OsclMemAllocatorE
V _ZTV11Oscl_VectorIN12PVFMAudioMIO15CommandResponseE16OsclMemAllocatorE
V _ZTV11Oscl_VectorIN12PVFMVideoMIO13WriteResponseE16OsclMemAllocatorE
V _ZTV11Oscl_VectorIN12PVFMVideoMIO15CommandResponseE16OsclMemAllocatorE
V _ZTV11Oscl_VectorIN14PVPlayerEngine28PVPlayerEngineMetadataIFInfoE16OsclMemAllocatorE
V _ZTV11Oscl_VectorIN14PVPlayerEngine29PVPlayerEngineUuidNodeMappingE16OsclMemAllocatorE
V _ZTV11Oscl_VectorIN14PVPlayerEngine34PVPlayerEngineMetadataReleaseEntryE16OsclMemAllocatorE
V _ZTV11Oscl_VectorIN15AndroidAudioMIO15CommandResponseE16OsclMemAllocatorE
V _ZTV11Oscl_VectorIN18AndroidAudioOutput10OSSRequestE16OsclMemAllocatorE
V _ZTV11Oscl_VectorIN19PVMFMP3FFParserNode10SubNodeCmdE16OsclMemAllocatorE
V _ZTV11Oscl_VectorIN20AndroidSurfaceOutput13WriteResponseE16OsclMemAllocatorE
V _ZTV11Oscl_VectorIN20AndroidSurfaceOutput15CommandResponseE16OsclMemAllocatorE
V _ZTV11Oscl_VectorIP10FontRecord16OsclMemAllocatorE
V _ZTV11Oscl_VectorIP11MediaBuffer16OsclMemAllocatorE
V _ZTV11Oscl_VectorIP11SampleEntry16OsclMemAllocatorE
V _ZTV11Oscl_VectorIP11StyleRecord16OsclMemAllocatorE
V _ZTV11Oscl_VectorIP11TFRAEntries16OsclMemAllocatorE
V _ZTV11Oscl_VectorIP12EditListAtom16OsclMemAllocatorE
V _ZTV11Oscl_VectorIP13CopyRightAtom16OsclMemAllocatorE
V _ZTV11Oscl_VectorIP14AVCSampleEntry16OsclMemAllocatorE
V _ZTV11Oscl_VectorIP14ItunesNameAtom16OsclMemAllocatorE
V _ZTV11Oscl_VectorIP16DataEntryUrlAtom16OsclMemAllocatorE
V _ZTV11Oscl_VectorIP16TFrunSampleTable16OsclMemAllocatorE
V _ZTV11Oscl_VectorIP16TrackExtendsAtom16OsclMemAllocatorE
V _ZTV11Oscl_VectorIP17AssestInfoKeyWord16OsclMemAllocatorE
V _ZTV11Oscl_VectorIP17AssetInfoDescAtom16OsclMemAllocatorE
V _ZTV11Oscl_VectorIP17ItunesMeaningAtom16OsclMemAllocatorE
V _ZTV11Oscl_VectorIP17MovieFragmentAtom16OsclMemAllocatorE
V _ZTV11Oscl_VectorIP17TrackDurationInfo16OsclMemAllocatorE
V _ZTV11Oscl_VectorIP17TrackFragmentAtom16OsclMemAllocatorE
V _ZTV11Oscl_VectorIP18AssetInfoAlbumAtom16OsclMemAllocatorE
V _ZTV11Oscl_VectorIP18AssetInfoGenreAtom16OsclMemAllocatorE
V _ZTV11Oscl_VectorIP18AssetInfoTitleAtom16OsclMemAllocatorE
V _ZTV11Oscl_VectorIP19AssetInfoAuthorAtom16OsclMemAllocatorE
V _ZTV11Oscl_VectorIP19AssetInfoRatingAtom16OsclMemAllocatorE
V _ZTV11Oscl_VectorIP19DecoderSpecificInfo16OsclMemAllocatorE
V _ZTV11Oscl_VectorIP19PVMFMP3FFParserPort16OsclMemAllocatorE
V _ZTV11Oscl_VectorIP20AssetInfoKeyWordAtom16OsclMemAllocatorE
V _ZTV11Oscl_VectorIP20TrackFragmentRunAtom16OsclMemAllocatorE
V _ZTV11Oscl_VectorIP21AssetInfoLocationAtom16OsclMemAllocatorE
V _ZTV11Oscl_VectorIP21PVPlayerEngineContext16OsclMemAllocatorE
V _ZTV11Oscl_VectorIP22AssetInfoPerformerAtom16OsclMemAllocatorE
V _ZTV11Oscl_VectorIP22PVMFAMRFFParserOutPort16OsclMemAllocatorE
V _ZTV11Oscl_VectorIP26AssetInfoRecordingYearAtom16OsclMemAllocatorE
V _ZTV11Oscl_VectorIP27AssetInfoClassificationAtom16OsclMemAllocatorE
V _ZTV11Oscl_VectorIP27PVMFRecognizerPluginFactory16OsclMemAllocatorE
V _ZTV11Oscl_VectorIP29MovieFragmentRandomAccessAtom16OsclMemAllocatorE
V _ZTV11Oscl_VectorIP29TrackFragmentRandomAccessAtom16OsclMemAllocatorE
V _ZTV11Oscl_VectorIP9ES_ID_Inc16OsclMemAllocatorE
V _ZTV11Oscl_VectorIP9TrackAtom16OsclMemAllocatorE
V _ZTV11Oscl_VectorIP9__PvmiKvp16OsclMemAllocatorE
V _ZTV11Oscl_VectorIPN19AVCConfigurationBox12ParameterSetE16OsclMemAllocatorE
V _ZTV11Oscl_VectorIPN20PVPlayerNodeRegistry31PVPlayerEngineNodeSharedLibInfoE16OsclMemAllocatorE
V _ZTV11Oscl_VectorIPN26PVPlayerRecognizerRegistry37PVPlayerEngineRecognizerSharedLibInfoE16OsclMemAllocatorE
V _ZTV11Oscl_VectorIPN9OsclTimerI16OsclMemAllocatorE11_TimerEntryES1_E
V _ZTV11Oscl_VectorIi16OsclMemAllocatorE
V _ZTV11Oscl_VectorIj16OsclMemAllocatorE
V _ZTV11Oscl_VectorIt16OsclMemAllocatorE
V _ZTV11PVInterface
D _ZTV11PVMFCPMImpl
U _ZTV11PVMFCmdResp
V _ZTV11PlayerPause
V _ZTV11PlayerReset
V _ZTV11PlayerSetup
V _ZTV11PlayerStart
D _ZTV11SampleEntry
D _ZTV11StyleRecord
D _ZTV12ESDescriptor
D _ZTV12EditListAtom
D _ZTV12FileTypeAtom
V _ZTV12IMediaBuffer
D _ZTV12MetaDataAtom
D _ZTV12OMADRMKMSBox
V _ZTV12Oscl_Dealloc
D _ZTV12PVFMAudioMIO
D _ZTV12PVFMVideoMIO
V _ZTV12PVMFPortIter
V _ZTV12PVMFTimebase
D _ZTV12PlayerDriver
D _ZTV12TextStyleBox
D _ZTV12UserDataAtom
V _ZTV13CallbackTimerI16OsclMemAllocatorE
D _ZTV13CopyRightAtom
D _ZTV13DataEntryAtom
D _ZTV13FontTableAtom
D _ZTV13MediaDataAtom
V _ZTV13OsclSharedPtrI12PVMFMediaCmdE
V _ZTV13OsclSharedPtrI12PVMFMediaMsgE
V _ZTV13OsclSharedPtrI13PVMFMediaDataE
V _ZTV13OsclSharedPtrI14PVMFMediaClockE
V _ZTV13OsclSharedPtrI16PVLoggerAppenderE
V _ZTV13OsclSharedPtrI17PVMFMediaDataImplE
V _ZTV13OsclSharedPtrI9__PvmiKvpE
V _ZTV13Oscl_DefAlloc
V _ZTV13PVCmdResponse
V _ZTV13PVMFEventBase
V _ZTV13PVMFTrackInfo
V _ZTV13PlayerCommand
V _ZTV13PlayerPrepare
V _ZTV13PlayerSetLoop
V _ZTV13_OsclHeapBase
D _ZTV14AMRSampleEntry
D _ZTV14AVCSampleEntry
D _ZTV14BaseDescriptor
D _ZTV14ITunesILSTAtom
D _ZTV14ITunesToolAtom
D _ZTV14ITunesYearAtom
D _ZTV14ItunesNameAtom
D _ZTV14MfraOffsetAtom
V _ZTV14OsclRefCounter
U _ZTV14PVMFAsyncEvent
V _ZTV14PVMFCPMCommand
V _ZTV14PVMFFormatType
V _ZTV14PVMFPortVectorI19PVMFMP3FFParserPort16OsclMemAllocatorE
V _ZTV14PVMFPortVectorI22PVMFAMRFFParserOutPort16OsclMemAllocatorE
D _ZTV14PVPlayerEngine
D _ZTV14PVUserDataAtom
V _ZTV14PvmfApicStruct
V _ZTV14PvmiMIOControl
D _ZTV14SampleSizeAtom
D _ZTV14SyncSampleAtom
D _ZTV14TextKaraokeBox
V _ZTV15AMRSpecificAtom
D _ZTV15AndroidAudioMIO
D _ZTV15ChunkOffsetAtom
D _ZTV15H263SampleEntry
V _ZTV15H263SpecficAtom
D _ZTV15ITunesAlbumAtom
D _ZTV15ITunesGenreAtom
D _ZTV15ITunesGroupAtom
D _ZTV15ITunesTempoAtom
D _ZTV15ITunesTitleAtom
V _ZTV15MPEG4BitRateBox
D _ZTV15MediaHeaderAtom
D _ZTV15MovieHeaderAtom
D _ZTV15MpegSampleEntry
V _ZTV15OSCL_HeapStringI16OsclMemAllocatorE
V _ZTV15PlayerGetStatus
D _ZTV15SampleTableAtom
D _ZTV15TextSampleEntry
V _ZTV15TextScrollDelay
D _ZTV15TrackHeaderAtom
D _ZTV16AVCSampleToGroup
D _ZTV16AudioSampleEntry
D _ZTV16DataEntryUrlAtom
D _ZTV16ITunesArtistAtom
D _ZTV16ITunesLyricsAtom
D _ZTV16ITunesTracktAtom
D _ZTV16ITunesWriterAtom
D _ZTV16MovieExtendsAtom
V _ZTV16OSCL_StackStringILj128EE
V _ZTV16OSCL_StackStringILj16EE
V _ZTV16OSCL_StackStringILj20EE
V _ZTV16OSCL_StackStringILj256EE
V _ZTV16OSCL_StackStringILj36EE
V _ZTV16OSCL_StackStringILj40EE
V _ZTV16OSCL_StackStringILj4EE
V _ZTV16OSCL_StackStringILj64EE
V _ZTV16OSCL_wHeapStringI16OsclMemAllocatorE
D _ZTV16ObjectDescriptor
V _ZTV16OsclExclusivePtrI32PVMFResizableSimpleMediaMsgAllocE
V _ZTV16OsclMemAllocator
V _ZTV16OsclRefCounterDA
V _ZTV16OsclRefCounterSAI27OsclMemAllocDestructDeallocIhEE
V _ZTV16Oscl_Vector_Base
V _ZTV16PVPlayerDataSink
D _ZTV16PVPlayerDatapath
V _ZTV16PVPlayerTimebase
V _ZTV16TextHighlightBox
D _ZTV16TextHyperTextBox
D _ZTV16TimeToSampleAtom
D _ZTV16TrackExtendsAtom
D _ZTV17AVCLayerDescEntry
D _ZTV17AssetInfoDescAtom
V _ZTV17CPMPluginRegistry
D _ZTV17DataReferenceAtom
D _ZTV17ITunesCommentAtom
D _ZTV17ITunesCompileAtom
D _ZTV17ItunesMeaningAtom
D _ZTV17MovieFragmentAtom
V _ZTV17OSCL_wStackStringILj16EE
V _ZTV17OSCL_wStackStringILj1EE
V _ZTV17OSCL_wStackStringILj8EE
D _ZTV17OriginalFormatbox
V _ZTV17OsclPriorityQueueI18PVFMUtilityCommand16OsclMemAllocator11Oscl_VectorIS0_S1_E29PVFMUtilityCommandCompareLessE
V _ZTV17OsclPriorityQueueI21PVMFRecRegImplCommand16OsclMemAllocator11Oscl_VectorIS0_S1_E32PVMFRecRegImplCommandCompareLessE
V _ZTV17OsclPriorityQueueI21PVPlayerEngineCommand16OsclMemAllocator11Oscl_VectorIS0_S1_E32PVPlayerEngineCommandCompareLessE
V _ZTV17OsclTimerObserver
V _ZTV17PVAsyncErrorEvent
V _ZTV17PVContentTypeAtom
U _ZTV17PVMFNodeInterface
V _ZTV17PVPlayerInterface
V _ZTV17PlayerGetDuration
V _ZTV17PlayerGetPosition
V _ZTV17PvmiMediaTransfer
D _ZTV17SampleToChunkAtom
V _ZTV17TrackDurationInfo
D _ZTV17TrackFragmentAtom
D _ZTV17VisualSampleEntry
D _ZTV18AndroidAudioOutput
D _ZTV18AndroidAudioStream
V _ZTV18AssetInfoAlbumAtom
D _ZTV18AssetInfoGenreAtom
D _ZTV18AssetInfoTitleAtom
D _ZTV18ITunesMetaDataAtom
D _ZTV18MediaBufferManager
V _ZTV18PVPlayerDataSource
V _ZTV18PlayerSetAudioSink
D _ZTV18SLConfigDescriptor
D _ZTV18TrackReferenceAtom
D _ZTV19AVCConfigurationBox
D _ZTV19AVCSampleDependency
D _ZTV19AVCSubSequenceEntry
D _ZTV19AssetInfoAuthorAtom
D _ZTV19AssetInfoRatingAtom
D _ZTV19DataInformationAtom
D _ZTV19DecoderSpecificInfo
D _ZTV19ExpandableBaseClass
D _ZTV19HintMediaHeaderAtom
D _ZTV19ITunesCopyrightAtom
D _ZTV19ITunesDiskDatatAtom
D _ZTV19ITunesEncodedByAtom
V _ZTV19OsclDestructDealloc
D _ZTV19PVMFAACFFParserNode
D _ZTV19PVMFAMRFFParserNode
D _ZTV19PVMFCPMContainerMp3
V _ZTV19PVMFLocalDataSource
D _ZTV19PVMFMP3FFParserNode
D _ZTV19PVMFMP3FFParserPort
D _ZTV19PVMFWAVFFParserNode
V _ZTV19PlayerSetDataSource
D _ZTV19TextHilightColorBox
D _ZTV20AndroidSurfaceOutput
V _ZTV20AssestInfoBaseParser
D _ZTV20AssetInfoKeyWordAtom
D _ZTV20ITunesCoverImageAtom
D _ZTV20MediaInformationAtom
D _ZTV20Mpeg4MediaHeaderAtom
D _ZTV20ObjectDescriptorAtom
V _ZTV20PVErrorEventObserver
V _ZTV20PVMFAMRFFNodeCommand
V _ZTV20PVMFCPMPluginFactory
V _ZTV20PVMFWAVFFNodeCommand
D _ZTV20PVPlayerNodeRegistry
D _ZTV20SchemeInformationBox
D _ZTV20SoundMediaHeaderAtom
D _ZTV20TrackFragmentRunAtom
D _ZTV20VideoMediaHeaderAtom
D _ZTV21AssetInfoLocationAtom
D _ZTV21CPMPluginRegistryImpl
V _ZTV21CallbackTimerObserver
D _ZTV21CompositionOffsetAtom
D _ZTV21ITunesAlbumArtistAtom
D _ZTV21ITunesDescriptionAtom
V _ZTV21OsclPriorityQueueBase
V _ZTV21PVMFCPMStatusObserver
V _ZTV21PVMFSourceContextData
V _ZTV21PVPlayerDataSourceURL
V _ZTV21PVPlayerWatchdogTimer
V _ZTV21PlayerSetVideoSurface
D _ZTV21SampleDescriptionAtom
V _ZTV22AMRDecoderSpecificInfo
D _ZTV22AssetInfoPerformerAtom
D _ZTV22ITunesFreeFormDataAtom
D _ZTV22MovieExtendsHeaderAtom
V _ZTV22Oscl_Opaque_Type_Alloc
D _ZTV22PVMFAACFFParserOutPort
D _ZTV22PVMFAMRFFParserOutPort
V _ZTV22PVMFCPMPluginInterface
V _ZTV22PVMFGenericNodeCommandI16OsclMemAllocatorE
U _ZTV22PVMFTimebase_Tickcount
D _ZTV22PVMFWAVFFParserOutPort
V _ZTV22PlayerRemoveDataSource
V _ZTV22PvmiDataStreamObserver
V _ZTV22TrackDurationContainer
D _ZTV22TrackReferenceTypeAtom
D _ZTV23AVCSampleDependencyType
D _ZTV23DecoderConfigDescriptor
V _ZTV23H263DecoderSpecificInfo
D _ZTV23ITunesContentRatingAtom
D _ZTV23ITunesTrackSubTitleAtom
D _ZTV23InitialObjectDescriptor
D _ZTV23MovieFragmentHeaderAtom
D _ZTV23PVAACFFRecognizerPlugin
D _ZTV23PVAMRFFRecognizerPlugin
V _ZTV23PVCommandStatusObserver
V _ZTV23PVID3ParComKvpCleanupDA
V _ZTV23PVMFPortActivityHandler
D _ZTV23PVMP3FFRecognizerPlugin
D _ZTV23PVMp3DurationCalculator
D _ZTV23PVWAVFFRecognizerPlugin
V _ZTV23PlayerCancelAllCommands
V _ZTV23PvmiCapabilityAndConfig
V _ZTV23ThreadSafeQueueObserver
D _ZTV23TrackFragmentHeaderAtom
V _ZTV24MutableDRMInformationBox
V _ZTV24OsclAllocDestructDealloc
V _ZTV24Oscl_Opaque_Type_Compare
V _ZTV24PVAACFFNodeTrackPortInfo
D _ZTV24PVAACFFRecognizerFactory
V _ZTV24PVAMRFFNodeTrackPortInfo
D _ZTV24PVAMRFFRecognizerFactory
V _ZTV24PVMFSourceContextDataPVR
D _ZTV24PVMP3FFRecognizerFactory
V _ZTV24PVPlayerDataSinkPVMFNode
V _ZTV24PVPlayerDatapathObserver
D _ZTV24PVWAVFFNodeTrackPortInfo
D _ZTV24PVWAVFFRecognizerFactory
V _ZTV25PVAsyncInformationalEvent
D _ZTV25PVFrameAndMetadataUtility
D _ZTV25PVMFCPMPassThruPlugInOMA1
V _ZTV25PVMFNodeCmdStatusObserver
V _ZTV25PVMFNodeInfoEventObserver
D _ZTV25PVPlayerRegistryPopulator
V _ZTV26AssetInfoRecordingYearAtom
D _ZTV26MediaInformationHeaderAtom
V _ZTV26PVMFAACFFParserNodeCommand
V _ZTV26PVMFMP3FFParserNodeCommand
V _ZTV26PVMFNodeErrorEventObserver
D _ZTV26PVMFRecognizerRegistryImpl
D _ZTV26PVPlayerRecognizerRegistry
V _ZTV26TrackDataMemPoolProxyAlloc
D _ZTV27AssetInfoClassificationAtom
V _ZTV27OsclMemAllocDestructDeallocIhE
V _ZTV27PVFrameAndMetadataInterface
V _ZTV27PVMFMediaClockStateObserver
V _ZTV27PVMFRecognizerPluginFactory
V _ZTV27PVMFSourceContextDataCommon
V _ZTV27PVMFSubNodeContainerBaseMp3
V _ZTV27PVMIDataStreamSyncInterface
V _ZTV27PVMIDatastreamuserInterface
V _ZTV27PvmiClockExtensionInterface
V _ZTV28PVFMVideoMIOGetFrameObserver
V _ZTV28PVInformationalEventObserver
V _ZTV28RecognizerPopulatorInterface
D _ZTV29MovieFragmentRandomAccessAtom
V _ZTV29PVMFCPMPluginLicenseInterface
D _ZTV29PVMFOma1PassthruPluginFactory
V _ZTV29PVMFRecognizerCommmandHandler
V _ZTV29PVMFRecognizerPluginInterface
V _ZTV29PVPlayerNodeRegistryInterface
V _ZTV29PVPlayerWatchdogTimerObserver
D _ZTV29TrackFragmentRandomAccessAtom
V _ZTV30NodeRegistryPopulatorInterface
V _ZTV30PVMFCPMPluginCmdStatusObserver
V _ZTV30PVMFMediaClockNotificationsObs
V _ZTV30PVMFMetadataExtensionInterface
V _ZTV30PVMFSourceContextDataStreaming
D _ZTV30ProtectionSchemeInformationBox
D _ZTV31PVFMAudioMIOActiveTimingSupport
D _ZTV31PVFMVideoMIOActiveTimingSupport
V _ZTV31PVPlayerTrackSelectionInterface
V _ZTV31PvmfAssetInfo3GPPLocationStruct
V _ZTV32PVMFCPMPassThruPlugInOMA1Command
V _ZTV32PVMFResizableSimpleMediaMsgAlloc
V _ZTV32PVMFSourceContextDataDownloadPVX
V _ZTV33PVMFSourceContextDataDownloadHTTP
V _ZTV33PVMFSourceContextDataPacketSource
D _ZTV34AndroidAudioMIOActiveTimingSupport
V _ZTV34PVMFMediaClockNotificationsObsBase
V _ZTV34PVMFSimpleMediaBufferCombinedAlloc
V _ZTV34PVPlayerRecognizerRegistryObserver
V _ZTV35PVMFCPMPluginAccessInterfaceFactory
V _ZTV35PVMFCPMPluginAuthorizationInterface
V _ZTV35PVPlayerLicenseAcquisitionInterface
V _ZTV35PVPlayerRecognizerRegistryInterface
V _ZTV36PVMFCPMPluginAuthenticationInterface
V _ZTV36PVMFTrackSelectionExtensionInterface
V _ZTV37OsclMemPoolResizableAllocatorObserver
U _ZTV37PvmiCapabilityAndConfigPortFormatImpl
D _ZTV38AndroidAudioOutputThreadSafeCallbackAO
V _ZTV38OsclMemPoolFixedChunkAllocatorObserver
V _ZTV38OsclMemPoolResizableAllocatorCleanupDA
V _ZTV38PVMFFormatProgDownloadSupportInterface
V _ZTV38PvmfDataSourcePlaybackControlInterface
V _ZTV46PVMFDataSourceInitializationExtensionInterface
D _ZTV4Atom
D _ZTV52PVMFCPMPassThruPlugInOMA1DataStreamSyncInterfaceImpl
D _ZTV7ESDAtom
D _ZTV7EcnaBox
D _ZTV7EcnvBox
D _ZTV7EnctBox
V _ZTV7PASPBox
V _ZTV7PVMFCPM
V _ZTV8BlinkBox
D _ZTV8EditAtom
D _ZTV8FullAtom
V _ZTV8HeapBase
V _ZTV9BoxRecord
D _ZTV9ES_ID_Inc
D _ZTV9ES_ID_Ref
D _ZTV9MediaAtom
D _ZTV9MovieAtom
D _ZTV9Mpeg4File
V _ZTV9OsclTimerI16OsclMemAllocatorE
D _ZTV9TrackAtom
V _ZTVN19AVCConfigurationBox12ParameterSetE
V _ZTVN7android11StringArrayE
D _ZTVN7android14MetadataDriverE
V _ZTVN7android15MediaPlayerBaseE
D _ZTVN7android18MediaScannerClientE
D _ZTVN7android19PVMetadataRetrieverE
V _ZTVN7android20MediaPlayerInterfaceE
V _ZTVN7android26MediaMetadataRetrieverBaseE
V _ZTVN7android31MediaMetadataRetrieverInterfaceE
V _ZTVN7android4ListIP13PlayerCommandEE
D _ZTVN7android8PVPlayerE
T _ZThn100_N11PVMFCPMImpl25CPMPluginCommandCompletedERK11PVMFCmdResp
T _ZThn104_N11PVMFCPMImpl14queryInterfaceERK8OsclUuidRP11PVInterface
T _ZThn104_N11PVMFCPMImpl6addRefEv
T _ZThn104_N11PVMFCPMImpl9removeRefEv
T _ZThn128_N25PVMFCPMPassThruPlugInOMA116AuthenticateUserEiPvS0_
T _ZThn132_N25PVMFCPMPassThruPlugInOMA113UsageCompleteEiPKv
T _ZThn132_N25PVMFCPMPassThruPlugInOMA114AuthorizeUsageEiR9__PvmiKvpS1_S1_RjPv
T _ZThn136_N25PVMFCPMPassThruPlugInOMA125QueryAccessInterfaceUUIDsER11Oscl_VectorI8OsclUuid16OsclMemAllocatorE
T _ZThn136_N25PVMFCPMPassThruPlugInOMA129SetStreamReadCapacityObserverEP34PVMFDataStreamReadCapacityObserver
T _ZThn136_N25PVMFCPMPassThruPlugInOMA134CreatePVMFCPMPluginAccessInterfaceER8OsclUuid
T _ZThn136_N25PVMFCPMPassThruPlugInOMA135DestroyPVMFCPMPluginAccessInterfaceER8OsclUuidP11PVInterface
T _ZThn140_N25PVMFCPMPassThruPlugInOMA110GetLicenseEiR11OSCL_StringPvjiS2_
T _ZThn140_N25PVMFCPMPassThruPlugInOMA110GetLicenseEiR12OSCL_wStringPvjiS2_
T _ZThn140_N25PVMFCPMPassThruPlugInOMA113GetLicenseURLEiR11OSCL_StringS1_
T _ZThn140_N25PVMFCPMPassThruPlugInOMA113GetLicenseURLEiR12OSCL_wStringS1_
T _ZThn140_N25PVMFCPMPassThruPlugInOMA116CancelGetLicenseEiiPv
T _ZThn144_N25PVMFCPMPassThruPlugInOMA118GetNumMetadataKeysEPc
T _ZThn144_N25PVMFCPMPassThruPlugInOMA119GetNodeMetadataKeysEiR11Oscl_VectorI15OSCL_HeapStringI16OsclMemAllocatorES2_EjiPcPKv
T _ZThn144_N25PVMFCPMPassThruPlugInOMA120GetNumMetadataValuesER11Oscl_VectorI15OSCL_HeapStringI16OsclMemAllocatorES2_E
T _ZThn144_N25PVMFCPMPassThruPlugInOMA121GetNodeMetadataValuesEiR11Oscl_VectorI15OSCL_HeapStringI16OsclMemAllocatorES2_ERS0_I9__PvmiKvpS2_EjiPKv
T _ZThn144_N25PVMFCPMPassThruPlugInOMA123ReleaseNodeMetadataKeysER11Oscl_VectorI15OSCL_HeapStringI16OsclMemAllocatorES2_Ejj
T _ZThn144_N25PVMFCPMPassThruPlugInOMA125ReleaseNodeMetadataValuesER11Oscl_VectorI9__PvmiKvp16OsclMemAllocatorEjj
T _ZThn32_N19PVMFCPMContainerMp319CPMCommandCompletedERK11PVMFCmdResp
T _ZThn4_N12PlayerDriver3RunEv
T _ZThn4_N12PlayerDriverD0Ev
T _ZThn4_N12PlayerDriverD1Ev
T _ZThn4_N15AndroidAudioMIO3RunEv
T _ZThn4_N15AndroidAudioMIOD0Ev
T _ZThn4_N15AndroidAudioMIOD1Ev
U _ZThn4_N15OsclTimerObject8DoCancelEv
U _ZThn4_N15OsclTimerObject8RunErrorEi
U _ZThn4_N16OsclActiveObject8DoCancelEv
U _ZThn4_N16OsclActiveObject8RunErrorEi
T _ZThn4_N18AndroidAudioOutput3RunEv
T _ZThn4_N18AndroidAudioOutputD0Ev
T _ZThn4_N18AndroidAudioOutputD1Ev
T _ZThn4_N18AndroidAudioStreamD0Ev
T _ZThn4_N18AndroidAudioStreamD1Ev
T _ZThn4_N20AndroidSurfaceOutput3RunEv
T _ZThn4_N20AndroidSurfaceOutputD0Ev
T _ZThn4_N20AndroidSurfaceOutputD1Ev
T _ZThn4_N34AndroidAudioMIOActiveTimingSupport17ClockStateUpdatedEv
T _ZThn4_N38AndroidAudioOutputThreadSafeCallbackAO3RunEv
T _ZThn4_N38AndroidAudioOutputThreadSafeCallbackAOD0Ev
T _ZThn4_N38AndroidAudioOutputThreadSafeCallbackAOD1Ev
T _ZThn4_N7android14MetadataDriver3RunEv
T _ZThn4_N7android14MetadataDriverD0Ev
T _ZThn4_N7android14MetadataDriverD1Ev
T _ZThn84_N11PVMFCPMImpl11OpenSessionERiPKv
T _ZThn84_N11PVMFCPMImpl11ThreadLogonEv
T _ZThn84_N11PVMFCPMImpl12ApproveUsageEiR9__PvmiKvpS1_S1_RiPKv
T _ZThn84_N11PVMFCPMImpl12CloseSessionERiPKv
T _ZThn84_N11PVMFCPMImpl12ThreadLogoffEv
T _ZThn84_N11PVMFCPMImpl13UsageCompleteEiRiPv
T _ZThn84_N11PVMFCPMImpl14QueryInterfaceEiRK8OsclUuidRP11PVInterfacePKv
T _ZThn84_N11PVMFCPMImpl14queryInterfaceERK8OsclUuidRP11PVInterface
T _ZThn84_N11PVMFCPMImpl15RegisterContentEiR12OSCL_wStringR14PVMFFormatTypePvPKv
T _ZThn84_N11PVMFCPMImpl17GetCPMContentTypeEi
T _ZThn84_N11PVMFCPMImpl21GetCPMContentFilenameEiR12OSCL_wString
T _ZThn84_N11PVMFCPMImpl23GetContentAccessFactoryEiRP35PVMFCPMPluginAccessInterfaceFactory
T _ZThn84_N11PVMFCPMImpl4InitEPKv
T _ZThn84_N11PVMFCPMImpl5ResetEPKv
T _ZThn84_N11PVMFCPMImpl6addRefEv
T _ZThn84_N11PVMFCPMImpl9removeRefEv
T _ZThn84_N12PlayerDriver16CommandCompletedERK13PVCmdResponse
T _ZThn84_N12PlayerDriverD0Ev
T _ZThn84_N12PlayerDriverD1Ev
T _ZThn84_N15AndroidAudioMIO10disconnectEPv
T _ZThn84_N15AndroidAudioMIO11DiscardDataEPKv
T _ZThn84_N15AndroidAudioMIO11DiscardDataEjPKv
T _ZThn84_N15AndroidAudioMIO11ThreadLogonEv
T _ZThn84_N15AndroidAudioMIO12ThreadLogoffEv
T _ZThn84_N15AndroidAudioMIO13CancelCommandEiPKv
T _ZThn84_N15AndroidAudioMIO14QueryInterfaceERK8OsclUuidRP11PVInterfacePKv
T _ZThn84_N15AndroidAudioMIO17CancelAllCommandsEPKv
T _ZThn84_N15AndroidAudioMIO19createMediaTransferERPvP9__PvmiKvpiS3_i
T _ZThn84_N15AndroidAudioMIO4InitEPKv
T _ZThn84_N15AndroidAudioMIO4StopEPKv
T _ZThn84_N15AndroidAudioMIO5FlushEPKv
T _ZThn84_N15AndroidAudioMIO5PauseEPKv
T _ZThn84_N15AndroidAudioMIO5ResetEPKv
T _ZThn84_N15AndroidAudioMIO5StartEPKv
T _ZThn84_N15AndroidAudioMIO7connectERPvP15PvmiMIOObserver
T _ZThn84_N15AndroidAudioMIO9QueryUUIDERK11OSCL_StringR11Oscl_VectorI8OsclUuid16OsclMemAllocatorEbPKv
T _ZThn84_N15AndroidAudioMIOD0Ev
T _ZThn84_N15AndroidAudioMIOD1Ev
T _ZThn84_N18AndroidAudioOutput11DiscardDataEjPKv
T _ZThn84_N18AndroidAudioOutput14QueryInterfaceERK8OsclUuidRP11PVInterfacePKv
T _ZThn84_N18AndroidAudioOutput4StopEPKv
T _ZThn84_N18AndroidAudioOutput5ResetEPKv
T _ZThn84_N18AndroidAudioOutput9QueryUUIDERK11OSCL_StringR11Oscl_VectorI8OsclUuid16OsclMemAllocatorEbPKv
T _ZThn84_N18AndroidAudioOutputD0Ev
T _ZThn84_N18AndroidAudioOutputD1Ev
T _ZThn84_N18AndroidAudioStream14QueryInterfaceERK8OsclUuidRP11PVInterfacePKv
T _ZThn84_N18AndroidAudioStream9QueryUUIDERK11OSCL_StringR11Oscl_VectorI8OsclUuid16OsclMemAllocatorEbPKv
T _ZThn84_N18AndroidAudioStreamD0Ev
T _ZThn84_N18AndroidAudioStreamD1Ev
T _ZThn84_N20AndroidSurfaceOutput10disconnectEPv
T _ZThn84_N20AndroidSurfaceOutput11DiscardDataEPKv
T _ZThn84_N20AndroidSurfaceOutput11DiscardDataEjPKv
T _ZThn84_N20AndroidSurfaceOutput11ThreadLogonEv
T _ZThn84_N20AndroidSurfaceOutput12ThreadLogoffEv
T _ZThn84_N20AndroidSurfaceOutput13CancelCommandEiPKv
T _ZThn84_N20AndroidSurfaceOutput14QueryInterfaceERK8OsclUuidRP11PVInterfacePKv
T _ZThn84_N20AndroidSurfaceOutput17CancelAllCommandsEPKv
T _ZThn84_N20AndroidSurfaceOutput19createMediaTransferERPvP9__PvmiKvpiS3_i
T _ZThn84_N20AndroidSurfaceOutput19deleteMediaTransferERPvP17PvmiMediaTransfer
T _ZThn84_N20AndroidSurfaceOutput4InitEPKv
T _ZThn84_N20AndroidSurfaceOutput4StopEPKv
T _ZThn84_N20AndroidSurfaceOutput5FlushEPKv
T _ZThn84_N20AndroidSurfaceOutput5PauseEPKv
T _ZThn84_N20AndroidSurfaceOutput5ResetEPKv
T _ZThn84_N20AndroidSurfaceOutput5StartEPKv
T _ZThn84_N20AndroidSurfaceOutput7connectERPvP15PvmiMIOObserver
T _ZThn84_N20AndroidSurfaceOutput9QueryUUIDERK11OSCL_StringR11Oscl_VectorI8OsclUuid16OsclMemAllocatorEbPKv
T _ZThn84_N20AndroidSurfaceOutputD0Ev
T _ZThn84_N20AndroidSurfaceOutputD1Ev
T _ZThn84_N25PVMFCPMPassThruPlugInOMA114QueryInterfaceEiRK8OsclUuidRP11PVInterfacePKv
T _ZThn84_N25PVMFCPMPassThruPlugInOMA117GetCPMContentTypeEv
T _ZThn84_N25PVMFCPMPassThruPlugInOMA127SetSourceInitializationDataER12OSCL_wStringR14PVMFFormatTypePv
T _ZThn84_N25PVMFCPMPassThruPlugInOMA14InitEiPKv
T _ZThn84_N25PVMFCPMPassThruPlugInOMA15ResetEiPKv
T _ZThn84_N25PVMFCPMPassThruPlugInOMA19QueryUUIDEiRK11OSCL_StringR11Oscl_VectorI8OsclUuid16OsclMemAllocatorEbPKv
T _ZThn84_N7android14MetadataDriver16CommandCompletedERK13PVCmdResponse
T _ZThn84_N7android14MetadataDriverD0Ev
T _ZThn84_N7android14MetadataDriverD1Ev
T _ZThn88_N11PVMFCPMImpl14queryInterfaceERK8OsclUuidRP11PVInterface
T _ZThn88_N11PVMFCPMImpl18GetNumMetadataKeysEPc
T _ZThn88_N11PVMFCPMImpl19GetNodeMetadataKeysEiR11Oscl_VectorI15OSCL_HeapStringI16OsclMemAllocatorES2_EjiPcPKv
T _ZThn88_N11PVMFCPMImpl20GetNumMetadataValuesER11Oscl_VectorI15OSCL_HeapStringI16OsclMemAllocatorES2_E
T _ZThn88_N11PVMFCPMImpl21GetNodeMetadataValuesEiR11Oscl_VectorI15OSCL_HeapStringI16OsclMemAllocatorES2_ERS0_I9__PvmiKvpS2_EjiPKv
T _ZThn88_N11PVMFCPMImpl23ReleaseNodeMetadataKeysER11Oscl_VectorI15OSCL_HeapStringI16OsclMemAllocatorES2_Ejj
T _ZThn88_N11PVMFCPMImpl25ReleaseNodeMetadataValuesER11Oscl_VectorI9__PvmiKvp16OsclMemAllocatorEjj
T _ZThn88_N11PVMFCPMImpl6addRefEv
T _ZThn88_N11PVMFCPMImpl9removeRefEv
T _ZThn88_N12PlayerDriver24HandleInformationalEventERK25PVAsyncInformationalEvent
T _ZThn88_N12PlayerDriverD0Ev
T _ZThn88_N12PlayerDriverD1Ev
T _ZThn88_N15AndroidAudioMIO10writeAsyncEhiPhjRK21__PvmiMediaXferHeaderPv
T _ZThn88_N15AndroidAudioMIO7setPeerEP17PvmiMediaTransfer
T _ZThn88_N15AndroidAudioMIOD0Ev
T _ZThn88_N15AndroidAudioMIOD1Ev
T _ZThn88_N18AndroidAudioOutput13cancelCommandEi
T _ZThn88_N18AndroidAudioOutputD0Ev
T _ZThn88_N18AndroidAudioOutputD1Ev
T _ZThn88_N18AndroidAudioStreamD0Ev
T _ZThn88_N18AndroidAudioStreamD1Ev
T _ZThn88_N20AndroidSurfaceOutput10writeAsyncEhiPhjRK21__PvmiMediaXferHeaderPv
T _ZThn88_N20AndroidSurfaceOutput12readCompleteEiiiRK21__PvmiMediaXferHeaderPv
T _ZThn88_N20AndroidSurfaceOutput12statusUpdateEj
T _ZThn88_N20AndroidSurfaceOutput13cancelCommandEi
T _ZThn88_N20AndroidSurfaceOutput13writeCompleteEiiPv
T _ZThn88_N20AndroidSurfaceOutput17cancelAllCommandsEv
T _ZThn88_N20AndroidSurfaceOutput19useMemoryAllocatorsEP16OsclMemAllocator
T _ZThn88_N20AndroidSurfaceOutput7setPeerEP17PvmiMediaTransfer
T _ZThn88_N20AndroidSurfaceOutput9readAsyncEPhjPvPit
T _ZThn88_N20AndroidSurfaceOutputD0Ev
T _ZThn88_N20AndroidSurfaceOutputD1Ev
T _ZThn88_N7android14MetadataDriver24HandleInformationalEventERK25PVAsyncInformationalEvent
T _ZThn88_N7android14MetadataDriverD0Ev
T _ZThn88_N7android14MetadataDriverD1Ev
T _ZThn92_N11PVMFCPMImpl14queryInterfaceERK8OsclUuidRP11PVInterface
T _ZThn92_N11PVMFCPMImpl6addRefEv
T _ZThn92_N11PVMFCPMImpl9removeRefEv
T _ZThn92_N12PlayerDriver16HandleErrorEventERK17PVAsyncErrorEvent
T _ZThn92_N12PlayerDriverD0Ev
T _ZThn92_N12PlayerDriverD1Ev
T _ZThn92_N15AndroidAudioMIO17getParametersSyncEPvPcRP9__PvmiKvpRiS0_
T _ZThn92_N15AndroidAudioMIO17releaseParametersEPvP9__PvmiKvpi
T _ZThn92_N15AndroidAudioMIO17setParametersSyncEPvP9__PvmiKvpiRS2_
T _ZThn92_N15AndroidAudioMIO20verifyParametersSyncEPvP9__PvmiKvpi
T _ZThn92_N15AndroidAudioMIOD0Ev
T _ZThn92_N15AndroidAudioMIOD1Ev
T _ZThn92_N18AndroidAudioOutput17setParametersSyncEPvP9__PvmiKvpiRS2_
T _ZThn92_N18AndroidAudioOutputD0Ev
T _ZThn92_N18AndroidAudioOutputD1Ev
T _ZThn92_N18AndroidAudioStream17setParametersSyncEPvP9__PvmiKvpiRS2_
T _ZThn92_N18AndroidAudioStreamD0Ev
T _ZThn92_N18AndroidAudioStreamD1Ev
T _ZThn92_N20AndroidSurfaceOutput11setObserverEP34PvmiConfigAndCapabilityCmdObserver
T _ZThn92_N20AndroidSurfaceOutput13DeleteContextEPvRS0_
T _ZThn92_N20AndroidSurfaceOutput13createContextEPvRS0_
T _ZThn92_N20AndroidSurfaceOutput17getParametersSyncEPvPcRP9__PvmiKvpRiS0_
T _ZThn92_N20AndroidSurfaceOutput17releaseParametersEPvP9__PvmiKvpi
T _ZThn92_N20AndroidSurfaceOutput17setParametersSyncEPvP9__PvmiKvpiRS2_
T _ZThn92_N20AndroidSurfaceOutput18setParametersAsyncEPvP9__PvmiKvpiRS2_S0_
T _ZThn92_N20AndroidSurfaceOutput19getCapabilityMetricEPv
T _ZThn92_N20AndroidSurfaceOutput20setContextParametersEPvRS0_P9__PvmiKvpi
T _ZThn92_N20AndroidSurfaceOutput20verifyParametersSyncEPvP9__PvmiKvpi
T _ZThn92_N20AndroidSurfaceOutputD0Ev
T _ZThn92_N20AndroidSurfaceOutputD1Ev
T _ZThn92_N7android14MetadataDriver16HandleErrorEventERK17PVAsyncErrorEvent
T _ZThn92_N7android14MetadataDriverD0Ev
T _ZThn92_N7android14MetadataDriverD1Ev
W _ZTv0_n12_N27PVMFMediaClockStateObserverD0Ev
W _ZTv0_n12_N27PVMFMediaClockStateObserverD1Ev
W _ZTv0_n12_N34AndroidAudioMIOActiveTimingSupportD0Ev
W _ZTv0_n12_N34AndroidAudioMIOActiveTimingSupportD1Ev
T _ZTv0_n16_N34AndroidAudioMIOActiveTimingSupport31NotificationsInterfaceDestroyedEv
U _ZdaPv
U _ZdlPv
U _Znaj
U _Znwj
U __aeabi_d2iz
U __aeabi_dcmplt
U __aeabi_ddiv
U __aeabi_dmul
U __aeabi_f2d
U __aeabi_f2iz
U __aeabi_f2uiz
U __aeabi_fadd
U __aeabi_fcmpgt
U __aeabi_fcmple
U __aeabi_fcmplt
U __aeabi_fdiv
U __aeabi_fmul
U __aeabi_fsub
U __aeabi_i2d
U __aeabi_i2f
U __aeabi_idiv
U __aeabi_lmul
U __aeabi_ui2d
U __aeabi_ui2f
U __aeabi_uidiv
U __aeabi_uidivmod
U __aeabi_uldivmod
U __aeabi_unwind_cpp_pr0
U __aeabi_unwind_cpp_pr1
U __android_log_assert
U __android_log_print
A __bss_end__
A __bss_start
A __bss_start__
U __cxa_pure_virtual
D __data_start
A __end__
U __errno
A __exidx_end
A __exidx_start
U __stack_chk_fail
U __stack_chk_guard
A _bss_end__
A _edata
A _end
A _stack
U access
U androidCreateThreadEtc
U android_atomic_dec
U android_atomic_inc
U close
U closedir
U dlclose
U dlopen
U dlsym
U dup
U fclose
U fdopen
U fopen
U fread
U free
U fseek
U ftell
U gettid
U gettimeofday
U lseek
U malloc
U memcmp
U memcpy
U memmove
U memset
U nanosleep
U opendir
U ov_clear
U ov_comment
U ov_open
U ov_time_total
U prctl
U property_get
U pthread_getspecific
U pthread_key_create
U pthread_once
U pthread_setspecific
U read
U readdir
U rewind
U setjmp
U setpriority
U snprintf
U sprintf
U stat
U strcasecmp
U strcasestr
U strcat
U strchr
U strcmp
U strcpy
U strdup
U strerror
U strlen
U strncasecmp
U strncmp
U strncpy
U strrchr
U strstr
U systemTime
U ucnv_close_3_8
U ucnv_convertEx_3_8
U ucnv_open_3_8
