T AMREncode
T AMREncodeExit
T AMREncodeInit
T AMREncodeReset
T Autocorr
T Convolve
U Div_32
T Enc_lag3
T Enc_lag6
T GSMEncodeFrame
T GSMEncodeFrameExit
T GSMInitEncode
T G_code
T G_pitch
R If2EncBytesPerFrame
T Interpol_3or6
U Inv_sqrt
T L_Comp
T L_Extract
U L_abs
U L_deposit_h
T L_negate
T Lag_window
T Levinson
T Levinson_exit
T Levinson_init
T Levinson_reset
U Log2
U Lsf_lsp
U Lsp_lsf
T MR475_gain_quant
T MR475_update_unq_pred
T MR795_gain_quant
T PVGetInterface
T PVReleaseInterface
T Pitch_fr
T Pitch_fr_exit
T Pitch_fr_init
T Pitch_fr_reset
T Pitch_ol
T Pitch_ol_wgh
U Pow2
T Pre_Process
T Pre_Process_exit
T Pre_Process_init
T Pre_Process_reset
U Pred_lt_3or6
T Prm2bits
U Q_plsf_3
T Qua_gain
U Reorder_lsf
U Residu
U Set_zero
T Speech_Encode_Frame_First
T Speech_Encode_Frame_reset
U Syn_filt
T Test_build_code
T Test_search_2i40
U Weight_Ai
R WmfEncBytesPerFrame
U _Z11oscl_strlenPKc
U _Z15GetQueueNumElemP9QueueType
T _Z15Lag_max_wrapperP9vadState1PiPssssssS2_iS1_
U _Z17_oscl_default_newj
T _Z25AmrEncOmxComponentFactoryPPvS_S_PcRS_S_Rm
T _Z28AmrEncOmxComponentDestructorPvRS_S_Rm
T _Z3q_pPss
U _Z7DeQueueP9QueueType
U _ZN11OSCL_String5writeEjc
U _ZN11OSCL_String5writeEjjPKc
U _ZN11OSCL_StringC1Ev
U _ZN11OSCL_StringD1Ev
T _ZN13OmxAmrEncoder10AmrEncInitE27OMX_AUDIO_PARAM_PCMMODETYPE23OMX_AUDIO_PARAM_AMRTYPEPmS2_
T _ZN13OmxAmrEncoder12AmrEncDeinitEv
T _ZN13OmxAmrEncoder14AmrEncodeFrameEPhPmS0_mxPx
T _ZN13OmxAmrEncoderC1Ev
T _ZN13OmxAmrEncoderC2Ev
U _ZN13StrCSumPtrLen11setCheckSumEv
W _ZN15OSCL_HeapStringI16OsclMemAllocatorE10append_repEPKc
W _ZN15OSCL_HeapStringI16OsclMemAllocatorE10append_repERK11OSCL_String
W _ZN15OSCL_HeapStringI16OsclMemAllocatorE7set_lenEj
W _ZN15OSCL_HeapStringI16OsclMemAllocatorE7set_repEPKc
W _ZN15OSCL_HeapStringI16OsclMemAllocatorE7set_repERK11OSCL_String
W _ZN15OSCL_HeapStringI16OsclMemAllocatorED0Ev
W _ZN15OSCL_HeapStringI16OsclMemAllocatorED1Ev
T _ZN16CPvGsmAmrEncoder14CleanupEncoderEv
T _ZN16CPvGsmAmrEncoder17InitializeEncoderEiP17TEncodeProperties
T _ZN16CPvGsmAmrEncoder5ResetEv
T _ZN16CPvGsmAmrEncoder6EncodeER17TInputAudioStreamR18TOutputAudioStream
T _ZN16CPvGsmAmrEncoderC1Ev
T _ZN16CPvGsmAmrEncoderC2Ev
T _ZN16CPvGsmAmrEncoderD1Ev
T _ZN16CPvGsmAmrEncoderD2Ev
U _ZN16OmxComponentBase17ReturnInputBufferEP20OMX_BUFFERHEADERTYPEP17ComponentPortType
U _ZN16OmxComponentBase18BufferMgmtFunctionEv
U _ZN16OmxComponentBase18ReturnOutputBufferEP20OMX_BUFFERHEADERTYPEP17ComponentPortType
U _ZN16OmxComponentBase20DestroyBaseComponentEv
U _ZN16OmxComponentBase21BaseComponentGetStateEPvP13OMX_STATETYPE
U _ZN16OmxComponentBase22BaseComponentGetConfigEPv13OMX_INDEXTYPES0_
U _ZN16OmxComponentBase22BaseComponentSetConfigEPv13OMX_INDEXTYPES0_
U _ZN16OmxComponentBase22BaseComponentUseBufferEPvPP20OMX_BUFFERHEADERTYPEmS0_mPh
U _ZN16OmxComponentBase22ConstructBaseComponentEPv
U _ZN16OmxComponentBase23BaseComponentFreeBufferEPvmP20OMX_BUFFERHEADERTYPE
U _ZN16OmxComponentBase23BufferMgmtWithoutMarkerEv
U _ZN16OmxComponentBase24BaseComponentSendCommandEPv15OMX_COMMANDTYPEmS0_
U _ZN16OmxComponentBase25BaseComponentGetParameterEPv13OMX_INDEXTYPES0_
U _ZN16OmxComponentBase25BaseComponentSetCallbacksEPvP16OMX_CALLBACKTYPES0_
U _ZN16OmxComponentBase25BaseComponentSetParameterEPv13OMX_INDEXTYPES0_
U _ZN16OmxComponentBase26BaseComponentProxyGetStateEPvP13OMX_STATETYPE
U _ZN16OmxComponentBase26ParseFullAVCFramesIntoNALsEP20OMX_BUFFERHEADERTYPE
U _ZN16OmxComponentBase27BaseComponentAllocateBufferEPvPP20OMX_BUFFERHEADERTYPEmS0_m
U _ZN16OmxComponentBase27BaseComponentFillThisBufferEPvP20OMX_BUFFERHEADERTYPE
U _ZN16OmxComponentBase27BaseComponentProxyGetConfigEPv13OMX_INDEXTYPES0_
U _ZN16OmxComponentBase27BaseComponentProxySetConfigEPv13OMX_INDEXTYPES0_
U _ZN16OmxComponentBase27BaseComponentProxyUseBufferEPvPP20OMX_BUFFERHEADERTYPEmS0_mPh
U _ZN16OmxComponentBase28BaseComponentEmptyThisBufferEPvP20OMX_BUFFERHEADERTYPE
U _ZN16OmxComponentBase28BaseComponentProxyFreeBufferEPvmP20OMX_BUFFERHEADERTYPE
U _ZN16OmxComponentBase29BaseComponentProxySendCommandEPv15OMX_COMMANDTYPEmS0_
U _ZN16OmxComponentBase30BaseComponentGetExtensionIndexEPvPcP13OMX_INDEXTYPE
U _ZN16OmxComponentBase30BaseComponentProxyGetParameterEPv13OMX_INDEXTYPES0_
U _ZN16OmxComponentBase30BaseComponentProxySetParameterEPv13OMX_INDEXTYPES0_
U _ZN16OmxComponentBase32BaseComponentProxyAllocateBufferEPvPP20OMX_BUFFERHEADERTYPEmS0_m
U _ZN16OmxComponentBase32BaseComponentProxyFillThisBufferEPvP20OMX_BUFFERHEADERTYPE
U _ZN16OmxComponentBase32ComponentBufferMgmtWithoutMarkerEv
U _ZN16OmxComponentBase33BaseComponentProxyEmptyThisBufferEPvP20OMX_BUFFERHEADERTYPE
U _ZN16OmxComponentBase35BaseComponentProxyGetExtensionIndexEPvPcP13OMX_INDEXTYPE
U _ZN16OmxComponentBase3RunEv
U _ZN16OmxComponentBase9GetConfigEPv13OMX_INDEXTYPES0_
U _ZN16OmxComponentBase9SetConfigEPv13OMX_INDEXTYPES0_
U _ZN16OmxComponentBase9SetHeaderEPvm
U _ZN16OsclActiveObject13RunIfNotReadyEv
U _ZN16OsclActiveObject14AddToSchedulerEv
U _ZN16OsclActiveObject19RemoveFromSchedulerEv
U _ZN16OsclActiveObject8DoCancelEv
U _ZN16OsclActiveObject8RunErrorEi
U _ZN16OsclActiveObjectD1Ev
U _ZN17OmxComponentAudio12GetParameterEPv13OMX_INDEXTYPES0_
U _ZN17OmxComponentAudio12SetParameterEPv13OMX_INDEXTYPES0_
U _ZN17OmxComponentAudioC1Ev
T _ZN24OmxComponentAmrEncoderAO11ProcessDataEv
T _ZN24OmxComponentAmrEncoderAO13ComponentInitEv
T _ZN24OmxComponentAmrEncoderAO15ComponentDeInitEv
T _ZN24OmxComponentAmrEncoderAO16DestroyComponentEv
T _ZN24OmxComponentAmrEncoderAO18ConstructComponentEPvS0_
T _ZN24OmxComponentAmrEncoderAO19ProcessInBufferFlagEv
T _ZN24OmxComponentAmrEncoderAO22SyncWithInputTimestampEv
T _ZN24OmxComponentAmrEncoderAO28ComponentGetRolesOfComponentEPPc
T _ZN24OmxComponentAmrEncoderAOC1Ev
T _ZN24OmxComponentAmrEncoderAOC2Ev
T _ZN24OmxComponentAmrEncoderAOD0Ev
T _ZN24OmxComponentAmrEncoderAOD1Ev
T _ZN24OmxComponentAmrEncoderAOD2Ev
U _ZN8CHeapRep10append_repERPS_R13Oscl_DefAllocPKcj
U _ZN8CHeapRep10remove_refER13Oscl_DefAlloc
U _ZN8CHeapRep6assignERPS_S0_R13Oscl_DefAlloc
U _ZN8CHeapRep7set_repERPS_R13Oscl_DefAllocPKcj
U _ZN9OsclError11LeaveIfNullEPv
U _ZNK11OSCL_String11is_writableEv
U _ZNK11OSCL_String4hashEv
U _ZNK11OSCL_String4readEj
U _ZNK12PVActiveBase7IsAddedEv
W _ZNK15OSCL_HeapStringI16OsclMemAllocatorE11get_maxsizeEv
W _ZNK15OSCL_HeapStringI16OsclMemAllocatorE7get_strEv
W _ZNK15OSCL_HeapStringI16OsclMemAllocatorE8get_cstrEv
W _ZNK15OSCL_HeapStringI16OsclMemAllocatorE8get_sizeEv
V _ZTV10Oscl_Alloc
V _ZTV12Oscl_Dealloc
V _ZTV13Oscl_DefAlloc
V _ZTV14PVMFFormatType
V _ZTV15OSCL_HeapStringI16OsclMemAllocatorE
U _ZTV16OmxComponentBase
V _ZTV16OsclMemAllocator
D _ZTV24OmxComponentAmrEncoderAO
V _ZTV25OmxSharedLibraryInterface
V _ZTV26OsclSharedLibraryInterface
V _ZTV31AmrEncOmxSharedLibraryInterface
U _ZThn4_N16OmxComponentBase3RunEv
U _ZThn4_N16OsclActiveObject8DoCancelEv
U _ZThn4_N16OsclActiveObject8RunErrorEi
T _ZThn4_N24OmxComponentAmrEncoderAOD0Ev
T _ZThn4_N24OmxComponentAmrEncoderAOD1Ev
U _ZdlPv
U _Znwj
U __aeabi_idiv
U __aeabi_uidiv
U __aeabi_uidivmod
U __aeabi_unwind_cpp_pr0
U __aeabi_unwind_cpp_pr1
A __bss_end__
A __bss_start
A __bss_start__
U __cxa_pure_virtual
A __data_start
A __end__
A __exidx_end
A __exidx_start
U __stack_chk_fail
U __stack_chk_guard
A _bss_end__
A _edata
A _end
A _stack
U add
U bitno
T calc_filt_energies
T calc_target_energy
T calc_unfilt_energies
T cbsearch
T check_gp_clipping
T check_lsp
T cl_ltp
T cl_ltp_exit
T cl_ltp_init
T cl_ltp_reset
T cod_amr
T cod_amr_exit
T cod_amr_first
T cod_amr_init
T cod_amr_reset
T code_10i40_35bits
T code_2i40_11bits
T code_2i40_9bits
T code_3i40_14bits
T code_4i40_17bits
T code_8i40_31bits
T comp_corr
T cor_h
T cor_h_x
T cor_h_x2
R corrweight
U div_s
T dtx_buffer
T dtx_enc
T dtx_enc_exit
T dtx_enc_init
T dtx_enc_reset
T ets_to_if2
T ets_to_wmf
U extract_h
U free
T gainQuant
T gainQuant_exit
T gainQuant_init
T gainQuant_reset
T gain_adapt
T gain_adapt_exit
T gain_adapt_init
T gain_adapt_reset
U gc_pred
U gc_pred_reset
U gc_pred_update
U gmed_n
U gray
T hp_max
R inter_6
R lag_h
R lag_l
T lpc
T lpc_exit
T lpc_init
T lpc_reset
U lsp
U lsp_exit
U lsp_init
U lsp_init_data
U lsp_reset
U malloc
U memcpy
U memmove
U memset
U numOfBits
T ol_ltp
T p_ol_wgh_exit
T p_ol_wgh_init
T p_ol_wgh_reset
T pre_big
U prmno
U pv_round
T q_gain_code
T q_gain_pitch
U qua_gain_code
U qua_gain_pitch
U reorderBits
T search_10and8i40
T set_sign
T set_sign12k2
U shr
U shr_r
T sid_sync
T sid_sync_exit
T sid_sync_init
T sid_sync_reset
T sid_sync_set_handover_debt
U sqrt_l_exp
U startPos
U sub
T subframePostProc
T subframePreProc
U table_gain_highrates
U table_gain_lowrates
T ton_stab_exit
T ton_stab_init
T ton_stab_reset
T tx_dtx_handler
T update_gp_clipping
U vad1
U vad1_exit
U vad1_init
U vad1_reset
U vad_complex_detection_update
U vad_pitch_detection
U vad_tone_detection
U vad_tone_detection_update
U window_160_80
U window_200_40
U window_232_8
