T Az_lsp
T Bits2prm
R BytesUsed
T Copy
T Div_32
T Int_lpc_1and3
T Int_lpc_1and3_2
T Int_lpc_1to3
T Int_lpc_1to3_2
T Inv_sqrt
T L_abs
T L_deposit_h
T L_deposit_l
T L_shr_r
T Log2
T Log2_norm
T Lsf_lsp
T Lsf_wt
T Lsp_Az
T Lsp_lsf
T PVMP4AudioDecoderDisableAacPlus
T PVMP4AudioDecoderGetMemRequirements
T PVMP4AudioDecoderInitLibrary
T Pow2
T Pred_lt_3or6
T Q_plsf_3
T Q_plsf_5
T Q_plsf_exit
T Q_plsf_init
T Q_plsf_reset
T Reorder_lsf
T Residu
T Set_zero
T Syn_filt
T Weight_Ai
T _Z10CleanUpDPBP12tagAVCHandleP12tagCommonObj
T _Z10DPBInitPicP12tagCommonObji
T _Z10oscl_chdirPKc
T _Z10oscl_chdirPKw
T _Z10oscl_mkdirPKc
T _Z10oscl_mkdirPKw
T _Z10oscl_rmdirPKc
T _Z10oscl_rmdirPKw
T _Z11AllocateKvpR16OsclMemAllocatorRP9__PvmiKvpPci
T _Z11OSCL_AssertPKcS0_i
T _Z11OsclMemInitR11OsclAuditCB
T _Z11ReOrderListP12tagCommonObj
T _Z11RefListInitP12tagCommonObj
T _Z11oscl_getcwdPcj
T _Z11oscl_getcwdPwj
T _Z11oscl_renamePKcS0_
T _Z11oscl_renamePKwS0_
T _Z11oscl_statfsP11oscl_fsstatPKc
T _Z11oscl_statfsP11oscl_fsstatPKw
T _Z11oscl_strcatPcPKc
T _Z11oscl_strcatPwPKw
T _Z11oscl_strchrPKci
T _Z11oscl_strchrPKwi
T _Z11oscl_strchrPci
T _Z11oscl_strchrPwi
T _Z11oscl_strcmpPKcS0_
T _Z11oscl_strcmpPKwS0_
T _Z11oscl_strlenPKc
T _Z11oscl_strlenPKw
T _Z11oscl_strsetPccj
T _Z11oscl_strsetPwwj
T _Z11oscl_strstrPKcS0_
T _Z11oscl_strstrPKwS0_
T _Z11oscl_strstrPcPKc
T _Z11oscl_strstrPwPKw
T _Z11predict_nnzP12tagCommonObjii
T _Z12oscl_strncatPcPKcj
T _Z12oscl_strncatPwPKwj
T _Z12oscl_strncmpPKcS0_j
T _Z12oscl_strncmpPKwS0_j
T _Z12oscl_strncpyPcPKcj
T _Z12oscl_strncpyPwPKwj
T _Z12oscl_strrchrPKci
T _Z12oscl_strrchrPKwi
T _Z12oscl_strrchrPci
T _Z12oscl_strrchrPwi
T _Z12oscl_tolowerc
T _Z12oscl_tolowerw
T _Z13DPBInitBufferP12tagAVCHandleP12tagCommonObj
T _Z13oscl_CIstrcmpPKcS0_
T _Z13oscl_CIstrcmpPKwS0_
T _Z13oscl_isLetterc
T _Z13oscl_snprintfPcjPKcz
T _Z13oscl_snprintfPwjPKwz
T _Z14Chebps_WrappersPssPi
T _Z14DeblockPictureP12tagCommonObj
T _Z14OMX_MasterInitv
T _Z14PV8601ToRFC822PcS_
T _Z14RFC822ToPV8601PcS_
T _Z14extract_stringPKcPci
T _Z14extract_stringPKcS0_Pci
T _Z14oscl_CIstrncmpPKcS0_j
T _Z14oscl_CIstrncmpPKwS0_j
T _Z14oscl_vsnprintfPcjPKcPv
T _Z14oscl_vsnprintfPwjPKwPv
T _Z14parseRtspRangePKciR13RtspRangeType
T _Z14pv_mime_strcmpPKcS0_
T _Z14pv_mime_strstrPcS_
T _Z15Test_Vq_subvec3PsPKsS_siPi
T _Z15Test_Vq_subvec4PsPKsS_sPi
T _Z15skip_whitespacePKc
T _Z15skip_whitespacePKcS0_
T _Z15skip_whitespacePc
T _Z16OMX_MasterDeinitv
T _Z16iDecodeVOLHeaderP13mp4StreamTypePiS1_S1_S1_S1_
T _Z16parse_abs_formatPKcS0_R13AbsTimeFormat
T _Z16parse_npt_formatPKcS0_R13NptTimeFormat
T _Z17StorePictureInDPBP12tagAVCHandleP12tagCommonObj
T _Z17_oscl_default_newj
T _Z17iGetAVCConfigInfoPhiPiS0_S0_S0_S0_S0_
T _Z17iGetM4VConfigInfoPhiPiS0_S0_S0_
T _Z17skip_to_line_termPKcS0_
T _Z18GetActualAacConfigPhS_PiS_Pj
T _Z18PVMFStatusToStringi
T _Z18compose_SDP_stringPcjRK13RtspRangeTypeRi
T _Z18iDecodeShortHeaderP13mp4StreamTypePiS1_S1_S1_
T _Z18oscl_UTF8ToUnicodePKciPwi
T _Z18oscl_UnicodeToUTF8PKwiPci
T _Z18parse_smpte_formatPKcS0_N13RtspRangeType15RtspRangeFormatER15SmpteTimeFormat
T _Z18predict_nnz_chromaP12tagCommonObjii
T _Z18skip_to_whitespacePKcS0_
T _Z19Get_lsp_pol_wrapperPsPiS0_
T _Z19OMX_MasterGetHandlePPvPcS_P16OMX_CALLBACKTYPE
T _Z19compose_RTSP_stringPcjRK13RtspRangeTypeRi
T _Z19oscl_str_escape_xmlPKcPcjjPj
T _Z19parse_range_integerPKcS0_iPcRj
T _Z20AVCConfigureSequenceP12tagAVCHandleP12tagCommonObjb
T _Z20GetTypeFromKeyStringPc
T _Z20OMX_MasterFreeHandlePv
T _Z20compose_range_stringPcjRK13AbsTimeFormatRi
T _Z20compose_range_stringPcjRK13NptTimeFormatRi
T _Z20compose_range_stringPcjRK13RtspRangeTypeRi
T _Z20compose_range_stringPcjRK15SmpteTimeFormatRi
T _Z21OMX_MasterSetupTunnelPvmS_m
T _Z21convertToPVMFMediaCmdR13OsclSharedPtrI12PVMFMediaCmdERS_I12PVMFMediaMsgE
T _Z21convertToPVMFMediaMsgR13OsclSharedPtrI12PVMFMediaMsgERS_I13PVMFMediaDataE
T _Z21oscl_str_unescape_uriPKcPcjjRj
T _Z21oscl_str_unescape_uriRK11OSCL_StringRS_Rj
T _Z21pv_mime_string_parcntPc
T _Z21pvmiSetPortFormatSyncP23PvmiCapabilityAndConfigPKc14PVMFFormatType
T _Z22DPBReleaseCurrentFrameP12tagAVCHandleP12tagCommonObj
T _Z22OMX_MasterConfigParserPvS_
T _Z22convertToPVMFMediaDataR13OsclSharedPtrI13PVMFMediaDataERS_I12PVMFMediaMsgE
T _Z22oscl_str_is_valid_utf8PKhRjjjPj
T _Z22oscl_str_truncate_utf8Phjj
T _Z22pv_audio_config_parserP25pvAudioConfigParserInputsP26pvAudioConfigParserOutputs
T _Z22pv_mime_string_compcntPc
T _Z22pv_video_config_parserP25pvVideoConfigParserInputsP26pvVideoConfigParserOutputs
T _Z23GetValTypeFromKeyStringPc
T _Z23PackWChar4BytesTo2BytesPhPwi
T _Z23estimate_SDP_string_lenRK13NptTimeFormat
T _Z23estimate_SDP_string_lenRK13RtspRangeType
T _Z24GetAttrTypeFromKeyStringPc
T _Z24GetMotionVectorPredictorP12tagCommonObji
T _Z24InitNeighborAvailabilityP12tagCommonObji
T _Z24OMX_MasterGetContentPipePPvPc
T _Z24convertToPVMFMediaCmdMsgR13OsclSharedPtrI12PVMFMediaMsgERS_I12PVMFMediaCmdE
T _Z24oscl_str_need_escape_xmlPKcRjj
T _Z25ExpandWChar2BytesTo4BytesPwPti
T _Z26pv_mime_string_parse_paramPcS_RS_
T _Z27OMX_MasterComponentNameEnumPcmm
T _Z27pv_mime_string_extract_typeiPcRS_
T _Z28pv_mime_string_extract_paramiPcRS_
T _Z29OMX_MasterGetComponentsOfRolePcPmPPh
T _Z29OMX_MasterGetRolesOfComponentPcPmPPh
T _Z29skip_whitespace_and_line_termPKcS0_
T _Z30oscl_str_check_and_escape_utf8PKcPcRjjjPj
T _Z35oscl_str_is_valid_and_truncate_utf8PKhRjjS1_j
T _Z6Gau2AUPK3GAUP12MemAllocatorI24AccessUnitImplementationERN18BufFragStatusClass8status_tEb
T _Z7FMOInitP12tagCommonObj
T _Z7PV_atofPKcRf
T _Z7PV_atofPKciRf
T _Z7PV_atoiPKccRj
T _Z7PV_atoiPKcciRj
T _Z7PV_atoiPKcciRy
T _Z8lessthanRjS_j
T _Z8oscl_absi
T _Z9oscl_statPKcP13oscl_stat_buf
T _Z9oscl_statPKwP13oscl_stat_buf
T _ZN10AccessUnit12AddCodecInfoEPvi
T _ZN10AccessUnit12AddCodecInfoER14BufferFragment
T _ZN10AccessUnit12SetTimestampERKj
T _ZN10AccessUnit5ClearEv
T _ZN10AccessUnit9AddAUFragERK14BufferFragmentP11BufferStatei
T _ZN10AccessUnitC1EP12MemAllocatorI24AccessUnitImplementationEPvi
T _ZN10AccessUnitC2EP12MemAllocatorI24AccessUnitImplementationEPvi
T _ZN10AccessUnitD1Ev
T _ZN10AccessUnitD2Ev
T _ZN10OsclThread10EnableKillEv
T _ZN10OsclThread11GetPriorityER18OsclThreadPriority
T _ZN10OsclThread11SetPriorityE18OsclThreadPriority
T _ZN10OsclThread13SleepMillisecEi
T _ZN10OsclThread4ExitEPv
T _ZN10OsclThread5GetIdERl
T _ZN10OsclThread6CreateEPFPvS0_EiS0_16OsclThread_Stateb
T _ZN10OsclThread6ResumeEv
T _ZN10OsclThread7SuspendEv
T _ZN10OsclThread9CompareIdERlS0_
T _ZN10OsclThread9TerminateEPv
T _ZN10OsclThreadC1Ev
T _ZN10OsclThreadC2Ev
T _ZN10OsclThreadD1Ev
T _ZN10OsclThreadD2Ev
T _ZN11OSCL_String5writeEjc
T _ZN11OSCL_String5writeEjjPKc
T _ZN11OSCL_StringC1Ev
T _ZN11OSCL_StringC2Ev
T _ZN11OSCL_StringD0Ev
T _ZN11OSCL_StringD1Ev
T _ZN11OSCL_StringD2Ev
T _ZN11OSCL_StringaSEPKc
T _ZN11OSCL_StringaSERKS_
T _ZN11OSCL_StringpLEPKc
T _ZN11OSCL_StringpLERKS_
T _ZN11OSCL_StringpLEc
T _ZN11PVStringUri21DecimalToHexConverterEhRj
T _ZN11PVStringUri27PersentageToEscapedEncodingEPcRj
T _ZN11PVStringUri34IllegalCharactersToEscapedEncodingEPcRj
T _ZN12OSCL_wString5writeEjjPKw
T _ZN12OSCL_wString5writeEjw
T _ZN12OSCL_wStringC1Ev
T _ZN12OSCL_wStringC2Ev
T _ZN12OSCL_wStringD0Ev
T _ZN12OSCL_wStringD1Ev
T _ZN12OSCL_wStringD2Ev
T _ZN12OSCL_wStringaSEPKw
T _ZN12OSCL_wStringaSERKS_
T _ZN12OSCL_wStringpLEPKw
T _ZN12OSCL_wStringpLERKS_
T _ZN12OSCL_wStringpLEw
T _ZN12PVMFMediaCmd11getDurationEv
T _ZN12PVMFMediaCmd11getFormatIDEv
T _ZN12PVMFMediaCmd11getStreamIDEv
T _ZN12PVMFMediaCmd11setDurationERKj
T _ZN12PVMFMediaCmd11setFormatIDEj
T _ZN12PVMFMediaCmd11setStreamIDEj
T _ZN12PVMFMediaCmd12getTimestampEv
T _ZN12PVMFMediaCmd12setTimestampERKj
T _ZN12PVMFMediaCmd14createMediaCmdEP13Oscl_DefAlloc
T _ZN12PVMFMediaCmd14createMediaCmdEPK18PVMFMediaMsgHeaderP13Oscl_DefAlloc
T _ZN12PVMFMediaCmd14queryInterfaceERK8OsclUuidRP11PVInterface
T _ZN12PVMFMediaCmd21getFormatSpecificInfoER21OsclRefCounterMemFrag
T _ZN12PVMFMediaCmd21setFormatSpecificInfoER21OsclRefCounterMemFrag
T _ZN12PVMFMediaCmd9getSeqNumEv
T _ZN12PVMFMediaCmd9setSeqNumEj
T _ZN12PVMFMediaCmdD0Ev
T _ZN12PVMFMediaCmdD1Ev
T _ZN12PVMFMediaCmdD2Ev
T _ZN12PvmfSyncUtil10SetMarginsEii
T _ZN12PvmfSyncUtil13SkipMediaDataEjb
T _ZN12PvmfSyncUtil13SyncMediaDataEjjRj
T _ZN12PvmfSyncUtil17SetFrameStepClockEP14PVMFMediaClock
T _ZN12PvmfSyncUtil19CancelSkipMediaDataEv
T _ZN12PvmfSyncUtil8SetClockEP14PVMFMediaClock
T _ZN12PvmfSyncUtilC1Ev
T _ZN12PvmfSyncUtilC2Ev
T _ZN13CPVVideoBlend10BlendInputEP12PVBlendFrameP8PVBitmapS1_
T _ZN13CPVVideoBlend11BlendOutputEP12PVBlendFrameP12PVCoordinateS1_S3_P8PVBitmapS3_jS5_
T _ZN13CPVVideoBlend14InitInputBlendEP11PVDimension17PVRotationCLKWise
T _ZN13CPVVideoBlend15InitOutputBlendEP11PVDimensionS1_S1_S1_ii
T _ZN13CPVVideoBlend3NewEv
T _ZN13CPVVideoBlendD1Ev
T _ZN13CPVVideoBlendD2Ev
T _ZN13OsclErrorTrap15GetErrorTrapImpEv
T _ZN13OsclErrorTrap4InitEP13Oscl_DefAlloc
T _ZN13OsclErrorTrap7CleanupEv
T _ZN13OsclScheduler4InitEPKcP13Oscl_DefAlloci
T _ZN13OsclScheduler7CleanupEv
T _ZN13OsclSemaphore4WaitEj
T _ZN13OsclSemaphore4WaitEv
T _ZN13OsclSemaphore5CloseEv
T _ZN13OsclSemaphore6CreateEj
T _ZN13OsclSemaphore6SignalEv
T _ZN13OsclSemaphore7TryWaitEv
T _ZN13OsclSemaphoreC1Ev
T _ZN13OsclSemaphoreC2Ev
T _ZN13OsclSemaphoreD1Ev
T _ZN13OsclSemaphoreD2Ev
T _ZN13OsclTCPSocket10CancelBindEv
T _ZN13OsclTCPSocket10CancelRecvEv
T _ZN13OsclTCPSocket10CancelSendEv
T _ZN13OsclTCPSocket11GetRecvDataEPi
T _ZN13OsclTCPSocket11GetSendDataEPi
T _ZN13OsclTCPSocket11ListenAsyncEii
T _ZN13OsclTCPSocket12CancelAcceptEv
T _ZN13OsclTCPSocket12CancelListenEv
T _ZN13OsclTCPSocket13CancelConnectEv
T _ZN13OsclTCPSocket14CancelShutdownEv
T _ZN13OsclTCPSocket18GetAcceptedSocketLEj
T _ZN13OsclTCPSocket4BindER18OsclNetworkAddress
T _ZN13OsclTCPSocket4NewLER13Oscl_DefAllocR14OsclSocketServP18OsclSocketObserverj
T _ZN13OsclTCPSocket4RecvEPhji
T _ZN13OsclTCPSocket4SendEPKhji
T _ZN13OsclTCPSocket5CloseEv
T _ZN13OsclTCPSocket6AcceptEi
T _ZN13OsclTCPSocket6ListenEi
T _ZN13OsclTCPSocket7ConnectER18OsclNetworkAddressi
T _ZN13OsclTCPSocket8ShutdownE17TPVSocketShutdowni
T _ZN13OsclTCPSocket9BindAsyncER18OsclNetworkAddressi
T _ZN13OsclTCPSocketD0Ev
T _ZN13OsclTCPSocketD1Ev
T _ZN13OsclTCPSocketD2Ev
T _ZN13OsclUDPSocket10CancelBindEv
T _ZN13OsclUDPSocket11GetRecvDataEPi
T _ZN13OsclUDPSocket11GetSendDataEPi
T _ZN13OsclUDPSocket12CancelSendToEv
T _ZN13OsclUDPSocket14CancelRecvFromEv
T _ZN13OsclUDPSocket17SetRecvBufferSizeEj
T _ZN13OsclUDPSocket4BindER18OsclNetworkAddress
T _ZN13OsclUDPSocket4JoinER18OsclNetworkAddress
T _ZN13OsclUDPSocket4NewLER13Oscl_DefAllocR14OsclSocketServP18OsclSocketObserverj
T _ZN13OsclUDPSocket5CloseEv
T _ZN13OsclUDPSocket6SendToEPKhjR18OsclNetworkAddressi
T _ZN13OsclUDPSocket8RecvFromEPhjR18OsclNetworkAddressijP11Oscl_VectorIj16OsclMemAllocatorEPS3_IS1_S4_E
T _ZN13OsclUDPSocket9BindAsyncER18OsclNetworkAddressi
T _ZN13OsclUDPSocketD0Ev
T _ZN13OsclUDPSocketD1Ev
T _ZN13OsclUDPSocketD2Ev
T _ZN13Oscl_FileFind12GetLastErrorEv
T _ZN13Oscl_FileFind14GetElementTypeEv
T _ZN13Oscl_FileFind5CloseEv
T _ZN13Oscl_FileFind8FindNextEPcj
T _ZN13Oscl_FileFind8FindNextEPwj
T _ZN13Oscl_FileFind9FindFirstEPKcS1_Pcj
T _ZN13Oscl_FileFind9FindFirstEPKwS1_Pwj
T _ZN13Oscl_FileFindC1Ev
T _ZN13Oscl_FileFindC2Ev
T _ZN13Oscl_FileFindD1Ev
T _ZN13Oscl_FileFindD2Ev
T _ZN13PVBase64Codec6EncodeEPhjS0_Rjj
T _ZN13PVBase64CodecC1Ev
T _ZN13PVBase64CodecC2Ev
T _ZN13PVMFMediaData11getCapacityEv
T _ZN13PVMFMediaData11getDurationEv
T _ZN13PVMFMediaData11getFormatIDEv
T _ZN13PVMFMediaData11getStreamIDEv
T _ZN13PVMFMediaData11setDurationERKj
T _ZN13PVMFMediaData11setStreamIDEj
T _ZN13PVMFMediaData12getTimestampEv
T _ZN13PVMFMediaData12setTimestampERKj
T _ZN13PVMFMediaData13getErrorsFlagEv
T _ZN13PVMFMediaData13getFilledSizeEv
T _ZN13PVMFMediaData13getMarkerInfoEv
T _ZN13PVMFMediaData13setMarkerInfoEj
T _ZN13PVMFMediaData14queryInterfaceERK8OsclUuidRP11PVInterface
T _ZN13PVMFMediaData15createMediaDataER13OsclSharedPtrI17PVMFMediaDataImplEP13Oscl_DefAlloc
T _ZN13PVMFMediaData15createMediaDataER13OsclSharedPtrI17PVMFMediaDataImplEPK18PVMFMediaMsgHeaderP13Oscl_DefAlloc
T _ZN13PVMFMediaData15getNumFragmentsEv
T _ZN13PVMFMediaData16getMediaDataImplER13OsclSharedPtrI17PVMFMediaDataImplE
T _ZN13PVMFMediaData16getMediaFragmentEjR21OsclRefCounterMemFrag
T _ZN13PVMFMediaData16getMessageHeaderEv
T _ZN13PVMFMediaData21getFormatSpecificInfoER21OsclRefCounterMemFrag
T _ZN13PVMFMediaData21setFormatSpecificInfoER21OsclRefCounterMemFrag
T _ZN13PVMFMediaData21setMediaFragFilledLenEjj
T _ZN13PVMFMediaData9getSeqNumEv
T _ZN13PVMFMediaData9setSeqNumEj
T _ZN13PVMFMediaDataD0Ev
T _ZN13PVMFMediaDataD1Ev
T _ZN13PVMFMediaDataD2Ev
T _ZN13PV_Wav_Parser10GetPCMDataEPhjjRj
T _ZN13PV_Wav_Parser13InitWavParserER12OSCL_wStringP15Oscl_FileServer
T _ZN13PV_Wav_Parser13SeekPCMSampleEj
T _ZN13PV_Wav_Parser14CleanupWAVFileEv
T _ZN13PV_Wav_Parser16RetrieveFileInfoER13PVWAVFileInfo
T _ZN13PV_Wav_Parser26SetOutputToUncompressedPCMEv
T _ZN13PV_Wav_ParserD1Ev
T _ZN13PV_Wav_ParserD2Ev
T _ZN13StrCSumPtrLen11setCheckSumEv
T _ZN13TLSStorageOps12get_registryEPi
T _ZN13TLSStorageOps13save_registryEPiPvRi
T _ZN14CAMRFileParser11InitAMRFileER12OSCL_wStringbP15Oscl_FileServerP35PVMFCPMPluginAccessInterfaceFactoryP14OsclFileHandlej
T _ZN14CAMRFileParser13ResetPlaybackEi
T _ZN14CAMRFileParser16RetrieveFileInfoER14TPVAmrFileInfo
T _ZN14CAMRFileParser17PeekNextTimestampEPj
T _ZN14CAMRFileParser20getCodecSpecificInfoEv
T _ZN14CAMRFileParser22SeekPointFromTimestampEj
T _ZN14CAMRFileParser23getTrackMaxBufferSizeDBEv
T _ZN14CAMRFileParser25GetNextBundledAccessUnitsEPjP3GAU
T _ZN14CAMRFileParser39GetFrameTypeInCurrentBundledAccessUnitsEj
T _ZN14CAMRFileParserC1Ev
T _ZN14CAMRFileParserC2Ev
T _ZN14CAMRFileParserD1Ev
T _ZN14CAMRFileParserD2Ev
T _ZN14CCRGB24toRGB164NewLEv
T _ZN14CCRGB24toRGB16D0Ev
T _ZN14CCRGB24toRGB16D1Ev
T _ZN14CCRGB24toRGB16D2Ev
T _ZN14ColorConvert124NewLEv
T _ZN14ColorConvert12D0Ev
T _ZN14ColorConvert12D1Ev
T _ZN14ColorConvert12D2Ev
T _ZN14ColorConvert164NewLEv
T _ZN14ColorConvert16D0Ev
T _ZN14ColorConvert16D1Ev
T _ZN14ColorConvert16D2Ev
T _ZN14ColorConvert244NewLEv
T _ZN14ColorConvert24D0Ev
T _ZN14ColorConvert24D1Ev
T _ZN14ColorConvert24D2Ev
T _ZN14ColorConvert324NewLEv
T _ZN14ColorConvert32D0Ev
T _ZN14ColorConvert32D1Ev
T _ZN14ColorConvert32D2Ev
T _ZN14OsclSocketServ4NewLER13Oscl_DefAlloc
T _ZN14OsclSocketServ5CloseEb
T _ZN14OsclSocketServ7ConnectEj
T _ZN14OsclSocketServD0Ev
T _ZN14OsclSocketServD1Ev
T _ZN14OsclSocketServD2Ev
T _ZN14OsclThreadLock4LockEv
T _ZN14OsclThreadLock6UnlockEv
T _ZN14OsclThreadLockC1Ev
T _ZN14OsclThreadLockC2Ev
T _ZN14OsclThreadLockD0Ev
T _ZN14OsclThreadLockD1Ev
T _ZN14OsclThreadLockD2Ev
T _ZN14PVMFMediaClock14GetStartTime32ERjRb24PVMFMediaClock_TimeUnits
T _ZN14PVMFMediaClock14QueryInterfaceERK8OsclUuidRP11PVInterface
T _ZN14PVMFMediaClock14SetStartTime32ERj24PVMFMediaClock_TimeUnitsRb
T _ZN14PVMFMediaClock16GetCurrentTick32ERjRb
T _ZN14PVMFMediaClock16GetCurrentTime32ERjRb24PVMFMediaClock_TimeUnits
T _ZN14PVMFMediaClock16GetCurrentTime32ERjRb24PVMFMediaClock_TimeUnitsS0_
T _ZN14PVMFMediaClock16SetClockObserverER22PVMFMediaClockObserver
T _ZN14PVMFMediaClock16SetClockTimebaseER12PVMFTimebase
T _ZN14PVMFMediaClock17AdjustClockTime32ERjS0_S0_24PVMFMediaClock_TimeUnitsRb
T _ZN14PVMFMediaClock19RemoveClockObserverER22PVMFMediaClockObserver
T _ZN14PVMFMediaClock21GetTimebaseResolutionERj
T _ZN14PVMFMediaClock39DestroyMediaClockNotificationsInterfaceEP36PVMFMediaClockNotificationsInterface
T _ZN14PVMFMediaClock41ConstructMediaClockNotificationsInterfaceERP36PVMFMediaClockNotificationsInterfaceR34PVMFMediaClockNotificationsObsBasej
T _ZN14PVMFMediaClock4StopEv
T _ZN14PVMFMediaClock5PauseEv
T _ZN14PVMFMediaClock5ResetEv
T _ZN14PVMFMediaClock5StartEv
T _ZN14PVMFMediaClock7GetRateEv
T _ZN14PVMFMediaClockC1Ev
T _ZN14PVMFMediaClockC2Ev
T _ZN14PVMFMediaClockD0Ev
T _ZN14PVMFMediaClockD1Ev
T _ZN14PVMFMediaClockD2Ev
T _ZN14PVMFOMXDecPort13FormatUpdatedEv
T _ZN14PVMFOMXDecPort17IsFormatSupportedE14PVMFFormatType
T _ZN14PVMFOMXDecPort17setParametersSyncEPvP9__PvmiKvpiRS2_
T _ZN14PVMFOMXDecPort20verifyParametersSyncEPvP9__PvmiKvpi
T _ZN14PVMFOMXDecPort21releaseParametersSyncERP9__PvmiKvpRi
T _ZN14PVMFOMXDecPort33pvmiSetPortFormatSpecificInfoSyncER21OsclRefCounterMemFragPc
T _ZN14PVMFOMXDecPort33verifyConnectedPortParametersSyncEPKcPv
T _ZN14PVMFOMXDecPort38pvmiGetBufferAllocatorSpecificInfoSyncEPcRP9__PvmiKvpRi
T _ZN14PVMFOMXDecPort7ConnectEP17PVMFPortInterface
T _ZN14PVMFOMXDecPort9ConstructEv
T _ZN14PVMFOMXDecPortC1EiP17PVMFNodeInterfacePKc
T _ZN14PVMFOMXDecPortC2EiP17PVMFNodeInterfacePKc
T _ZN14PVMFOMXDecPortD0Ev
T _ZN14PVMFOMXDecPortD1Ev
T _ZN14PVMFOMXDecPortD2Ev
T _ZN14PVMFOMXEncNode11SetFSIParamEPhi
T _ZN14PVMFOMXEncNode12GetVolHeaderER21OsclRefCounterMemFrag
T _ZN14PVMFOMXEncNode12SetNumLayersEj
T _ZN14PVMFOMXEncNode13RequestIFrameEv
T _ZN14PVMFOMXEncNode16SetOutputBitRateE16PVMF_GSMAMR_Rate
T _ZN14PVMFOMXEncNode16SetOutputBitRateEj
T _ZN14PVMFOMXEncNode16SetOutputBitRateEjj
T _ZN14PVMFOMXEncNode17SetIFrameIntervalEj
T _ZN14PVMFOMXEncNode17SetSceneDetectionEb
T _ZN14PVMFOMXEncNode18SetOutputFrameRateEjf
T _ZN14PVMFOMXEncNode18SetOutputFrameSizeEjjj
T _ZN14PVMFOMXEncNode18SetRateControlTypeEj22PVMFVENRateControlType
T _ZN14PVMFOMXEncNode19SetDataPartitioningEb
T _ZN14PVMFOMXEncNode19SetOutputNumChannelEj
T _ZN14PVMFOMXEncNode20SetSegmentTargetSizeEjj
T _ZN14PVMFOMXEncNode21SetOutputSamplingRateEj
T _ZN14PVMFOMXEncNode30SetMaxNumOutputFramesPerBufferEj
T _ZN14PVMFOMXEncNode7SetRVLCEb
T _ZN14PVMFOMXEncNode8SetCodecE14PVMFFormatType
T _ZN14PVMFOMXEncPort17getParametersSyncEPvPcRP9__PvmiKvpRiS0_
T _ZN14PVMFOMXEncPort17releaseParametersEPvP9__PvmiKvpi
T _ZN14PV_LATM_Parser20ParseStreamMuxConfigEPhPi
T _ZN14PV_LATM_Parser7composeEPhjjjj
T _ZN14PV_LATM_Parser7composeER13OsclSharedPtrI13PVMFMediaDataE
T _ZN14PV_LATM_ParserC1Ev
T _ZN14PV_LATM_ParserC2Ev
T _ZN14PV_LATM_ParserD1Ev
T _ZN14PV_LATM_ParserD2Ev
T _ZN14_OsclBasicLock4LockEv
T _ZN14_OsclBasicLock6UnlockEv
T _ZN14_OsclBasicLockC1Ev
T _ZN14_OsclBasicLockC2Ev
T _ZN14_OsclBasicLockD0Ev
T _ZN14_OsclBasicLockD1Ev
T _ZN14_OsclBasicLockD2Ev
T _ZN15BitStreamParser10ReadUInt16Ev
T _ZN15BitStreamParser10ReadUInt32Ev
T _ZN15BitStreamParser10WriteUInt8Eh
T _ZN15BitStreamParser11WriteUInt16Et
T _ZN15BitStreamParser11WriteUInt32Ej
T _ZN15BitStreamParser20ResetBitStreamParserEPhj
T _ZN15BitStreamParser8NextBitsEj
T _ZN15BitStreamParser8ReadBitsEh
T _ZN15BitStreamParser9ReadUInt8Ev
T _ZN15BitStreamParser9WriteBitsEhPKh
T _ZN15BitStreamParserC1EPhj
T _ZN15BitStreamParserC2EPhj
T _ZN15CCRGB12toYUV4203NewEv
T _ZN15CCRGB12toYUV420D0Ev
T _ZN15CCRGB12toYUV420D1Ev
T _ZN15CCRGB12toYUV420D2Ev
T _ZN15CCRGB16toYUV42011SetColorkeyEs
T _ZN15CCRGB16toYUV4203NewEv
T _ZN15CCRGB16toYUV420D0Ev
T _ZN15CCRGB16toYUV420D1Ev
T _ZN15CCRGB16toYUV420D2Ev
T _ZN15CCRGB24toYUV4203NewEv
T _ZN15CCRGB24toYUV420D0Ev
T _ZN15CCRGB24toYUV420D1Ev
T _ZN15CCRGB24toYUV420D2Ev
T _ZN15OSCL_FastString10set_lengthEv
T _ZN15OSCL_FastString3setEPcj
T _ZN15OSCL_FastStringC1EPKc
T _ZN15OSCL_FastStringC1EPcj
T _ZN15OSCL_FastStringC1ERKS_
T _ZN15OSCL_FastStringC1Ev
T _ZN15OSCL_FastStringC2EPKc
T _ZN15OSCL_FastStringC2EPcj
T _ZN15OSCL_FastStringC2ERKS_
T _ZN15OSCL_FastStringC2Ev
T _ZN15OSCL_FastStringD0Ev
T _ZN15OSCL_FastStringD1Ev
T _ZN15OSCL_FastStringD2Ev
T _ZN15OSCL_FastStringaSEPKc
T _ZN15OSCL_FastStringaSERKS_
T _ZN15OsclLibraryList16GetLibraryPathAtEj
T _ZN15OsclLibraryList4SizeEv
T _ZN15OsclLibraryList8PopulateERK8OsclUuidRK11OSCL_String
T _ZN15OsclLibraryListC1Ev
T _ZN15OsclLibraryListC2Ev
T _ZN15OsclLibraryListD1Ev
T _ZN15OsclLibraryListD2Ev
T _ZN15OsclLibraryUtil15SetupLibraryEnvEPKcS1_
T _ZN15OsclTLSRegistry10initializeER13Oscl_DefAllocRi
T _ZN15OsclTLSRegistry11getInstanceEjRi
T _ZN15OsclTLSRegistry16registerInstanceEPvjRi
T _ZN15OsclTLSRegistry7cleanupER13Oscl_DefAllocRi
T _ZN15OsclTimerObject13RunIfNotReadyEj
T _ZN15OsclTimerObject14AddToSchedulerEv
T _ZN15OsclTimerObject19RemoveFromSchedulerEv
T _ZN15OsclTimerObject5AfterEi
T _ZN15OsclTimerObject6CancelEv
T _ZN15OsclTimerObject7SetBusyEv
T _ZN15OsclTimerObject8DoCancelEv
T _ZN15OsclTimerObject8RunErrorEi
T _ZN15OsclTimerObject9SetStatusEi
T _ZN15OsclTimerObject9StatusRefEv
T _ZN15OsclTimerObjectC1EiPKc
T _ZN15OsclTimerObjectC2EiPKc
T _ZN15OsclTimerObjectD0Ev
T _ZN15OsclTimerObjectD1Ev
T _ZN15OsclTimerObjectD2Ev
T _ZN15Oscl_FileServer15Oscl_DeleteFileEPKc
T _ZN15Oscl_FileServer15Oscl_DeleteFileEPKw
T _ZN15Oscl_FileServer5CloseEv
T _ZN15Oscl_FileServer7ConnectEv
T _ZN15Oscl_FileServerC1Ev
T _ZN15Oscl_FileServerC2Ev
T _ZN15Oscl_FileServerD1Ev
T _ZN15Oscl_FileServerD2Ev
T _ZN15Oscl_Queue_Base3popEv
T _ZN15Oscl_Queue_Base4pushEPKv
T _ZN15Oscl_Queue_Base5clearEv
T _ZN15Oscl_Queue_Base7destroyEv
T _ZN15Oscl_Queue_Base7reserveEj
T _ZN15Oscl_Queue_Base9constructEP22Oscl_Opaque_Type_Alloc
T _ZN15Oscl_Queue_Base9constructEP22Oscl_Opaque_Type_Allocj
T _ZN15PVAviFileParser12GetFrameRateEj
T _ZN15PVAviFileParser13GetNumStreamsEv
T _ZN15PVAviFileParser15GetFileDurationEv
T _ZN15PVAviFileParser16GetFrameDurationEv
T _ZN15PVAviFileParser17GetStreamDurationEj
T _ZN15PVAviFileParser17GetStreamMimeTypeEj
T _ZN15PVAviFileParser20GetCodecSpecificDataEjR21OsclRefCounterMemFrag
T _ZN15PVAviFileParser21GetFormatSpecificInfoEjR21OsclRefCounterMemFrag
T _ZN15PVAviFileParser21GetStreamHeaderStructEj
T _ZN15PVAviFileParser23GetAudioStreamCountListEv
T _ZN15PVAviFileParser23GetVideoStreamCountListEv
T _ZN15PVAviFileParser5ResetEj
T _ZN15PVAviFileParser5ResetEv
T _ZN15PVAviFileParser8GetWidthEi
T _ZN15PVAviFileParser9GetHeightERbi
T _ZN15PVRefFileOutput14queryInterfaceERK8OsclUuidRP11PVInterface
T _ZN15PVRefFileOutput6addRefEv
T _ZN15PVRefFileOutput8SetClockEP14PVMFMediaClock
T _ZN15PVRefFileOutput9removeRefEv
T _ZN15PVRefFileOutputC1EPKw9MediaTypeb
T _ZN15PVRefFileOutputC1EPKwb
T _ZN15PVRefFileOutputC1ERK12OSCL_wStringP27PVRefFileOutputTestObserverbjbb
T _ZN15PVRefFileOutputC1ERK12OSCL_wStringb
T _ZN15PVRefFileOutputC2EPKw9MediaTypeb
T _ZN15PVRefFileOutputC2EPKwb
T _ZN15PVRefFileOutputC2ERK12OSCL_wStringP27PVRefFileOutputTestObserverbjbb
T _ZN15PVRefFileOutputC2ERK12OSCL_wStringb
T _ZN15PVThreadContext17ExitThreadContextEv
T _ZN15PVThreadContext18EnterThreadContextEv
T _ZN15PVThreadContext18ThreadHasSchedulerEv
T _ZN15PVThreadContext19IsSameThreadContextEv
T _ZN15PVThreadContext2IdEv
T _ZN15PVThreadContextC1Ev
T _ZN15PVThreadContextC2Ev
T _ZN15PVThreadContextD1Ev
T _ZN15PVThreadContextD2Ev
T _ZN15ThreadSafeQueue10AddToQueueEPvPj
T _ZN15ThreadSafeQueue10IsInThreadEv
T _ZN15ThreadSafeQueue7DeQueueERjRPv
T _ZN15ThreadSafeQueue9ConfigureEP23ThreadSafeQueueObserverjj
T _ZN15ThreadSafeQueueC1Ev
T _ZN15ThreadSafeQueueC2Ev
T _ZN15ThreadSafeQueueD0Ev
T _ZN15ThreadSafeQueueD1Ev
T _ZN15ThreadSafeQueueD2Ev
T _ZN16CCYUV422toYUV4203NewEv
T _ZN16CCYUV422toYUV420D0Ev
T _ZN16CCYUV422toYUV420D1Ev
T _ZN16CCYUV422toYUV420D2Ev
T _ZN16ColorConvertBaseD0Ev
T _ZN16ColorConvertBaseD1Ev
T _ZN16ColorConvertBaseD2Ev
T _ZN16OSCL_HeapStringA3setEPKcj
T _ZN16OSCL_HeapStringAC1EP13Oscl_DefAllocP14OsclRefCounter
T _ZN16OSCL_HeapStringAC1EPKcP13Oscl_DefAllocP14OsclRefCounter
T _ZN16OSCL_HeapStringAC1EPKcjP13Oscl_DefAllocP14OsclRefCounter
T _ZN16OSCL_HeapStringAC1ERK11OSCL_StringP13Oscl_DefAllocP14OsclRefCounter
T _ZN16OSCL_HeapStringAC1ERKS_
T _ZN16OSCL_HeapStringAC1ERKS_P13Oscl_DefAllocP14OsclRefCounter
T _ZN16OSCL_HeapStringAC1Ev
T _ZN16OSCL_HeapStringAC2EP13Oscl_DefAllocP14OsclRefCounter
T _ZN16OSCL_HeapStringAC2EPKcP13Oscl_DefAllocP14OsclRefCounter
T _ZN16OSCL_HeapStringAC2EPKcjP13Oscl_DefAllocP14OsclRefCounter
T _ZN16OSCL_HeapStringAC2ERK11OSCL_StringP13Oscl_DefAllocP14OsclRefCounter
T _ZN16OSCL_HeapStringAC2ERKS_
T _ZN16OSCL_HeapStringAC2ERKS_P13Oscl_DefAllocP14OsclRefCounter
T _ZN16OSCL_HeapStringAC2Ev
T _ZN16OSCL_HeapStringAD0Ev
T _ZN16OSCL_HeapStringAD1Ev
T _ZN16OSCL_HeapStringAD2Ev
T _ZN16OSCL_HeapStringAaSEPKc
T _ZN16OSCL_HeapStringAaSERKS_
T _ZN16OSCL_wFastString10set_lengthEv
T _ZN16OSCL_wFastString3setEPwj
T _ZN16OSCL_wFastStringC1EPKw
T _ZN16OSCL_wFastStringC1EPwj
T _ZN16OSCL_wFastStringC1ERKS_
T _ZN16OSCL_wFastStringC1Ev
T _ZN16OSCL_wFastStringC2EPKw
T _ZN16OSCL_wFastStringC2EPwj
T _ZN16OSCL_wFastStringC2ERKS_
T _ZN16OSCL_wFastStringC2Ev
T _ZN16OSCL_wFastStringD0Ev
T _ZN16OSCL_wFastStringD1Ev
T _ZN16OSCL_wFastStringD2Ev
T _ZN16OSCL_wFastStringaSEPKw
T _ZN16OSCL_wFastStringaSERKS_
T _ZN16OsclActiveObject11PendForExecEv
T _ZN16OsclActiveObject12PendCompleteEi
T _ZN16OsclActiveObject13RunIfNotReadyEv
T _ZN16OsclActiveObject14AddToSchedulerEv
T _ZN16OsclActiveObject19RemoveFromSchedulerEv
T _ZN16OsclActiveObject6CancelEv
T _ZN16OsclActiveObject7SetBusyEv
T _ZN16OsclActiveObject8DoCancelEv
T _ZN16OsclActiveObject8RunErrorEi
T _ZN16OsclActiveObject9SetStatusEi
T _ZN16OsclActiveObject9StatusRefEv
T _ZN16OsclActiveObjectC1EiPKc
T _ZN16OsclActiveObjectC2EiPKc
T _ZN16OsclActiveObjectD0Ev
T _ZN16OsclActiveObjectD1Ev
T _ZN16OsclActiveObjectD2Ev
T _ZN16OsclErrorTrapImp4TrapEv
T _ZN16OsclErrorTrapImp6UnTrapEv
T _ZN16OsclErrorTrapImp9TrapNoTlsEPS_
T _ZN16Oscl_Int64_Utils10set_uint64ERyjj
T _ZN16Oscl_Int64_Utils17get_int64_lower32ERKx
T _ZN16Oscl_Int64_Utils17get_int64_upper32ERKx
T _ZN16Oscl_Int64_Utils18get_int64_middle32ERKx
T _ZN16Oscl_Int64_Utils18get_uint64_lower32ERKy
T _ZN16Oscl_Int64_Utils18get_uint64_upper32ERKy
T _ZN16Oscl_Int64_Utils19get_uint64_middle32ERKy
T _ZN16Oscl_Int64_Utils9set_int64ERxii
T _ZN16Oscl_Vector_Base10push_frontEPKv
T _ZN16Oscl_Vector_Base13assign_vectorERKS_
T _ZN16Oscl_Vector_Base5eraseEPv
T _ZN16Oscl_Vector_Base5eraseEPvS0_
T _ZN16Oscl_Vector_Base6insertEPvPKv
T _ZN16Oscl_Vector_Base7destroyEv
T _ZN16Oscl_Vector_Base7reserveEj
T _ZN16Oscl_Vector_Base8pop_backEv
T _ZN16Oscl_Vector_Base9constructEP22Oscl_Opaque_Type_Alloc
T _ZN16Oscl_Vector_Base9constructEP22Oscl_Opaque_Type_AllocRKS_
T _ZN16Oscl_Vector_Base9constructEP22Oscl_Opaque_Type_Allocj
T _ZN16Oscl_Vector_Base9push_backEPKv
T _ZN16PVLoggerRegistry14CreatePVLoggerEPKcib
T _ZN16PVLoggerRegistry17GetPVLoggerObjectEPKc
T _ZN16PVLoggerRegistry19GetPVLoggerRegistryEv
T _ZN16PVLoggerRegistry23SetNodeLogLevelExplicitEPN12Oscl_TagTreeIP8PVLogger19_OsclBasicAllocatorE4NodeEi
T _ZN16PVLoggerRegistry23SetNodeLogLevelExplicitEPci
T _ZN16PVLoggerRegistryC1Ev
T _ZN16PVLoggerRegistryC2Ev
T _ZN16PVLoggerRegistryD0Ev
T _ZN16PVLoggerRegistryD1Ev
T _ZN16PVLoggerRegistryD2Ev
T _ZN16PvmfPortBaseImpl10DisconnectEv
T _ZN16PvmfPortBaseImpl10SetReserveE26TPvmfPortBaseImplQueueTypej
T _ZN16PvmfPortBaseImpl11GetCapacityE26TPvmfPortBaseImplQueueType
T _ZN16PvmfPortBaseImpl11PeerConnectEP17PVMFPortInterface
T _ZN16PvmfPortBaseImpl11ResumeInputEv
T _ZN16PvmfPortBaseImpl11SetCapacityE26TPvmfPortBaseImplQueueTypej
T _ZN16PvmfPortBaseImpl12GetThresholdE26TPvmfPortBaseImplQueueType
T _ZN16PvmfPortBaseImpl12PortActivityE20PVMFPortActivityType
T _ZN16PvmfPortBaseImpl12SetThresholdE26TPvmfPortBaseImplQueueTypej
T _ZN16PvmfPortBaseImpl12SuspendInputEv
T _ZN16PvmfPortBaseImpl14ClearMsgQueuesEv
T _ZN16PvmfPortBaseImpl14PeerDisconnectEv
T _ZN16PvmfPortBaseImpl14ReadyToReceiveEv
T _ZN16PvmfPortBaseImpl14isIncomingFullEv
T _ZN16PvmfPortBaseImpl14isOutgoingFullEv
T _ZN16PvmfPortBaseImpl15LogMediaMsgInfoE13OsclSharedPtrI12PVMFMediaMsgEPKci
T _ZN16PvmfPortBaseImpl16LogMediaDataInfoE13OsclSharedPtrI13PVMFMediaDataEPKci
T _ZN16PvmfPortBaseImpl16QueueOutgoingMsgE13OsclSharedPtrI12PVMFMediaMsgE
T _ZN16PvmfPortBaseImpl18DequeueIncomingMsgER13OsclSharedPtrI12PVMFMediaMsgE
T _ZN16PvmfPortBaseImpl19IsConnectedPortBusyEv
T _ZN16PvmfPortBaseImpl19IsOutgoingQueueBusyEv
T _ZN16PvmfPortBaseImpl20EvaluateIncomingBusyEv
T _ZN16PvmfPortBaseImpl20EvaluateOutgoingBusyEv
T _ZN16PvmfPortBaseImpl20IncomingMsgQueueSizeEv
T _ZN16PvmfPortBaseImpl20OutgoingMsgQueueSizeEv
T _ZN16PvmfPortBaseImpl4SendEv
T _ZN16PvmfPortBaseImpl7ConnectEP17PVMFPortInterface
T _ZN16PvmfPortBaseImpl7ReceiveE13OsclSharedPtrI12PVMFMediaMsgE
T _ZN16PvmfPortBaseImpl7SetNameEPKc
T _ZN16PvmfPortBaseImpl8GetStatsER21PvmfPortBaseImplStats
T _ZN16PvmfPortBaseImpl9ConstructEv
T _ZN16PvmfPortBaseImplC1EiP23PVMFPortActivityHandlerPKc
T _ZN16PvmfPortBaseImplC1EiP23PVMFPortActivityHandlerjjjjjjPKc
T _ZN16PvmfPortBaseImplC2EiP23PVMFPortActivityHandlerPKc
T _ZN16PvmfPortBaseImplC2EiP23PVMFPortActivityHandlerjjjjjjPKc
T _ZN16PvmfPortBaseImplD0Ev
T _ZN16PvmfPortBaseImplD1Ev
T _ZN16PvmfPortBaseImplD2Ev
T _ZN16PvmiMIOFileInput10disconnectEPv
T _ZN16PvmiMIOFileInput10writeAsyncEhiPhjRK21__PvmiMediaXferHeaderPv
T _ZN16PvmiMIOFileInput11DiscardDataEPKv
T _ZN16PvmiMIOFileInput11DiscardDataEjPKv
T _ZN16PvmiMIOFileInput11ThreadLogonEv
T _ZN16PvmiMIOFileInput11setObserverEP34PvmiConfigAndCapabilityCmdObserver
T _ZN16PvmiMIOFileInput12ThreadLogoffEv
T _ZN16PvmiMIOFileInput12readCompleteEiiiRK21__PvmiMediaXferHeaderPv
T _ZN16PvmiMIOFileInput12statusUpdateEj
T _ZN16PvmiMIOFileInput13CancelCommandEiPKv
T _ZN16PvmiMIOFileInput13DeleteContextEPvRS0_
T _ZN16PvmiMIOFileInput13cancelCommandEi
T _ZN16PvmiMIOFileInput13createContextEPvRS0_
T _ZN16PvmiMIOFileInput13writeCompleteEiiPv
T _ZN16PvmiMIOFileInput14QueryInterfaceERK8OsclUuidRP11PVInterfacePKv
T _ZN16PvmiMIOFileInput17CancelAllCommandsEPKv
T _ZN16PvmiMIOFileInput17GetStreamDurationEv
T _ZN16PvmiMIOFileInput17cancelAllCommandsEv
T _ZN16PvmiMIOFileInput17getParametersSyncEPvPcRP9__PvmiKvpRiS0_
T _ZN16PvmiMIOFileInput17releaseParametersEPvP9__PvmiKvpi
T _ZN16PvmiMIOFileInput17setParametersSyncEPvP9__PvmiKvpiRS2_
T _ZN16PvmiMIOFileInput18setParametersAsyncEPvP9__PvmiKvpiRS2_S0_
T _ZN16PvmiMIOFileInput19createMediaTransferERPvP9__PvmiKvpiS3_i
T _ZN16PvmiMIOFileInput19deleteMediaTransferERPvP17PvmiMediaTransfer
T _ZN16PvmiMIOFileInput19getCapabilityMetricEPv
T _ZN16PvmiMIOFileInput19useMemoryAllocatorsEP16OsclMemAllocator
T _ZN16PvmiMIOFileInput20SetAuthoringDurationEj
T _ZN16PvmiMIOFileInput20setContextParametersEPvRS0_P9__PvmiKvpi
T _ZN16PvmiMIOFileInput20verifyParametersSyncEPvP9__PvmiKvpi
T _ZN16PvmiMIOFileInput4InitEPKv
T _ZN16PvmiMIOFileInput4StopEPKv
T _ZN16PvmiMIOFileInput5FlushEPKv
T _ZN16PvmiMIOFileInput5PauseEPKv
T _ZN16PvmiMIOFileInput5ResetEPKv
T _ZN16PvmiMIOFileInput5StartEPKv
T _ZN16PvmiMIOFileInput7connectERPvP15PvmiMIOObserver
T _ZN16PvmiMIOFileInput7setPeerEP17PvmiMediaTransfer
T _ZN16PvmiMIOFileInput9QueryUUIDERK11OSCL_StringR11Oscl_VectorI8OsclUuid16OsclMemAllocatorEbPKv
T _ZN16PvmiMIOFileInput9readAsyncEPhjPvPit
T _ZN17CPVInterfaceProxy10ConstructLEjjii
T _ZN17CPVInterfaceProxy11SendCommandEiPv
T _ZN17CPVInterfaceProxy12StopPVThreadEv
T _ZN17CPVInterfaceProxy13CancelCommandEii
T _ZN17CPVInterfaceProxy13StartPVThreadEv
T _ZN17CPVInterfaceProxy16SendNotificationEiPv
T _ZN17CPVInterfaceProxy17CancelAllCommandsEi
T _ZN17CPVInterfaceProxy18CancelNotificationEii
T _ZN17CPVInterfaceProxy20DeliverNotificationsEiRi
T _ZN17CPVInterfaceProxy22CancelAllNotificationsEi
T _ZN17CPVInterfaceProxy24RegisterProxiedInterfaceER24PVProxiedInterfaceServerR24PVProxiedInterfaceClient
T _ZN17CPVInterfaceProxy26UnregisterProxiedInterfaceEi
T _ZN17CPVInterfaceProxy4NewLER15PVProxiedEngineP13Oscl_DefAllocijjii
T _ZN17CPVInterfaceProxy6DeleteEv
T _ZN17CPVInterfaceProxyC1ER15PVProxiedEngineP13Oscl_DefAlloci
T _ZN17CPVInterfaceProxyC2ER15PVProxiedEngineP13Oscl_DefAlloci
T _ZN17CPVInterfaceProxyD0Ev
T _ZN17CPVInterfaceProxyD1Ev
T _ZN17CPVInterfaceProxyD2Ev
T _ZN17OSCL_wHeapStringA3setEPKwj
T _ZN17OSCL_wHeapStringAC1EP13Oscl_DefAllocP14OsclRefCounter
T _ZN17OSCL_wHeapStringAC1EPKwP13Oscl_DefAllocP14OsclRefCounter
T _ZN17OSCL_wHeapStringAC1EPKwjP13Oscl_DefAllocP14OsclRefCounter
T _ZN17OSCL_wHeapStringAC1ERK12OSCL_wStringP13Oscl_DefAllocP14OsclRefCounter
T _ZN17OSCL_wHeapStringAC1ERKS_
T _ZN17OSCL_wHeapStringAC1ERKS_P13Oscl_DefAllocP14OsclRefCounter
T _ZN17OSCL_wHeapStringAC1Ev
T _ZN17OSCL_wHeapStringAC2EP13Oscl_DefAllocP14OsclRefCounter
T _ZN17OSCL_wHeapStringAC2EPKwP13Oscl_DefAllocP14OsclRefCounter
T _ZN17OSCL_wHeapStringAC2EPKwjP13Oscl_DefAllocP14OsclRefCounter
T _ZN17OSCL_wHeapStringAC2ERK12OSCL_wStringP13Oscl_DefAllocP14OsclRefCounter
T _ZN17OSCL_wHeapStringAC2ERKS_
T _ZN17OSCL_wHeapStringAC2ERKS_P13Oscl_DefAllocP14OsclRefCounter
T _ZN17OSCL_wHeapStringAC2Ev
T _ZN17OSCL_wHeapStringAD0Ev
T _ZN17OSCL_wHeapStringAD1Ev
T _ZN17OSCL_wHeapStringAD2Ev
T _ZN17OSCL_wHeapStringAaSEPKw
T _ZN17OSCL_wHeapStringAaSERKS_
T _ZN17OsclExecScheduler19RegisterForCallbackEP21OsclSchedulerObserverPv
T _ZN17OsclExecScheduler23RunSchedulerNonBlockingEiRiRj
T _ZN17OsclExecScheduler7CurrentEv
T _ZN17OsclSharedLibrary10SetLibPathERK11OSCL_String
T _ZN17OsclSharedLibrary14QueryInterfaceERK8OsclUuidRPv
T _ZN17OsclSharedLibrary5CloseEv
T _ZN17OsclSharedLibrary6AddRefEv
T _ZN17OsclSharedLibrary7LoadLibERK11OSCL_String
T _ZN17OsclSharedLibrary7LoadLibEv
T _ZN17OsclSharedLibrary9RemoveRefEv
T _ZN17OsclSharedLibraryC1ERK11OSCL_String
T _ZN17OsclSharedLibraryC1Ev
T _ZN17OsclSharedLibraryC2ERK11OSCL_String
T _ZN17OsclSharedLibraryC2Ev
T _ZN17OsclSharedLibraryD1Ev
T _ZN17OsclSharedLibraryD2Ev
T _ZN17Oscl_Rb_Tree_Base11rotate_leftEP22Oscl_Rb_Tree_Node_BaseRS1_
T _ZN17Oscl_Rb_Tree_Base12rotate_rightEP22Oscl_Rb_Tree_Node_BaseRS1_
T _ZN17Oscl_Rb_Tree_Base19rebalance_for_eraseEP22Oscl_Rb_Tree_Node_BaseRS1_S2_S2_
T _ZN17Oscl_Rb_Tree_Base9rebalanceEP22Oscl_Rb_Tree_Node_BaseRS1_
T _ZN17PVMFNodeInterface15ReportInfoEventERK14PVMFAsyncEvent
T _ZN17PVMFNodeInterface15ReportInfoEventEiPvP11PVInterface
T _ZN17PVMFNodeInterface16ReportErrorEventERK14PVMFAsyncEvent
T _ZN17PVMFNodeInterface16ReportErrorEventEiPvP11PVInterface
T _ZN17PVMFNodeInterface22ReportCmdCompleteEventEiRK11PVMFCmdResp
T _ZN17PVMFNodeInterface8SetStateE23TPVMFNodeInterfaceState
T _ZN17PVMediaOutputNode10SetMarginsEii
T _ZN17PVMediaOutputNode11ReleasePortEiR17PVMFPortInterfacePKv
T _ZN17PVMediaOutputNode11RequestPortEiiPK11OSCL_StringPKv
T _ZN17PVMediaOutputNode11ThreadLogonEv
T _ZN17PVMediaOutputNode12ClockStartedEv
T _ZN17PVMediaOutputNode12ClockStoppedEv
T _ZN17PVMediaOutputNode12ThreadLogoffEv
T _ZN17PVMediaOutputNode13CancelCommandEiiPKv
T _ZN17PVMediaOutputNode13GetCapabilityER18PVMFNodeCapability
T _ZN17PVMediaOutputNode13SkipMediaDataEijjbPv
T _ZN17PVMediaOutputNode14QueryInterfaceEiRK8OsclUuidRP11PVInterfacePKv
T _ZN17PVMediaOutputNode14queryInterfaceERK8OsclUuidRP11PVInterface
T _ZN17PVMediaOutputNode15ChangeClockRateEi
T _ZN17PVMediaOutputNode15ReportInfoEventEiP11PVInterface
T _ZN17PVMediaOutputNode16ReportErrorEventEiP11PVInterface
T _ZN17PVMediaOutputNode16RequestCompletedERK11PVMFCmdResp
T _ZN17PVMediaOutputNode17CancelAllCommandsEiPKv
T _ZN17PVMediaOutputNode17getParametersSyncEPvPcRP9__PvmiKvpRiS0_
T _ZN17PVMediaOutputNode17releaseParametersEPvP9__PvmiKvpi
T _ZN17PVMediaOutputNode20verifyParametersSyncEPvP9__PvmiKvpi
T _ZN17PVMediaOutputNode4InitEiPKv
T _ZN17PVMediaOutputNode4StopEiPKv
T _ZN17PVMediaOutputNode5FlushEiPKv
T _ZN17PVMediaOutputNode5PauseEiPKv
T _ZN17PVMediaOutputNode5ResetEiPKv
T _ZN17PVMediaOutputNode5StartEiPKv
T _ZN17PVMediaOutputNode6addRefEv
T _ZN17PVMediaOutputNode7PrepareEiPKv
T _ZN17PVMediaOutputNode8GetPortsEPK14PVMFPortFilter
T _ZN17PVMediaOutputNode8SetClockEP14PVMFMediaClock
T _ZN17PVMediaOutputNode9QueryUUIDEiRK11OSCL_StringR11Oscl_VectorI8OsclUuid16OsclMemAllocatorEbPKv
T _ZN17PVMediaOutputNode9removeRefEv
T _ZN17PvmiMIOAviWavFile10disconnectEPv
T _ZN17PvmiMIOAviWavFile10writeAsyncEhiPhjRK21__PvmiMediaXferHeaderPv
T _ZN17PvmiMIOAviWavFile11DiscardDataEPKv
T _ZN17PvmiMIOAviWavFile11DiscardDataEjPKv
T _ZN17PvmiMIOAviWavFile11ThreadLogonEv
T _ZN17PvmiMIOAviWavFile11setObserverEP34PvmiConfigAndCapabilityCmdObserver
T _ZN17PvmiMIOAviWavFile12ThreadLogoffEv
T _ZN17PvmiMIOAviWavFile12readCompleteEiiiRK21__PvmiMediaXferHeaderPv
T _ZN17PvmiMIOAviWavFile12statusUpdateEj
T _ZN17PvmiMIOAviWavFile13CancelCommandEiPKv
T _ZN17PvmiMIOAviWavFile13DeleteContextEPvRS0_
T _ZN17PvmiMIOAviWavFile13cancelCommandEi
T _ZN17PvmiMIOAviWavFile13createContextEPvRS0_
T _ZN17PvmiMIOAviWavFile13writeCompleteEiiPv
T _ZN17PvmiMIOAviWavFile14QueryInterfaceERK8OsclUuidRP11PVInterfacePKv
T _ZN17PvmiMIOAviWavFile17CancelAllCommandsEPKv
T _ZN17PvmiMIOAviWavFile17cancelAllCommandsEv
T _ZN17PvmiMIOAviWavFile17getParametersSyncEPvPcRP9__PvmiKvpRiS0_
T _ZN17PvmiMIOAviWavFile17releaseParametersEPvP9__PvmiKvpi
T _ZN17PvmiMIOAviWavFile17setParametersSyncEPvP9__PvmiKvpiRS2_
T _ZN17PvmiMIOAviWavFile18setParametersAsyncEPvP9__PvmiKvpiRS2_S0_
T _ZN17PvmiMIOAviWavFile19createMediaTransferERPvP9__PvmiKvpiS3_i
T _ZN17PvmiMIOAviWavFile19deleteMediaTransferERPvP17PvmiMediaTransfer
T _ZN17PvmiMIOAviWavFile19getCapabilityMetricEPv
T _ZN17PvmiMIOAviWavFile19useMemoryAllocatorsEP16OsclMemAllocator
T _ZN17PvmiMIOAviWavFile20setContextParametersEPvRS0_P9__PvmiKvpi
T _ZN17PvmiMIOAviWavFile20verifyParametersSyncEPvP9__PvmiKvpi
T _ZN17PvmiMIOAviWavFile4InitEPKv
T _ZN17PvmiMIOAviWavFile4StopEPKv
T _ZN17PvmiMIOAviWavFile5FlushEPKv
T _ZN17PvmiMIOAviWavFile5PauseEPKv
T _ZN17PvmiMIOAviWavFile5ResetEPKv
T _ZN17PvmiMIOAviWavFile5StartEPKv
T _ZN17PvmiMIOAviWavFile7connectERPvP15PvmiMIOObserver
T _ZN17PvmiMIOAviWavFile7setPeerEP17PvmiMediaTransfer
T _ZN17PvmiMIOAviWavFile9QueryUUIDERK11OSCL_StringR11Oscl_VectorI8OsclUuid16OsclMemAllocatorEbPKv
T _ZN17PvmiMIOAviWavFile9readAsyncEPhjPvPit
T _ZN18OsclConfigFileList15GetConfigfileAtEj
T _ZN18OsclConfigFileList4SizeEv
T _ZN18OsclConfigFileList8PopulateERK11OSCL_StringNS_8SortTypeE
T _ZN18OsclConfigFileListC1Ev
T _ZN18OsclConfigFileListC2Ev
T _ZN18OsclConfigFileListD1Ev
T _ZN18OsclConfigFileListD2Ev
T _ZN18OsclRegistryClient10UnRegisterER11OSCL_String
T _ZN18OsclRegistryClient5CloseEv
T _ZN18OsclRegistryClient7ConnectEb
T _ZN18OsclRegistryClient8RegisterER11OSCL_StringPv
T _ZN18OsclRegistryClientC1Ev
T _ZN18OsclRegistryClientC2Ev
T _ZN18OsclRegistryClientD0Ev
T _ZN18OsclRegistryClientD1Ev
T _ZN18OsclRegistryClientD2Ev
T _ZN18PVMFCreateKVPUtils20CreateKVPForKSVValueER9__PvmiKvpPKcPvPc
T _ZN18PVMFCreateKVPUtils21CreateKVPForBoolValueER9__PvmiKvpPKcRbPc
T _ZN18PVMFCreateKVPUtils22CreateKVPForFloatValueER9__PvmiKvpPKcRfPc
T _ZN18PVMFCreateKVPUtils23CreateKVPForUInt32ValueER9__PvmiKvpPKcRjPc
T _ZN18PVMFCreateKVPUtils24CreateKVPForWStringValueER9__PvmiKvpPKcR12OSCL_wStringPcjj
T _ZN18PVMFCreateKVPUtils26CreateKVPForByteArrayValueER9__PvmiKvpPKcPhjPcj
T _ZN18PVMFCreateKVPUtils27CreateKVPForCharStringValueER9__PvmiKvpPKcS3_Pcjj
T _ZN18PVMFOMXBaseDecNode11ReleasePortEiR17PVMFPortInterfacePKv
T _ZN18PVMFOMXBaseDecNode11RequestPortEiiPK11OSCL_StringPKv
T _ZN18PVMFOMXBaseDecNode11setObserverEP34PvmiConfigAndCapabilityCmdObserver
T _ZN18PVMFOMXBaseDecNode12ThreadLogoffEv
T _ZN18PVMFOMXBaseDecNode13CancelCommandEiiPKv
T _ZN18PVMFOMXBaseDecNode13DeleteContextEPvRS0_
T _ZN18PVMFOMXBaseDecNode13GetCapabilityER18PVMFNodeCapability
T _ZN18PVMFOMXBaseDecNode13QueueCommandLER25PVMFOMXBaseDecNodeCommand
T _ZN18PVMFOMXBaseDecNode13createContextEPvRS0_
T _ZN18PVMFOMXBaseDecNode14QueryInterfaceEiRK8OsclUuidRP11PVInterfacePKv
T _ZN18PVMFOMXBaseDecNode14queryInterfaceERK8OsclUuidRP11PVInterface
T _ZN18PVMFOMXBaseDecNode15ChangeNodeStateE23TPVMFNodeInterfaceState
T _ZN18PVMFOMXBaseDecNode15CommandCompleteER20PVMFNodeCommandQueueI25PVMFOMXBaseDecNodeCommand16OsclMemAllocatorERS1_iPv
T _ZN18PVMFOMXBaseDecNode16CreateOutMemPoolEj
T _ZN18PVMFOMXBaseDecNode17CancelAllCommandsEiPKv
T _ZN18PVMFOMXBaseDecNode17getParametersSyncEPvPcRP9__PvmiKvpRiS0_
T _ZN18PVMFOMXBaseDecNode17releaseParametersEPvP9__PvmiKvpi
T _ZN18PVMFOMXBaseDecNode17setParametersSyncEPvP9__PvmiKvpiRS2_
T _ZN18PVMFOMXBaseDecNode18CreateInputMemPoolEj
T _ZN18PVMFOMXBaseDecNode18HandlePortActivityERK16PVMFPortActivity
T _ZN18PVMFOMXBaseDecNode18ProcessIncomingMsgEP17PVMFPortInterface
T _ZN18PVMFOMXBaseDecNode18freechunkavailableEPv
T _ZN18PVMFOMXBaseDecNode18setParametersAsyncEPvP9__PvmiKvpiRS2_S0_
T _ZN18PVMFOMXBaseDecNode19AllocateKVPKeyArrayERi16PvmiKvpValueTypei
T _ZN18PVMFOMXBaseDecNode19GetNodeMetadataKeysEiR11Oscl_VectorI15OSCL_HeapStringI16OsclMemAllocatorES2_EjiPcPKv
T _ZN18PVMFOMXBaseDecNode19getCapabilityMetricEPv
T _ZN18PVMFOMXBaseDecNode20setContextParametersEPvRS0_P9__PvmiKvpi
T _ZN18PVMFOMXBaseDecNode20verifyParametersSyncEPvP9__PvmiKvpi
T _ZN18PVMFOMXBaseDecNode21GetNodeMetadataValuesEiR11Oscl_VectorI15OSCL_HeapStringI16OsclMemAllocatorES2_ERS0_I9__PvmiKvpS2_EjiPKv
T _ZN18PVMFOMXBaseDecNode23AppendExtraDataToBufferEP18InputBufCtrlStruct17OMX_EXTRADATATYPEPhh
T _ZN18PVMFOMXBaseDecNode23ReleaseNodeMetadataKeysER11Oscl_VectorI15OSCL_HeapStringI16OsclMemAllocatorES2_Ejj
T _ZN18PVMFOMXBaseDecNode24DoCapConfigSetParametersEP9__PvmiKvpiRS1_
T _ZN18PVMFOMXBaseDecNode24FillBufferDoneProcessingEPvS0_P20OMX_BUFFERHEADERTYPE
T _ZN18PVMFOMXBaseDecNode25EmptyBufferDoneProcessingEPvS0_P20OMX_BUFFERHEADERTYPE
T _ZN18PVMFOMXBaseDecNode25ProvideBuffersToComponentEP30OsclMemPoolFixedChunkAllocatorjjjjbb
T _ZN18PVMFOMXBaseDecNode25ReleaseNodeMetadataValuesER11Oscl_VectorI9__PvmiKvp16OsclMemAllocatorEjj
T _ZN18PVMFOMXBaseDecNode26HandleComponentStateChangeEm
T _ZN18PVMFOMXBaseDecNode27DoCapConfigVerifyParametersEP9__PvmiKvpi
T _ZN18PVMFOMXBaseDecNode27SetDecoderNodeConfigurationER24PVMFOMXBaseDecNodeConfig
T _ZN18PVMFOMXBaseDecNode28DoCapConfigGetParametersSyncEPcRP9__PvmiKvpRiPv
T _ZN18PVMFOMXBaseDecNode28DoCapConfigReleaseParametersEP9__PvmiKvpi
T _ZN18PVMFOMXBaseDecNode29SendInputBufferToOMXComponentEv
T _ZN18PVMFOMXBaseDecNode30SendConfigBufferToOMXComponentEPhj
T _ZN18PVMFOMXBaseDecNode34DropCurrentBufferUnderConstructionEv
T _ZN18PVMFOMXBaseDecNode37SendIncompleteBufferUnderConstructionEv
T _ZN18PVMFOMXBaseDecNode3RunEv
T _ZN18PVMFOMXBaseDecNode41ProcessCallbackEventHandler_MultiThreadedEPv
T _ZN18PVMFOMXBaseDecNode43ProcessCallbackFillBufferDone_MultiThreadedEPv
T _ZN18PVMFOMXBaseDecNode44ProcessCallbackEmptyBufferDone_MultiThreadedEPv
T _ZN18PVMFOMXBaseDecNode4InitEiPKv
T _ZN18PVMFOMXBaseDecNode4StopEiPKv
T _ZN18PVMFOMXBaseDecNode5FlushEiPKv
T _ZN18PVMFOMXBaseDecNode5PauseEiPKv
T _ZN18PVMFOMXBaseDecNode5ResetEiPKv
T _ZN18PVMFOMXBaseDecNode5StartEiPKv
T _ZN18PVMFOMXBaseDecNode6addRefEv
T _ZN18PVMFOMXBaseDecNode7PrepareEiPKv
T _ZN18PVMFOMXBaseDecNode8GetPortsEPK14PVMFPortFilter
T _ZN18PVMFOMXBaseDecNode9QueryUUIDEiRK11OSCL_StringR11Oscl_VectorI8OsclUuid16OsclMemAllocatorEbPKv
T _ZN18PVMFOMXBaseDecNode9removeRefEv
T _ZN18PVMFOMXBaseDecNodeC1EiPKc
T _ZN18PVMFOMXBaseDecNodeC2EiPKc
T _ZN18PVMFOMXBaseDecNodeD0Ev
T _ZN18PVMFOMXBaseDecNodeD1Ev
T _ZN18PVMFOMXBaseDecNodeD2Ev
T _ZN18PvmfMediaInputNode11ReleasePortEiR17PVMFPortInterfacePKv
T _ZN18PvmfMediaInputNode11RequestPortEiiPK11OSCL_StringPKv
T _ZN18PvmfMediaInputNode11ThreadLogonEv
T _ZN18PvmfMediaInputNode12ThreadLogoffEv
T _ZN18PvmfMediaInputNode13CancelCommandEiiPKv
T _ZN18PvmfMediaInputNode13GetCapabilityER18PVMFNodeCapability
T _ZN18PvmfMediaInputNode14QueryInterfaceEiRK8OsclUuidRP11PVInterfacePKv
T _ZN18PvmfMediaInputNode14queryInterfaceERK8OsclUuidRP11PVInterface
T _ZN18PvmfMediaInputNode15ReportInfoEventEiP11PVInterface
T _ZN18PvmfMediaInputNode16ReportErrorEventEiP11PVInterface
T _ZN18PvmfMediaInputNode16RequestCompletedERK11PVMFCmdResp
T _ZN18PvmfMediaInputNode17CancelAllCommandsEiPKv
T _ZN18PvmfMediaInputNode4InitEiPKv
T _ZN18PvmfMediaInputNode4StopEiPKv
T _ZN18PvmfMediaInputNode5FlushEiPKv
T _ZN18PvmfMediaInputNode5PauseEiPKv
T _ZN18PvmfMediaInputNode5ResetEiPKv
T _ZN18PvmfMediaInputNode5StartEiPKv
T _ZN18PvmfMediaInputNode6addRefEv
T _ZN18PvmfMediaInputNode7PrepareEiPKv
T _ZN18PvmfMediaInputNode8GetPortsEPK14PVMFPortFilter
T _ZN18PvmfMediaInputNode9QueryUUIDEiRK11OSCL_StringR11Oscl_VectorI8OsclUuid16OsclMemAllocatorEbPKv
T _ZN18PvmfMediaInputNode9removeRefEv
T _ZN19MediaClockConverter12update_clockEj
T _ZN19MediaClockConverter13set_timescaleEj
T _ZN19MediaClockConverter25set_clock_other_timescaleEjj
T _ZN19MediaClockConverter29get_timediff_and_update_clockEjj
T _ZN19MediaClockConverter29get_timediff_and_update_clockEjjj
T _ZN19MediaClockConverter9set_valueERKS_
T _ZN20CCYUV420SEMItoYUV4203NewEv
T _ZN20CCYUV420SEMItoYUV420D0Ev
T _ZN20CCYUV420SEMItoYUV420D1Ev
T _ZN20CCYUV420SEMItoYUV420D2Ev
T _ZN20PVMFFileOutputInPort11setObserverEP34PvmiConfigAndCapabilityCmdObserver
T _ZN20PVMFFileOutputInPort13DeleteContextEPvRS0_
T _ZN20PVMFFileOutputInPort13createContextEPvRS0_
T _ZN20PVMFFileOutputInPort17getParametersSyncEPvPcRP9__PvmiKvpRiS0_
T _ZN20PVMFFileOutputInPort17releaseParametersEPvP9__PvmiKvpi
T _ZN20PVMFFileOutputInPort17setParametersSyncEPvP9__PvmiKvpiRS2_
T _ZN20PVMFFileOutputInPort18setParametersAsyncEPvP9__PvmiKvpiRS2_S0_
T _ZN20PVMFFileOutputInPort19getCapabilityMetricEPv
T _ZN20PVMFFileOutputInPort20setContextParametersEPvRS0_P9__PvmiKvpi
T _ZN20PVMFFileOutputInPort20verifyParametersSyncEPvP9__PvmiKvpi
T _ZN20ThreadSafeCallbackAO11QueueDeInitEv
T _ZN20ThreadSafeCallbackAO11ThreadLogonEv
T _ZN20ThreadSafeCallbackAO12ProcessEventEPv
T _ZN20ThreadSafeCallbackAO12ReceiveEventEPv
T _ZN20ThreadSafeCallbackAO12ThreadLogoffEv
T _ZN20ThreadSafeCallbackAO15GetQueueNumElemEv
T _ZN20ThreadSafeCallbackAO3RunEv
T _ZN20ThreadSafeCallbackAO5QueueEPv
T _ZN20ThreadSafeCallbackAO7DeQueueERi
T _ZN20ThreadSafeCallbackAO9QueueInitEj
T _ZN20ThreadSafeCallbackAOC1EPvjPKci
T _ZN20ThreadSafeCallbackAOC2EPvjPKci
T _ZN20ThreadSafeCallbackAOD0Ev
T _ZN20ThreadSafeCallbackAOD1Ev
T _ZN20ThreadSafeCallbackAOD2Ev
T _ZN21OsclPriorityQueueBase6removeEPKv
T _ZN21OsclPriorityQueueBase8pop_heapEPvS0_
T _ZN21OsclPriorityQueueBase9find_heapEPKvPvS2_
T _ZN21OsclPriorityQueueBase9push_heapEPvS0_
T _ZN21OsclSharedLibraryList16QueryInterfaceAtEjRPv
T _ZN21OsclSharedLibraryList8CloseAllEv
T _ZN21OsclSharedLibraryList8PopulateERK11OSCL_StringRK8OsclUuid
T _ZN21OsclSharedLibraryListC1Ev
T _ZN21OsclSharedLibraryListC2Ev
T _ZN21OsclSharedLibraryListD1Ev
T _ZN21OsclSharedLibraryListD2Ev
T _ZN21OsclSingletonRegistry11getInstanceEjRi
T _ZN21OsclSingletonRegistry16registerInstanceEPvjRi
T _ZN21OsclSingletonRegistry18lockAndGetInstanceEjRi
T _ZN21OsclSingletonRegistry25registerInstanceAndUnlockEPvjRi
T _ZN21Oscl_Linked_List_Base10check_listEv
T _ZN21Oscl_Linked_List_Base11add_elementEPv
T _ZN21Oscl_Linked_List_Base11get_elementEiPv
T _ZN21Oscl_Linked_List_Base11move_to_endEPKv
T _ZN21Oscl_Linked_List_Base12add_to_frontEPKv
T _ZN21Oscl_Linked_List_Base13move_to_frontEPKv
T _ZN21Oscl_Linked_List_Base14remove_elementEPKv
T _ZN21Oscl_Linked_List_Base14remove_elementEi
T _ZN21Oscl_Linked_List_Base7destroyEv
T _ZN21Oscl_Linked_List_Base8get_nextEPv
T _ZN21Oscl_Linked_List_Base9constructEP25Oscl_Opaque_Type_Alloc_LL
T _ZN21Oscl_Linked_List_Base9get_firstEPv
T _ZN21Oscl_Linked_List_Base9get_indexEPKv
T _ZN21PVMFOMXEncNodeFactory20CreatePVMFOMXEncNodeEi
T _ZN21PVMFOMXEncNodeFactory20DeletePVMFOMXEncNodeEP17PVMFNodeInterface
T _ZN21PVMFSimpleMediaBuffer11getCapacityEv
T _ZN21PVMFSimpleMediaBuffer11setCapacityEj
T _ZN21PVMFSimpleMediaBuffer13getErrorsFlagEv
T _ZN21PVMFSimpleMediaBuffer13getFilledSizeEv
T _ZN21PVMFSimpleMediaBuffer13getMarkerInfoEv
T _ZN21PVMFSimpleMediaBuffer13setErrorsFlagEj
T _ZN21PVMFSimpleMediaBuffer13setMarkerInfoEj
T _ZN21PVMFSimpleMediaBuffer15getNumFragmentsEv
T _ZN21PVMFSimpleMediaBuffer16getMediaFragmentEjR21OsclRefCounterMemFrag
T _ZN21PVMFSimpleMediaBuffer19appendMediaFragmentER21OsclRefCounterMemFrag
T _ZN21PVMFSimpleMediaBuffer19clearMediaFragmentsEv
T _ZN21PVMFSimpleMediaBuffer19isRandomAccessPointEv
T _ZN21PVMFSimpleMediaBuffer20getMediaFragmentSizeEjRj
T _ZN21PVMFSimpleMediaBuffer20setRandomAccessPointEb
T _ZN21PVMFSimpleMediaBuffer21setMediaFragFilledLenEjj
T _ZN21PVMFSimpleMediaBufferC1EPvjP14OsclRefCounter
T _ZN21PVMFSimpleMediaBufferC2EPvjP14OsclRefCounter
T _ZN21PVMFSimpleMediaBufferD0Ev
T _ZN21PVMFSimpleMediaBufferD1Ev
T _ZN21PVMFSimpleMediaBufferD2Ev
T _ZN21PVMediaOutputNodePort10DisconnectEv
T _ZN21PVMediaOutputNodePort11PeerConnectEP17PVMFPortInterface
T _ZN21PVMediaOutputNodePort14ClearMsgQueuesEv
T _ZN21PVMediaOutputNodePort14PeerDisconnectEv
T _ZN21PVMediaOutputNodePort17getParametersSyncEPvPcRP9__PvmiKvpRiS0_
T _ZN21PVMediaOutputNodePort17releaseParametersEPvP9__PvmiKvpi
T _ZN21PVMediaOutputNodePort17setParametersSyncEPvP9__PvmiKvpiRS2_
T _ZN21PVMediaOutputNodePort20verifyParametersSyncEPvP9__PvmiKvpi
T _ZN21PVMediaOutputNodePort7ConnectEP17PVMFPortInterface
T _ZN21PVTimeComparisonUtils15CheckTimeWindowEjjjjRj
T _ZN21PVTimeComparisonUtils9IsEarlierEjjRj
T _ZN21PvmfSyncUtilDataQueue13ClockAdjustedEv
T _ZN21PvmfSyncUtilDataQueue13SkipMediaDataEjb
T _ZN21PvmfSyncUtilDataQueue14QueueMediaDataE13OsclSharedPtrI12PVMFMediaMsgEPjS3_b
T _ZN21PvmfSyncUtilDataQueue15SynchronizeDataEPjS0_
T _ZN21PvmfSyncUtilDataQueue16DequeueMediaDataER13OsclSharedPtrI12PVMFMediaMsgEPjS4_
T _ZN21PvmfSyncUtilDataQueue16ReserveDataQueueEj
T _ZN21PvmfSyncUtilDataQueue17ClockCountUpdatedEv
T _ZN21PvmfSyncUtilDataQueue19CancelSkipMediaDataEv
T _ZN21PvmfSyncUtilDataQueue20ClockTimebaseUpdatedEv
T _ZN21PvmfSyncUtilDataQueue20SetClockForFrameStepEP14PVMFMediaClock
T _ZN21PvmfSyncUtilDataQueue20SetLateFrameDropModeEb
T _ZN21PvmfSyncUtilDataQueue31NotificationsInterfaceDestroyedEv
T _ZN21PvmfSyncUtilDataQueue5ClearEv
T _ZN21PvmfSyncUtilDataQueue7SetNameEPKc
T _ZN21PvmfSyncUtilDataQueue8SetClockEP14PVMFMediaClock
T _ZN21PvmfSyncUtilDataQueueC1EP29PvmfSyncUtilDataQueueObserverP12PvmfSyncUtilPc
T _ZN21PvmfSyncUtilDataQueueC2EP29PvmfSyncUtilDataQueueObserverP12PvmfSyncUtilPc
T _ZN21PvmfSyncUtilDataQueueD0Ev
T _ZN21PvmfSyncUtilDataQueueD1Ev
T _ZN21PvmfSyncUtilDataQueueD2Ev
T _ZN22ColorConvertYUV420SEMI4NewLEv
T _ZN22ColorConvertYUV420SEMID0Ev
T _ZN22ColorConvertYUV420SEMID1Ev
T _ZN22ColorConvertYUV420SEMID2Ev
T _ZN22PVMFTimebase_Tickcount16GetCurrentTick32ERjRb
T _ZN22PVMFTimebase_Tickcount16GetCurrentTime32ERjRb24PVMFMediaClock_TimeUnits
T _ZN23PVFileOutputNodeFactory16CreateFileOutputER12OSCL_wString14PVMFFormatTypei
T _ZN23PVFileOutputNodeFactory16CreateFileOutputEi
T _ZN23PVFileOutputNodeFactory16DeleteFileOutputEP17PVMFNodeInterface
T _ZN23PVMFBufferPoolAllocator16SetFailFrequencyEt
T _ZN23PVMFBufferPoolAllocator20destruct_and_deallocEPv
T _ZN23PVMFBufferPoolAllocator22SetLeaveOnAllocFailureEb
T _ZN23PVMFBufferPoolAllocator3getEv
T _ZN23PVMFBufferPoolAllocator4sizeEtt
T _ZN23PVMFBufferPoolAllocator5clearEv
T _ZN23PVMFBufferPoolAllocator7releaseER21OsclRefCounterMemFrag
T _ZN23PVMFBufferPoolAllocatorC1Eb
T _ZN23PVMFBufferPoolAllocatorC2Eb
T _ZN23PVMFBufferPoolAllocatorD0Ev
T _ZN23PVMFBufferPoolAllocatorD1Ev
T _ZN23PVMFBufferPoolAllocatorD2Ev
T _ZN23PVMFDurationInfoMessage11GetCodeUUIDERiR8OsclUuid
T _ZN23PVMFDurationInfoMessage11GetDurationEv
T _ZN23PVMFDurationInfoMessage14queryInterfaceERK8OsclUuidRP11PVInterface
T _ZN23PVMFDurationInfoMessage16SetEventCodeUUIDEi8OsclUuid
T _ZN23PVMFDurationInfoMessage6addRefEv
T _ZN23PVMFDurationInfoMessage7destroyEv
T _ZN23PVMFDurationInfoMessage9removeRefEv
T _ZN23PVMFDurationInfoMessageC1Eji8OsclUuid
T _ZN23PVMFDurationInfoMessageC1Ev
T _ZN23PVMFDurationInfoMessageC2Eji8OsclUuid
T _ZN23PVMFDurationInfoMessageC2Ev
T _ZN23PVMFDurationInfoMessageD0Ev
T _ZN23PVMFDurationInfoMessageD1Ev
T _ZN23PVMFDurationInfoMessageD2Ev
T _ZN23PVMFMetadataInfoMessage11GetCodeUUIDERiR8OsclUuid
T _ZN23PVMFMetadataInfoMessage14queryInterfaceERK8OsclUuidRP11PVInterface
T _ZN23PVMFMetadataInfoMessage16SetEventCodeUUIDEi8OsclUuid
T _ZN23PVMFMetadataInfoMessage17GetMetadataVectorEv
T _ZN23PVMFMetadataInfoMessage6addRefEv
T _ZN23PVMFMetadataInfoMessage7destroyEv
T _ZN23PVMFMetadataInfoMessage9removeRefEv
T _ZN23PVMFMetadataInfoMessageC1ER11Oscl_VectorI9__PvmiKvp16OsclMemAllocatorEi8OsclUuid
T _ZN23PVMFMetadataInfoMessageC1Ev
T _ZN23PVMFMetadataInfoMessageC2ER11Oscl_VectorI9__PvmiKvp16OsclMemAllocatorEi8OsclUuid
T _ZN23PVMFMetadataInfoMessageC2Ev
T _ZN23PVMFMetadataInfoMessageD0Ev
T _ZN23PVMFMetadataInfoMessageD1Ev
T _ZN23PVMFMetadataInfoMessageD2Ev
T _ZN23PvmiMIOFileInputFactory6CreateERK24PvmiMIOFileInputSettings
T _ZN23PvmiMIOFileInputFactory6DeleteEP14PvmiMIOControl
T _ZN24AccessUnitImplementationC1Ei
T _ZN24AccessUnitImplementationC2Ei
T _ZN24OsclRegistryAccessClient10GetFactoryER11OSCL_String
T _ZN24OsclRegistryAccessClient12GetFactoriesER11OSCL_StringR11Oscl_VectorI25OsclRegistryAccessElement16OsclMemAllocatorE
T _ZN24OsclRegistryAccessClient5CloseEv
T _ZN24OsclRegistryAccessClient7ConnectEv
T _ZN24OsclRegistryAccessClientC1Ev
T _ZN24OsclRegistryAccessClientC2Ev
T _ZN24OsclRegistryAccessClientD1Ev
T _ZN24OsclRegistryAccessClientD2Ev
T _ZN24PVMediaOutputNodeFactory21CreateMediaOutputNodeEP14PvmiMIOControl
T _ZN24PVMediaOutputNodeFactory21DeleteMediaOutputNodeEP17PVMFNodeInterface
T _ZN24PvmiMIOAviWavFileFactory6CreateEjbjPv14FileFormatTypeRi
T _ZN24PvmiMIOAviWavFileFactory6DeleteEP14PvmiMIOControl
T _ZN25PVMFBasicErrorInfoMessage11GetCodeUUIDERiR8OsclUuid
T _ZN25PVMFBasicErrorInfoMessage14GetNextMessageEv
T _ZN25PVMFBasicErrorInfoMessage14SetNextMessageER29PVMFErrorInfoMessageInterface
T _ZN25PVMFBasicErrorInfoMessage14queryInterfaceERK8OsclUuidRP11PVInterface
T _ZN25PVMFBasicErrorInfoMessage16SetEventCodeUUIDEi8OsclUuid
T _ZN25PVMFBasicErrorInfoMessage6addRefEv
T _ZN25PVMFBasicErrorInfoMessage7destroyEv
T _ZN25PVMFBasicErrorInfoMessage9removeRefEv
T _ZN25PVMFBasicErrorInfoMessageC1EiR8OsclUuidP29PVMFErrorInfoMessageInterface
T _ZN25PVMFBasicErrorInfoMessageC1Ev
T _ZN25PVMFBasicErrorInfoMessageC2EiR8OsclUuidP29PVMFErrorInfoMessageInterface
T _ZN25PVMFBasicErrorInfoMessageC2Ev
T _ZN25PVMFBasicErrorInfoMessageD0Ev
T _ZN25PVMFBasicErrorInfoMessageD1Ev
T _ZN25PVMFBasicErrorInfoMessageD2Ev
T _ZN25PvmfMediaInputNodeFactory6CreateEP14PvmiMIOControl
T _ZN25PvmfMediaInputNodeFactory6DeleteEP17PVMFNodeInterface
T _ZN25PvmfMediaInputNodeOutPort10DisconnectEv
T _ZN25PvmfMediaInputNodeOutPort11PeerConnectEP17PVMFPortInterface
T _ZN25PvmfMediaInputNodeOutPort11setObserverEP34PvmiConfigAndCapabilityCmdObserver
T _ZN25PvmfMediaInputNodeOutPort13DeleteContextEPvRS0_
T _ZN25PvmfMediaInputNodeOutPort13createContextEPvRS0_
T _ZN25PvmfMediaInputNodeOutPort14PeerDisconnectEv
T _ZN25PvmfMediaInputNodeOutPort17getParametersSyncEPvPcRP9__PvmiKvpRiS0_
T _ZN25PvmfMediaInputNodeOutPort17releaseParametersEPvP9__PvmiKvpi
T _ZN25PvmfMediaInputNodeOutPort17setParametersSyncEPvP9__PvmiKvpiRS2_
T _ZN25PvmfMediaInputNodeOutPort18setParametersAsyncEPvP9__PvmiKvpiRS2_S0_
T _ZN25PvmfMediaInputNodeOutPort19getCapabilityMetricEPv
T _ZN25PvmfMediaInputNodeOutPort20setContextParametersEPvRS0_P9__PvmiKvpi
T _ZN25PvmfMediaInputNodeOutPort20verifyParametersSyncEPvP9__PvmiKvpi
T _ZN25PvmfMediaInputNodeOutPort7ConnectEP17PVMFPortInterface
T _ZN26PVMFOMXAudioDecNodeFactory25CreatePVMFOMXAudioDecNodeEi
T _ZN26PVMFOMXAudioDecNodeFactory25DeletePVMFOMXAudioDecNodeEP17PVMFNodeInterface
T _ZN26PVMFOMXVideoDecNodeFactory25CreatePVMFOMXVideoDecNodeEi
T _ZN26PVMFOMXVideoDecNodeFactory25DeletePVMFOMXVideoDecNodeEP17PVMFNodeInterface
T _ZN27OsclExecSchedulerCommonBase13StopSchedulerEv
T _ZN27OsclExecSchedulerCommonBase14StartSchedulerEP13OsclSemaphore
T _ZN27OsclExecSchedulerCommonBase15ResumeSchedulerEv
T _ZN27OsclExecSchedulerCommonBase16SuspendSchedulerEv
T _ZN27OsclExecSchedulerCommonBase20StartNativeSchedulerEv
T _ZN27OsclExecSchedulerCommonBase5GetIdEv
T _ZN27OsclExecSchedulerCommonBase7GetNameEv
T _ZN29OsclMemPoolResizableAllocator10deallocateEPv
T _ZN29OsclMemPoolResizableAllocator23enablenullpointerreturnEv
T _ZN29OsclMemPoolResizableAllocator24notifyfreeblockavailableER37OsclMemPoolResizableAllocatorObserverjPv
T _ZN29OsclMemPoolResizableAllocator25notifyfreememoryavailableER43OsclMemPoolResizableAllocatorMemoryObserverjPv
T _ZN29OsclMemPoolResizableAllocator27setMaxSzForNewMemPoolBufferEj
T _ZN29OsclMemPoolResizableAllocator32CancelFreeChunkAvailableCallbackEv
T _ZN29OsclMemPoolResizableAllocator33CancelFreeMemoryAvailableCallbackEv
T _ZN29OsclMemPoolResizableAllocator4trimEPvj
T _ZN29OsclMemPoolResizableAllocator6addRefEv
T _ZN29OsclMemPoolResizableAllocator8allocateEj
T _ZN29OsclMemPoolResizableAllocator9removeRefEv
T _ZN29OsclMemPoolResizableAllocatorC1EjjjP13Oscl_DefAlloc
T _ZN29OsclMemPoolResizableAllocatorC2EjjjP13Oscl_DefAlloc
T _ZN29OsclMemPoolResizableAllocatorD0Ev
T _ZN29OsclMemPoolResizableAllocatorD1Ev
T _ZN29OsclMemPoolResizableAllocatorD2Ev
T _ZN30OsclMemPoolFixedChunkAllocator10deallocateEPv
T _ZN30OsclMemPoolFixedChunkAllocator13createmempoolEv
T _ZN30OsclMemPoolFixedChunkAllocator14destroymempoolEv
T _ZN30OsclMemPoolFixedChunkAllocator23enablenullpointerreturnEv
T _ZN30OsclMemPoolFixedChunkAllocator24notifyfreechunkavailableER38OsclMemPoolFixedChunkAllocatorObserverPv
T _ZN30OsclMemPoolFixedChunkAllocator32CancelFreeChunkAvailableCallbackEv
T _ZN30OsclMemPoolFixedChunkAllocator6addRefEv
T _ZN30OsclMemPoolFixedChunkAllocator8allocateEj
T _ZN30OsclMemPoolFixedChunkAllocator9removeRefEv
T _ZN30OsclMemPoolFixedChunkAllocatorC1EjjP13Oscl_DefAlloc
T _ZN30OsclMemPoolFixedChunkAllocatorC2EjjP13Oscl_DefAlloc
T _ZN30OsclMemPoolFixedChunkAllocatorD0Ev
T _ZN30OsclMemPoolFixedChunkAllocatorD1Ev
T _ZN30OsclMemPoolFixedChunkAllocatorD2Ev
T _ZN30PVMFMemPoolFixedChunkAllocator10deallocateEPv
T _ZN30PVMFMemPoolFixedChunkAllocator15LogMediaCmdInfoE13OsclSharedPtrI12PVMFMediaCmdE
T _ZN30PVMFMemPoolFixedChunkAllocator16LogMediaDataInfoE13OsclSharedPtrI13PVMFMediaDataE
T _ZN30PVMFMemPoolFixedChunkAllocator8allocateEj
T _ZN30PVMFMemPoolFixedChunkAllocatorC1EPKcjjP13Oscl_DefAlloc
T _ZN30PVMFMemPoolFixedChunkAllocatorC2EPKcjjP13Oscl_DefAlloc
T _ZN30PVMFMemPoolFixedChunkAllocatorD0Ev
T _ZN30PVMFMemPoolFixedChunkAllocatorD1Ev
T _ZN30PVMFMemPoolFixedChunkAllocatorD2Ev
T _ZN34PVMFMediaFileOutputRegistryFactory13CreateMediaIOEPv
T _ZN34PVMFMediaFileOutputRegistryFactory14ReleaseMediaIOEP14PvmiMIOControl
T _ZN34PVMFSimpleMediaBufferCombinedAlloc8allocateEj
T _ZN34PVMIDataStreamSyncInterfaceRefImpl11OpenSessionERi18PvmiDataStreamModeb
T _ZN34PVMIDataStreamSyncInterfaceRefImpl12CloseSessionEi
T _ZN34PVMIDataStreamSyncInterfaceRefImpl14queryInterfaceERK8OsclUuidRP11PVInterface
T _ZN34PVMIDataStreamSyncInterfaceRefImpl17QueryReadCapacityEiRj
T _ZN34PVMIDataStreamSyncInterfaceRefImpl18CancelNotificationEiR22PvmiDataStreamObserveriPv
T _ZN34PVMIDataStreamSyncInterfaceRefImpl18QueryWriteCapacityEiRj
T _ZN34PVMIDataStreamSyncInterfaceRefImpl25GetCurrentPointerPositionEi
T _ZN34PVMIDataStreamSyncInterfaceRefImpl27QueryRandomAccessCapabilityEv
T _ZN34PVMIDataStreamSyncInterfaceRefImpl31RequestReadCapacityNotificationEiR22PvmiDataStreamObserverjPv
T _ZN34PVMIDataStreamSyncInterfaceRefImpl32RequestWriteCapacityNotificationEiR22PvmiDataStreamObserverjPv
T _ZN34PVMIDataStreamSyncInterfaceRefImpl36CreateDataStreamSyncInterfaceRefImplEP14OsclFileHandle
T _ZN34PVMIDataStreamSyncInterfaceRefImpl36CreateDataStreamSyncInterfaceRefImplER12OSCL_wString
T _ZN34PVMIDataStreamSyncInterfaceRefImpl37DestroyDataStreamSyncInterfaceRefImplEP27PVMIDataStreamSyncInterface
T _ZN34PVMIDataStreamSyncInterfaceRefImpl4ReadEiPhjRj
T _ZN34PVMIDataStreamSyncInterfaceRefImpl4SeekEii22PvmiDataStreamSeekType
T _ZN34PVMIDataStreamSyncInterfaceRefImpl5FlushEi
T _ZN34PVMIDataStreamSyncInterfaceRefImpl5WriteEiPhjRj
T _ZN34PVRefFileOutputActiveTimingSupport14queryInterfaceERK8OsclUuidRP11PVInterface
T _ZN34PVRefFileOutputActiveTimingSupport6addRefEv
T _ZN34PVRefFileOutputActiveTimingSupport8SetClockEP14PVMFMediaClock
T _ZN34PVRefFileOutputActiveTimingSupport9removeRefEv
T _ZN36ThreadSafeMemPoolFixedChunkAllocator10deallocateEPv
T _ZN36ThreadSafeMemPoolFixedChunkAllocator13createmempoolEv
T _ZN36ThreadSafeMemPoolFixedChunkAllocator14destroymempoolEv
T _ZN36ThreadSafeMemPoolFixedChunkAllocator15addRef_internalEv
T _ZN36ThreadSafeMemPoolFixedChunkAllocator18removeRef_internalEv
T _ZN36ThreadSafeMemPoolFixedChunkAllocator24notifyfreechunkavailableER38OsclMemPoolFixedChunkAllocatorObserverPv
T _ZN36ThreadSafeMemPoolFixedChunkAllocator32CancelFreeChunkAvailableCallbackEv
T _ZN36ThreadSafeMemPoolFixedChunkAllocator6CreateEjjP13Oscl_DefAlloc
T _ZN36ThreadSafeMemPoolFixedChunkAllocator6DeleteEv
T _ZN36ThreadSafeMemPoolFixedChunkAllocator6addRefEv
T _ZN36ThreadSafeMemPoolFixedChunkAllocator8allocateEj
T _ZN36ThreadSafeMemPoolFixedChunkAllocator9removeRefEv
T _ZN36ThreadSafeMemPoolFixedChunkAllocatorC1EjjP13Oscl_DefAlloc
T _ZN36ThreadSafeMemPoolFixedChunkAllocatorC2EjjP13Oscl_DefAlloc
T _ZN36ThreadSafeMemPoolFixedChunkAllocatorD0Ev
T _ZN36ThreadSafeMemPoolFixedChunkAllocatorD1Ev
T _ZN36ThreadSafeMemPoolFixedChunkAllocatorD2Ev
T _ZN37PVMIDataStreamSyncInterfaceRefFactoryC1EP14OsclFileHandle
T _ZN37PVMIDataStreamSyncInterfaceRefFactoryC1ER12OSCL_wString
T _ZN37PVMIDataStreamSyncInterfaceRefFactoryC2EP14OsclFileHandle
T _ZN37PVMIDataStreamSyncInterfaceRefFactoryC2ER12OSCL_wString
T _ZN37PVMIDataStreamSyncInterfaceRefFactoryD0Ev
T _ZN37PVMIDataStreamSyncInterfaceRefFactoryD1Ev
T _ZN37PVMIDataStreamSyncInterfaceRefFactoryD2Ev
T _ZN37PvmiCapabilityAndConfigPortFormatImpl17getParametersSyncEPvPcRP9__PvmiKvpRiS0_
T _ZN37PvmiCapabilityAndConfigPortFormatImpl17releaseParametersEPvP9__PvmiKvpi
T _ZN37PvmiCapabilityAndConfigPortFormatImpl17setParametersSyncEPvP9__PvmiKvpiRS2_
T _ZN37PvmiCapabilityAndConfigPortFormatImpl20verifyParametersSyncEPvP9__PvmiKvpi
T _ZN3GAU19getSamplesTotalSizeEjP13MediaMetaInfo
T _ZN3GAUC1ERS_
T _ZN3GAUC1Ev
T _ZN3GAUC2ERS_
T _ZN3GAUC2Ev
T _ZN3GAUD1Ev
T _ZN3GAUD2Ev
T _ZN40PVMFMediaClockNotificationsInterfaceImpl14CancelCallbackEjb
T _ZN40PVMFMediaClockNotificationsInterfaceImpl16SetClockObserverER22PVMFMediaClockObserver
T _ZN40PVMFMediaClockNotificationsInterfaceImpl17CancelNPTCallbackEjb
T _ZN40PVMFMediaClockNotificationsInterfaceImpl19RemoveClockObserverER22PVMFMediaClockObserver
T _ZN40PVMFMediaClockNotificationsInterfaceImpl20SetCallbackDeltaTimeEjjP30PVMFMediaClockNotificationsObsbPKvRj
T _ZN40PVMFMediaClockNotificationsInterfaceImpl21SetClockStateObserverER27PVMFMediaClockStateObserver
T _ZN40PVMFMediaClockNotificationsInterfaceImpl23SetCallbackAbsoluteTimeEjjP30PVMFMediaClockNotificationsObsbPKvRj
T _ZN40PVMFMediaClockNotificationsInterfaceImpl23SetNPTCallbackDeltaTimeEjjP30PVMFMediaClockNotificationsObsbPKvRj
T _ZN40PVMFMediaClockNotificationsInterfaceImpl24RemoveClockStateObserverER27PVMFMediaClockStateObserver
T _ZN40PVMFMediaClockNotificationsInterfaceImpl26SetNPTCallbackAbsoluteTimeEjjP30PVMFMediaClockNotificationsObsbPKvRj
T _ZN40PVMFMediaClockNotificationsInterfaceImplC1EP14PVMFMediaClockjR34PVMFMediaClockNotificationsObsBase
T _ZN40PVMFMediaClockNotificationsInterfaceImplC2EP14PVMFMediaClockjR34PVMFMediaClockNotificationsObsBase
T _ZN40PVMFMediaClockNotificationsInterfaceImplD0Ev
T _ZN40PVMFMediaClockNotificationsInterfaceImplD1Ev
T _ZN40PVMFMediaClockNotificationsInterfaceImplD2Ev
T _ZN6PVFile14MakePersistentEij
T _ZN6PVFile16GetContentLengthEv
T _ZN6PVFile17GetRemainingBytesERj
T _ZN6PVFile19GetCurrentByteRangeERjS0_
T _ZN6PVFile22CancelNotificationSyncEv
T _ZN6PVFile24GetFileBufferingCapacityEv
T _ZN6PVFile31RequestReadCapacityNotificationER22PvmiDataStreamObserverjPv
T _ZN6PVFile4OpenEPKwjR15Oscl_FileServer
T _ZN6PVFile4ReadEPvjj
T _ZN6PVFile4SeekEiN9Oscl_File9seek_typeE
T _ZN6PVFile4SkipEiN9Oscl_File9seek_typeE
T _ZN6PVFile4TellEv
T _ZN6PVFile5CloseEv
T _ZN6PVFile5FlushEv
T _ZN7NTPTime19set_to_current_timeEv
T _ZN7OsclDNS13GetHostByNameEPcR18OsclNetworkAddressi
T _ZN7OsclDNS19CancelGetHostByNameEv
T _ZN7OsclDNS4NewLER13Oscl_DefAllocR14OsclSocketServR15OsclDNSObserverj
T _ZN7OsclDNSD0Ev
T _ZN7OsclDNSD1Ev
T _ZN7OsclDNSD2Ev
T _ZN7OsclMem4InitEv
T _ZN7OsclMem7CleanupEv
T _ZN8CFastRep5set_rEPKcj
T _ZN8CFastRep5set_rEPKwj
T _ZN8CFastRep5set_wEPcjj
T _ZN8CFastRep5set_wEPwjj
T _ZN8CFastRep6appendEPKcj
T _ZN8CFastRep6appendEPKwj
T _ZN8CHeapRep10append_repERPS_R13Oscl_DefAllocPKcj
T _ZN8CHeapRep10append_repERPS_R13Oscl_DefAllocPKwj
T _ZN8CHeapRep10remove_refER13Oscl_DefAlloc
T _ZN8CHeapRep3setEjPKcR13Oscl_DefAlloc
T _ZN8CHeapRep3setEjPKwR13Oscl_DefAlloc
T _ZN8CHeapRep6appendEjPKcjS1_R13Oscl_DefAlloc
T _ZN8CHeapRep6appendEjPKwjS1_R13Oscl_DefAlloc
T _ZN8CHeapRep6assignERPS_S0_R13Oscl_DefAlloc
T _ZN8CHeapRep7add_refEv
T _ZN8CHeapRep7set_repERPS_R13Oscl_DefAllocPKcj
T _ZN8CHeapRep7set_repERPS_R13Oscl_DefAllocPKwj
T _ZN8OsclBase4InitEv
T _ZN8OsclBase7CleanupEv
T _ZN8OsclInit4InitERiPK10OsclSelect
T _ZN8OsclInit7CleanupERiPK10OsclSelect
T _ZN8OsclJump10StaticJumpEi
T _ZN8PVLogger12LogMsgStringEiPKcz
T _ZN8PVLogger13LogMsgBuffersEiiz
T _ZN8PVLogger13LogMsgStringVEiPKcPv
T _ZN8PVLogger14LogMsgBuffersVEiiPv
T _ZN8PVLogger15GetLoggerObjectEPKc
T _ZN8PVLogger23SetLogLevelAndPropagateEi
T _ZN8PVLogger4InitEv
T _ZN8PVLogger7CleanupEv
T _ZN8PVLogger8IsActiveEi
T _ZN8PVLoggerC1EPKcib
T _ZN8PVLoggerC2EPKcib
T _ZN9CStackRep3setEPKcj
T _ZN9CStackRep3setEPKwj
T _ZN9CStackRep6appendEPKcj
T _ZN9CStackRep6appendEPKwj
T _ZN9OsclError10PopDeallocEi
T _ZN9OsclError10PopDeallocEv
T _ZN9OsclError11LeaveIfNullEPv
T _ZN9OsclError12LeaveIfErrorEi
T _ZN9OsclError3PopEi
T _ZN9OsclError3PopEv
T _ZN9OsclError5LeaveEi
T _ZN9OsclError5PushLE12OsclTrapItem
T _ZN9OsclError5PushLEP13_OsclHeapBase
T _ZN9OsclError5PushLEPv
T _ZN9OsclMutex4LockEv
T _ZN9OsclMutex5CloseEv
T _ZN9OsclMutex6CreateEv
T _ZN9OsclMutex6UnlockEv
T _ZN9OsclMutex7TryLockEv
T _ZN9OsclMutexC1Ev
T _ZN9OsclMutexC2Ev
T _ZN9OsclMutexD0Ev
T _ZN9OsclMutexD1Ev
T _ZN9OsclMutexD2Ev
T _ZN9Oscl_File13SetFileHandleEP14OsclFileHandle
T _ZN9Oscl_File14SetPVCacheSizeEj
T _ZN9Oscl_File16SetLoggingEnableEb
T _ZN9Oscl_File19SetNativeAccessModeEj
T _ZN9Oscl_File19SetNativeBufferSizeEi
T _ZN9Oscl_File20GetAsyncFileNumOfRunEv
T _ZN9Oscl_File22SetAsyncReadBufferSizeEj
T _ZN9Oscl_File25GetAsyncFileNumOfRunErrorEv
T _ZN9Oscl_File28SetSummaryStatsLoggingEnableEb
T _ZN9Oscl_File4OpenEPKcjR15Oscl_FileServer
T _ZN9Oscl_File4OpenEPKwjR15Oscl_FileServer
T _ZN9Oscl_File4ReadEPvjj
T _ZN9Oscl_File4SeekElNS_9seek_typeE
T _ZN9Oscl_File4SizeEv
T _ZN9Oscl_File4TellEv
T _ZN9Oscl_File5CloseEv
T _ZN9Oscl_File5FlushEv
T _ZN9Oscl_File5WriteEPKvjj
T _ZN9Oscl_File8GetErrorEv
T _ZN9Oscl_File9EndOfFileEv
T _ZN9Oscl_FileC1Ej
T _ZN9Oscl_FileC1EjP14OsclFileHandle
T _ZN9Oscl_FileC1Ev
T _ZN9Oscl_FileC2Ej
T _ZN9Oscl_FileC2EjP14OsclFileHandle
T _ZN9Oscl_FileC2Ev
T _ZN9Oscl_FileD0Ev
T _ZN9Oscl_FileD1Ev
T _ZN9Oscl_FileD2Ev
T _ZN9PVAviFile19CreateAviFileParserE16OSCL_wHeapStringI16OsclMemAllocatorERiP15Oscl_FileServerP35PVMFCPMPluginAccessInterfaceFactoryP14OsclFileHandle
T _ZN9PVAviFile19DeleteAviFileParserEPS_
T _ZN9TimeValue13get_str_ctimeEPc
T _ZN9TimeValue19get_pv8601_str_timeEPc
T _ZN9TimeValue21get_rfc822_gmtime_strEiPc
T _ZNK10AccessUnit11GetMaxFragsEv
T _ZNK10AccessUnit11GetNumFragsEv
T _ZNK10AccessUnit11IsLocalDataERK18OsclMemoryFragment
T _ZNK10AccessUnit12GetCodecInfoEv
T _ZNK10AccessUnit12GetTimestampEv
T _ZNK10AccessUnit14GetBufferStateEj
T _ZNK10AccessUnit16GetMediaFragmentEj
T _ZNK10AccessUnit16GetMediaFragmentEjR14BufferFragmentRP11BufferState
T _ZNK10AccessUnit17GetMediaFragmentsEv
T _ZNK10AccessUnit26match_bit_pattern_no_stateEiiPKhh
T _ZNK10AccessUnit28match_bit_pattern_with_stateEiiPKhhi
T _ZNK10AccessUnit4seekERiS0_RPhRbi
T _ZNK10AccessUnit7GetNextEv
T _ZNK10AccessUnit9GetLengthEv
T _ZNK11OSCL_String11is_writableEv
T _ZNK11OSCL_String4hashEv
T _ZNK11OSCL_String4readEj
T _ZNK11OSCL_StringeqEPKc
T _ZNK11OSCL_StringeqERKS_
T _ZNK11OSCL_StringgeERKS_
T _ZNK11OSCL_StringgtERKS_
T _ZNK11OSCL_StringixEj
T _ZNK11OSCL_StringleERKS_
T _ZNK11OSCL_StringltERKS_
T _ZNK11OSCL_StringneERKS_
T _ZNK11PVMFCmdResp3IsAEv
T _ZNK12OSCL_wString11is_writableEv
T _ZNK12OSCL_wString4hashEv
T _ZNK12OSCL_wString4readEj
T _ZNK12OSCL_wStringeqEPKw
T _ZNK12OSCL_wStringeqERKS_
T _ZNK12OSCL_wStringgeERKS_
T _ZNK12OSCL_wStringgtERKS_
T _ZNK12OSCL_wStringixEj
T _ZNK12OSCL_wStringleERKS_
T _ZNK12OSCL_wStringltERKS_
T _ZNK12OSCL_wStringneERKS_
T _ZNK12PVActiveBase7IsAddedEv
T _ZNK13Oscl_Tag_Base12tag_ancestorERPcRKS0_
T _ZNK13Oscl_Tag_Base9tag_depthERKPc
T _ZNK14PVMFAsyncEvent3IsAEv
T _ZNK14PVMFFormatType11isUserInputEv
T _ZNK14PVMFFormatType12isCompressedEv
T _ZNK14PVMFFormatType12isDataSourceEv
T _ZNK14PVMFFormatType5isRawEv
T _ZNK14PVMFFormatType6isFileEv
T _ZNK14PVMFFormatType6isTextEv
T _ZNK14PVMFFormatType7isAudioEv
T _ZNK14PVMFFormatType7isImageEv
T _ZNK14PVMFFormatType7isVideoEv
T _ZNK15OSCL_FastString11get_maxsizeEv
T _ZNK15OSCL_FastString7get_strEv
T _ZNK15OSCL_FastString8get_cstrEv
T _ZNK15OSCL_FastString8get_sizeEv
T _ZNK15OsclTimerObject6IsBusyEv
T _ZNK15OsclTimerObject6StatusEv
T _ZNK15OsclTimerObject8PriorityEv
T _ZNK16OSCL_HeapStringA11get_maxsizeEv
T _ZNK16OSCL_HeapStringA7get_strEv
T _ZNK16OSCL_HeapStringA8get_cstrEv
T _ZNK16OSCL_HeapStringA8get_sizeEv
T _ZNK16OSCL_wFastString11get_maxsizeEv
T _ZNK16OSCL_wFastString7get_strEv
T _ZNK16OSCL_wFastString8get_cstrEv
T _ZNK16OSCL_wFastString8get_sizeEv
T _ZNK16OsclActiveObject6IsBusyEv
T _ZNK16OsclActiveObject6StatusEv
T _ZNK16OsclActiveObject8PriorityEv
T _ZNK16PvmfPortBaseImpl10GetPortTagEv
T _ZNK17OSCL_wHeapStringA11get_maxsizeEv
T _ZNK17OSCL_wHeapStringA7get_strEv
T _ZNK17OSCL_wHeapStringA8get_cstrEv
T _ZNK17OSCL_wHeapStringA8get_sizeEv
T _ZNK19MediaClockConverter16get_converted_tsEj
T _ZNK29OsclMemPoolResizableAllocator13getBufferSizeEv
T _ZNK29OsclMemPoolResizableAllocator16getAllocatedSizeEv
T _ZNK29OsclMemPoolResizableAllocator16getAvailableSizeEv
T _ZNK29OsclMemPoolResizableAllocator33getLargestContiguousFreeBlockSizeEv
D _ZTT14PVMFMediaClock
D _ZTT21PVMediaOutputNodePort
D _ZTT21PvmfSyncUtilDataQueue
V _ZTT22PVMFMediaClockObserver
V _ZTT27PVMFMediaClockStateObserver
V _ZTT30PVMFMediaClockNotificationsObs
V _ZTV10OsclReadyQ
V _ZTV10OsclTimerQ
V _ZTV10Oscl_Alloc
V _ZTV10Oscl_QueueI13OsclSharedPtrI12PVMFMediaMsgE16OsclMemAllocatorE
D _ZTV11OSCL_String
D _ZTV11OsclSocketI
V _ZTV11Oscl_TAllocI15OSCL_HeapStringI16OsclMemAllocatorES1_E
V _ZTV11Oscl_TAllocI18GetHostByNameParam19_OsclBasicAllocatorE
V _ZTV11Oscl_TAllocI20PVMFFileOutputInPort16OsclMemAllocatorE
V _ZTV11Oscl_TAllocI21OsclRefCounterMemFrag16OsclMemAllocatorE
V _ZTV11Oscl_TAllocI21PVMediaOutputNodePort16OsclMemAllocatorE
V _ZTV11Oscl_TAllocI25PvmfMediaInputNodeOutPort16OsclMemAllocatorE
V _ZTV11Oscl_TAllocI8OsclUuid16OsclMemAllocatorE
V _ZTV11Oscl_TAllocIh16OsclMemAllocatorE
V _ZTV11Oscl_VectorI10IdxTblType16OsclMemAllocatorE
V _ZTV11Oscl_VectorI11CPVProxyMsg16OsclMemAllocatorE
V _ZTV11Oscl_VectorI13OsclSharedPtrI12PVMFMediaMsgE16OsclMemAllocatorE
V _ZTV11Oscl_VectorI14PVMFFormatType16OsclMemAllocatorE
V _ZTV11Oscl_VectorI15OSCL_HeapStringI16OsclMemAllocatorES1_E
V _ZTV11Oscl_VectorI15PVMFNodeSession16OsclMemAllocatorE
V _ZTV11Oscl_VectorI16PVMFPortActivity16OsclMemAllocatorE
V _ZTV11Oscl_VectorI17CPVProxyInterface16OsclMemAllocatorE
V _ZTV11Oscl_VectorI19PVAviFileStreamlist16OsclMemAllocatorE
V _ZTV11Oscl_VectorI19PvmiMIOFileInputCmd16OsclMemAllocatorE
V _ZTV11Oscl_VectorI20PVMediaOutputNodeCmd16OsclMemAllocatorE
V _ZTV11Oscl_VectorI20PvmiMIOAviWavFileCmd16OsclMemAllocatorE
V _ZTV11Oscl_VectorI21OsclRefCounterMemFrag11Oscl_TAllocIS0_16OsclMemAllocatorEE
V _ZTV11Oscl_VectorI21OsclRefCounterMemFrag16OsclMemAllocatorE
V _ZTV11Oscl_VectorI21PVMFOMXEncNodeCommand16OsclMemAllocatorE
V _ZTV11Oscl_VectorI21PvmfMediaInputNodeCmd16OsclMemAllocatorE
V _ZTV11Oscl_VectorI25PVMFFileOutputNodeCommand16OsclMemAllocatorE
V _ZTV11Oscl_VectorI25PVMFOMXBaseDecNodeCommand16OsclMemAllocatorE
V _ZTV11Oscl_VectorI25PvmiMIOFileInputMediaData16OsclMemAllocatorE
V _ZTV11Oscl_VectorI26OsclSocketServRequestQElem16OsclMemAllocatorE
V _ZTV11Oscl_VectorI26PvmiMIOAviWavFileMediaData16OsclMemAllocatorE
V _ZTV11Oscl_VectorI28OsclComponentRegistryElement16OsclMemAllocatorE
V _ZTV11Oscl_VectorI31PVMFMediaClockTimerQueueElement16OsclMemAllocatorE
V _ZTV11Oscl_VectorI40_PVMFMediaClockNPTTransitionEventElement16OsclMemAllocatorE
V _ZTV11Oscl_VectorI44_PVMFMediaClockStartNotificationEventElement16OsclMemAllocatorE
V _ZTV11Oscl_VectorI9__PvmiKvp16OsclMemAllocatorE
V _ZTV11Oscl_VectorIN15PVRefFileOutput13WriteResponseE16OsclMemAllocatorE
V _ZTV11Oscl_VectorIN15PVRefFileOutput15CommandResponseE16OsclMemAllocatorE
V _ZTV11Oscl_VectorIN15ThreadSafeQueue22ThreadSafeQueueElementE19_OsclBasicAllocatorE
V _ZTV11Oscl_VectorIN21PVMediaOutputNodePort19CleanupQueueElementE16OsclMemAllocatorE
V _ZTV11Oscl_VectorIP12PVActiveBase14OsclReadyAllocE
V _ZTV11Oscl_VectorIP15PvmiMIOObserver16OsclMemAllocatorE
V _ZTV11Oscl_VectorIP17OsclSharedLibrary16OsclMemAllocatorE
V _ZTV11Oscl_VectorIP17OsclSocketRequest16OsclMemAllocatorE
V _ZTV11Oscl_VectorIP19OsclAsyncFileBuffer16OsclMemAllocatorE
V _ZTV11Oscl_VectorIP20PVMFFileOutputInPort16OsclMemAllocatorE
V _ZTV11Oscl_VectorIP21PVMediaOutputNodePort16OsclMemAllocatorE
V _ZTV11Oscl_VectorIP22PVMFMediaClockObserver16OsclMemAllocatorE
V _ZTV11Oscl_VectorIP25PvmfMediaInputNodeOutPort16OsclMemAllocatorE
V _ZTV11Oscl_VectorIP40PVMFMediaClockNotificationsInterfaceImpl16OsclMemAllocatorE
V _ZTV11Oscl_VectorIP9__PvmiKvp16OsclMemAllocatorE
V _ZTV11Oscl_VectorIPN29OsclMemPoolResizableAllocator17MemPoolBufferInfoE16OsclMemAllocatorE
V _ZTV11Oscl_VectorIPv16OsclMemAllocatorE
V _ZTV11Oscl_VectorIS_I10IdxTblType16OsclMemAllocatorES1_E
V _ZTV11Oscl_VectorIi16OsclMemAllocatorE
V _ZTV11Oscl_VectorIj16OsclMemAllocatorE
V _ZTV11PVInterface
D _ZTV11PVMFCmdResp
V _ZTV11PVMainProxy
V _ZTV12BufFragGroupI10AccessUnitLj30EE
D _ZTV12OSCL_wString
D _ZTV12OsclDNSIBase
V _ZTV12OsclLockBase
V _ZTV12Oscl_Dealloc
D _ZTV12PVActiveBase
D _ZTV12PVMFMediaCmd
V _ZTV12PVMFMediaMsg
V _ZTV12PVMFPortIter
V _ZTV12PVMFTimebase
D _ZTV13OsclAsyncFile
D _ZTV13OsclDNSMethod
D _ZTV13OsclFileCache
V _ZTV13OsclIPSocketI
V _ZTV13OsclSharedPtrI12PVMFMediaCmdE
V _ZTV13OsclSharedPtrI12PVMFMediaMsgE
V _ZTV13OsclSharedPtrI13PVMFMediaDataE
V _ZTV13OsclSharedPtrI17PVMFMediaDataImplE
D _ZTV13OsclTCPSocket
D _ZTV13OsclUDPSocket
V _ZTV13Oscl_DefAlloc
V _ZTV13PVMFEventBase
D _ZTV13PVMFMediaData
V _ZTV13_OsclHeapBase
D _ZTV14CCRGB24toRGB16
D _ZTV14ColorConvert12
D _ZTV14ColorConvert16
D _ZTV14ColorConvert24
D _ZTV14ColorConvert32
D _ZTV14OsclBindMethod
D _ZTV14OsclNativeFile
D _ZTV14OsclReadyAlloc
D _ZTV14OsclRecvMethod
V _ZTV14OsclRefCounter
D _ZTV14OsclSendMethod
D _ZTV14OsclSocketServ
D _ZTV14OsclTCPSocketI
D _ZTV14OsclThreadLock
D _ZTV14OsclUDPSocketI
D _ZTV14PVMFAsyncEvent
V _ZTV14PVMFFormatType
D _ZTV14PVMFMediaClock
D _ZTV14PVMFOMXDecPort
D _ZTV14PVMFOMXEncNode
D _ZTV14PVMFOMXEncPort
V _ZTV14PVMFPortVectorI20PVMFFileOutputInPort16OsclMemAllocatorE
V _ZTV14PVMFPortVectorI21PVMediaOutputNodePort16OsclMemAllocatorE
V _ZTV14PVMFPortVectorI25PvmfMediaInputNodeOutPort16OsclMemAllocatorE
V _ZTV14PvmiMIOControl
D _ZTV14_OsclBasicLock
D _ZTV15CCRGB12toYUV420
D _ZTV15CCRGB16toYUV420
D _ZTV15CCRGB24toYUV420
V _ZTV15DNSRequestParam
D _ZTV15OSCL_FastString
V _ZTV15OSCL_HeapStringI16OsclMemAllocatorE
V _ZTV15OsclBindRequest
D _ZTV15OsclRecvRequest
D _ZTV15OsclSendRequest
D _ZTV15OsclSocketIBase
D _ZTV15OsclSocketServI
D _ZTV15OsclTimerObject
V _ZTV15Oscl_Queue_Base
D _ZTV15PVAviFileParser
D _ZTV15PVRefFileOutput
V _ZTV15PvmiMIOObserver
D _ZTV15ThreadSafeQueue
D _ZTV16CCYUV422toYUV420
D _ZTV16ColorConvertBase
D _ZTV16OSCL_HeapStringA
V _ZTV16OSCL_StackStringILj10EE
V _ZTV16OSCL_StackStringILj16EE
V _ZTV16OSCL_StackStringILj20EE
V _ZTV16OSCL_StackStringILj24EE
V _ZTV16OSCL_StackStringILj512EE
V _ZTV16OSCL_StackStringILj64EE
V _ZTV16OSCL_StackStringILj8EE
D _ZTV16OSCL_wFastString
V _ZTV16OSCL_wHeapStringI16OsclMemAllocatorE
D _ZTV16OsclAcceptMethod
D _ZTV16OsclActiveObject
D _ZTV16OsclDNSRequestAO
D _ZTV16OsclListenMethod
V _ZTV16OsclMemAllocator
V _ZTV16OsclRefCounterDA
V _ZTV16OsclRefCounterSAI17MediaCmdCleanupSAE
V _ZTV16OsclRefCounterSAI18MediaDataCleanupSAE
V _ZTV16OsclRefCounterSAI27OsclMemAllocDestructDeallocIhEE
D _ZTV16OsclSendToMethod
D _ZTV16OsclSocketMethod
V _ZTV16Oscl_Vector_Base
D _ZTV16PVLoggerRegistry
D _ZTV16PvmfPortBaseImpl
D _ZTV16PvmiMIOFileInput
D _ZTV17CPVInterfaceProxy
V _ZTV17MediaCmdCleanupDA
V _ZTV17MediaCmdCleanupSA
D _ZTV17OSCL_wHeapStringA
V _ZTV17OSCL_wStackStringILj32EE
V _ZTV17OSCL_wStackStringILj512EE
V _ZTV17OSCL_wStackStringILj8EE
D _ZTV17OsclAcceptRequest
D _ZTV17OsclConnectMethod
V _ZTV17OsclExclusivePtrAIh16OsclMemAllocatorE
D _ZTV17OsclExecScheduler
V _ZTV17OsclListenRequest
V _ZTV17OsclPriorityQueueI31PVMFMediaClockTimerQueueElement16OsclMemAllocator11Oscl_VectorIS0_S1_E35PVMFMediaClockTimerQueueCompareLessE
V _ZTV17OsclPriorityQueueI31PVMFMediaClockTimerQueueElement16OsclMemAllocator11Oscl_VectorIS0_S1_E50PVMFMediaClockTimerQueueCompareLessForNPTBackwardsE
V _ZTV17OsclPriorityQueueIP12PVActiveBase14OsclReadyAlloc11Oscl_VectorIS1_S2_E16OsclReadyCompareE
V _ZTV17OsclPriorityQueueIP12PVActiveBase14OsclReadyAlloc11Oscl_VectorIS1_S2_E16OsclTimerCompareE
V _ZTV17OsclPriorityQueueIP9__PvmiKvp16OsclMemAllocator11Oscl_VectorIS1_S2_E32PVMFOMXEncInputFormatCompareLessE
D _ZTV17OsclSendToRequest
V _ZTV17PVMFMediaDataImpl
D _ZTV17PVMFNodeInterface
V _ZTV17PVMFPortInterface
D _ZTV17PVMediaOutputNode
D _ZTV17PvmiMIOAviWavFile
V _ZTV17PvmiMediaTransfer
D _ZTV18GetHostByNameParam
V _ZTV18MediaDataCleanupDA
V _ZTV18MediaDataCleanupSA
V _ZTV18OsclConnectRequest
D _ZTV18OsclRecvFromMethod
D _ZTV18OsclRegistryClient
D _ZTV18OsclShutdownMethod
D _ZTV18PVMFFileOutputNode
V _ZTV18PVMFMediaFragGroupI16OsclMemAllocatorE
D _ZTV18PVMFOMXBaseDecNode
D _ZTV18PVSchedulerStopper
D _ZTV18PvmfMediaInputNode
D _ZTV19OsclAsyncFileBuffer
V _ZTV19OsclDestructDealloc
D _ZTV19OsclRecvFromRequest
V _ZTV19OsclShutdownRequest
D _ZTV19OsclSocketRequestAO
V _ZTV19OsclSocketServIBase
V _ZTV19PVMFFileOutputAlloc
D _ZTV19PVMFOMXAudioDecNode
D _ZTV19PVMFOMXVideoDecNode
V _ZTV19_OsclBasicAllocator
D _ZTV20CCYUV420SEMItoYUV420
D _ZTV20OsclMemPoolAllocator
D _ZTV20OsclRegistryServImpl
D _ZTV20PVMFFileOutputInPort
V _ZTV20PVMediaOutputNodeCmd
D _ZTV20ThreadSafeCallbackAO
V _ZTV21OsclExclusiveArrayPtrIcE
D _ZTV21OsclExecSchedulerBase
V _ZTV21OsclPriorityQueueBase
V _ZTV21PVMFOMXEncNodeCommand
D _ZTV21PVMFSimpleMediaBuffer
D _ZTV21PVMediaOutputNodePort
V _ZTV21PvmfMediaInputNodeCmd
D _ZTV21PvmfSyncUtilDataQueue
D _ZTV22ColorConvertYUV420SEMI
V _ZTV22OsclRegistryClientImpl
V _ZTV22Oscl_Opaque_Type_Alloc
V _ZTV22PVMFGenericNodeCommandI16OsclMemAllocatorE
V _ZTV22PVMFMediaClockObserver
D _ZTV22PVMFTimebase_Tickcount
D _ZTV23OsclGetHostByNameMethod
D _ZTV23OsclRegistryServTlsImpl
D _ZTV23PVMFBufferPoolAllocator
D _ZTV23PVMFDurationInfoMessage
D _ZTV23PVMFMetadataInfoMessage
V _ZTV23PVMFPortActivityHandler
V _ZTV23PvmiCapabilityAndConfig
D _ZTV24AccessUnitImplementation
D _ZTV24CPVInterfaceProxyHandler
V _ZTV24OsclAllocDestructDealloc
D _ZTV24OsclGetHostByNameRequest
V _ZTV24Oscl_Opaque_Type_Compare
D _ZTV25CPVInterfaceProxyNotifier
V _ZTV25OsclRegistryClientTlsImpl
D _ZTV25PVMFBasicErrorInfoMessage
V _ZTV25PVMFFileOutputNodeCommand
V _ZTV25PVMFOMXBaseDecNodeCommand
D _ZTV25PvmfMediaInputNodeOutPort
V _ZTV26PVMFYuvFormatSpecificInfo0
D _ZTV27OsclExecSchedulerCommonBase
V _ZTV27OsclMemAllocDestructDeallocIhE
V _ZTV27PVMFMediaClockStateObserver
V _ZTV27PVMIDataStreamSyncInterface
V _ZTV27PvmiClockExtensionInterface
V _ZTV28OsclRegistryAccessClientImpl
V _ZTV28PVAudioEncExtensionInterface
V _ZTV28PVMFMediaIOCreationInterface
D _ZTV29OsclMemPoolResizableAllocator
V _ZTV29PVMFErrorInfoMessageInterface
V _ZTV29PVMFMediaClockAccessInterface
D _ZTV29PvmfMediaInputDataBufferAlloc
V _ZTV29PvmfNodesSyncControlInterface
V _ZTV29PvmfSyncUtilDataQueueObserver
D _ZTV30OsclMemPoolFixedChunkAllocator
V _ZTV30PVMFMediaClockControlInterface
V _ZTV30PVMFMediaClockNotificationsObs
D _ZTV30PVMFMemPoolFixedChunkAllocator
V _ZTV30PVMFMetadataExtensionInterface
V _ZTV30PVMp4H263EncExtensionInterface
V _ZTV31OsclRegistryAccessClientTlsImpl
D _ZTV31PvmfMediaInputDataBufferCleanup
D _ZTV32EventHandlerThreadSafeCallbackAO
V _ZTV32PVMFDurationInfoMessageInterface
V _ZTV32PVMFMetadataInfoMessageInterface
V _ZTV32PVMFOMXEncNodeExtensionInterface
V _ZTV33PvmfFileOutputNodeConfigInterface
D _ZTV34FillBufferDoneThreadSafeCallbackAO
V _ZTV34PVMFMediaClockNotificationsObsBase
D _ZTV34PVMFMediaFileOutputRegistryFactory
V _ZTV34PVMFSimpleMediaBufferCombinedAlloc
D _ZTV34PVMIDataStreamSyncInterfaceRefImpl
D _ZTV34PVRefFileOutputActiveTimingSupport
V _ZTV34SimpleMediaBufferCombinedCleanupDA
D _ZTV35EmptyBufferDoneThreadSafeCallbackAO
D _ZTV35EventHandlerThreadSafeCallbackAOEnc
V _ZTV35PVMFCPMPluginAccessInterfaceFactory
V _ZTV36PVMFMediaClockNotificationsInterface
V _ZTV36PVMFOMXBaseDecNodeExtensionInterface
V _ZTV36PvmfComposerSizeAndDurationInterface
D _ZTV36ThreadSafeMemPoolFixedChunkAllocator
D _ZTV37FillBufferDoneThreadSafeCallbackAOEnc
D _ZTV37PVMIDataStreamSyncInterfaceRefFactory
D _ZTV37PvmiCapabilityAndConfigPortFormatImpl
D _ZTV38EmptyBufferDoneThreadSafeCallbackAOEnc
V _ZTV38OsclMemPoolFixedChunkAllocatorObserver
V _ZTV40PVMFMediaClockNotificationsImplInterface
D _ZTV40PVMFMediaClockNotificationsInterfaceImpl
V _ZTV45PVMFMediaClockNPTClockPositionAccessInterface
V _ZTV47PVOMXDecBufferSharedPtrWrapperCombinedCleanupDA
V _ZTV47PVOMXEncBufferSharedPtrWrapperCombinedCleanupDA
V _ZTV7OsclBuf
D _ZTV7OsclDNS
V _ZTV7OsclPtr
V _ZTV8HeapBase
D _ZTV8OsclDNSI
V _ZTV8OsclPtrC
V _ZTV8PVLogger
V _ZTV9MediaDataI10AccessUnitLj30ELj1500EE
D _ZTV9OsclMutex
D _ZTV9Oscl_File
V _ZTV9PVAviFile
T _ZThn100_N14PVMFMediaClockD0Ev
T _ZThn100_N14PVMFMediaClockD1Ev
T _ZThn100_N15PVRefFileOutput14queryInterfaceERK8OsclUuidRP11PVInterface
T _ZThn100_N15PVRefFileOutput6addRefEv
T _ZThn100_N15PVRefFileOutput8SetClockEP14PVMFMediaClock
T _ZThn100_N15PVRefFileOutput9removeRefEv
T _ZThn104_N14PVMFMediaClock16SetClockObserverER22PVMFMediaClockObserver
T _ZThn104_N14PVMFMediaClock19RemoveClockObserverER22PVMFMediaClockObserver
T _ZThn104_N14PVMFMediaClockD0Ev
T _ZThn104_N14PVMFMediaClockD1Ev
T _ZThn108_N14PVMFMediaClockD0Ev
T _ZThn108_N14PVMFMediaClockD1Ev
T _ZThn132_N17PVMediaOutputNode15ReportInfoEventEiP11PVInterface
T _ZThn132_N17PVMediaOutputNode16ReportErrorEventEiP11PVInterface
T _ZThn132_N17PVMediaOutputNode16RequestCompletedERK11PVMFCmdResp
T _ZThn132_N18PVMFOMXBaseDecNode18freechunkavailableEPv
T _ZThn132_N18PVMFOMXBaseDecNodeD0Ev
T _ZThn132_N18PVMFOMXBaseDecNodeD1Ev
T _ZThn132_N18PvmfMediaInputNode15ReportInfoEventEiP11PVInterface
T _ZThn132_N18PvmfMediaInputNode16ReportErrorEventEiP11PVInterface
T _ZThn132_N18PvmfMediaInputNode16RequestCompletedERK11PVMFCmdResp
T _ZThn136_N17PVMediaOutputNode10SetMarginsEii
T _ZThn136_N17PVMediaOutputNode12ClockStartedEv
T _ZThn136_N17PVMediaOutputNode12ClockStoppedEv
T _ZThn136_N17PVMediaOutputNode13SkipMediaDataEijjbPv
T _ZThn136_N17PVMediaOutputNode14queryInterfaceERK8OsclUuidRP11PVInterface
T _ZThn136_N17PVMediaOutputNode15ChangeClockRateEi
T _ZThn136_N17PVMediaOutputNode6addRefEv
T _ZThn136_N17PVMediaOutputNode8SetClockEP14PVMFMediaClock
T _ZThn136_N17PVMediaOutputNode9removeRefEv
T _ZThn136_N18PVMFOMXBaseDecNode14queryInterfaceERK8OsclUuidRP11PVInterface
T _ZThn136_N18PVMFOMXBaseDecNode27SetDecoderNodeConfigurationER24PVMFOMXBaseDecNodeConfig
T _ZThn136_N18PVMFOMXBaseDecNode6addRefEv
T _ZThn136_N18PVMFOMXBaseDecNode9removeRefEv
T _ZThn136_N18PVMFOMXBaseDecNodeD0Ev
T _ZThn136_N18PVMFOMXBaseDecNodeD1Ev
T _ZThn136_N18PvmfMediaInputNode14queryInterfaceERK8OsclUuidRP11PVInterface
T _ZThn136_N18PvmfMediaInputNode6addRefEv
T _ZThn136_N18PvmfMediaInputNode9removeRefEv
T _ZThn140_N17PVMediaOutputNode14queryInterfaceERK8OsclUuidRP11PVInterface
T _ZThn140_N17PVMediaOutputNode17getParametersSyncEPvPcRP9__PvmiKvpRiS0_
T _ZThn140_N17PVMediaOutputNode17releaseParametersEPvP9__PvmiKvpi
T _ZThn140_N17PVMediaOutputNode20verifyParametersSyncEPvP9__PvmiKvpi
T _ZThn140_N17PVMediaOutputNode6addRefEv
T _ZThn140_N17PVMediaOutputNode9removeRefEv
T _ZThn140_N18PVMFOMXBaseDecNode14queryInterfaceERK8OsclUuidRP11PVInterface
T _ZThn140_N18PVMFOMXBaseDecNode19GetNodeMetadataKeysEiR11Oscl_VectorI15OSCL_HeapStringI16OsclMemAllocatorES2_EjiPcPKv
T _ZThn140_N18PVMFOMXBaseDecNode21GetNodeMetadataValuesEiR11Oscl_VectorI15OSCL_HeapStringI16OsclMemAllocatorES2_ERS0_I9__PvmiKvpS2_EjiPKv
T _ZThn140_N18PVMFOMXBaseDecNode23ReleaseNodeMetadataKeysER11Oscl_VectorI15OSCL_HeapStringI16OsclMemAllocatorES2_Ejj
T _ZThn140_N18PVMFOMXBaseDecNode25ReleaseNodeMetadataValuesER11Oscl_VectorI9__PvmiKvp16OsclMemAllocatorEjj
T _ZThn140_N18PVMFOMXBaseDecNode6addRefEv
T _ZThn140_N18PVMFOMXBaseDecNode9removeRefEv
T _ZThn140_N18PVMFOMXBaseDecNodeD0Ev
T _ZThn140_N18PVMFOMXBaseDecNodeD1Ev
T _ZThn144_N18PVMFOMXBaseDecNode11setObserverEP34PvmiConfigAndCapabilityCmdObserver
T _ZThn144_N18PVMFOMXBaseDecNode13DeleteContextEPvRS0_
T _ZThn144_N18PVMFOMXBaseDecNode13createContextEPvRS0_
T _ZThn144_N18PVMFOMXBaseDecNode14queryInterfaceERK8OsclUuidRP11PVInterface
T _ZThn144_N18PVMFOMXBaseDecNode17getParametersSyncEPvPcRP9__PvmiKvpRiS0_
T _ZThn144_N18PVMFOMXBaseDecNode17releaseParametersEPvP9__PvmiKvpi
T _ZThn144_N18PVMFOMXBaseDecNode17setParametersSyncEPvP9__PvmiKvpiRS2_
T _ZThn144_N18PVMFOMXBaseDecNode18setParametersAsyncEPvP9__PvmiKvpiRS2_S0_
T _ZThn144_N18PVMFOMXBaseDecNode19getCapabilityMetricEPv
T _ZThn144_N18PVMFOMXBaseDecNode20setContextParametersEPvRS0_P9__PvmiKvpi
T _ZThn144_N18PVMFOMXBaseDecNode20verifyParametersSyncEPvP9__PvmiKvpi
T _ZThn144_N18PVMFOMXBaseDecNode6addRefEv
T _ZThn144_N18PVMFOMXBaseDecNode9removeRefEv
T _ZThn144_N18PVMFOMXBaseDecNodeD0Ev
T _ZThn144_N18PVMFOMXBaseDecNodeD1Ev
T _ZThn152_N14PVMFOMXEncNode11SetFSIParamEPhi
T _ZThn152_N14PVMFOMXEncNode12GetVolHeaderER21OsclRefCounterMemFrag
T _ZThn152_N14PVMFOMXEncNode12SetNumLayersEj
T _ZThn152_N14PVMFOMXEncNode13RequestIFrameEv
T _ZThn152_N14PVMFOMXEncNode16SetOutputBitRateEjj
T _ZThn152_N14PVMFOMXEncNode17SetIFrameIntervalEj
T _ZThn152_N14PVMFOMXEncNode17SetSceneDetectionEb
T _ZThn152_N14PVMFOMXEncNode18SetOutputFrameRateEjf
T _ZThn152_N14PVMFOMXEncNode18SetOutputFrameSizeEjjj
T _ZThn152_N14PVMFOMXEncNode18SetRateControlTypeEj22PVMFVENRateControlType
T _ZThn152_N14PVMFOMXEncNode19SetDataPartitioningEb
T _ZThn152_N14PVMFOMXEncNode20SetSegmentTargetSizeEjj
T _ZThn152_N14PVMFOMXEncNode7SetRVLCEb
T _ZThn152_N14PVMFOMXEncNode8SetCodecE14PVMFFormatType
T _ZThn156_N14PVMFOMXEncNode16SetOutputBitRateE16PVMF_GSMAMR_Rate
T _ZThn156_N14PVMFOMXEncNode16SetOutputBitRateEj
T _ZThn156_N14PVMFOMXEncNode19SetOutputNumChannelEj
T _ZThn156_N14PVMFOMXEncNode21SetOutputSamplingRateEj
T _ZThn156_N14PVMFOMXEncNode30SetMaxNumOutputFramesPerBufferEj
T _ZThn220_N14PVMFOMXDecPort13FormatUpdatedEv
T _ZThn220_N14PVMFOMXDecPort17IsFormatSupportedE14PVMFFormatType
T _ZThn220_N14PVMFOMXDecPort17setParametersSyncEPvP9__PvmiKvpiRS2_
T _ZThn220_N14PVMFOMXDecPort20verifyParametersSyncEPvP9__PvmiKvpi
T _ZThn220_N14PVMFOMXDecPortD0Ev
T _ZThn220_N14PVMFOMXDecPortD1Ev
T _ZThn220_N14PVMFOMXEncPort17getParametersSyncEPvPcRP9__PvmiKvpRiS0_
T _ZThn220_N14PVMFOMXEncPort17releaseParametersEPvP9__PvmiKvpi
T _ZThn220_N20PVMFFileOutputInPort11setObserverEP34PvmiConfigAndCapabilityCmdObserver
T _ZThn220_N20PVMFFileOutputInPort13DeleteContextEPvRS0_
T _ZThn220_N20PVMFFileOutputInPort13createContextEPvRS0_
T _ZThn220_N20PVMFFileOutputInPort17getParametersSyncEPvPcRP9__PvmiKvpRiS0_
T _ZThn220_N20PVMFFileOutputInPort17releaseParametersEPvP9__PvmiKvpi
T _ZThn220_N20PVMFFileOutputInPort17setParametersSyncEPvP9__PvmiKvpiRS2_
T _ZThn220_N20PVMFFileOutputInPort18setParametersAsyncEPvP9__PvmiKvpiRS2_S0_
T _ZThn220_N20PVMFFileOutputInPort19getCapabilityMetricEPv
T _ZThn220_N20PVMFFileOutputInPort20setContextParametersEPvRS0_P9__PvmiKvpi
T _ZThn220_N20PVMFFileOutputInPort20verifyParametersSyncEPvP9__PvmiKvpi
T _ZThn316_N21PVMediaOutputNodePort17getParametersSyncEPvPcRP9__PvmiKvpRiS0_
T _ZThn316_N21PVMediaOutputNodePort17releaseParametersEPvP9__PvmiKvpi
T _ZThn316_N21PVMediaOutputNodePort17setParametersSyncEPvP9__PvmiKvpiRS2_
T _ZThn316_N21PVMediaOutputNodePort20verifyParametersSyncEPvP9__PvmiKvpi
T _ZThn316_N25PvmfMediaInputNodeOutPort11setObserverEP34PvmiConfigAndCapabilityCmdObserver
T _ZThn316_N25PvmfMediaInputNodeOutPort13DeleteContextEPvRS0_
T _ZThn316_N25PvmfMediaInputNodeOutPort13createContextEPvRS0_
T _ZThn316_N25PvmfMediaInputNodeOutPort17getParametersSyncEPvPcRP9__PvmiKvpRiS0_
T _ZThn316_N25PvmfMediaInputNodeOutPort17releaseParametersEPvP9__PvmiKvpi
T _ZThn316_N25PvmfMediaInputNodeOutPort17setParametersSyncEPvP9__PvmiKvpiRS2_
T _ZThn316_N25PvmfMediaInputNodeOutPort18setParametersAsyncEPvP9__PvmiKvpiRS2_S0_
T _ZThn316_N25PvmfMediaInputNodeOutPort19getCapabilityMetricEPv
T _ZThn316_N25PvmfMediaInputNodeOutPort20setContextParametersEPvRS0_P9__PvmiKvpi
T _ZThn316_N25PvmfMediaInputNodeOutPort20verifyParametersSyncEPvP9__PvmiKvpi
T _ZThn4_N14PVMFMediaClockD0Ev
T _ZThn4_N14PVMFMediaClockD1Ev
T _ZThn4_N15OsclTimerObject8DoCancelEv
T _ZThn4_N15OsclTimerObject8RunErrorEi
T _ZThn4_N15OsclTimerObjectD0Ev
T _ZThn4_N15OsclTimerObjectD1Ev
T _ZThn4_N15ThreadSafeQueueD0Ev
T _ZThn4_N15ThreadSafeQueueD1Ev
T _ZThn4_N16OsclActiveObject8DoCancelEv
T _ZThn4_N16OsclActiveObject8RunErrorEi
T _ZThn4_N16OsclActiveObjectD0Ev
T _ZThn4_N16OsclActiveObjectD1Ev
T _ZThn4_N18PVMFOMXBaseDecNode3RunEv
T _ZThn4_N18PVMFOMXBaseDecNodeD0Ev
T _ZThn4_N18PVMFOMXBaseDecNodeD1Ev
T _ZThn4_N20ThreadSafeCallbackAO3RunEv
T _ZThn4_N20ThreadSafeCallbackAOD0Ev
T _ZThn4_N20ThreadSafeCallbackAOD1Ev
T _ZThn4_N29OsclMemPoolResizableAllocator10deallocateEPv
T _ZThn4_N29OsclMemPoolResizableAllocatorD0Ev
T _ZThn4_N29OsclMemPoolResizableAllocatorD1Ev
T _ZThn4_N30OsclMemPoolFixedChunkAllocator10deallocateEPv
T _ZThn4_N30OsclMemPoolFixedChunkAllocatorD0Ev
T _ZThn4_N30OsclMemPoolFixedChunkAllocatorD1Ev
T _ZThn4_N30PVMFMemPoolFixedChunkAllocator10deallocateEPv
T _ZThn4_N30PVMFMemPoolFixedChunkAllocatorD0Ev
T _ZThn4_N30PVMFMemPoolFixedChunkAllocatorD1Ev
T _ZThn4_N36ThreadSafeMemPoolFixedChunkAllocator10deallocateEPv
T _ZThn4_N36ThreadSafeMemPoolFixedChunkAllocatorD0Ev
T _ZThn4_N36ThreadSafeMemPoolFixedChunkAllocatorD1Ev
T _ZThn84_N14PVMFMediaClock16GetCurrentTick32ERjRb
T _ZThn84_N14PVMFMediaClock21GetTimebaseResolutionERj
T _ZThn84_N14PVMFMediaClock7GetRateEv
T _ZThn84_N14PVMFMediaClockD0Ev
T _ZThn84_N14PVMFMediaClockD1Ev
T _ZThn84_N16PvmiMIOFileInput10disconnectEPv
T _ZThn84_N16PvmiMIOFileInput11DiscardDataEPKv
T _ZThn84_N16PvmiMIOFileInput11DiscardDataEjPKv
T _ZThn84_N16PvmiMIOFileInput11ThreadLogonEv
T _ZThn84_N16PvmiMIOFileInput12ThreadLogoffEv
T _ZThn84_N16PvmiMIOFileInput13CancelCommandEiPKv
T _ZThn84_N16PvmiMIOFileInput14QueryInterfaceERK8OsclUuidRP11PVInterfacePKv
T _ZThn84_N16PvmiMIOFileInput17CancelAllCommandsEPKv
T _ZThn84_N16PvmiMIOFileInput19createMediaTransferERPvP9__PvmiKvpiS3_i
T _ZThn84_N16PvmiMIOFileInput19deleteMediaTransferERPvP17PvmiMediaTransfer
T _ZThn84_N16PvmiMIOFileInput4InitEPKv
T _ZThn84_N16PvmiMIOFileInput4StopEPKv
T _ZThn84_N16PvmiMIOFileInput5FlushEPKv
T _ZThn84_N16PvmiMIOFileInput5PauseEPKv
T _ZThn84_N16PvmiMIOFileInput5ResetEPKv
T _ZThn84_N16PvmiMIOFileInput5StartEPKv
T _ZThn84_N16PvmiMIOFileInput7connectERPvP15PvmiMIOObserver
T _ZThn84_N16PvmiMIOFileInput9QueryUUIDERK11OSCL_StringR11Oscl_VectorI8OsclUuid16OsclMemAllocatorEbPKv
T _ZThn84_N17PVMediaOutputNode11ReleasePortEiR17PVMFPortInterfacePKv
T _ZThn84_N17PVMediaOutputNode11RequestPortEiiPK11OSCL_StringPKv
T _ZThn84_N17PVMediaOutputNode11ThreadLogonEv
T _ZThn84_N17PVMediaOutputNode12ThreadLogoffEv
T _ZThn84_N17PVMediaOutputNode13CancelCommandEiiPKv
T _ZThn84_N17PVMediaOutputNode13GetCapabilityER18PVMFNodeCapability
T _ZThn84_N17PVMediaOutputNode14QueryInterfaceEiRK8OsclUuidRP11PVInterfacePKv
T _ZThn84_N17PVMediaOutputNode17CancelAllCommandsEiPKv
T _ZThn84_N17PVMediaOutputNode4InitEiPKv
T _ZThn84_N17PVMediaOutputNode4StopEiPKv
T _ZThn84_N17PVMediaOutputNode5FlushEiPKv
T _ZThn84_N17PVMediaOutputNode5PauseEiPKv
T _ZThn84_N17PVMediaOutputNode5ResetEiPKv
T _ZThn84_N17PVMediaOutputNode5StartEiPKv
T _ZThn84_N17PVMediaOutputNode7PrepareEiPKv
T _ZThn84_N17PVMediaOutputNode8GetPortsEPK14PVMFPortFilter
T _ZThn84_N17PVMediaOutputNode9QueryUUIDEiRK11OSCL_StringR11Oscl_VectorI8OsclUuid16OsclMemAllocatorEbPKv
T _ZThn84_N17PvmiMIOAviWavFile10disconnectEPv
T _ZThn84_N17PvmiMIOAviWavFile11DiscardDataEPKv
T _ZThn84_N17PvmiMIOAviWavFile11DiscardDataEjPKv
T _ZThn84_N17PvmiMIOAviWavFile11ThreadLogonEv
T _ZThn84_N17PvmiMIOAviWavFile12ThreadLogoffEv
T _ZThn84_N17PvmiMIOAviWavFile13CancelCommandEiPKv
T _ZThn84_N17PvmiMIOAviWavFile14QueryInterfaceERK8OsclUuidRP11PVInterfacePKv
T _ZThn84_N17PvmiMIOAviWavFile17CancelAllCommandsEPKv
T _ZThn84_N17PvmiMIOAviWavFile19createMediaTransferERPvP9__PvmiKvpiS3_i
T _ZThn84_N17PvmiMIOAviWavFile19deleteMediaTransferERPvP17PvmiMediaTransfer
T _ZThn84_N17PvmiMIOAviWavFile4InitEPKv
T _ZThn84_N17PvmiMIOAviWavFile4StopEPKv
T _ZThn84_N17PvmiMIOAviWavFile5FlushEPKv
T _ZThn84_N17PvmiMIOAviWavFile5PauseEPKv
T _ZThn84_N17PvmiMIOAviWavFile5ResetEPKv
T _ZThn84_N17PvmiMIOAviWavFile5StartEPKv
T _ZThn84_N17PvmiMIOAviWavFile7connectERPvP15PvmiMIOObserver
T _ZThn84_N17PvmiMIOAviWavFile9QueryUUIDERK11OSCL_StringR11Oscl_VectorI8OsclUuid16OsclMemAllocatorEbPKv
T _ZThn84_N18PVMFOMXBaseDecNode11ReleasePortEiR17PVMFPortInterfacePKv
T _ZThn84_N18PVMFOMXBaseDecNode11RequestPortEiiPK11OSCL_StringPKv
T _ZThn84_N18PVMFOMXBaseDecNode12ThreadLogoffEv
T _ZThn84_N18PVMFOMXBaseDecNode13CancelCommandEiiPKv
T _ZThn84_N18PVMFOMXBaseDecNode13GetCapabilityER18PVMFNodeCapability
T _ZThn84_N18PVMFOMXBaseDecNode14QueryInterfaceEiRK8OsclUuidRP11PVInterfacePKv
T _ZThn84_N18PVMFOMXBaseDecNode17CancelAllCommandsEiPKv
T _ZThn84_N18PVMFOMXBaseDecNode18HandlePortActivityERK16PVMFPortActivity
T _ZThn84_N18PVMFOMXBaseDecNode4InitEiPKv
T _ZThn84_N18PVMFOMXBaseDecNode4StopEiPKv
T _ZThn84_N18PVMFOMXBaseDecNode5FlushEiPKv
T _ZThn84_N18PVMFOMXBaseDecNode5PauseEiPKv
T _ZThn84_N18PVMFOMXBaseDecNode5ResetEiPKv
T _ZThn84_N18PVMFOMXBaseDecNode5StartEiPKv
T _ZThn84_N18PVMFOMXBaseDecNode7PrepareEiPKv
T _ZThn84_N18PVMFOMXBaseDecNode8GetPortsEPK14PVMFPortFilter
T _ZThn84_N18PVMFOMXBaseDecNode9QueryUUIDEiRK11OSCL_StringR11Oscl_VectorI8OsclUuid16OsclMemAllocatorEbPKv
T _ZThn84_N18PVMFOMXBaseDecNodeD0Ev
T _ZThn84_N18PVMFOMXBaseDecNodeD1Ev
T _ZThn84_N18PvmfMediaInputNode11ReleasePortEiR17PVMFPortInterfacePKv
T _ZThn84_N18PvmfMediaInputNode11RequestPortEiiPK11OSCL_StringPKv
T _ZThn84_N18PvmfMediaInputNode11ThreadLogonEv
T _ZThn84_N18PvmfMediaInputNode12ThreadLogoffEv
T _ZThn84_N18PvmfMediaInputNode13CancelCommandEiiPKv
T _ZThn84_N18PvmfMediaInputNode13GetCapabilityER18PVMFNodeCapability
T _ZThn84_N18PvmfMediaInputNode14QueryInterfaceEiRK8OsclUuidRP11PVInterfacePKv
T _ZThn84_N18PvmfMediaInputNode17CancelAllCommandsEiPKv
T _ZThn84_N18PvmfMediaInputNode4InitEiPKv
T _ZThn84_N18PvmfMediaInputNode4StopEiPKv
T _ZThn84_N18PvmfMediaInputNode5FlushEiPKv
T _ZThn84_N18PvmfMediaInputNode5PauseEiPKv
T _ZThn84_N18PvmfMediaInputNode5ResetEiPKv
T _ZThn84_N18PvmfMediaInputNode5StartEiPKv
T _ZThn84_N18PvmfMediaInputNode7PrepareEiPKv
T _ZThn84_N18PvmfMediaInputNode8GetPortsEPK14PVMFPortFilter
T _ZThn84_N18PvmfMediaInputNode9QueryUUIDEiRK11OSCL_StringR11Oscl_VectorI8OsclUuid16OsclMemAllocatorEbPKv
T _ZThn84_N21PVMediaOutputNodePort10DisconnectEv
T _ZThn84_N21PVMediaOutputNodePort11PeerConnectEP17PVMFPortInterface
T _ZThn84_N21PVMediaOutputNodePort14ClearMsgQueuesEv
T _ZThn84_N21PVMediaOutputNodePort14PeerDisconnectEv
T _ZThn84_N21PVMediaOutputNodePort7ConnectEP17PVMFPortInterface
T _ZThn88_N14PVMFMediaClockD0Ev
T _ZThn88_N14PVMFMediaClockD1Ev
T _ZThn88_N16PvmiMIOFileInput10writeAsyncEhiPhjRK21__PvmiMediaXferHeaderPv
T _ZThn88_N16PvmiMIOFileInput12readCompleteEiiiRK21__PvmiMediaXferHeaderPv
T _ZThn88_N16PvmiMIOFileInput12statusUpdateEj
T _ZThn88_N16PvmiMIOFileInput13cancelCommandEi
T _ZThn88_N16PvmiMIOFileInput13writeCompleteEiiPv
T _ZThn88_N16PvmiMIOFileInput17cancelAllCommandsEv
T _ZThn88_N16PvmiMIOFileInput19useMemoryAllocatorsEP16OsclMemAllocator
T _ZThn88_N16PvmiMIOFileInput7setPeerEP17PvmiMediaTransfer
T _ZThn88_N16PvmiMIOFileInput9readAsyncEPhjPvPit
T _ZThn88_N17PvmiMIOAviWavFile10writeAsyncEhiPhjRK21__PvmiMediaXferHeaderPv
T _ZThn88_N17PvmiMIOAviWavFile12readCompleteEiiiRK21__PvmiMediaXferHeaderPv
T _ZThn88_N17PvmiMIOAviWavFile12statusUpdateEj
T _ZThn88_N17PvmiMIOAviWavFile13cancelCommandEi
T _ZThn88_N17PvmiMIOAviWavFile13writeCompleteEiiPv
T _ZThn88_N17PvmiMIOAviWavFile17cancelAllCommandsEv
T _ZThn88_N17PvmiMIOAviWavFile19useMemoryAllocatorsEP16OsclMemAllocator
T _ZThn88_N17PvmiMIOAviWavFile7setPeerEP17PvmiMediaTransfer
T _ZThn88_N17PvmiMIOAviWavFile9readAsyncEPhjPvPit
T _ZThn88_N25PvmfMediaInputNodeOutPort10DisconnectEv
T _ZThn88_N25PvmfMediaInputNodeOutPort11PeerConnectEP17PVMFPortInterface
T _ZThn88_N25PvmfMediaInputNodeOutPort14PeerDisconnectEv
T _ZThn88_N25PvmfMediaInputNodeOutPort7ConnectEP17PVMFPortInterface
T _ZThn92_N14PVMFMediaClock14SetStartTime32ERj24PVMFMediaClock_TimeUnitsRb
T _ZThn92_N14PVMFMediaClock17AdjustClockTime32ERjS0_S0_24PVMFMediaClock_TimeUnitsRb
T _ZThn92_N14PVMFMediaClock4StopEv
T _ZThn92_N14PVMFMediaClock5PauseEv
T _ZThn92_N14PVMFMediaClock5ResetEv
T _ZThn92_N14PVMFMediaClock5StartEv
T _ZThn92_N14PVMFMediaClockD0Ev
T _ZThn92_N14PVMFMediaClockD1Ev
T _ZThn92_N15PVRefFileOutput14queryInterfaceERK8OsclUuidRP11PVInterface
T _ZThn92_N15PVRefFileOutput6addRefEv
T _ZThn92_N15PVRefFileOutput9removeRefEv
T _ZThn92_N16PvmiMIOFileInput11setObserverEP34PvmiConfigAndCapabilityCmdObserver
T _ZThn92_N16PvmiMIOFileInput13DeleteContextEPvRS0_
T _ZThn92_N16PvmiMIOFileInput13createContextEPvRS0_
T _ZThn92_N16PvmiMIOFileInput17getParametersSyncEPvPcRP9__PvmiKvpRiS0_
T _ZThn92_N16PvmiMIOFileInput17releaseParametersEPvP9__PvmiKvpi
T _ZThn92_N16PvmiMIOFileInput17setParametersSyncEPvP9__PvmiKvpiRS2_
T _ZThn92_N16PvmiMIOFileInput18setParametersAsyncEPvP9__PvmiKvpiRS2_S0_
T _ZThn92_N16PvmiMIOFileInput19getCapabilityMetricEPv
T _ZThn92_N16PvmiMIOFileInput20setContextParametersEPvRS0_P9__PvmiKvpi
T _ZThn92_N16PvmiMIOFileInput20verifyParametersSyncEPvP9__PvmiKvpi
T _ZThn92_N17PvmiMIOAviWavFile11setObserverEP34PvmiConfigAndCapabilityCmdObserver
T _ZThn92_N17PvmiMIOAviWavFile13DeleteContextEPvRS0_
T _ZThn92_N17PvmiMIOAviWavFile13createContextEPvRS0_
T _ZThn92_N17PvmiMIOAviWavFile17getParametersSyncEPvPcRP9__PvmiKvpRiS0_
T _ZThn92_N17PvmiMIOAviWavFile17releaseParametersEPvP9__PvmiKvpi
T _ZThn92_N17PvmiMIOAviWavFile17setParametersSyncEPvP9__PvmiKvpiRS2_
T _ZThn92_N17PvmiMIOAviWavFile18setParametersAsyncEPvP9__PvmiKvpiRS2_S0_
T _ZThn92_N17PvmiMIOAviWavFile19getCapabilityMetricEPv
T _ZThn92_N17PvmiMIOAviWavFile20setContextParametersEPvRS0_P9__PvmiKvpi
T _ZThn92_N17PvmiMIOAviWavFile20verifyParametersSyncEPvP9__PvmiKvpi
T _ZThn96_N14PVMFMediaClock14GetStartTime32ERjRb24PVMFMediaClock_TimeUnits
T _ZThn96_N14PVMFMediaClock16GetCurrentTime32ERjRb24PVMFMediaClock_TimeUnits
T _ZThn96_N14PVMFMediaClock16GetCurrentTime32ERjRb24PVMFMediaClock_TimeUnitsS0_
T _ZThn96_N14PVMFMediaClockD0Ev
T _ZThn96_N14PVMFMediaClockD1Ev
T _ZTv0_n12_N14PVMFMediaClockD0Ev
T _ZTv0_n12_N14PVMFMediaClockD1Ev
T _ZTv0_n12_N21PvmfSyncUtilDataQueueD0Ev
T _ZTv0_n12_N21PvmfSyncUtilDataQueueD1Ev
T _ZTv0_n16_N21PvmfSyncUtilDataQueue31NotificationsInterfaceDestroyedEv
U _ZdaPv
U _ZdlPv
U _Znaj
U _Znwj
U __aeabi_atexit
U __aeabi_d2iz
U __aeabi_d2uiz
U __aeabi_dadd
U __aeabi_dcmpge
U __aeabi_dcmpgt
U __aeabi_dcmplt
U __aeabi_ddiv
U __aeabi_dmul
U __aeabi_f2d
U __aeabi_f2iz
U __aeabi_f2uiz
U __aeabi_fadd
U __aeabi_fcmpeq
U __aeabi_fcmpge
U __aeabi_fcmpgt
U __aeabi_fcmple
U __aeabi_fdiv
U __aeabi_fmul
U __aeabi_fsub
U __aeabi_i2d
U __aeabi_i2f
U __aeabi_idiv
U __aeabi_idivmod
U __aeabi_lmul
U __aeabi_ui2d
U __aeabi_ui2f
U __aeabi_uidiv
U __aeabi_uidivmod
U __aeabi_uldivmod
U __aeabi_unwind_cpp_pr0
U __aeabi_unwind_cpp_pr1
A __bss_end__
A __bss_start
A __bss_start__
U __cxa_pure_virtual
A __data_start
U __dso_handle
A __end__
U __errno
A __exidx_end
A __exidx_start
U __sF
U __stack_chk_fail
U __stack_chk_guard
A _bss_end__
A _edata
A _end
A _stack
U _tolower_tab_
U abort
U accept
T add
U atoi
U bind
D bitno
R bitno_MR102
R bitno_MR122
R bitno_MR475
R bitno_MR515
R bitno_MR59
R bitno_MR67
R bitno_MR74
R bitno_MR795
R bitno_MRDTX
U bsd_signal
U calloc
U chdir
U close
U closedir
U connect
U ctime_r
R dgray
R dico1_lsf_3
R dico1_lsf_5
R dico2_lsf_3
R dico2_lsf_5
R dico3_lsf_3
R dico3_lsf_5
R dico4_lsf_5
R dico5_lsf_5
T div_s
U dlclose
U dlerror
U dlopen
U dlsym
T extract_h
T extract_l
U fclose
U fcntl
U fflush
U fopen
U fprintf
U fread
U free
U fseeko
U ftello
U fwrite
T gc_pred
T gc_pred_average_limited
T gc_pred_reset
T gc_pred_update
U getcwd
U gethostbyname
U getsockopt
U gettimeofday
T gmed_n
U gmtime_r
R gray
R grid
U inet_aton
U inet_ntoa
R inv_sqrt_tbl
U listen
R log2_tbl
U longjmp
U lseek64
T lsp
T lsp_exit
T lsp_init
R lsp_init_data
T lsp_reset
U malloc
R mean_lsf_3
R mean_lsf_5
U memcpy
U memmove
U memset
U mkdir
R mr515_3_lsf
R mr795_1_lsf
T mult_r
U nanosleep
R numCompressedBytes
R numOfBits
U opendir
R overflow_tbl
R past_rq_init
R ph_imp_low
R ph_imp_low_MR795
R ph_imp_mid
R ph_imp_mid_MR795
R pow2_tbl
R pred_fac_3
R prmno
R prmnofsf
U pthread_attr_init
U pthread_attr_setdetachstate
U pthread_attr_setstacksize
U pthread_cond_init
U pthread_cond_signal
U pthread_cond_timedwait
U pthread_cond_wait
U pthread_create
U pthread_equal
U pthread_getschedparam
U pthread_getspecific
U pthread_join
U pthread_key_create
U pthread_key_delete
U pthread_mutex_destroy
U pthread_mutex_init
U pthread_mutex_lock
U pthread_mutex_trylock
U pthread_mutex_unlock
U pthread_self
U pthread_setspecific
T pvLogger_GetLoggerObject
T pvLogger_IsActive
T pvLogger_LogMsgString
T pv_round
R qua_gain_code
R qua_gain_pitch
U read
U readdir
U recv
U recvfrom
U rename
D reorderBits
R reorderBits_MR102
R reorderBits_MR122
R reorderBits_MR475
R reorderBits_MR515
R reorderBits_MR59
R reorderBits_MR67
R reorderBits_MR74
R reorderBits_MR795
U rmdir
U select
U send
U sendto
U setjmp
U setsockopt
T shr
T shr_r
U shutdown
R slope
U snprintf
U socket
U sprintf
T sqrt_l_exp
R sqrt_l_tbl
U sscanf
R startPos
U stat
U statfs
U strcat
U strchr
U strcmp
U strftime
U strlen
U strncat
U strncmp
U strncpy
U strstr
T sub
R table
R table_gain_highrates
R table_gain_lowrates
U unlink
T vad1
T vad1_exit
T vad1_init
T vad1_reset
T vad_complex_detection_update
T vad_pitch_detection
T vad_tone_detection
T vad_tone_detection_update
U vsprintf
R window_160_80
R window_200_40
R window_232_8
