T PVGetInterface
T PVReleaseInterface
U _Z11oscl_strlenPKc
U _Z11oscl_strlenPKw
U _Z11oscl_strsetPccj
U _Z11oscl_strstrPKcS0_
U _Z11oscl_strstrPcPKc
U _Z12oscl_strncatPcPKcj
U _Z13oscl_CIstrcmpPKcS0_
U _Z14pv_mime_strcmpPKcS0_
U _Z17_oscl_default_newj
U _Z20GetTypeFromKeyStringPc
U _Z22pv_mime_string_compcntPc
U _Z23GetValTypeFromKeyStringPc
U _Z24GetAttrTypeFromKeyStringPc
U _Z27pv_mime_string_extract_typeiPcRS_
U _ZN11OSCL_String5writeEjc
U _ZN11OSCL_String5writeEjjPKc
U _ZN11OSCL_StringC1Ev
U _ZN11OSCL_StringD1Ev
U _ZN11OSCL_StringaSERKS_
U _ZN11OSCL_StringpLEPKc
U _ZN12OSCL_wString5writeEjjPKw
U _ZN12OSCL_wString5writeEjw
U _ZN12OSCL_wStringC1Ev
U _ZN12OSCL_wStringD1Ev
U _ZN13StrCSumPtrLen11setCheckSumEv
U _ZN14PVMFMediaClock39DestroyMediaClockNotificationsInterfaceEP36PVMFMediaClockNotificationsInterface
U _ZN14PVMFMediaClock41ConstructMediaClockNotificationsInterfaceERP36PVMFMediaClockNotificationsInterfaceR34PVMFMediaClockNotificationsObsBasej
U _ZN14PVMFSocketNode23GetMaxTCPRecvBufferSizeERj
U _ZN14PVMFSocketNode23SetMaxTCPRecvBufferSizeEj
U _ZN14PVMFSocketNode24SetMaxTCPRecvBufferCountEj
U _ZN15Oscl_FileServer15Oscl_DeleteFileEPKw
U _ZN15Oscl_FileServer5CloseEv
U _ZN15Oscl_FileServer7ConnectEv
U _ZN15Oscl_FileServerC1Ev
U _ZN15Oscl_FileServerD1Ev
U _ZN16OsclActiveObject13RunIfNotReadyEv
U _ZN16OsclActiveObject14AddToSchedulerEv
U _ZN16OsclActiveObject19RemoveFromSchedulerEv
U _ZN16OsclActiveObject6CancelEv
U _ZN16OsclActiveObject8DoCancelEv
U _ZN16OsclActiveObject8RunErrorEi
U _ZN16OsclActiveObjectC1EiPKc
U _ZN16OsclActiveObjectD1Ev
U _ZN16OsclErrorTrapImp4TrapEv
U _ZN16OsclErrorTrapImp6UnTrapEv
U _ZN16Oscl_Vector_Base10push_frontEPKv
U _ZN16Oscl_Vector_Base13assign_vectorERKS_
U _ZN16Oscl_Vector_Base5eraseEPv
U _ZN16Oscl_Vector_Base5eraseEPvS0_
U _ZN16Oscl_Vector_Base7destroyEv
U _ZN16Oscl_Vector_Base7reserveEj
U _ZN16Oscl_Vector_Base9constructEP22Oscl_Opaque_Type_Alloc
U _ZN16Oscl_Vector_Base9push_backEPKv
U _ZN17PVMFNodeInterface15ReportInfoEventERK14PVMFAsyncEvent
U _ZN17PVMFNodeInterface15ReportInfoEventEiPvP11PVInterface
U _ZN17PVMFNodeInterface16ReportErrorEventERK14PVMFAsyncEvent
U _ZN17PVMFNodeInterface16ReportErrorEventEiPvP11PVInterface
U _ZN17PVMFNodeInterface22ReportCmdCompleteEventEiRK11PVMFCmdResp
U _ZN17PVMFNodeInterface8SetStateE23TPVMFNodeInterfaceState
U _ZN21PVMFSocketNodeFactory20CreatePVMFSocketNodeEi
U _ZN21PVMFSocketNodeFactory20DeletePVMFSocketNodeEP17PVMFNodeInterface
U _ZN22PVMFRecognizerRegistry11OpenSessionERiR29PVMFRecognizerCommmandHandler
U _ZN22PVMFRecognizerRegistry12CloseSessionEi
U _ZN22PVMFRecognizerRegistry13CancelCommandEiiPv
U _ZN22PVMFRecognizerRegistry9RecognizeEiR35PVMFCPMPluginAccessInterfaceFactoryP11Oscl_VectorI15OSCL_HeapStringI16OsclMemAllocatorES4_ERS2_I20PVMFRecognizerResultS4_EPvj
T _ZN24PVMFFileBufferDataStream22NotifyDownloadCompleteEv
T _ZN24PVMFFileBufferDataStream27GetReadDataStreamFactoryPtrEv
T _ZN24PVMFFileBufferDataStream28GetWriteDataStreamFactoryPtrEv
T _ZN24PVMFFileBufferDataStreamC1ER12OSCL_wString
T _ZN24PVMFFileBufferDataStreamC2ER12OSCL_wString
T _ZN24PVMFFileBufferDataStreamD1Ev
T _ZN24PVMFFileBufferDataStreamD2Ev
T _ZN26PVMFMemoryBufferDataStream22NotifyDownloadCompleteEv
T _ZN26PVMFMemoryBufferDataStream27GetReadDataStreamFactoryPtrEv
T _ZN26PVMFMemoryBufferDataStream28GetWriteDataStreamFactoryPtrEv
T _ZN26PVMFMemoryBufferDataStreamC1ER14PVMFFormatTypej
T _ZN26PVMFMemoryBufferDataStreamC2ER14PVMFFormatTypej
T _ZN26PVMFMemoryBufferDataStreamD1Ev
T _ZN26PVMFMemoryBufferDataStreamD2Ev
U _ZN29PVMFProtocolEngineNodeFactory28CreatePVMFProtocolEngineNodeEi
U _ZN29PVMFProtocolEngineNodeFactory28DeletePVMFProtocolEngineNodeEP17PVMFNodeInterface
T _ZN30PVMFDownloadManagerNodeFactory29CreatePVMFDownloadManagerNodeEi
T _ZN30PVMFDownloadManagerNodeFactory29DeletePVMFDownloadManagerNodeEP17PVMFNodeInterface
T _ZN32PVMFFileBufferReadDataStreamImpl11OpenSessionERi18PvmiDataStreamModeb
T _ZN32PVMFFileBufferReadDataStreamImpl12CloseSessionEi
T _ZN32PVMFFileBufferReadDataStreamImpl14queryInterfaceERK8OsclUuidRP11PVInterface
T _ZN32PVMFFileBufferReadDataStreamImpl17QueryReadCapacityEiRj
T _ZN32PVMFFileBufferReadDataStreamImpl18CancelNotificationEiR22PvmiDataStreamObserveriPv
T _ZN32PVMFFileBufferReadDataStreamImpl18QueryWriteCapacityEiRj
T _ZN32PVMFFileBufferReadDataStreamImpl22CancelNotificationSyncEi
T _ZN32PVMFFileBufferReadDataStreamImpl22NotifyDownloadCompleteEv
T _ZN32PVMFFileBufferReadDataStreamImpl25GetCurrentPointerPositionEi
T _ZN32PVMFFileBufferReadDataStreamImpl27QueryRandomAccessCapabilityEv
T _ZN32PVMFFileBufferReadDataStreamImpl31RequestReadCapacityNotificationEiR22PvmiDataStreamObserverjPv
T _ZN32PVMFFileBufferReadDataStreamImpl32RequestWriteCapacityNotificationEiR22PvmiDataStreamObserverjPv
T _ZN32PVMFFileBufferReadDataStreamImpl4ReadEiPhjRj
T _ZN32PVMFFileBufferReadDataStreamImpl4SeekEii22PvmiDataStreamSeekType
T _ZN32PVMFFileBufferReadDataStreamImpl5FlushEi
T _ZN32PVMFFileBufferReadDataStreamImpl5WriteEiP21OsclRefCounterMemFragRj
T _ZN32PVMFFileBufferReadDataStreamImpl5WriteEiPhjRj
T _ZN32PVMFFileBufferReadDataStreamImplC1EP33PVMFFileBufferWriteDataStreamImplR12OSCL_wString
T _ZN32PVMFFileBufferReadDataStreamImplC2EP33PVMFFileBufferWriteDataStreamImplR12OSCL_wString
T _ZN32PVMFFileBufferReadDataStreamImplD0Ev
T _ZN32PVMFFileBufferReadDataStreamImplD1Ev
T _ZN32PVMFFileBufferReadDataStreamImplD2Ev
T _ZN33PVMFFileBufferWriteDataStreamImpl11OpenSessionERi18PvmiDataStreamModeb
T _ZN33PVMFFileBufferWriteDataStreamImpl12CloseSessionEi
T _ZN33PVMFFileBufferWriteDataStreamImpl14queryInterfaceERK8OsclUuidRP11PVInterface
T _ZN33PVMFFileBufferWriteDataStreamImpl17QueryReadCapacityEiRj
T _ZN33PVMFFileBufferWriteDataStreamImpl18CancelNotificationEiR22PvmiDataStreamObserveriPv
T _ZN33PVMFFileBufferWriteDataStreamImpl18QueryWriteCapacityEiRj
T _ZN33PVMFFileBufferWriteDataStreamImpl22CancelNotificationSyncEi
T _ZN33PVMFFileBufferWriteDataStreamImpl22NotifyDownloadCompleteEv
T _ZN33PVMFFileBufferWriteDataStreamImpl25GetCurrentPointerPositionEi
T _ZN33PVMFFileBufferWriteDataStreamImpl27QueryRandomAccessCapabilityEv
T _ZN33PVMFFileBufferWriteDataStreamImpl31RequestReadCapacityNotificationEiR22PvmiDataStreamObserverjPv
T _ZN33PVMFFileBufferWriteDataStreamImpl32RequestWriteCapacityNotificationEiR22PvmiDataStreamObserverjPv
T _ZN33PVMFFileBufferWriteDataStreamImpl4ReadEiPhjRj
T _ZN33PVMFFileBufferWriteDataStreamImpl4SeekEii22PvmiDataStreamSeekType
T _ZN33PVMFFileBufferWriteDataStreamImpl5FlushEi
T _ZN33PVMFFileBufferWriteDataStreamImpl5WriteEiP21OsclRefCounterMemFragRj
T _ZN33PVMFFileBufferWriteDataStreamImpl5WriteEiPhjRj
T _ZN33PVMFFileBufferWriteDataStreamImplC1ER12OSCL_wString
T _ZN33PVMFFileBufferWriteDataStreamImplC2ER12OSCL_wString
T _ZN33PVMFFileBufferWriteDataStreamImplD0Ev
T _ZN33PVMFFileBufferWriteDataStreamImplD1Ev
T _ZN33PVMFFileBufferWriteDataStreamImplD2Ev
T _ZN34PVMFMemoryBufferReadDataStreamImpl11OpenSessionERi18PvmiDataStreamModeb
T _ZN34PVMFMemoryBufferReadDataStreamImpl12CloseSessionEi
T _ZN34PVMFMemoryBufferReadDataStreamImpl14MakePersistentEij
T _ZN34PVMFMemoryBufferReadDataStreamImpl14queryInterfaceERK8OsclUuidRP11PVInterface
T _ZN34PVMFMemoryBufferReadDataStreamImpl16GetContentLengthEv
T _ZN34PVMFMemoryBufferReadDataStreamImpl17QueryReadCapacityEiRj
T _ZN34PVMFMemoryBufferReadDataStreamImpl18CancelNotificationEiR22PvmiDataStreamObserveriPv
T _ZN34PVMFMemoryBufferReadDataStreamImpl18QueryWriteCapacityEiRj
T _ZN34PVMFMemoryBufferReadDataStreamImpl19GetCurrentByteRangeERjS0_
T _ZN34PVMFMemoryBufferReadDataStreamImpl22CancelNotificationSyncEi
T _ZN34PVMFMemoryBufferReadDataStreamImpl22NotifyDownloadCompleteEv
T _ZN34PVMFMemoryBufferReadDataStreamImpl22QueryBufferingCapacityEv
T _ZN34PVMFMemoryBufferReadDataStreamImpl24SetSourceRequestObserverER29PvmiDataStreamRequestObserver
T _ZN34PVMFMemoryBufferReadDataStreamImpl25GetCurrentPointerPositionEi
T _ZN34PVMFMemoryBufferReadDataStreamImpl27QueryRandomAccessCapabilityEv
T _ZN34PVMFMemoryBufferReadDataStreamImpl31RequestReadCapacityNotificationEiR22PvmiDataStreamObserverjPv
T _ZN34PVMFMemoryBufferReadDataStreamImpl32RequestWriteCapacityNotificationEiR22PvmiDataStreamObserverjPv
T _ZN34PVMFMemoryBufferReadDataStreamImpl4ReadEiPhjRj
T _ZN34PVMFMemoryBufferReadDataStreamImpl4SeekEii22PvmiDataStreamSeekType
T _ZN34PVMFMemoryBufferReadDataStreamImpl5FlushEi
T _ZN34PVMFMemoryBufferReadDataStreamImpl5WriteEiP21OsclRefCounterMemFragRj
T _ZN34PVMFMemoryBufferReadDataStreamImpl5WriteEiPhjRj
T _ZN34PVMFMemoryBufferReadDataStreamImplC1EP35PVMFMemoryBufferWriteDataStreamImplP35PVMFMemoryBufferDataStreamTempCacheP35PVMFMemoryBufferDataStreamPermCache
T _ZN34PVMFMemoryBufferReadDataStreamImplC2EP35PVMFMemoryBufferWriteDataStreamImplP35PVMFMemoryBufferDataStreamTempCacheP35PVMFMemoryBufferDataStreamPermCache
T _ZN34PVMFMemoryBufferReadDataStreamImplD0Ev
T _ZN34PVMFMemoryBufferReadDataStreamImplD1Ev
T _ZN34PVMFMemoryBufferReadDataStreamImplD2Ev
T _ZN35PVMFMemoryBufferWriteDataStreamImpl10RepositionEij18MBDSRepositionMode
T _ZN35PVMFMemoryBufferWriteDataStreamImpl11ManageCacheEv
T _ZN35PVMFMemoryBufferWriteDataStreamImpl11OpenSessionERi18PvmiDataStreamModeb
T _ZN35PVMFMemoryBufferWriteDataStreamImpl12CloseSessionEi
T _ZN35PVMFMemoryBufferWriteDataStreamImpl13TrimTempCacheE17MBDSCacheTrimMode
T _ZN35PVMFMemoryBufferWriteDataStreamImpl14MakePersistentEij
T _ZN35PVMFMemoryBufferWriteDataStreamImpl14queryInterfaceERK8OsclUuidRP11PVInterface
T _ZN35PVMFMemoryBufferWriteDataStreamImpl15GetStreamFormatEv
T _ZN35PVMFMemoryBufferWriteDataStreamImpl15OpenReadSessionERi18PvmiDataStreamModebP34PVMFMemoryBufferReadDataStreamImpl
T _ZN35PVMFMemoryBufferWriteDataStreamImpl15SetStreamFormatE16MBDSStreamFormat
T _ZN35PVMFMemoryBufferWriteDataStreamImpl16GetContentLengthEv
T _ZN35PVMFMemoryBufferWriteDataStreamImpl16SetContentLengthEj
T _ZN35PVMFMemoryBufferWriteDataStreamImpl17QueryReadCapacityEiRj
T _ZN35PVMFMemoryBufferWriteDataStreamImpl18CancelNotificationEiR22PvmiDataStreamObserveriPv
T _ZN35PVMFMemoryBufferWriteDataStreamImpl18QueryWriteCapacityEiRj
T _ZN35PVMFMemoryBufferWriteDataStreamImpl20GetTempCacheCapacityEv
T _ZN35PVMFMemoryBufferWriteDataStreamImpl20SetTempCacheCapacityEj
T _ZN35PVMFMemoryBufferWriteDataStreamImpl22CancelNotificationSyncEi
T _ZN35PVMFMemoryBufferWriteDataStreamImpl22NotifyDownloadCompleteEv
T _ZN35PVMFMemoryBufferWriteDataStreamImpl22QueryBufferingCapacityEv
T _ZN35PVMFMemoryBufferWriteDataStreamImpl22SetReadPointerPositionEij
T _ZN35PVMFMemoryBufferWriteDataStreamImpl22SourceRequestCompletedERK11PVMFCmdResp
T _ZN35PVMFMemoryBufferWriteDataStreamImpl23GetPermCachePersistenceERjS0_
T _ZN35PVMFMemoryBufferWriteDataStreamImpl24SetSourceRequestObserverER29PvmiDataStreamRequestObserver
T _ZN35PVMFMemoryBufferWriteDataStreamImpl25GetCurrentPointerPositionEi
T _ZN35PVMFMemoryBufferWriteDataStreamImpl27QueryRandomAccessCapabilityEv
T _ZN35PVMFMemoryBufferWriteDataStreamImpl27SetReadPointerCacheLocationEib
T _ZN35PVMFMemoryBufferWriteDataStreamImpl31ManageReadCapacityNotificationsEv
T _ZN35PVMFMemoryBufferWriteDataStreamImpl31RequestReadCapacityNotificationEiR22PvmiDataStreamObserverjPv
T _ZN35PVMFMemoryBufferWriteDataStreamImpl32RequestWriteCapacityNotificationEiR22PvmiDataStreamObserverjPv
T _ZN35PVMFMemoryBufferWriteDataStreamImpl37UpdateReadPointersAfterMakePersistentEv
T _ZN35PVMFMemoryBufferWriteDataStreamImpl4ReadEiPhjRj
T _ZN35PVMFMemoryBufferWriteDataStreamImpl4SeekEii22PvmiDataStreamSeekType
T _ZN35PVMFMemoryBufferWriteDataStreamImpl5FlushEi
T _ZN35PVMFMemoryBufferWriteDataStreamImpl5WriteEiP21OsclRefCounterMemFragRj
T _ZN35PVMFMemoryBufferWriteDataStreamImpl5WriteEiPhjRj
T _ZN35PVMFMemoryBufferWriteDataStreamImplC1EP35PVMFMemoryBufferDataStreamTempCacheP35PVMFMemoryBufferDataStreamPermCache16MBDSStreamFormatj
T _ZN35PVMFMemoryBufferWriteDataStreamImplC2EP35PVMFMemoryBufferDataStreamTempCacheP35PVMFMemoryBufferDataStreamPermCache16MBDSStreamFormatj
T _ZN35PVMFMemoryBufferWriteDataStreamImplD0Ev
T _ZN35PVMFMemoryBufferWriteDataStreamImplD1Ev
T _ZN35PVMFMemoryBufferWriteDataStreamImplD2Ev
T _ZN41PVMFMemoryBufferReadDataStreamFactoryImpl21SetWriteDataStreamPtrEP11PVInterface
T _ZN41PVMFMemoryBufferReadDataStreamFactoryImpl22NotifyDownloadCompleteEv
T _ZN41PVMFMemoryBufferReadDataStreamFactoryImpl25QueryAccessInterfaceUUIDsER11Oscl_VectorI8OsclUuid16OsclMemAllocatorE
T _ZN41PVMFMemoryBufferReadDataStreamFactoryImpl34CreatePVMFCPMPluginAccessInterfaceER8OsclUuid
T _ZN41PVMFMemoryBufferReadDataStreamFactoryImpl35DestroyPVMFCPMPluginAccessInterfaceER8OsclUuidP11PVInterface
T _ZN41PVMFMemoryBufferReadDataStreamFactoryImplC1EP35PVMFMemoryBufferDataStreamTempCacheP35PVMFMemoryBufferDataStreamPermCache
T _ZN41PVMFMemoryBufferReadDataStreamFactoryImplC2EP35PVMFMemoryBufferDataStreamTempCacheP35PVMFMemoryBufferDataStreamPermCache
T _ZN42PVMFMemoryBufferWriteDataStreamFactoryImpl22NotifyDownloadCompleteEv
T _ZN42PVMFMemoryBufferWriteDataStreamFactoryImpl25QueryAccessInterfaceUUIDsER11Oscl_VectorI8OsclUuid16OsclMemAllocatorE
T _ZN42PVMFMemoryBufferWriteDataStreamFactoryImpl34CreatePVMFCPMPluginAccessInterfaceER8OsclUuid
T _ZN42PVMFMemoryBufferWriteDataStreamFactoryImpl35DestroyPVMFCPMPluginAccessInterfaceER8OsclUuidP11PVInterface
T _ZN42PVMFMemoryBufferWriteDataStreamFactoryImplC1EP35PVMFMemoryBufferDataStreamTempCacheP35PVMFMemoryBufferDataStreamPermCache16MBDSStreamFormatj
T _ZN42PVMFMemoryBufferWriteDataStreamFactoryImplC2EP35PVMFMemoryBufferDataStreamTempCacheP35PVMFMemoryBufferDataStreamPermCache16MBDSStreamFormatj
T _ZN42PVMFMemoryBufferWriteDataStreamFactoryImplD0Ev
T _ZN42PVMFMemoryBufferWriteDataStreamFactoryImplD1Ev
T _ZN42PVMFMemoryBufferWriteDataStreamFactoryImplD2Ev
T _ZN49PVMFFileBufferDataStreamReadDataStreamFactoryImpl21SetWriteDataStreamPtrEP11PVInterface
T _ZN49PVMFFileBufferDataStreamReadDataStreamFactoryImpl22NotifyDownloadCompleteEv
T _ZN49PVMFFileBufferDataStreamReadDataStreamFactoryImpl25QueryAccessInterfaceUUIDsER11Oscl_VectorI8OsclUuid16OsclMemAllocatorE
T _ZN49PVMFFileBufferDataStreamReadDataStreamFactoryImpl34CreatePVMFCPMPluginAccessInterfaceER8OsclUuid
T _ZN49PVMFFileBufferDataStreamReadDataStreamFactoryImpl35DestroyPVMFCPMPluginAccessInterfaceER8OsclUuidP11PVInterface
T _ZN49PVMFFileBufferDataStreamReadDataStreamFactoryImplC1ER12OSCL_wString
T _ZN49PVMFFileBufferDataStreamReadDataStreamFactoryImplC2ER12OSCL_wString
T _ZN50PVMFFileBufferDataStreamWriteDataStreamFactoryImpl25QueryAccessInterfaceUUIDsER11Oscl_VectorI8OsclUuid16OsclMemAllocatorE
T _ZN50PVMFFileBufferDataStreamWriteDataStreamFactoryImpl34CreatePVMFCPMPluginAccessInterfaceER8OsclUuid
T _ZN50PVMFFileBufferDataStreamWriteDataStreamFactoryImpl35DestroyPVMFCPMPluginAccessInterfaceER8OsclUuidP11PVInterface
T _ZN50PVMFFileBufferDataStreamWriteDataStreamFactoryImplC1ER12OSCL_wString
T _ZN50PVMFFileBufferDataStreamWriteDataStreamFactoryImplC2ER12OSCL_wString
T _ZN50PVMFFileBufferDataStreamWriteDataStreamFactoryImplD0Ev
T _ZN50PVMFFileBufferDataStreamWriteDataStreamFactoryImplD1Ev
T _ZN50PVMFFileBufferDataStreamWriteDataStreamFactoryImplD2Ev
U _ZN8CHeapRep10append_repERPS_R13Oscl_DefAllocPKcj
U _ZN8CHeapRep10append_repERPS_R13Oscl_DefAllocPKwj
U _ZN8CHeapRep10remove_refER13Oscl_DefAlloc
U _ZN8CHeapRep6assignERPS_S0_R13Oscl_DefAlloc
U _ZN8CHeapRep7set_repERPS_R13Oscl_DefAllocPKcj
U _ZN8CHeapRep7set_repERPS_R13Oscl_DefAllocPKwj
U _ZN8PVLogger15GetLoggerObjectEPKc
U _ZN9CStackRep3setEPKcj
U _ZN9CStackRep6appendEPKcj
U _ZN9OsclError11LeaveIfNullEPv
U _ZN9OsclError5LeaveEi
U _ZN9Oscl_File13SetFileHandleEP14OsclFileHandle
U _ZN9Oscl_File14SetPVCacheSizeEj
U _ZN9Oscl_File4OpenEPKwjR15Oscl_FileServer
U _ZN9Oscl_File4ReadEPvjj
U _ZN9Oscl_File4SeekElNS_9seek_typeE
U _ZN9Oscl_File4SizeEv
U _ZN9Oscl_File4TellEv
U _ZN9Oscl_File5CloseEv
U _ZN9Oscl_File5FlushEv
U _ZN9Oscl_File5WriteEPKvjj
U _ZN9Oscl_FileC1EjP14OsclFileHandle
U _ZN9Oscl_FileC1Ev
U _ZNK11OSCL_String11is_writableEv
U _ZNK11OSCL_String4hashEv
U _ZNK11OSCL_String4readEj
U _ZNK11OSCL_StringeqEPKc
U _ZNK12OSCL_wString11is_writableEv
U _ZNK12OSCL_wString4hashEv
U _ZNK12OSCL_wString4readEj
U _ZNK12PVActiveBase7IsAddedEv
U _ZNK14PVMFFormatType12isCompressedEv
D _ZTT23PVMFDownloadManagerNode
V _ZTT27PVMFMediaClockStateObserver
V _ZTV10Oscl_Alloc
V _ZTV11Oscl_TAllocI15OSCL_HeapStringI16OsclMemAllocatorES1_E
V _ZTV11Oscl_TAllocI8OsclUuid16OsclMemAllocatorE
V _ZTV11Oscl_VectorI14PVMFFormatType16OsclMemAllocatorE
V _ZTV11Oscl_VectorI15PVMFNodeSession16OsclMemAllocatorE
V _ZTV11Oscl_VectorI20PVMFRecognizerResult16OsclMemAllocatorE
V _ZTV11Oscl_VectorI30PVMFDownloadManagerNodeCommand16OsclMemAllocatorE
V _ZTV11Oscl_VectorI8OsclUuid16OsclMemAllocatorE
V _ZTV11Oscl_VectorIN23PVMFDownloadManagerNode7CmdElemE16OsclMemAllocatorE
V _ZTV11Oscl_VectorIP32PVMFFileBufferReadDataStreamImpl16OsclMemAllocatorE
V _ZTV11Oscl_VectorIP34PVMFMemoryBufferReadDataStreamImpl16OsclMemAllocatorE
V _ZTV11Oscl_VectorIPN35PVMFMemoryBufferDataStreamPermCache18MBDSPermCacheEntryE16OsclMemAllocatorE
V _ZTV11Oscl_VectorIPN35PVMFMemoryBufferDataStreamTempCache18MBDSTempCacheEntryE16OsclMemAllocatorE
V _ZTV11PVInterface
U _ZTV11PVMFCmdResp
V _ZTV12Oscl_Dealloc
V _ZTV13Oscl_DefAlloc
V _ZTV13PVMFEventBase
V _ZTV13_OsclHeapBase
U _ZTV14PVMFAsyncEvent
V _ZTV14PVMFFormatType
V _ZTV15OSCL_HeapStringI16OsclMemAllocatorE
V _ZTV16OSCL_StackStringILj32EE
V _ZTV16OSCL_StackStringILj8EE
V _ZTV16OSCL_wHeapStringI16OsclMemAllocatorE
V _ZTV16OsclMemAllocator
V _ZTV16Oscl_Vector_Base
U _ZTV17PVMFNodeInterface
V _ZTV19OsclDestructDealloc
V _ZTV22DownloadNodesInterface
V _ZTV22Oscl_Opaque_Type_Alloc
V _ZTV22PVMFGenericNodeCommandI16OsclMemAllocatorE
D _ZTV23PVMFDownloadManagerNode
V _ZTV23PVMFPortActivityHandler
V _ZTV23PvmiCapabilityAndConfig
V _ZTV25PVMFNodeCmdStatusObserver
V _ZTV25PVMFNodeInfoEventObserver
V _ZTV26NodeSharedLibraryInterface
V _ZTV26OsclSharedLibraryInterface
V _ZTV26PVMFNodeErrorEventObserver
V _ZTV27PVMFMediaClockStateObserver
V _ZTV27PVMFSourceContextDataCommon
V _ZTV27PVMIDataStreamSyncInterface
V _ZTV29PVMFCPMPluginLicenseInterface
V _ZTV29PVMFRecognizerCommmandHandler
V _ZTV30PVMFDownloadManagerNodeCommand
V _ZTV30PVMFMetadataExtensionInterface
D _ZTV32PVMFFileBufferReadDataStreamImpl
D _ZTV33PVMFFileBufferWriteDataStreamImpl
V _ZTV34PVMFDataStreamReadCapacityObserver
V _ZTV34PVMFMediaClockNotificationsObsBase
D _ZTV34PVMFMemoryBufferReadDataStreamImpl
V _ZTV35PVMFCPMPluginAccessInterfaceFactory
D _ZTV35PVMFDownloadManagerSubNodeContainer
D _ZTV35PVMFMemoryBufferWriteDataStreamImpl
V _ZTV36PVMFTrackSelectionExtensionInterface
D _ZTV38PVMFDownloadManagerRecognizerContainer
V _ZTV38PvmfDataSourcePlaybackControlInterface
V _ZTV39PVMFDataSourceNodeRegistryInitInterface
V _ZTV39PVMFDownloadManagerSubNodeContainerBase
D _ZTV41PVMFMemoryBufferReadDataStreamFactoryImpl
D _ZTV42PVMFMemoryBufferWriteDataStreamFactoryImpl
V _ZTV46PVMFDataSourceInitializationExtensionInterface
D _ZTV49PVMFFileBufferDataStreamReadDataStreamFactoryImpl
D _ZTV50PVMFFileBufferDataStreamWriteDataStreamFactoryImpl
V _ZTV8HeapBase
U _ZThn4_N16OsclActiveObject8DoCancelEv
U _ZThn4_N16OsclActiveObject8RunErrorEi
T _ZThn4_N50PVMFFileBufferDataStreamWriteDataStreamFactoryImplD0Ev
T _ZThn4_N50PVMFFileBufferDataStreamWriteDataStreamFactoryImplD1Ev
U _ZdlPv
U _Znwj
U __aeabi_uidiv
U __aeabi_unwind_cpp_pr0
A __bss_end__
A __bss_start
A __bss_start__
U __cxa_pure_virtual
A __data_start
A __end__
A __exidx_end
A __exidx_start
U __stack_chk_fail
U __stack_chk_guard
A _bss_end__
A _edata
A _end
A _stack
U free
U malloc
U memcpy
U memset
U setjmp
