T PVCleanUpVideoDecoder
T PVDecodeVideoFrame
T PVGetDecBitstreamMode
T PVGetInterface
T PVGetVideoDimensions
T PVInitVideoDecoder
T PVReleaseInterface
T PVSetPostProcType
T PVSetReferenceYUV
U _Z15GetQueueNumElemP9QueueType
U _Z17_oscl_default_newj
U _Z17iGetM4VConfigInfoPhiPiS0_S0_S0_
T _Z23H263OmxComponentFactoryPPvS_S_PcRS_S_Rm
T _Z24Mpeg4OmxComponentFactoryPPvS_S_PcRS_S_Rm
T _Z26H263OmxComponentDestructorPvRS_S_Rm
T _Z27Mpeg4OmxComponentDestructorPvRS_S_Rm
U _Z7DeQueueP9QueueType
U _ZN16OmxComponentBase17ReturnInputBufferEP20OMX_BUFFERHEADERTYPEP17ComponentPortType
U _ZN16OmxComponentBase18BufferMgmtFunctionEv
U _ZN16OmxComponentBase18ReturnOutputBufferEP20OMX_BUFFERHEADERTYPEP17ComponentPortType
U _ZN16OmxComponentBase20DestroyBaseComponentEv
U _ZN16OmxComponentBase21BaseComponentGetStateEPvP13OMX_STATETYPE
U _ZN16OmxComponentBase22BaseComponentGetConfigEPv13OMX_INDEXTYPES0_
U _ZN16OmxComponentBase22BaseComponentSetConfigEPv13OMX_INDEXTYPES0_
U _ZN16OmxComponentBase22BaseComponentUseBufferEPvPP20OMX_BUFFERHEADERTYPEmS0_mPh
U _ZN16OmxComponentBase22ConstructBaseComponentEPv
U _ZN16OmxComponentBase23BaseComponentFreeBufferEPvmP20OMX_BUFFERHEADERTYPE
U _ZN16OmxComponentBase23BufferMgmtWithoutMarkerEv
U _ZN16OmxComponentBase24BaseComponentSendCommandEPv15OMX_COMMANDTYPEmS0_
U _ZN16OmxComponentBase25BaseComponentGetParameterEPv13OMX_INDEXTYPES0_
U _ZN16OmxComponentBase25BaseComponentSetCallbacksEPvP16OMX_CALLBACKTYPES0_
U _ZN16OmxComponentBase25BaseComponentSetParameterEPv13OMX_INDEXTYPES0_
U _ZN16OmxComponentBase26BaseComponentProxyGetStateEPvP13OMX_STATETYPE
U _ZN16OmxComponentBase26ParseFullAVCFramesIntoNALsEP20OMX_BUFFERHEADERTYPE
U _ZN16OmxComponentBase27BaseComponentAllocateBufferEPvPP20OMX_BUFFERHEADERTYPEmS0_m
U _ZN16OmxComponentBase27BaseComponentFillThisBufferEPvP20OMX_BUFFERHEADERTYPE
U _ZN16OmxComponentBase27BaseComponentProxyGetConfigEPv13OMX_INDEXTYPES0_
U _ZN16OmxComponentBase27BaseComponentProxySetConfigEPv13OMX_INDEXTYPES0_
U _ZN16OmxComponentBase27BaseComponentProxyUseBufferEPvPP20OMX_BUFFERHEADERTYPEmS0_mPh
U _ZN16OmxComponentBase28BaseComponentEmptyThisBufferEPvP20OMX_BUFFERHEADERTYPE
U _ZN16OmxComponentBase28BaseComponentProxyFreeBufferEPvmP20OMX_BUFFERHEADERTYPE
U _ZN16OmxComponentBase29BaseComponentProxySendCommandEPv15OMX_COMMANDTYPEmS0_
U _ZN16OmxComponentBase30BaseComponentGetExtensionIndexEPvPcP13OMX_INDEXTYPE
U _ZN16OmxComponentBase30BaseComponentProxyGetParameterEPv13OMX_INDEXTYPES0_
U _ZN16OmxComponentBase30BaseComponentProxySetParameterEPv13OMX_INDEXTYPES0_
U _ZN16OmxComponentBase32BaseComponentProxyAllocateBufferEPvPP20OMX_BUFFERHEADERTYPEmS0_m
U _ZN16OmxComponentBase32BaseComponentProxyFillThisBufferEPvP20OMX_BUFFERHEADERTYPE
U _ZN16OmxComponentBase32TempInputBufferMgmtWithoutMarkerEv
U _ZN16OmxComponentBase33BaseComponentProxyEmptyThisBufferEPvP20OMX_BUFFERHEADERTYPE
U _ZN16OmxComponentBase35BaseComponentProxyGetExtensionIndexEPvPcP13OMX_INDEXTYPE
U _ZN16OmxComponentBase3RunEv
U _ZN16OmxComponentBase9SetConfigEPv13OMX_INDEXTYPES0_
U _ZN16OmxComponentBase9SetHeaderEPvm
U _ZN16OsclActiveObject13RunIfNotReadyEv
U _ZN16OsclActiveObject14AddToSchedulerEv
U _ZN16OsclActiveObject19RemoveFromSchedulerEv
U _ZN16OsclActiveObject8DoCancelEv
U _ZN16OsclActiveObject8RunErrorEi
U _ZN16OsclActiveObjectD1Ev
U _ZN17OmxComponentVideo12GetParameterEPv13OMX_INDEXTYPES0_
U _ZN17OmxComponentVideo12SetParameterEPv13OMX_INDEXTYPES0_
U _ZN17OmxComponentVideoC1Ev
T _ZN19PVM4VDecoderFactory18CreatePVM4VDecoderEv
T _ZN19PVM4VDecoderFactory18DeletePVM4VDecoderEP23PVVideoDecoderInterface
U _ZN9OsclError5LeaveEi
U _ZNK12PVActiveBase7IsAddedEv
D _ZTV12PVM4VDecoder
D _ZTV14OpenmaxMpeg4AO
U _ZTV16OmxComponentBase
V _ZTV23PVVideoDecoderInterface
V _ZTV25OmxSharedLibraryInterface
V _ZTV26OsclSharedLibraryInterface
V _ZTV34Mpeg4H263OmxSharedLibraryInterface
U _ZThn4_N16OmxComponentBase3RunEv
U _ZThn4_N16OsclActiveObject8DoCancelEv
U _ZThn4_N16OsclActiveObject8RunErrorEi
U _ZdlPv
U _Znwj
U __aeabi_idiv
U __aeabi_unwind_cpp_pr0
U __android_log_print
A __bss_end__
A __bss_start
A __bss_start__
U __cxa_pure_virtual
A __data_start
A __end__
A __exidx_end
A __exidx_start
U __stack_chk_fail
U __stack_chk_guard
A _bss_end__
A _edata
A _end
A _stack
U free
U malloc
U memcmp
U memcpy
U memset
U realloc
