T PVGetInterface
T PVReleaseInterface
U _Z11oscl_strcmpPKcS0_
U _Z11oscl_strlenPKc
U _Z11oscl_strlenPKw
U _Z11oscl_strsetPccj
U _Z11oscl_strstrPKcS0_
U _Z12oscl_strncatPcPKcj
U _Z12oscl_strncmpPKcS0_j
U _Z12oscl_strncpyPcPKcj
U _Z13oscl_snprintfPcjPKcz
U _Z14pv_mime_strcmpPKcS0_
U _Z17_oscl_default_newj
U _Z17iGetAVCConfigInfoPhiPiS0_S0_S0_S0_S0_
U _Z17iGetM4VConfigInfoPhiPiS0_S0_S0_
U _Z18GetActualAacConfigPhS_PiS_Pj
U _Z18iDecodeShortHeaderP13mp4StreamTypePiS1_S1_S1_
U _Z20GetTypeFromKeyStringPc
U _Z21convertToPVMFMediaMsgR13OsclSharedPtrI12PVMFMediaMsgERS_I13PVMFMediaDataE
U _Z22pv_mime_string_compcntPc
U _Z23GetValTypeFromKeyStringPc
U _Z24GetAttrTypeFromKeyStringPc
U _Z24convertToPVMFMediaCmdMsgR13OsclSharedPtrI12PVMFMediaMsgERS_I12PVMFMediaCmdE
U _Z27pv_mime_string_extract_typeiPcRS_
U _Z7PV_atoiPKcciRj
U _Z8oscl_absi
U _ZN10IMpeg4File11readMP4FileER12OSCL_wStringP35PVMFCPMPluginAccessInterfaceFactoryP14OsclFileHandlejP15Oscl_FileServer
U _ZN10IMpeg4File15GetMetaDataSizeEP35PVMFCPMPluginAccessInterfaceFactoryRbRj
U _ZN10IMpeg4File20DestroyMP4FileObjectEPS_
U _ZN11OSCL_String5writeEjc
U _ZN11OSCL_String5writeEjjPKc
U _ZN11OSCL_StringC1Ev
U _ZN11OSCL_StringD1Ev
U _ZN11OSCL_StringpLEPKc
U _ZN11OSCL_StringpLEc
U _ZN12OSCL_wString5writeEjjPKw
U _ZN12OSCL_wString5writeEjw
U _ZN12OSCL_wStringC1Ev
U _ZN12OSCL_wStringD1Ev
U _ZN12PVMFMediaCmd14createMediaCmdEP13Oscl_DefAlloc
U _ZN13PVMFMediaData15createMediaDataER13OsclSharedPtrI17PVMFMediaDataImplEP13Oscl_DefAlloc
U _ZN13PVMFMediaData15createMediaDataER13OsclSharedPtrI17PVMFMediaDataImplEPK18PVMFMediaMsgHeaderP13Oscl_DefAlloc
U _ZN13PVMFMediaData15getNumFragmentsEv
U _ZN13PVMFMediaData16getMediaDataImplER13OsclSharedPtrI17PVMFMediaDataImplE
U _ZN13PVMFMediaData16getMediaFragmentEjR21OsclRefCounterMemFrag
U _ZN13PVMFMediaData16getMessageHeaderEv
U _ZN13StrCSumPtrLen11setCheckSumEv
U _ZN14PVMFCPMFactory26CreateContentPolicyManagerER21PVMFCPMStatusObserver
U _ZN14PVMFCPMFactory27DestroyContentPolicyManagerEP7PVMFCPM
U _ZN14PVMFMediaClock39DestroyMediaClockNotificationsInterfaceEP36PVMFMediaClockNotificationsInterface
U _ZN14PVMFMediaClock41ConstructMediaClockNotificationsInterfaceERP36PVMFMediaClockNotificationsInterfaceR34PVMFMediaClockNotificationsObsBasej
U _ZN15OSCL_FastString3setEPcj
U _ZN15OSCL_FastStringC1Ev
U _ZN15OSCL_FastStringD1Ev
U _ZN15OsclTimerObject13RunIfNotReadyEj
U _ZN15OsclTimerObject14AddToSchedulerEv
U _ZN15OsclTimerObject19RemoveFromSchedulerEv
U _ZN15OsclTimerObject6CancelEv
U _ZN15OsclTimerObject8DoCancelEv
U _ZN15OsclTimerObject8RunErrorEi
U _ZN15OsclTimerObjectC1EiPKc
U _ZN15OsclTimerObjectD1Ev
U _ZN15Oscl_FileServer5CloseEv
U _ZN15Oscl_FileServer7ConnectEv
U _ZN15Oscl_FileServerC1Ev
U _ZN15Oscl_FileServerD1Ev
U _ZN15TextSampleEntry10getBoxLeftEv
U _ZN15TextSampleEntry10getEndCharEv
U _ZN15TextSampleEntry11getBoxRightEv
U _ZN15TextSampleEntry11getfontSizeEv
U _ZN15TextSampleEntry12getBoxBottomEv
U _ZN15TextSampleEntry12getStartCharEv
U _ZN15TextSampleEntry15getFontListSizeEv
U _ZN15TextSampleEntry15getFontRecordAtEt
U _ZN15TextSampleEntry17getFontStyleFlagsEv
U _ZN15TextSampleEntry17getTextColourRGBAEv
U _ZN15TextSampleEntry9getBoxTopEv
U _ZN15TextSampleEntry9getFontIDEv
U _ZN16OsclErrorTrapImp4TrapEv
U _ZN16OsclErrorTrapImp6UnTrapEv
U _ZN16Oscl_Int64_Utils18get_uint64_lower32ERKy
U _ZN16Oscl_Vector_Base10push_frontEPKv
U _ZN16Oscl_Vector_Base13assign_vectorERKS_
U _ZN16Oscl_Vector_Base5eraseEPv
U _ZN16Oscl_Vector_Base5eraseEPvS0_
U _ZN16Oscl_Vector_Base7destroyEv
U _ZN16Oscl_Vector_Base7reserveEj
U _ZN16Oscl_Vector_Base9constructEP22Oscl_Opaque_Type_Alloc
U _ZN16Oscl_Vector_Base9push_backEPKv
U _ZN16PvmfPortBaseImpl10DisconnectEv
U _ZN16PvmfPortBaseImpl11PeerConnectEP17PVMFPortInterface
U _ZN16PvmfPortBaseImpl11ResumeInputEv
U _ZN16PvmfPortBaseImpl12PortActivityE20PVMFPortActivityType
U _ZN16PvmfPortBaseImpl12SuspendInputEv
U _ZN16PvmfPortBaseImpl14ClearMsgQueuesEv
U _ZN16PvmfPortBaseImpl14PeerDisconnectEv
U _ZN16PvmfPortBaseImpl14ReadyToReceiveEv
U _ZN16PvmfPortBaseImpl14isIncomingFullEv
U _ZN16PvmfPortBaseImpl14isOutgoingFullEv
U _ZN16PvmfPortBaseImpl16QueueOutgoingMsgE13OsclSharedPtrI12PVMFMediaMsgE
U _ZN16PvmfPortBaseImpl18DequeueIncomingMsgER13OsclSharedPtrI12PVMFMediaMsgE
U _ZN16PvmfPortBaseImpl19IsConnectedPortBusyEv
U _ZN16PvmfPortBaseImpl19IsOutgoingQueueBusyEv
U _ZN16PvmfPortBaseImpl20EvaluateIncomingBusyEv
U _ZN16PvmfPortBaseImpl20EvaluateOutgoingBusyEv
U _ZN16PvmfPortBaseImpl20IncomingMsgQueueSizeEv
U _ZN16PvmfPortBaseImpl20OutgoingMsgQueueSizeEv
U _ZN16PvmfPortBaseImpl4SendEv
U _ZN16PvmfPortBaseImpl7ReceiveE13OsclSharedPtrI12PVMFMediaMsgE
U _ZN16PvmfPortBaseImplC1EiP23PVMFPortActivityHandlerPKc
U _ZN16PvmfPortBaseImplC1EiP23PVMFPortActivityHandlerjjjjjjPKc
U _ZN16PvmfPortBaseImplD1Ev
U _ZN17PVMFNodeInterface15ReportInfoEventERK14PVMFAsyncEvent
U _ZN17PVMFNodeInterface15ReportInfoEventEiPvP11PVInterface
U _ZN17PVMFNodeInterface16ReportErrorEventERK14PVMFAsyncEvent
U _ZN17PVMFNodeInterface16ReportErrorEventEiPvP11PVInterface
U _ZN17PVMFNodeInterface22ReportCmdCompleteEventEiRK11PVMFCmdResp
U _ZN17PVMFNodeInterface8SetStateE23TPVMFNodeInterfaceState
U _ZN18PVMFCreateKVPUtils20CreateKVPForKSVValueER9__PvmiKvpPKcPvPc
U _ZN18PVMFCreateKVPUtils21CreateKVPForBoolValueER9__PvmiKvpPKcRbPc
U _ZN18PVMFCreateKVPUtils23CreateKVPForUInt32ValueER9__PvmiKvpPKcRjPc
U _ZN18PVMFCreateKVPUtils24CreateKVPForWStringValueER9__PvmiKvpPKcR12OSCL_wStringPcjj
U _ZN18PVMFCreateKVPUtils27CreateKVPForCharStringValueER9__PvmiKvpPKcS3_Pcjj
U _ZN19MediaClockConverter12update_clockEj
U _ZN19MediaClockConverter25set_clock_other_timescaleEjj
U _ZN21OsclSingletonRegistry18lockAndGetInstanceEjRi
U _ZN21OsclSingletonRegistry25registerInstanceAndUnlockEPvjRi
U _ZN21PVMFSimpleMediaBufferC1EPvjP14OsclRefCounter
U _ZN23PVMFDurationInfoMessageC1Eji8OsclUuid
U _ZN25PVMFBasicErrorInfoMessageC1EiR8OsclUuidP29PVMFErrorInfoMessageInterface
T _ZN26PVMFMP4FFParserNodeFactory25CreatePVMFMP4FFParserNodeEi
T _ZN26PVMFMP4FFParserNodeFactory25DeletePVMFMP4FFParserNodeEP17PVMFNodeInterface
U _ZN29OsclMemPoolResizableAllocator9removeRefEv
U _ZN29OsclMemPoolResizableAllocatorC1EjjjP13Oscl_DefAlloc
U _ZN30OsclMemPoolFixedChunkAllocator9removeRefEv
U _ZN30OsclMemPoolFixedChunkAllocatorC1EjjP13Oscl_DefAlloc
U _ZN30PVMFMemPoolFixedChunkAllocatorC1EPKcjjP13Oscl_DefAlloc
U _ZN3GAUC1Ev
U _ZN3GAUD1Ev
U _ZN8CHeapRep10append_repERPS_R13Oscl_DefAllocPKcj
U _ZN8CHeapRep10append_repERPS_R13Oscl_DefAllocPKwj
U _ZN8CHeapRep10remove_refER13Oscl_DefAlloc
U _ZN8CHeapRep6assignERPS_S0_R13Oscl_DefAlloc
U _ZN8CHeapRep7set_repERPS_R13Oscl_DefAllocPKcj
U _ZN8CHeapRep7set_repERPS_R13Oscl_DefAllocPKwj
U _ZN8PVLogger15GetLoggerObjectEPKc
U _ZN9CStackRep3setEPKcj
U _ZN9CStackRep6appendEPKcj
U _ZN9OsclError11LeaveIfNullEPv
U _ZN9OsclError5LeaveEi
U _ZN9Oscl_File14SetPVCacheSizeEj
U _ZN9Oscl_File16SetLoggingEnableEb
U _ZN9Oscl_File19SetNativeAccessModeEj
U _ZN9Oscl_File22SetAsyncReadBufferSizeEj
U _ZN9Oscl_File28SetSummaryStatsLoggingEnableEb
U _ZN9Oscl_File4OpenEPKcjR15Oscl_FileServer
U _ZN9Oscl_File5CloseEv
U _ZN9Oscl_File5FlushEv
U _ZN9Oscl_File5WriteEPKvjj
U _ZN9Oscl_FileC1Ev
U _ZN9Oscl_FileD1Ev
U _ZNK11OSCL_String11is_writableEv
U _ZNK11OSCL_String4hashEv
U _ZNK11OSCL_String4readEj
U _ZNK12OSCL_wString11is_writableEv
U _ZNK12OSCL_wString4hashEv
U _ZNK12OSCL_wString4readEj
U _ZNK12PVActiveBase7IsAddedEv
U _ZNK14PVMFFormatType12isCompressedEv
U _ZNK14PVMFFormatType6isTextEv
U _ZNK14PVMFFormatType7isAudioEv
U _ZNK14PVMFFormatType7isVideoEv
U _ZNK15OsclTimerObject6StatusEv
U _ZNK16PvmfPortBaseImpl10GetPortTagEv
U _ZNK19MediaClockConverter16get_converted_tsEj
D _ZTT19PVMFMP4FFParserNode
V _ZTT27PVMFMediaClockStateObserver
V _ZTV10Oscl_Alloc
V _ZTV11Oscl_TAllocI15OSCL_HeapStringI16OsclMemAllocatorES1_E
V _ZTV11Oscl_TAllocI18BinaryFileAppender16OsclMemAllocatorE
V _ZTV11Oscl_TAllocI8OsclUuid16OsclMemAllocatorE
V _ZTV11Oscl_TAllocIN9OsclTimerI16OsclMemAllocatorE11_TimerEntryES1_E
V _ZTV11Oscl_VectorI13PVMFTrackInfo16OsclMemAllocatorE
V _ZTV11Oscl_VectorI14PVMFFormatType16OsclMemAllocatorE
V _ZTV11Oscl_VectorI15OSCL_HeapStringI16OsclMemAllocatorES1_E
V _ZTV11Oscl_VectorI15PVMFNodeSession16OsclMemAllocatorE
V _ZTV11Oscl_VectorI16PVMFPortActivity16OsclMemAllocatorE
V _ZTV11Oscl_VectorI21OsclRefCounterMemFrag16OsclMemAllocatorE
V _ZTV11Oscl_VectorI23VideoTrackDimensionInfo16OsclMemAllocatorE
V _ZTV11Oscl_VectorI24PVMP4FFNodeTrackPortInfo16OsclMemAllocatorE
V _ZTV11Oscl_VectorI26PVMFMP4FFParserNodeCommand16OsclMemAllocatorE
V _ZTV11Oscl_VectorI27PVMP4FFNodeTrackOMA2DRMInfo16OsclMemAllocatorE
V _ZTV11Oscl_VectorIPN9OsclTimerI16OsclMemAllocatorE11_TimerEntryES1_E
V _ZTV11Oscl_VectorIi16OsclMemAllocatorE
V _ZTV11PVInterface
U _ZTV11PVMFCmdResp
V _ZTV12Oscl_Dealloc
V _ZTV12PVMFPortIter
V _ZTV13CallbackTimerI16OsclMemAllocatorE
V _ZTV13OsclSharedPtrI12PVMFMediaCmdE
V _ZTV13OsclSharedPtrI12PVMFMediaMsgE
V _ZTV13OsclSharedPtrI13PVMFMediaDataE
V _ZTV13OsclSharedPtrI14PVMFMediaClockE
V _ZTV13OsclSharedPtrI16PVLoggerAppenderE
V _ZTV13OsclSharedPtrI17PVMFMediaDataImplE
V _ZTV13OsclSharedPtrI24PVMFTimedTextSampleEntryE
V _ZTV13Oscl_DefAlloc
V _ZTV13PVMFEventBase
V _ZTV13PVMFTrackInfo
V _ZTV13_OsclHeapBase
V _ZTV14OsclRefCounter
U _ZTV14PVMFAsyncEvent
V _ZTV14PVMFFormatType
V _ZTV15OSCL_HeapStringI16OsclMemAllocatorE
V _ZTV16OSCL_StackStringILj20EE
V _ZTV16OSCL_StackStringILj256EE
V _ZTV16OSCL_StackStringILj512EE
V _ZTV16OSCL_wHeapStringI16OsclMemAllocatorE
V _ZTV16OsclMemAllocator
V _ZTV16OsclRefCounterDA
V _ZTV16OsclRefCounterSAI27OsclMemAllocDestructDeallocIhEE
V _ZTV16OsclRefCounterSAI33PVMFTimedTextSampleEntryCleanupSAE
V _ZTV16OsclRefCounterSAI38PVMFMP4ParserNodeLoggerDestructDeallocE
V _ZTV16Oscl_Vector_Base
V _ZTV16PVLoggerAppender
V _ZTV17Mp4NodesInterface
V _ZTV17OsclTimerObserver
V _ZTV17PVMFMP4FFPortIter
V _ZTV17PVMFMediaDataImpl
U _ZTV17PVMFNodeInterface
V _ZTV18BinaryFileAppender
V _ZTV18PVMFMediaFragGroupI16OsclMemAllocatorE
V _ZTV19OsclDestructDealloc
V _ZTV19PVMFLocalDataSource
D _ZTV19PVMFMP4FFParserNode
V _ZTV21CallbackTimerObserver
V _ZTV21OsclExclusiveArrayPtrIjE
V _ZTV21PVMFCPMStatusObserver
V _ZTV21PVMFSourceContextData
V _ZTV22Oscl_Opaque_Type_Alloc
V _ZTV22PVMFGenericNodeCommandI16OsclMemAllocatorE
D _ZTV22PVMFMP4FFParserOutPort
V _ZTV22PvmiDataStreamObserver
V _ZTV23PVMFPortActivityHandler
V _ZTV23PvmiCapabilityAndConfig
V _ZTV23VideoTrackDimensionInfo
V _ZTV24OsclAllocDestructDealloc
V _ZTV24PVMFSourceContextDataPVR
V _ZTV24PVMP4FFNodeTrackPortInfo
V _ZTV26NodeSharedLibraryInterface
V _ZTV26OsclSharedLibraryInterface
V _ZTV26PVMFMP4FFParserNodeCommand
V _ZTV27OsclMemAllocDestructDeallocIhE
V _ZTV27PVMFMediaClockStateObserver
V _ZTV27PVMFSourceContextDataCommon
V _ZTV27PVMFTimedTextMediaDataAlloc
V _ZTV27PVMIDatastreamuserInterface
V _ZTV27PVMP4FFNodeTrackOMA2DRMInfo
V _ZTV29PVMFCPMPluginLicenseInterface
V _ZTV29PVMFTimedTextMediaDataCleanup
V _ZTV30PVMFMetadataExtensionInterface
V _ZTV30PVMFSourceContextDataStreaming
V _ZTV31PVMFMediaFragGroupCombinedAllocI16OsclMemAllocatorE
V _ZTV32PVMFResizableSimpleMediaMsgAlloc
V _ZTV32PVMFSourceContextDataDownloadPVX
V _ZTV33PVMFSourceContextDataDownloadHTTP
V _ZTV33PVMFSourceContextDataPacketSource
V _ZTV33PVMFTimedTextSampleEntryCleanupDA
V _ZTV33PVMFTimedTextSampleEntryCleanupSA
V _ZTV34PVMFMediaClockNotificationsObsBase
V _ZTV36PVMFTrackLevelInfoExtensionInterface
V _ZTV36PVMFTrackSelectionExtensionInterface
V _ZTV37OsclMemPoolResizableAllocatorObserver
U _ZTV37PvmiCapabilityAndConfigPortFormatImpl
V _ZTV38OsclMemPoolFixedChunkAllocatorObserver
V _ZTV38OsclMemPoolResizableAllocatorCleanupDA
V _ZTV38PVMFFormatProgDownloadSupportInterface
V _ZTV38PVMFMP4ParserNodeLoggerDestructDealloc
V _ZTV38PvmfDataSourcePlaybackControlInterface
V _ZTV39PvmfDataSourceDirectionControlInterface
V _ZTV46PVMFDataSourceInitializationExtensionInterface
V _ZTV8HeapBase
V _ZTV9OsclTimerI16OsclMemAllocatorE
U _ZThn4_N15OsclTimerObject8DoCancelEv
U _ZThn4_N15OsclTimerObject8RunErrorEi
U _ZdaPv
U _ZdlPv
U _Znaj
U _Znwj
U __aeabi_idiv
U __aeabi_idivmod
U __aeabi_uidiv
U __aeabi_unwind_cpp_pr0
U __aeabi_unwind_cpp_pr1
A __bss_end__
A __bss_start
A __bss_start__
U __cxa_pure_virtual
A __data_start
A __end__
A __exidx_end
A __exidx_start
U __stack_chk_fail
U __stack_chk_guard
A _bss_end__
A _edata
A _end
A _stack
U free
U gettimeofday
U malloc
U memcpy
U memset
U setjmp
