U _Z11oscl_strcmpPKcS0_
U _Z11oscl_strlenPKc
U _Z11oscl_strlenPKw
U _Z11oscl_strsetPccj
U _Z12oscl_strncatPcPKcj
U _Z12oscl_strncmpPKcS0_j
U _Z12oscl_strncpyPcPKcj
U _Z12oscl_strncpyPwPKwj
U _Z14OMX_MasterInitv
U _Z14pv_mime_strcmpPKcS0_
U _Z16OMX_MasterDeinitv
U _Z17_oscl_default_newj
T _Z19InitializeForThreadv
U _Z20GetTypeFromKeyStringPc
T _Z21UninitializeForThreadv
U _Z22convertToPVMFMediaDataR13OsclSharedPtrI13PVMFMediaDataERS_I12PVMFMediaMsgE
U _Z22pv_mime_string_compcntPc
U _Z23GetValTypeFromKeyStringPc
U _Z24GetAttrTypeFromKeyStringPc
U _Z27pv_mime_string_extract_typeiPcRS_
U _Z7PV_atoiPKccRj
U _ZN10OsclThread6CreateEPFPvS0_EiS0_16OsclThread_Stateb
U _ZN10OsclThreadC1Ev
U _ZN10OsclThreadD1Ev
U _ZN11OSCL_String5writeEjc
U _ZN11OSCL_String5writeEjjPKc
U _ZN11OSCL_StringC1Ev
U _ZN11OSCL_StringD1Ev
U _ZN11OSCL_StringaSEPKc
U _ZN11OSCL_StringaSERKS_
U _ZN12OSCL_wString5writeEjjPKw
U _ZN12OSCL_wString5writeEjw
U _ZN12OSCL_wStringC1Ev
U _ZN12OSCL_wStringD1Ev
U _ZN12OSCL_wStringpLEPKw
U _ZN12OSCL_wStringpLERKS_
U _ZN12OSCL_wStringpLEw
U _ZN13OsclErrorTrap4InitEP13Oscl_DefAlloc
U _ZN13OsclErrorTrap7CleanupEv
U _ZN13OsclScheduler4InitEPKcP13Oscl_DefAlloci
U _ZN13OsclScheduler7CleanupEv
U _ZN13OsclSemaphore4WaitEv
U _ZN13OsclSemaphore5CloseEv
U _ZN13OsclSemaphore6CreateEj
U _ZN13OsclSemaphore6SignalEv
U _ZN13OsclSemaphoreC1Ev
U _ZN13OsclSemaphoreD1Ev
U _ZN13PVMFMediaData13getErrorsFlagEv
U _ZN13PVMFMediaData13getMarkerInfoEv
U _ZN13PVMFMediaData15getNumFragmentsEv
U _ZN13PVMFMediaData16getMediaFragmentEjR21OsclRefCounterMemFrag
U _ZN13StrCSumPtrLen11setCheckSumEv
T _ZN14PVAuthorEngine10GetSDKInfoER9PVSDKInfoPKv
T _ZN14PVAuthorEngine11AddDataSinkERK17PVMFNodeInterfacePKvS4_
T _ZN14PVAuthorEngine11GetLogLevelEPKcRiPKv
T _ZN14PVAuthorEngine11SetLogLevelEPKcibPKv
T _ZN14PVAuthorEngine13AddDataSourceERK17PVMFNodeInterfacePKv
T _ZN14PVAuthorEngine13AddMediaTrackERK17PVMFNodeInterfaceRK11OSCL_StringPKvRP11PVInterfaceS7_
T _ZN14PVAuthorEngine13AddMediaTrackERK17PVMFNodeInterfaceRK8OsclUuidPKvRP11PVInterfaceS7_
T _ZN14PVAuthorEngine14QueryInterfaceERK8OsclUuidRP11PVInterfacePKv
T _ZN14PVAuthorEngine14RemoveDataSinkERK17PVMFNodeInterfacePKv
T _ZN14PVAuthorEngine14SelectComposerERK11OSCL_StringRP11PVInterfacePKv
T _ZN14PVAuthorEngine14SelectComposerERK8OsclUuidRP11PVInterfacePKv
T _ZN14PVAuthorEngine14SetLogAppenderEPKcR16PVLoggerAppenderPKv
T _ZN14PVAuthorEngine16GetPVAuthorStateEv
T _ZN14PVAuthorEngine16GetSDKModuleInfoERiPKv
T _ZN14PVAuthorEngine16RemoveDataSourceERK17PVMFNodeInterfacePKv
T _ZN14PVAuthorEngine17CancelAllCommandsEPKv
T _ZN14PVAuthorEngine17RemoveLogAppenderEPKcR16PVLoggerAppenderPKv
T _ZN14PVAuthorEngine4InitEPKv
T _ZN14PVAuthorEngine4OpenEPKv
T _ZN14PVAuthorEngine4StopEPKv
T _ZN14PVAuthorEngine5CloseEPKv
T _ZN14PVAuthorEngine5PauseEPKv
T _ZN14PVAuthorEngine5ResetEPKv
T _ZN14PVAuthorEngine5StartEPKv
T _ZN14PVAuthorEngine6ResumeEPKv
T _ZN14PVAuthorEngine9QueryUUIDERK11OSCL_StringR11Oscl_VectorI8OsclUuid16OsclMemAllocatorEbPKv
U _ZN15OsclTimerObject13RunIfNotReadyEj
U _ZN15OsclTimerObject14AddToSchedulerEv
U _ZN15OsclTimerObject19RemoveFromSchedulerEv
U _ZN15OsclTimerObject6CancelEv
U _ZN15OsclTimerObject8DoCancelEv
U _ZN15OsclTimerObject8RunErrorEi
U _ZN15OsclTimerObjectC1EiPKc
U _ZN15OsclTimerObjectD1Ev
U _ZN15Oscl_FileServer15Oscl_DeleteFileEPKw
U _ZN15Oscl_FileServer5CloseEv
U _ZN15Oscl_FileServer7ConnectEv
U _ZN15Oscl_FileServerC1Ev
U _ZN15Oscl_FileServerD1Ev
U _ZN16OsclActiveObject11PendForExecEv
U _ZN16OsclActiveObject12PendCompleteEi
U _ZN16OsclActiveObject13RunIfNotReadyEv
U _ZN16OsclActiveObject14AddToSchedulerEv
U _ZN16OsclActiveObject19RemoveFromSchedulerEv
U _ZN16OsclActiveObject6CancelEv
U _ZN16OsclActiveObject8DoCancelEv
U _ZN16OsclActiveObject8RunErrorEi
U _ZN16OsclActiveObjectC1EiPKc
U _ZN16OsclActiveObjectD1Ev
U _ZN16OsclErrorTrapImp4TrapEv
U _ZN16OsclErrorTrapImp6UnTrapEv
U _ZN16Oscl_Vector_Base10push_frontEPKv
U _ZN16Oscl_Vector_Base13assign_vectorERKS_
U _ZN16Oscl_Vector_Base5eraseEPv
U _ZN16Oscl_Vector_Base5eraseEPvS0_
U _ZN16Oscl_Vector_Base7destroyEv
U _ZN16Oscl_Vector_Base7reserveEj
U _ZN16Oscl_Vector_Base9constructEP22Oscl_Opaque_Type_Alloc
U _ZN16Oscl_Vector_Base9constructEP22Oscl_Opaque_Type_AllocRKS_
U _ZN16Oscl_Vector_Base9constructEP22Oscl_Opaque_Type_Allocj
U _ZN16Oscl_Vector_Base9push_backEPKv
U _ZN16PvmfPortBaseImpl10DisconnectEv
U _ZN16PvmfPortBaseImpl11ResumeInputEv
U _ZN16PvmfPortBaseImpl12PortActivityE20PVMFPortActivityType
U _ZN16PvmfPortBaseImpl12SuspendInputEv
U _ZN16PvmfPortBaseImpl14ClearMsgQueuesEv
U _ZN16PvmfPortBaseImpl14PeerDisconnectEv
U _ZN16PvmfPortBaseImpl14ReadyToReceiveEv
U _ZN16PvmfPortBaseImpl14isIncomingFullEv
U _ZN16PvmfPortBaseImpl14isOutgoingFullEv
U _ZN16PvmfPortBaseImpl16QueueOutgoingMsgE13OsclSharedPtrI12PVMFMediaMsgE
U _ZN16PvmfPortBaseImpl18DequeueIncomingMsgER13OsclSharedPtrI12PVMFMediaMsgE
U _ZN16PvmfPortBaseImpl19IsConnectedPortBusyEv
U _ZN16PvmfPortBaseImpl19IsOutgoingQueueBusyEv
U _ZN16PvmfPortBaseImpl20EvaluateIncomingBusyEv
U _ZN16PvmfPortBaseImpl20EvaluateOutgoingBusyEv
U _ZN16PvmfPortBaseImpl20IncomingMsgQueueSizeEv
U _ZN16PvmfPortBaseImpl20OutgoingMsgQueueSizeEv
U _ZN16PvmfPortBaseImpl4SendEv
U _ZN16PvmfPortBaseImpl7ReceiveE13OsclSharedPtrI12PVMFMediaMsgE
U _ZN16PvmfPortBaseImplC1EiP23PVMFPortActivityHandlerjjjjjjPKc
U _ZN16PvmfPortBaseImplD1Ev
U _ZN17OsclExecScheduler7CurrentEv
T _ZN17PVA_FF_IMpeg4File13createMP4FileEiRK12OSCL_wStringS2_PvjS2_j
T _ZN17PVA_FF_IMpeg4File13createMP4FileEijP9Oscl_Filej
T _ZN17PVA_FF_IMpeg4File20DestroyMP4FileObjectEPS_
U _ZN17PVMFNodeInterface15ReportInfoEventERK14PVMFAsyncEvent
U _ZN17PVMFNodeInterface15ReportInfoEventEiPvP11PVInterface
U _ZN17PVMFNodeInterface16ReportErrorEventERK14PVMFAsyncEvent
U _ZN17PVMFNodeInterface16ReportErrorEventEiPvP11PVInterface
U _ZN17PVMFNodeInterface22ReportCmdCompleteEventEiRK11PVMFCmdResp
U _ZN17PVMFNodeInterface8SetStateE23TPVMFNodeInterfaceState
U _ZN19MediaClockConverter13set_timescaleEj
U _ZN19MediaClockConverter25set_clock_other_timescaleEjj
T _ZN19PVMp4FFComposerNode10SetKeyWordERK12OSCL_wStringRK11OSCL_String
T _ZN19PVMp4FFComposerNode10SetVersionERK12OSCL_wStringRK11OSCL_String
T _ZN19PVMp4FFComposerNode11ReleasePortEiR17PVMFPortInterfacePKv
T _ZN19PVMp4FFComposerNode11RequestPortEiiPK11OSCL_StringPKv
T _ZN19PVMp4FFComposerNode11ThreadLogonEv
T _ZN19PVMp4FFComposerNode12SetAlbumInfoERK12OSCL_wStringRK11OSCL_String
T _ZN19PVMp4FFComposerNode12SetCopyrightERK12OSCL_wStringRK11OSCL_String
T _ZN19PVMp4FFComposerNode12SetPerformerERK12OSCL_wStringRK11OSCL_String
T _ZN19PVMp4FFComposerNode12ThreadLogoffEv
T _ZN19PVMp4FFComposerNode13CancelCommandEiiPKv
T _ZN19PVMp4FFComposerNode13GetCapabilityER18PVMFNodeCapability
T _ZN19PVMp4FFComposerNode14QueryInterfaceEiRK8OsclUuidRP11PVInterfacePKv
T _ZN19PVMp4FFComposerNode14SetDescriptionERK12OSCL_wStringRK11OSCL_String
T _ZN19PVMp4FFComposerNode14SetMaxDurationEbj
T _ZN19PVMp4FFComposerNode14SetMaxFileSizeEbj
T _ZN19PVMp4FFComposerNode14queryInterfaceERK8OsclUuidRP11PVInterface
T _ZN19PVMp4FFComposerNode15ConvertLangCodeERK11OSCL_String
T _ZN19PVMp4FFComposerNode15SetCreationDateERK12OSCL_wString
T _ZN19PVMp4FFComposerNode15SetLocationInfoER31PvmfAssetInfo3GPPLocationStruct
T _ZN19PVMp4FFComposerNode16SetAuthoringModeE23PVMp4FFCN_AuthoringMode
T _ZN19PVMp4FFComposerNode16SetRecordingYearEt
T _ZN19PVMp4FFComposerNode17CancelAllCommandsEiPKv
T _ZN19PVMp4FFComposerNode17SetClassificationERK12OSCL_wStringjtRK11OSCL_String
T _ZN19PVMp4FFComposerNode17SetOutputFileNameERK12OSCL_wString
T _ZN19PVMp4FFComposerNode17SetTrackReferenceERK17PVMFPortInterfaceS2_
T _ZN19PVMp4FFComposerNode20GetMaxDurationConfigERbRj
T _ZN19PVMp4FFComposerNode20GetMaxFileSizeConfigERbRj
T _ZN19PVMp4FFComposerNode20SetCodecSpecificInfoERK17PVMFPortInterfacePhi
T _ZN19PVMp4FFComposerNode20SetRealTimeAuthoringEb
T _ZN19PVMp4FFComposerNode23SetOutputFileDescriptorEPK14OsclFileHandle
T _ZN19PVMp4FFComposerNode24SetPresentationTimescaleEj
T _ZN19PVMp4FFComposerNode25SetDurationProgressReportEbj
T _ZN19PVMp4FFComposerNode25SetFileSizeProgressReportEbj
T _ZN19PVMp4FFComposerNode31GetDurationProgressReportConfigERbRj
T _ZN19PVMp4FFComposerNode31GetFileSizeProgressReportConfigERbRj
T _ZN19PVMp4FFComposerNode4InitEiPKv
T _ZN19PVMp4FFComposerNode4StopEiPKv
T _ZN19PVMp4FFComposerNode5FlushEiPKv
T _ZN19PVMp4FFComposerNode5PauseEiPKv
T _ZN19PVMp4FFComposerNode5ResetEiPKv
T _ZN19PVMp4FFComposerNode5StartEiPKv
T _ZN19PVMp4FFComposerNode6addRefEv
T _ZN19PVMp4FFComposerNode7PrepareEiPKv
T _ZN19PVMp4FFComposerNode8GetPortsEPK14PVMFPortFilter
T _ZN19PVMp4FFComposerNode8SetGenreERK12OSCL_wStringRK11OSCL_String
T _ZN19PVMp4FFComposerNode8SetTitleERK12OSCL_wStringRK11OSCL_String
T _ZN19PVMp4FFComposerNode9QueryUUIDEiRK11OSCL_StringR11Oscl_VectorI8OsclUuid16OsclMemAllocatorEbPKv
T _ZN19PVMp4FFComposerNode9SetAuthorERK12OSCL_wStringRK11OSCL_String
T _ZN19PVMp4FFComposerNode9SetRatingERK12OSCL_wStringRK11OSCL_String
T _ZN19PVMp4FFComposerNode9removeRefEv
T _ZN19PVMp4FFComposerPort11PeerConnectEP17PVMFPortInterface
T _ZN19PVMp4FFComposerPort11setObserverEP34PvmiConfigAndCapabilityCmdObserver
T _ZN19PVMp4FFComposerPort13DeleteContextEPvRS0_
T _ZN19PVMp4FFComposerPort13createContextEPvRS0_
T _ZN19PVMp4FFComposerPort14QueryInterfaceERK8OsclUuidRPv
T _ZN19PVMp4FFComposerPort17getParametersSyncEPvPcRP9__PvmiKvpRiS0_
T _ZN19PVMp4FFComposerPort17releaseParametersEPvP9__PvmiKvpi
T _ZN19PVMp4FFComposerPort17setParametersSyncEPvP9__PvmiKvpiRS2_
T _ZN19PVMp4FFComposerPort18setParametersAsyncEPvP9__PvmiKvpiRS2_S0_
T _ZN19PVMp4FFComposerPort19getCapabilityMetricEPv
T _ZN19PVMp4FFComposerPort20setContextParametersEPvRS0_P9__PvmiKvpi
T _ZN19PVMp4FFComposerPort20verifyParametersSyncEPvP9__PvmiKvpi
T _ZN19PVMp4FFComposerPort7ConnectEP17PVMFPortInterface
U _ZN20ThreadSafeCallbackAO12ReceiveEventEPv
U _ZN20ThreadSafeCallbackAO7DeQueueERi
U _ZN20ThreadSafeCallbackAOC1EPvjPKci
U _ZN20ThreadSafeCallbackAOD1Ev
T _ZN21PVAuthorEngineFactory12CreateAuthorEP23PVCommandStatusObserverP20PVErrorEventObserverP28PVInformationalEventObserver
T _ZN21PVAuthorEngineFactory12DeleteAuthorEP23PVAuthorEngineInterface
U _ZN21PVMFOMXEncNodeFactory20CreatePVMFOMXEncNodeEi
U _ZN21PVMFOMXEncNodeFactory20DeletePVMFOMXEncNodeEP17PVMFNodeInterface
T _ZN22PVA_FF_TextSampleEntryC1Ev
T _ZN22PVA_FF_TextSampleEntryC2Ev
T _ZN22PVA_FF_TextSampleEntryD0Ev
T _ZN22PVA_FF_TextSampleEntryD1Ev
T _ZN22PVA_FF_TextSampleEntryD2Ev
T _ZN23PVAuthorEngineInterface10GetSDKInfoER9PVSDKInfo
U _ZN23PVFileOutputNodeFactory16CreateFileOutputEi
U _ZN23PVFileOutputNodeFactory16DeleteFileOutputEP17PVMFNodeInterface
U _ZN25PvmfMediaInputNodeFactory6CreateEP14PvmiMIOControl
U _ZN25PvmfMediaInputNodeFactory6DeleteEP17PVMFNodeInterface
T _ZN26PVMp4FFComposerNodeFactory19CreateMp4FFComposerEi
T _ZN26PVMp4FFComposerNodeFactory19DeleteMp4FFComposerEP17PVMFNodeInterface
U _ZN27OsclExecSchedulerCommonBase13StopSchedulerEv
U _ZN27OsclExecSchedulerCommonBase14StartSchedulerEP13OsclSemaphore
U _ZN30OsclMemPoolFixedChunkAllocatorC1EjjP13Oscl_DefAlloc
U _ZN7OsclMem4InitEv
U _ZN7OsclMem7CleanupEv
U _ZN7android10VectorImpl13finish_vectorEv
U _ZN7android10VectorImpl19reservedVectorImpl1Ev
U _ZN7android10VectorImpl19reservedVectorImpl2Ev
U _ZN7android10VectorImpl19reservedVectorImpl3Ev
U _ZN7android10VectorImpl19reservedVectorImpl4Ev
U _ZN7android10VectorImpl19reservedVectorImpl5Ev
U _ZN7android10VectorImpl19reservedVectorImpl6Ev
U _ZN7android10VectorImpl19reservedVectorImpl7Ev
U _ZN7android10VectorImpl19reservedVectorImpl8Ev
U _ZN7android11AudioRecord4readEPvj
U _ZN7android11AudioRecord4stopEv
U _ZN7android11AudioRecord5startEv
U _ZN7android11AudioRecordC1EijiiijPFviPvS1_ES1_i
U _ZN7android11AudioRecordD1Ev
T _ZN7android12AuthorDriver10handleInitEPNS_14author_commandE
T _ZN7android12AuthorDriver10handleQuitEPNS_14author_commandE
T _ZN7android12AuthorDriver10handleStopEPNS_14author_commandE
T _ZN7android12AuthorDriver11handleCloseEPNS_14author_commandE
T _ZN7android12AuthorDriver11handleResetEPNS_14author_commandE
T _ZN7android12AuthorDriver11handleStartEPNS_14author_commandE
T _ZN7android12AuthorDriver11setListenerERKNS_2spINS_18IMediaPlayerClientEEE
T _ZN7android12AuthorDriver12authorThreadEv
T _ZN7android12AuthorDriver12setParameterERKNS_7String8ES3_
T _ZN7android12AuthorDriver13MapAMRBitrateEiR16PVMF_GSMAMR_Rate
T _ZN7android12AuthorDriver13commandFailedEPNS_14author_commandE
T _ZN7android12AuthorDriver13handlePrepareEPNS_14author_commandE
T _ZN7android12AuthorDriver14dequeueCommandEv
T _ZN7android12AuthorDriver14enqueueCommandEPNS_14author_commandEPFviPvES3_
T _ZN7android12AuthorDriver14syncCompletionEiPv
T _ZN7android12AuthorDriver15getMaxAmplitudeEPi
T _ZN7android12AuthorDriver15handleSetCameraEPNS_18set_camera_commandE
T _ZN7android12AuthorDriver16CommandCompletedERK13PVCmdResponse
T _ZN7android12AuthorDriver16HandleErrorEventERK17PVAsyncErrorEvent
T _ZN7android12AuthorDriver16removeConfigRefsEPNS_14author_commandE
T _ZN7android12AuthorDriver17media_track_addedEiPv
T _ZN7android12AuthorDriver17startAuthorThreadEPv
T _ZN7android12AuthorDriver18handleSetVideoSizeEPNS_22set_video_size_commandE
T _ZN7android12AuthorDriver19handleSetOutputFileEPNS_23set_output_file_commandE
T _ZN7android12AuthorDriver19handleSetParametersEPNS_22set_parameters_commandE
T _ZN7android12AuthorDriver20getAuthorEngineStateEv
T _ZN7android12AuthorDriver20handleSetAudioSourceEPNS_24set_audio_source_commandE
T _ZN7android12AuthorDriver20handleSetVideoSourceEPNS_24set_video_source_commandE
T _ZN7android12AuthorDriver21FinishNonAsyncCommandEPNS_14author_commandE
T _ZN7android12AuthorDriver21handleSetAudioEncoderEPNS_25set_audio_encoder_commandE
T _ZN7android12AuthorDriver21handleSetOutputFormatEPNS_25set_output_format_commandE
T _ZN7android12AuthorDriver21handleSetVideoEncoderEPNS_25set_video_encoder_commandE
T _ZN7android12AuthorDriver23handleRemoveAudioSourceEPNS_14author_commandE
T _ZN7android12AuthorDriver23handleRemoveVideoSourceEPNS_14author_commandE
T _ZN7android12AuthorDriver23handleSetPreviewSurfaceEPNS_27set_preview_surface_commandE
T _ZN7android12AuthorDriver23handleSetVideoFrameRateEPNS_28set_video_frame_rate_commandE
T _ZN7android12AuthorDriver24HandleInformationalEventERK25PVAsyncInformationalEvent
T _ZN7android12AuthorDriver24setMaxDurationOrFileSizeExb
T _ZN7android12AuthorDriver25setParamAudioSamplingRateEx
T _ZN7android12AuthorDriver28setParamAudioEncodingBitrateEx
T _ZN7android12AuthorDriver29setParamAudioNumberOfChannelsEx
T _ZN7android12AuthorDriver3RunEv
T _ZN7android12AuthorDriver9doCleanUpEv
T _ZN7android12AuthorDriverC1Ev
T _ZN7android12AuthorDriverC2Ev
T _ZN7android12AuthorDriverD0Ev
T _ZN7android12AuthorDriverD1Ev
T _ZN7android12AuthorDriverD2Ev
T _ZN7android15PVMediaRecorder11setListenerERKNS_2spINS_18IMediaPlayerClientEEE
T _ZN7android15PVMediaRecorder12setVideoSizeEii
T _ZN7android15PVMediaRecorder13setOutputFileEPKc
T _ZN7android15PVMediaRecorder13setOutputFileEixx
T _ZN7android15PVMediaRecorder13setParametersERKNS_7String8E
T _ZN7android15PVMediaRecorder14setAudioSourceENS_12audio_sourceE
T _ZN7android15PVMediaRecorder14setVideoSourceENS_12video_sourceE
T _ZN7android15PVMediaRecorder15getMaxAmplitudeEPi
T _ZN7android15PVMediaRecorder15setAudioEncoderENS_13audio_encoderE
T _ZN7android15PVMediaRecorder15setOutputFormatENS_13output_formatE
T _ZN7android15PVMediaRecorder15setVideoEncoderENS_13video_encoderE
T _ZN7android15PVMediaRecorder17setPreviewSurfaceERKNS_2spINS_8ISurfaceEEE
T _ZN7android15PVMediaRecorder17setVideoFrameRateEi
T _ZN7android15PVMediaRecorder4initEv
T _ZN7android15PVMediaRecorder4stopEv
T _ZN7android15PVMediaRecorder5closeEv
T _ZN7android15PVMediaRecorder5resetEv
T _ZN7android15PVMediaRecorder5startEv
T _ZN7android15PVMediaRecorder6doStopEv
T _ZN7android15PVMediaRecorder7prepareEv
T _ZN7android15PVMediaRecorder9setCameraERKNS_2spINS_7ICameraEEE
T _ZN7android15PVMediaRecorderC1Ev
T _ZN7android15PVMediaRecorderC2Ev
T _ZN7android15PVMediaRecorderD1Ev
T _ZN7android15PVMediaRecorderD2Ev
U _ZN7android16CameraParameters14setPreviewSizeEii
U _ZN7android16CameraParameters9unflattenERKNS_7String8E
U _ZN7android16CameraParametersD1Ev
U _ZN7android16SortedVectorImpl25reservedSortedVectorImpl1Ev
U _ZN7android16SortedVectorImpl25reservedSortedVectorImpl2Ev
U _ZN7android16SortedVectorImpl25reservedSortedVectorImpl3Ev
U _ZN7android16SortedVectorImpl25reservedSortedVectorImpl4Ev
U _ZN7android16SortedVectorImpl25reservedSortedVectorImpl5Ev
U _ZN7android16SortedVectorImpl25reservedSortedVectorImpl6Ev
U _ZN7android16SortedVectorImpl25reservedSortedVectorImpl7Ev
U _ZN7android16SortedVectorImpl25reservedSortedVectorImpl8Ev
U _ZN7android16SortedVectorImplC1Ejj
U _ZN7android16SortedVectorImplD1Ev
T _ZN7android19AuthorDriverWrapper11setListenerERKNS_2spINS_18IMediaPlayerClientEEE
T _ZN7android19AuthorDriverWrapper13resetAndCloseEv
T _ZN7android19AuthorDriverWrapper14enqueueCommandEPNS_14author_commandEPFviPvES3_
T _ZN7android19AuthorDriverWrapper15getMaxAmplitudeEPi
T _ZN7android19AuthorDriverWrapperC1Ev
T _ZN7android19AuthorDriverWrapperC2Ev
T _ZN7android19AuthorDriverWrapperD1Ev
T _ZN7android19AuthorDriverWrapperD2Ev
T _ZN7android37AndroidAudioInputThreadSafeCallbackAO12ProcessEventEPv
T _ZN7android37AndroidAudioInputThreadSafeCallbackAO3RunEv
T _ZN7android37AndroidAudioInputThreadSafeCallbackAO7DequeueERi
T _ZN7android37AndroidAudioInputThreadSafeCallbackAOC1EPvjPKci
T _ZN7android37AndroidAudioInputThreadSafeCallbackAOC2EPvjPKci
T _ZN7android37AndroidAudioInputThreadSafeCallbackAOD0Ev
T _ZN7android37AndroidAudioInputThreadSafeCallbackAOD1Ev
T _ZN7android37AndroidAudioInputThreadSafeCallbackAOD2Ev
U _ZN7android5Mutex4lockEv
U _ZN7android5Mutex6unlockEv
U _ZN7android5MutexC1Ev
U _ZN7android5MutexD1Ev
U _ZN7android6Camera10disconnectEv
U _ZN7android6Camera11setListenerERKNS_2spINS_14CameraListenerEEE
U _ZN7android6Camera11stopPreviewEv
U _ZN7android6Camera12startPreviewEv
U _ZN7android6Camera13setParametersERKNS_7String8E
U _ZN7android6Camera13stopRecordingEv
U _ZN7android6Camera14previewEnabledEv
U _ZN7android6Camera14startRecordingEv
U _ZN7android6Camera17setPreviewDisplayERKNS_2spINS_8ISurfaceEEE
U _ZN7android6Camera21releaseRecordingFrameERKNS_2spINS_7IMemoryEEE
U _ZN7android6Camera6createERKNS_2spINS_7ICameraEEE
U _ZN7android6Camera6unlockEv
U _ZN7android6Camera7connectEv
U _ZN7android7RefBase10onFirstRefEv
U _ZN7android7RefBase13onLastWeakRefEPKv
U _ZN7android7RefBase15onLastStrongRefEPKv
U _ZN7android7RefBase20onIncStrongAttemptedEjPKv
U _ZN7android7RefBaseC1Ev
U _ZN7android7RefBaseD1Ev
U _ZN7android7String85setToEPKc
U _ZN7android7String85setToEPKcj
U _ZN7android7String85setToERKS0_
U _ZN7android7String8C1EPKcj
U _ZN7android7String8C1ERKS0_
U _ZN7android7String8C1Ev
U _ZN7android7String8D1Ev
U _ZN7android9Condition4waitERNS_5MutexE
U _ZN7android9Condition6signalEv
U _ZN7android9ConditionC1Ev
U _ZN7android9ConditionD1Ev
U _ZN8CHeapRep10append_repERPS_R13Oscl_DefAllocPKcj
U _ZN8CHeapRep10append_repERPS_R13Oscl_DefAllocPKwj
U _ZN8CHeapRep10remove_refER13Oscl_DefAlloc
U _ZN8CHeapRep6assignERPS_S0_R13Oscl_DefAlloc
U _ZN8CHeapRep7set_repERPS_R13Oscl_DefAllocPKcj
U _ZN8CHeapRep7set_repERPS_R13Oscl_DefAllocPKwj
U _ZN8OsclBase4InitEv
U _ZN8OsclBase7CleanupEv
U _ZN8PVLogger15GetLoggerObjectEPKc
U _ZN8PVLogger4InitEv
U _ZN8PVLogger7CleanupEv
U _ZN9CStackRep3setEPKcj
U _ZN9CStackRep6appendEPKcj
U _ZN9OsclError11LeaveIfNullEPv
U _ZN9OsclError5LeaveEi
U _ZN9OsclMutex4LockEv
U _ZN9OsclMutex5CloseEv
U _ZN9OsclMutex6CreateEv
U _ZN9OsclMutex6UnlockEv
U _ZN9OsclMutexC1Ev
U _ZN9OsclMutexD1Ev
U _ZN9Oscl_File13SetFileHandleEP14OsclFileHandle
U _ZN9Oscl_File14SetPVCacheSizeEj
U _ZN9Oscl_File16SetLoggingEnableEb
U _ZN9Oscl_File19SetNativeBufferSizeEi
U _ZN9Oscl_File22SetAsyncReadBufferSizeEj
U _ZN9Oscl_File28SetSummaryStatsLoggingEnableEb
U _ZN9Oscl_File4OpenEPKcjR15Oscl_FileServer
U _ZN9Oscl_File4OpenEPKwjR15Oscl_FileServer
U _ZN9Oscl_File4ReadEPvjj
U _ZN9Oscl_File4SeekElNS_9seek_typeE
U _ZN9Oscl_File4TellEv
U _ZN9Oscl_File5CloseEv
U _ZN9Oscl_File5WriteEPKvjj
U _ZN9Oscl_FileC1EjP14OsclFileHandle
U _ZN9Oscl_FileC1Ev
U _ZNK11OSCL_String11is_writableEv
U _ZNK11OSCL_String4hashEv
U _ZNK11OSCL_String4readEj
U _ZNK11OSCL_StringeqEPKc
U _ZNK11OSCL_StringixEj
U _ZNK11PVMFCmdResp3IsAEv
U _ZNK12OSCL_wString11is_writableEv
U _ZNK12OSCL_wString4hashEv
U _ZNK12OSCL_wString4readEj
U _ZNK12OSCL_wStringixEj
U _ZNK12PVActiveBase7IsAddedEv
U _ZNK14PVMFAsyncEvent3IsAEv
U _ZNK14PVMFFormatType12isCompressedEv
U _ZNK14PVMFFormatType6isTextEv
U _ZNK16OsclActiveObject8PriorityEv
U _ZNK16PvmfPortBaseImpl10GetPortTagEv
U _ZNK7android11AudioRecord9initCheckEv
W _ZNK7android12SortedVectorINS_16key_value_pair_tINS_7String8ES2_EEE10do_compareEPKvS6_
W _ZNK7android12SortedVectorINS_16key_value_pair_tINS_7String8ES2_EEE10do_destroyEPvj
W _ZNK7android12SortedVectorINS_16key_value_pair_tINS_7String8ES2_EEE12do_constructEPvj
W _ZNK7android12SortedVectorINS_16key_value_pair_tINS_7String8ES2_EEE15do_move_forwardEPvPKvj
W _ZNK7android12SortedVectorINS_16key_value_pair_tINS_7String8ES2_EEE16do_move_backwardEPvPKvj
W _ZNK7android12SortedVectorINS_16key_value_pair_tINS_7String8ES2_EEE7do_copyEPvPKvj
W _ZNK7android12SortedVectorINS_16key_value_pair_tINS_7String8ES2_EEE8do_splatEPvPKvj
U _ZNK7android16CameraParameters14getPreviewSizeEPiS1_
U _ZNK7android16CameraParameters7flattenEv
U _ZNK7android6Camera13getParametersEv
U _ZNK7android7IMemory7pointerEv
U _ZNK7android7RefBase9decStrongEPKv
U _ZNK7android7RefBase9incStrongEPKv
V _ZTTN7android14CameraListenerE
V _ZTV10Oscl_Alloc
V _ZTV11Oscl_TAllocI15OSCL_HeapStringI16OsclMemAllocatorES1_E
V _ZTV11Oscl_TAllocI19PVMp4FFComposerPort16OsclMemAllocatorE
V _ZTV11Oscl_TAllocI8OsclUuid16OsclMemAllocatorE
V _ZTV11Oscl_VectorI14PVMFFormatType16OsclMemAllocatorE
V _ZTV11Oscl_VectorI15PVAENodeUtilCmd16OsclMemAllocatorE
V _ZTV11Oscl_VectorI15PVEngineCommand16OsclMemAllocatorE
V _ZTV11Oscl_VectorI15PVMFNodeSession16OsclMemAllocatorE
V _ZTV11Oscl_VectorI18OsclMemoryFragment16OsclMemAllocatorE
V _ZTV11Oscl_VectorI18PVEngineAsyncEvent16OsclMemAllocatorE
V _ZTV11Oscl_VectorI21AndroidCameraInputCmd16OsclMemAllocatorE
V _ZTV11Oscl_VectorI21PVA_FF_TrackRunSample16OsclMemAllocatorE
V _ZTV11Oscl_VectorI22PVMFGenericNodeCommandI16OsclMemAllocatorES1_E
V _ZTV11Oscl_VectorI24PVA_FF_RandomAccessEntry16OsclMemAllocatorE
V _ZTV11Oscl_VectorI27AndroidCameraInputMediaData16OsclMemAllocatorE
V _ZTV11Oscl_VectorI8OsclUuid16OsclMemAllocatorE
V _ZTV11Oscl_VectorIN7android17AndroidAudioInput15CommandResponseE16OsclMemAllocatorE
V _ZTV11Oscl_VectorIN7android20AndroidAudioInputCmdE16OsclMemAllocatorE
V _ZTV11Oscl_VectorIN7android26AndroidAudioInputMediaDataE16OsclMemAllocatorE
V _ZTV11Oscl_VectorIN7android7MicDataE16OsclMemAllocatorE
V _ZTV11Oscl_VectorIP11PVA_FF_Atom16OsclMemAllocatorE
V _ZTV11Oscl_VectorIP11PVInterface16OsclMemAllocatorE
V _ZTV11Oscl_VectorIP15PVA_FF_TfraAtom16OsclMemAllocatorE
V _ZTV11Oscl_VectorIP15PvmiMIOObserver16OsclMemAllocatorE
V _ZTV11Oscl_VectorIP16PVA_FF_TrackAtom16OsclMemAllocatorE
V _ZTV11Oscl_VectorIP17PVAENodeContainer16OsclMemAllocatorE
V _ZTV11Oscl_VectorIP17PVA_FF_FontRecord16OsclMemAllocatorE
V _ZTV11Oscl_VectorIP17PVA_FF_Renderable16OsclMemAllocatorE
V _ZTV11Oscl_VectorIP17PVMFPortInterface16OsclMemAllocatorE
V _ZTV11Oscl_VectorIP18OsclMemoryFragment16OsclMemAllocatorE
V _ZTV11Oscl_VectorIP18PVA_FF_SampleEntry16OsclMemAllocatorE
V _ZTV11Oscl_VectorIP19PVMp4FFComposerPort16OsclMemAllocatorE
V _ZTV11Oscl_VectorIP20PVA_FF_DataEntryAtom16OsclMemAllocatorE
V _ZTV11Oscl_VectorIP20PVA_FF_MediaDataAtom16OsclMemAllocatorE
V _ZTV11Oscl_VectorIP23PVA_FF_InterLeaveBuffer16OsclMemAllocatorE
V _ZTV11Oscl_VectorIP23PVA_FF_TrackExtendsAtom16OsclMemAllocatorE
V _ZTV11Oscl_VectorIP24PVA_FF_TrackFragmentAtom16OsclMemAllocatorE
V _ZTV11Oscl_VectorIP25PVA_FF_TextSampleDescInfo16OsclMemAllocatorE
V _ZTV11Oscl_VectorIP26PVA_FF_DecoderSpecificInfo16OsclMemAllocatorE
V _ZTV11Oscl_VectorIP27PVA_FF_TrackFragmentRunAtom16OsclMemAllocatorE
V _ZTV11Oscl_VectorIP29PVA_FF_AssetInfoKeyWordStruct16OsclMemAllocatorE
V _ZTV11Oscl_VectorIPN19PVMp4FFComposerNode17PVMP4FFCN_KeyWordE16OsclMemAllocatorE
V _ZTV11Oscl_VectorIPN27PVA_FF_AVCConfigurationAtom19PVA_FF_ParameterSetE16OsclMemAllocatorE
V _ZTV11Oscl_VectorIPh16OsclMemAllocatorE
V _ZTV11Oscl_VectorIh16OsclMemAllocatorE
V _ZTV11Oscl_VectorIi16OsclMemAllocatorE
V _ZTV11Oscl_VectorIj16OsclMemAllocatorE
V _ZTV11Oscl_VectorIt16OsclMemAllocatorE
D _ZTV11PVA_FF_Atom
V _ZTV11PVInterface
U _ZTV11PVMFCmdResp
V _ZTV12Oscl_Dealloc
V _ZTV12PVMFPortIter
V _ZTV13OsclSharedPtrI12PVMFMediaMsgE
V _ZTV13OsclSharedPtrI13PVMFMediaDataE
V _ZTV13Oscl_DefAlloc
V _ZTV13PVCmdResponse
V _ZTV13PVMFEventBase
V _ZTV13_OsclHeapBase
D _ZTV14PVA_FF_ESDAtom
D _ZTV14PVAuthorEngine
U _ZTV14PVMFAsyncEvent
V _ZTV14PVMFFormatType
V _ZTV14PVMFPortVectorI19PVMp4FFComposerPort16OsclMemAllocatorE
V _ZTV14PvmiMIOControl
V _ZTV15OSCL_HeapStringI16OsclMemAllocatorE
D _ZTV15PVA_FF_EditAtom
D _ZTV15PVA_FF_FullAtom
D _ZTV15PVA_FF_MfroAtom
D _ZTV15PVA_FF_TfraAtom
V _ZTV16OSCL_StackStringILj1EE
V _ZTV16OSCL_StackStringILj20EE
V _ZTV16OSCL_wHeapStringI16OsclMemAllocatorE
V _ZTV16OsclMemAllocator
V _ZTV16Oscl_Vector_Base
D _ZTV16PVA_FF_BoxRecord
D _ZTV16PVA_FF_ES_ID_Inc
D _ZTV16PVA_FF_ES_ID_Ref
D _ZTV16PVA_FF_MediaAtom
D _ZTV16PVA_FF_MovieAtom
D _ZTV16PVA_FF_Mpeg4File
D _ZTV16PVA_FF_TrackAtom
D _ZTV17PVA_FF_FontRecord
V _ZTV17PVA_FF_IMpeg4File
V _ZTV17PVA_FF_Parentable
V _ZTV17PVA_FF_Renderable
V _ZTV17PVAsyncErrorEvent
U _ZTV17PVMFNodeInterface
V _ZTV17PvmiMediaTransfer
D _ZTV18PVA_FF_HandlerAtom
D _ZTV18PVA_FF_SampleEntry
D _ZTV18PVA_FF_StyleRecord
V _ZTV19OsclDestructDealloc
D _ZTV19PVA_FF_ESDescriptor
D _ZTV19PVA_FF_EditListAtom
D _ZTV19PVA_FF_FileTypeAtom
D _ZTV19PVA_FF_UserDataAtom
D _ZTV19PVMp4FFComposerNode
D _ZTV19PVMp4FFComposerPort
V _ZTV20PVAENodeUtilObserver
D _ZTV20PVA_FF_DataEntryAtom
D _ZTV20PVA_FF_FontTableAtom
D _ZTV20PVA_FF_MediaDataAtom
V _ZTV20PVErrorEventObserver
D _ZTV21PVA_FF_AMRSampleEntry
D _ZTV21PVA_FF_AVCSampleEntry
D _ZTV21PVA_FF_BaseDescriptor
D _ZTV21PVA_FF_SampleSizeAtom
D _ZTV21PVA_FF_SyncSampleAtom
V _ZTV22Oscl_Opaque_Type_Alloc
D _ZTV22PVA_FF_AMRSpecificAtom
D _ZTV22PVA_FF_ChunkOffsetAtom
D _ZTV22PVA_FF_H263SampleEntry
D _ZTV22PVA_FF_H263SpecficAtom
D _ZTV22PVA_FF_MediaHeaderAtom
D _ZTV22PVA_FF_MovieHeaderAtom
D _ZTV22PVA_FF_MpegSampleEntry
D _ZTV22PVA_FF_SampleTableAtom
D _ZTV22PVA_FF_TextSampleEntry
D _ZTV22PVA_FF_TrackHeaderAtom
V _ZTV22PVMFGenericNodeCommandI16OsclMemAllocatorE
D _ZTV23PVA_FF_AudioSampleEntry
D _ZTV23PVA_FF_DataEntryUrlAtom
D _ZTV23PVA_FF_InterLeaveBuffer
D _ZTV23PVA_FF_MovieExtendsAtom
D _ZTV23PVA_FF_TimeToSampleAtom
D _ZTV23PVA_FF_TrackExtendsAtom
V _ZTV23PVAuthorEngineInterface
V _ZTV23PVCommandStatusObserver
V _ZTV23PVMFPortActivityHandler
V _ZTV23PvmiCapabilityAndConfig
D _ZTV24PVA_FF_AssetInfoDescAtom
D _ZTV24PVA_FF_DataReferenceAtom
D _ZTV24PVA_FF_MovieFragmentAtom
D _ZTV24PVA_FF_SampleToChunkAtom
D _ZTV24PVA_FF_TrackFragmentAtom
D _ZTV24PVA_FF_VisualSampleEntry
D _ZTV25PVA_FF_AssetInfoAlbumAtom
D _ZTV25PVA_FF_AssetInfoGenreAtom
D _ZTV25PVA_FF_AssetInfoTitleAtom
D _ZTV25PVA_FF_H263DecBitrateAtom
D _ZTV25PVA_FF_SLConfigDescriptor
D _ZTV25PVA_FF_TrackReferenceAtom
V _ZTV25PVAsyncInformationalEvent
D _ZTV25PVAuthorEngineNodeUtility
V _ZTV25PVMFNodeCmdStatusObserver
V _ZTV25PVMFNodeInfoEventObserver
D _ZTV26PVA_FF_AssetInfoAuthorAtom
D _ZTV26PVA_FF_AssetInfoRatingAtom
D _ZTV26PVA_FF_DataInformationAtom
D _ZTV26PVA_FF_DecoderSpecificInfo
D _ZTV26PVA_FF_ExpandableBaseClass
D _ZTV26PVA_FF_HintMediaHeaderAtom
V _ZTV26PVMFNodeErrorEventObserver
D _ZTV27PVA_FF_AVCConfigurationAtom
D _ZTV27PVA_FF_MediaInformationAtom
D _ZTV27PVA_FF_Mpeg4MediaHeaderAtom
D _ZTV27PVA_FF_SoundMediaHeaderAtom
D _ZTV27PVA_FF_TrackFragmentRunAtom
D _ZTV27PVA_FF_VideoMediaHeaderAtom
D _ZTV28PVA_FF_AssetInfoKeyWordsAtom
D _ZTV28PVA_FF_SampleDescriptionAtom
V _ZTV28PVInformationalEventObserver
V _ZTV28PVMp4FFCNClipConfigInterface
D _ZTV29PVA_FF_AssetInfoCopyRightAtom
V _ZTV29PVA_FF_AssetInfoKeyWordStruct
D _ZTV29PVA_FF_AssetInfoPerformerAtom
D _ZTV29PVA_FF_MovieExtendsHeaderAtom
D _ZTV29PVA_FF_TrackReferenceTypeAtom
V _ZTV29PVMp4FFCNTrackConfigInterface
D _ZTV30PVA_FF_DecoderConfigDescriptor
D _ZTV30PVA_FF_MovieFragmentHeaderAtom
D _ZTV30PVA_FF_TrackFragmentHeaderAtom
V _ZTV31PvmfAssetInfo3GPPLocationStruct
D _ZTV32PVA_FF_AssetInfoLocationInfoAtom
D _ZTV33PVA_FF_AssetInfoRecordingYearAtom
D _ZTV33PVA_FF_MediaInformationHeaderAtom
D _ZTV34PVA_FF_AssetInfoClassificationAtom
D _ZTV36PVA_FF_MovieFragmentRandomAccessAtom
V _ZTV36PvmfComposerSizeAndDurationInterface
V _ZTV8HeapBase
V _ZTVN27PVA_FF_AVCConfigurationAtom19PVA_FF_ParameterSetE
D _ZTVN7android12AuthorDriverE
V _ZTVN7android12SortedVectorINS_16key_value_pair_tINS_7String8ES2_EEEE
V _ZTVN7android14CameraListenerE
V _ZTVN7android14author_commandE
V _ZTVN7android18set_camera_commandE
V _ZTVN7android22set_parameters_commandE
V _ZTVN7android22set_video_size_commandE
V _ZTVN7android23set_output_file_commandE
V _ZTVN7android24set_audio_source_commandE
V _ZTVN7android24set_video_source_commandE
V _ZTVN7android25set_audio_encoder_commandE
V _ZTVN7android25set_output_format_commandE
V _ZTVN7android25set_video_encoder_commandE
V _ZTVN7android27set_preview_surface_commandE
V _ZTVN7android28set_video_frame_rate_commandE
D _ZTVN7android37AndroidAudioInputThreadSafeCallbackAOE
V _ZTVN7android4ListIPNS_14author_commandEEE
T _ZThn132_N19PVMp4FFComposerNode14queryInterfaceERK8OsclUuidRP11PVInterface
T _ZThn132_N19PVMp4FFComposerNode17SetTrackReferenceERK17PVMFPortInterfaceS2_
T _ZThn132_N19PVMp4FFComposerNode20SetCodecSpecificInfoERK17PVMFPortInterfacePhi
T _ZThn132_N19PVMp4FFComposerNode6addRefEv
T _ZThn132_N19PVMp4FFComposerNode9removeRefEv
T _ZThn136_N19PVMp4FFComposerNode10SetKeyWordERK12OSCL_wStringRK11OSCL_String
T _ZThn136_N19PVMp4FFComposerNode10SetVersionERK12OSCL_wStringRK11OSCL_String
T _ZThn136_N19PVMp4FFComposerNode12SetAlbumInfoERK12OSCL_wStringRK11OSCL_String
T _ZThn136_N19PVMp4FFComposerNode12SetCopyrightERK12OSCL_wStringRK11OSCL_String
T _ZThn136_N19PVMp4FFComposerNode12SetPerformerERK12OSCL_wStringRK11OSCL_String
T _ZThn136_N19PVMp4FFComposerNode14SetDescriptionERK12OSCL_wStringRK11OSCL_String
T _ZThn136_N19PVMp4FFComposerNode14queryInterfaceERK8OsclUuidRP11PVInterface
T _ZThn136_N19PVMp4FFComposerNode15ConvertLangCodeERK11OSCL_String
T _ZThn136_N19PVMp4FFComposerNode15SetCreationDateERK12OSCL_wString
T _ZThn136_N19PVMp4FFComposerNode15SetLocationInfoER31PvmfAssetInfo3GPPLocationStruct
T _ZThn136_N19PVMp4FFComposerNode16SetAuthoringModeE23PVMp4FFCN_AuthoringMode
T _ZThn136_N19PVMp4FFComposerNode16SetRecordingYearEt
T _ZThn136_N19PVMp4FFComposerNode17SetClassificationERK12OSCL_wStringjtRK11OSCL_String
T _ZThn136_N19PVMp4FFComposerNode17SetOutputFileNameERK12OSCL_wString
T _ZThn136_N19PVMp4FFComposerNode20SetRealTimeAuthoringEb
T _ZThn136_N19PVMp4FFComposerNode23SetOutputFileDescriptorEPK14OsclFileHandle
T _ZThn136_N19PVMp4FFComposerNode24SetPresentationTimescaleEj
T _ZThn136_N19PVMp4FFComposerNode6addRefEv
T _ZThn136_N19PVMp4FFComposerNode8SetGenreERK12OSCL_wStringRK11OSCL_String
T _ZThn136_N19PVMp4FFComposerNode8SetTitleERK12OSCL_wStringRK11OSCL_String
T _ZThn136_N19PVMp4FFComposerNode9SetAuthorERK12OSCL_wStringRK11OSCL_String
T _ZThn136_N19PVMp4FFComposerNode9SetRatingERK12OSCL_wStringRK11OSCL_String
T _ZThn136_N19PVMp4FFComposerNode9removeRefEv
T _ZThn140_N19PVMp4FFComposerNode14SetMaxDurationEbj
T _ZThn140_N19PVMp4FFComposerNode14SetMaxFileSizeEbj
T _ZThn140_N19PVMp4FFComposerNode14queryInterfaceERK8OsclUuidRP11PVInterface
T _ZThn140_N19PVMp4FFComposerNode20GetMaxDurationConfigERbRj
T _ZThn140_N19PVMp4FFComposerNode20GetMaxFileSizeConfigERbRj
T _ZThn140_N19PVMp4FFComposerNode25SetDurationProgressReportEbj
T _ZThn140_N19PVMp4FFComposerNode25SetFileSizeProgressReportEbj
T _ZThn140_N19PVMp4FFComposerNode31GetDurationProgressReportConfigERbRj
T _ZThn140_N19PVMp4FFComposerNode31GetFileSizeProgressReportConfigERbRj
T _ZThn140_N19PVMp4FFComposerNode6addRefEv
T _ZThn140_N19PVMp4FFComposerNode9removeRefEv
T _ZThn144_N19PVMp4FFComposerNode14queryInterfaceERK8OsclUuidRP11PVInterface
T _ZThn144_N19PVMp4FFComposerNode6addRefEv
T _ZThn144_N19PVMp4FFComposerNode9removeRefEv
T _ZThn220_N19PVMp4FFComposerPort11setObserverEP34PvmiConfigAndCapabilityCmdObserver
T _ZThn220_N19PVMp4FFComposerPort13DeleteContextEPvRS0_
T _ZThn220_N19PVMp4FFComposerPort13createContextEPvRS0_
T _ZThn220_N19PVMp4FFComposerPort17getParametersSyncEPvPcRP9__PvmiKvpRiS0_
T _ZThn220_N19PVMp4FFComposerPort17releaseParametersEPvP9__PvmiKvpi
T _ZThn220_N19PVMp4FFComposerPort17setParametersSyncEPvP9__PvmiKvpiRS2_
T _ZThn220_N19PVMp4FFComposerPort18setParametersAsyncEPvP9__PvmiKvpiRS2_S0_
T _ZThn220_N19PVMp4FFComposerPort19getCapabilityMetricEPv
T _ZThn220_N19PVMp4FFComposerPort20setContextParametersEPvRS0_P9__PvmiKvpi
T _ZThn220_N19PVMp4FFComposerPort20verifyParametersSyncEPvP9__PvmiKvpi
U _ZThn4_N15OsclTimerObject8DoCancelEv
U _ZThn4_N15OsclTimerObject8RunErrorEi
U _ZThn4_N16OsclActiveObject8DoCancelEv
U _ZThn4_N16OsclActiveObject8RunErrorEi
T _ZThn4_N7android12AuthorDriver3RunEv
T _ZThn4_N7android12AuthorDriverD0Ev
T _ZThn4_N7android12AuthorDriverD1Ev
T _ZThn4_N7android37AndroidAudioInputThreadSafeCallbackAO3RunEv
T _ZThn4_N7android37AndroidAudioInputThreadSafeCallbackAOD0Ev
T _ZThn4_N7android37AndroidAudioInputThreadSafeCallbackAOD1Ev
T _ZThn84_N7android12AuthorDriver16CommandCompletedERK13PVCmdResponse
T _ZThn84_N7android12AuthorDriverD0Ev
T _ZThn84_N7android12AuthorDriverD1Ev
T _ZThn88_N7android12AuthorDriver24HandleInformationalEventERK25PVAsyncInformationalEvent
T _ZThn88_N7android12AuthorDriverD0Ev
T _ZThn88_N7android12AuthorDriverD1Ev
T _ZThn8_N22PVA_FF_TextSampleEntryD0Ev
T _ZThn8_N22PVA_FF_TextSampleEntryD1Ev
T _ZThn92_N7android12AuthorDriver16HandleErrorEventERK17PVAsyncErrorEvent
T _ZThn92_N7android12AuthorDriverD0Ev
T _ZThn92_N7android12AuthorDriverD1Ev
W _ZTv0_n12_N7android14CameraListenerD0Ev
W _ZTv0_n12_N7android14CameraListenerD1Ev
U _ZdaPv
U _ZdlPv
U _Znaj
U _Znwj
U __aeabi_f2iz
U __aeabi_f2uiz
U __aeabi_fadd
U __aeabi_fcmpgt
U __aeabi_fdiv
U __aeabi_fmul
U __aeabi_i2f
U __aeabi_idiv
U __aeabi_ldivmod
U __aeabi_llsr
U __aeabi_ui2f
U __aeabi_uidiv
U __aeabi_uidivmod
U __aeabi_unwind_cpp_pr0
U __android_log_assert
U __android_log_print
A __bss_end__
A __bss_start
A __bss_start__
U __cxa_pure_virtual
A __data_start
A __end__
U __errno
A __exidx_end
A __exidx_start
U __stack_chk_fail
U __stack_chk_guard
A _bss_end__
U _ctype_
A _edata
A _end
A _stack
U androidCreateThread
U fclose
U fdopen
U free
U malloc
U memcpy
U memset
U open
U prctl
U pthread_getspecific
U pthread_key_create
U pthread_once
U pthread_setspecific
U setjmp
U strchr
U strcmp
U strtoll
U systemTime
U time
