U _Z11oscl_strcatPcPKc
U _Z11oscl_strcmpPKcS0_
U _Z11oscl_strlenPKc
U _Z11oscl_strlenPKw
U _Z11oscl_strstrPKcS0_
U _Z11oscl_strstrPcPKc
U _Z12oscl_strncpyPcPKcj
U _Z13oscl_isLetterc
U _Z13oscl_snprintfPcjPKcz
U _Z14pv_mime_strcmpPKcS0_
U _Z17_oscl_default_newj
U _Z18oscl_UnicodeToUTF8PKwiPci
U _Z21convertToPVMFMediaMsgR13OsclSharedPtrI12PVMFMediaMsgERS_I13PVMFMediaDataE
U _Z22convertToPVMFMediaDataR13OsclSharedPtrI13PVMFMediaDataERS_I12PVMFMediaMsgE
U _Z24convertToPVMFMediaCmdMsgR13OsclSharedPtrI12PVMFMediaMsgERS_I12PVMFMediaCmdE
U _Z7PV_atoiPKccRj
U _Z7PV_atoiPKcciRj
T _ZN10HTTPParser14getContentInfoER15HTTPContentInfo
T _ZN10HTTPParser17getHTTPStatusCodeEv
T _ZN10HTTPParser22getNumberOfFieldsByKeyERK13StrCSumPtrLen
T _ZN10HTTPParser22getTotalFieldsInHeaderEv
T _ZN10HTTPParser23getFieldKeyListInHeaderERP9StrPtrLen
T _ZN10HTTPParser30doSanityCheckForResponseHeaderEv
T _ZN10HTTPParser5parseERK21OsclRefCounterMemFragR22RefCountHTTPEntityUnit
T _ZN10HTTPParser5resetEv
T _ZN10HTTPParser6createEv
T _ZN10HTTPParser8getFieldERK13StrCSumPtrLenR9StrPtrLenj
T _ZN10HTTPParserD1Ev
T _ZN10HTTPParserD2Ev
U _ZN11OSCL_String5writeEjc
U _ZN11OSCL_String5writeEjjPKc
U _ZN11OSCL_StringC1Ev
U _ZN11OSCL_StringD1Ev
U _ZN11OSCL_StringaSERKS_
U _ZN11OSCL_StringpLEPKc
T _ZN11PVDlCfgFile10LoadConfigEv
T _ZN11PVDlCfgFile10SaveConfigEv
T _ZN11PVDlCfgFile11IsFastTrackEv
T _ZN11PVDlCfgFile15GetPlaybackModeEv
T _ZN11PVDlCfgFile15SetDownloadTypeEb
T _ZN11PVDlCfgFile15SetPlaybackModeENS_17TPVDLPlaybackModeE
T _ZN11PVDlCfgFile19SetDonwloadCompleteEv
T _ZN11PVDlCfgFileC1Ev
T _ZN11PVDlCfgFileC2Ev
T _ZN11PVDlCfgFileD0Ev
T _ZN11PVDlCfgFileD1Ev
T _ZN11PVDlCfgFileD2Ev
T _ZN12HTTPComposer23getCurrentRequestLengthEb
T _ZN12HTTPComposer5resetEb
T _ZN12HTTPComposer6createEv
T _ZN12HTTPComposer6setURIE9StrPtrLen
T _ZN12HTTPComposer7composeER18OsclMemoryFragmentbj
T _ZN12HTTPComposer8setFieldERK13StrCSumPtrLenPK9StrPtrLenb
T _ZN12HTTPComposer8setFieldERK13StrCSumPtrLenPKcb
T _ZN12HTTPComposerD1Ev
T _ZN12HTTPComposerD2Ev
U _ZN12OSCL_wString5writeEjjPKw
U _ZN12OSCL_wString5writeEjw
U _ZN12OSCL_wStringC1Ev
U _ZN12OSCL_wStringD1Ev
U _ZN12PVMFMediaCmd14createMediaCmdEP13Oscl_DefAlloc
T _ZN13DownloadState10saveConfigEv
T _ZN13DownloadState15setHeaderFieldsEv
T _ZN13DownloadState16setRequestBasicsEv
T _ZN13DownloadState18checkParsingStatusEi
T _ZN13DownloadState24updateDownloadStatisticsEv
T _ZN13DownloadState36processMicroStateGetResponsePreCheckEv
T _ZN13DownloadState36processMicroStateSendRequestPreCheckEv
T _ZN13EventReporter17startRealDataflowEv
T _ZN13EventReporter5clearEv
T _ZN13EventReporterC1EP21EventReporterObserver
T _ZN13EventReporterC2EP21EventReporterObserver
U _ZN13OsclErrorTrap15GetErrorTrapImpEv
U _ZN13OsclTCPSocket10CancelRecvEv
U _ZN13OsclTCPSocket10CancelSendEv
U _ZN13OsclTCPSocket11GetRecvDataEPi
U _ZN13OsclTCPSocket13CancelConnectEv
U _ZN13OsclTCPSocket14CancelShutdownEv
U _ZN13OsclTCPSocket4NewLER13Oscl_DefAllocR14OsclSocketServP18OsclSocketObserverj
U _ZN13OsclTCPSocket4RecvEPhji
U _ZN13OsclTCPSocket4SendEPKhji
U _ZN13OsclTCPSocket5CloseEv
U _ZN13OsclTCPSocket7ConnectER18OsclNetworkAddressi
U _ZN13OsclTCPSocket8ShutdownE17TPVSocketShutdowni
U _ZN13OsclUDPSocket11GetRecvDataEPi
U _ZN13OsclUDPSocket12CancelSendToEv
U _ZN13OsclUDPSocket14CancelRecvFromEv
U _ZN13OsclUDPSocket4BindER18OsclNetworkAddress
U _ZN13OsclUDPSocket4NewLER13Oscl_DefAllocR14OsclSocketServP18OsclSocketObserverj
U _ZN13OsclUDPSocket6SendToEPKhjR18OsclNetworkAddressi
U _ZN13OsclUDPSocket8RecvFromEPhjR18OsclNetworkAddressijP11Oscl_VectorIj16OsclMemAllocatorEPS3_IS1_S4_E
U _ZN13PVMFMediaData13getFilledSizeEv
U _ZN13PVMFMediaData15createMediaDataER13OsclSharedPtrI17PVMFMediaDataImplEP13Oscl_DefAlloc
U _ZN13PVMFMediaData15getNumFragmentsEv
U _ZN13PVMFMediaData16getMediaDataImplER13OsclSharedPtrI17PVMFMediaDataImplE
U _ZN13PVMFMediaData16getMediaFragmentEjR21OsclRefCounterMemFrag
T _ZN13ProtocolState15getDownloadRateEv
T _ZN13ProtocolState17processMicroStateER11Oscl_VectorI13OsclSharedPtrI12PVMFMediaMsgE16OsclMemAllocatorE
T _ZN13ProtocolState18checkParsingStatusEi
T _ZN13ProtocolState18setExtensionFieldsER11Oscl_VectorI15OSCL_HeapStringI16OsclMemAllocatorES2_ES5_RS0_IjS2_ERS0_IbS2_E10HTTPMethod
T _ZN13ProtocolState21constructAuthenHeaderER11OSCL_StringS1_
T _ZN13ProtocolState28getDownloadTimeForEstimationEv
T _ZN13ProtocolState28processMicroStateGetResponseER11Oscl_VectorI13OsclSharedPtrI12PVMFMediaMsgE16OsclMemAllocatorE
T _ZN13ProtocolState28processMicroStateSendRequestEv
T _ZN13ProtocolState36processMicroStateGetResponsePreCheckEv
T _ZN13ProtocolState36processMicroStateSendRequestPreCheckEv
T _ZN13ProtocolState9doComposeER18OsclMemoryFragment
U _ZN13StrCSumPtrLen11setCheckSumEv
U _ZN14OsclSocketServ4NewLER13Oscl_DefAlloc
U _ZN14OsclSocketServ5CloseEb
U _ZN14OsclSocketServ7ConnectEj
U _ZN14PVMFMediaClock16SetClockTimebaseER12PVMFTimebase
U _ZN14PVMFMediaClockC1Ev
T _ZN14PVMFSocketNode11ReleasePortEiR17PVMFPortInterfacePKv
T _ZN14PVMFSocketNode11RequestPortEiiPK11OSCL_StringPKv
T _ZN14PVMFSocketNode11ThreadLogonEv
T _ZN14PVMFSocketNode12ThreadLogoffEv
T _ZN14PVMFSocketNode13CancelCommandEiiPKv
T _ZN14PVMFSocketNode13GetCapabilityER18PVMFNodeCapability
T _ZN14PVMFSocketNode13GetPortConfigER17PVMFPortInterfaceR18OsclNetworkAddressS3_
T _ZN14PVMFSocketNode13SetPortConfigER17PVMFPortInterface18OsclNetworkAddressS2_
T _ZN14PVMFSocketNode14HandleDNSEventEi9TPVDNSFxn11TPVDNSEventi
T _ZN14PVMFSocketNode14QueryInterfaceEiRK8OsclUuidRP11PVInterfacePKv
T _ZN14PVMFSocketNode17CancelAllCommandsEiPKv
T _ZN14PVMFSocketNode17HandleSocketEventEi12TPVSocketFxn14TPVSocketEventi
T _ZN14PVMFSocketNode23GetMaxTCPRecvBufferSizeERj
T _ZN14PVMFSocketNode23SetMaxTCPRecvBufferSizeEj
T _ZN14PVMFSocketNode24GetMaxTCPRecvBufferCountERj
T _ZN14PVMFSocketNode24SetMaxTCPRecvBufferCountEj
T _ZN14PVMFSocketNode4InitEiPKv
T _ZN14PVMFSocketNode4StopEiPKv
T _ZN14PVMFSocketNode5FlushEiPKv
T _ZN14PVMFSocketNode5PauseEiPKv
T _ZN14PVMFSocketNode5ResetEiPKv
T _ZN14PVMFSocketNode5StartEiPKv
T _ZN14PVMFSocketNode7PrepareEiPKv
T _ZN14PVMFSocketNode8GetPortsEPK14PVMFPortFilter
T _ZN14PVMFSocketNode9QueryUUIDEiRK11OSCL_StringR11Oscl_VectorI8OsclUuid16OsclMemAllocatorEbPKv
T _ZN14PVMFSocketNodeC1Ei
T _ZN14PVMFSocketNodeC2Ei
T _ZN14PVMFSocketNodeD0Ev
T _ZN14PVMFSocketNodeD1Ev
T _ZN14PVMFSocketNodeD2Ev
T _ZN14UserAgentField12getUserAgentER11OSCL_String
T _ZN14UserAgentField12setUserAgentER11OSCL_Stringb
T _ZN14UserAgentField12setUserAgentER12OSCL_wStringb
T _ZN14UserAgentFieldC1ER11OSCL_Stringb
T _ZN14UserAgentFieldC1ER12OSCL_wStringb
T _ZN14UserAgentFieldC2ER11OSCL_Stringb
T _ZN14UserAgentFieldC2ER12OSCL_wStringb
U _ZN15OSCL_FastString3setEPcj
U _ZN15OSCL_FastStringC1EPKc
U _ZN15OSCL_FastStringC1Ev
U _ZN15OSCL_FastStringD1Ev
U _ZN15OsclLibraryList16GetLibraryPathAtEj
U _ZN15OsclLibraryList4SizeEv
U _ZN15OsclLibraryList8PopulateERK8OsclUuidRK11OSCL_String
U _ZN15OsclLibraryListC1Ev
U _ZN15OsclLibraryListD1Ev
U _ZN15OsclTimerObject13RunIfNotReadyEj
U _ZN15OsclTimerObject14AddToSchedulerEv
U _ZN15OsclTimerObject19RemoveFromSchedulerEv
U _ZN15OsclTimerObject6CancelEv
U _ZN15OsclTimerObject8DoCancelEv
U _ZN15OsclTimerObject8RunErrorEi
U _ZN15OsclTimerObjectC1EiPKc
U _ZN15OsclTimerObjectD1Ev
U _ZN15Oscl_FileServer5CloseEv
U _ZN15Oscl_FileServer7ConnectEv
U _ZN15Oscl_FileServerC1Ev
U _ZN15Oscl_FileServerD1Ev
T _ZN16DownloadProgress15getClipDurationEv
T _ZN16DownloadProgress16setSupportObjectEPv32DownloadControlSupportObjectType
T _ZN16DownloadProgress21getNewProgressPercentERj
T _ZN16DownloadProgress24calculateDownloadPercentERj
T _ZN16DownloadProgress5resetEv
T _ZN16DownloadProgress6updateEb
T _ZN16DownloadProgressC1Ev
T _ZN16DownloadProgressC2Ev
U _ZN16OsclActiveObject13RunIfNotReadyEv
U _ZN16OsclActiveObject14AddToSchedulerEv
U _ZN16OsclActiveObject19RemoveFromSchedulerEv
U _ZN16OsclActiveObject6CancelEv
U _ZN16OsclActiveObject8DoCancelEv
U _ZN16OsclActiveObject8RunErrorEi
U _ZN16OsclActiveObjectC1EiPKc
U _ZN16OsclActiveObjectD1Ev
U _ZN16OsclErrorTrapImp4TrapEv
U _ZN16OsclErrorTrapImp6UnTrapEv
U _ZN16OsclErrorTrapImp9TrapNoTlsEPS_
U _ZN16Oscl_Int64_Utils18get_uint64_lower32ERKy
U _ZN16Oscl_Vector_Base10push_frontEPKv
U _ZN16Oscl_Vector_Base13assign_vectorERKS_
U _ZN16Oscl_Vector_Base5eraseEPv
U _ZN16Oscl_Vector_Base5eraseEPvS0_
U _ZN16Oscl_Vector_Base7destroyEv
U _ZN16Oscl_Vector_Base7reserveEj
U _ZN16Oscl_Vector_Base9constructEP22Oscl_Opaque_Type_Alloc
U _ZN16Oscl_Vector_Base9constructEP22Oscl_Opaque_Type_AllocRKS_
U _ZN16Oscl_Vector_Base9push_backEPKv
U _ZN16PvmfPortBaseImpl10DisconnectEv
U _ZN16PvmfPortBaseImpl11PeerConnectEP17PVMFPortInterface
U _ZN16PvmfPortBaseImpl11ResumeInputEv
U _ZN16PvmfPortBaseImpl12PortActivityE20PVMFPortActivityType
U _ZN16PvmfPortBaseImpl12SuspendInputEv
U _ZN16PvmfPortBaseImpl14ClearMsgQueuesEv
U _ZN16PvmfPortBaseImpl14PeerDisconnectEv
U _ZN16PvmfPortBaseImpl14ReadyToReceiveEv
U _ZN16PvmfPortBaseImpl14isIncomingFullEv
U _ZN16PvmfPortBaseImpl14isOutgoingFullEv
U _ZN16PvmfPortBaseImpl15LogMediaMsgInfoE13OsclSharedPtrI12PVMFMediaMsgEPKci
U _ZN16PvmfPortBaseImpl16QueueOutgoingMsgE13OsclSharedPtrI12PVMFMediaMsgE
U _ZN16PvmfPortBaseImpl18DequeueIncomingMsgER13OsclSharedPtrI12PVMFMediaMsgE
U _ZN16PvmfPortBaseImpl19IsConnectedPortBusyEv
U _ZN16PvmfPortBaseImpl19IsOutgoingQueueBusyEv
U _ZN16PvmfPortBaseImpl20EvaluateIncomingBusyEv
U _ZN16PvmfPortBaseImpl20EvaluateOutgoingBusyEv
U _ZN16PvmfPortBaseImpl20IncomingMsgQueueSizeEv
U _ZN16PvmfPortBaseImpl20OutgoingMsgQueueSizeEv
U _ZN16PvmfPortBaseImpl4SendEv
U _ZN16PvmfPortBaseImpl7ConnectEP17PVMFPortInterface
U _ZN16PvmfPortBaseImpl7ReceiveE13OsclSharedPtrI12PVMFMediaMsgE
U _ZN16PvmfPortBaseImplC1EiP23PVMFPortActivityHandlerPKc
U _ZN16PvmfPortBaseImplC1EiP23PVMFPortActivityHandlerjjjjjjPKc
U _ZN16PvmfPortBaseImplD1Ev
T _ZN17DownloadContainer10doPreStartEv
T _ZN17DownloadContainer12doInfoUpdateEj
T _ZN17DownloadContainer13addSourceDataEPv
T _ZN17DownloadContainer13createCfgFileER11OSCL_String
T _ZN17DownloadContainer13doCancelClearEv
T _ZN17DownloadContainer14initNodeOutputEv
T _ZN17DownloadContainer14setHttpVersionEj
T _ZN17DownloadContainer17ignoreThisTimeoutEi
T _ZN17DownloadContainer19initDownloadControlEv
T _ZN17DownloadContainer19isStreamingPlaybackEv
T _ZN17DownloadContainer21deleteProtocolObjectsEv
T _ZN17DownloadContainer21updateDownloadControlEb
T _ZN17DownloadContainer25handleContentRangeUnmatchEv
T _ZN17DownloadContainer26initProtocol_SetConfigInfoEv
T _ZN17DownloadContainer27checkSendResumeNotificationEv
T _ZN17DownloadContainer27handleProtocolStateCompleteER33PVProtocolEngineNodeInternalEventP40PVProtocolEngineNodeInternalEventHandler
T _ZN17DownloadContainer27setHttpExtensionHeaderFieldER11OSCL_StringS1_10HttpMethodb
T _ZN17DownloadContainer30setEventReporterSupportObjectsEv
T _ZN17DownloadContainer36downloadUpdateForHttpHeaderAvailableEv
T _ZN17DownloadContainer6doStopEv
T _ZN17DownloadContainer7doClearEb
T _ZN17DownloadContainer7doPauseEv
T _ZN17DownloadContainer8getProxyER11OSCL_StringRj
T _ZN17DownloadContainerC1EP22PVMFProtocolEngineNode
T _ZN17DownloadContainerC2EP22PVMFProtocolEngineNode
U _ZN17OsclSharedLibrary14QueryInterfaceERK8OsclUuidRPv
U _ZN17OsclSharedLibrary5CloseEv
U _ZN17OsclSharedLibrary7LoadLibERK11OSCL_String
U _ZN17OsclSharedLibraryC1Ev
U _ZN17OsclSharedLibraryD1Ev
U _ZN17PVMFNodeInterface15ReportInfoEventERK14PVMFAsyncEvent
U _ZN17PVMFNodeInterface15ReportInfoEventEiPvP11PVInterface
U _ZN17PVMFNodeInterface16ReportErrorEventERK14PVMFAsyncEvent
U _ZN17PVMFNodeInterface16ReportErrorEventEiPvP11PVInterface
U _ZN17PVMFNodeInterface22ReportCmdCompleteEventEiRK11PVMFCmdResp
U _ZN17PVMFNodeInterface8SetStateE23TPVMFNodeInterfaceState
T _ZN17ProtocolContainer11doStopClearEv
T _ZN17ProtocolContainer12initProtocolEv
T _ZN17ProtocolContainer13doCancelClearEv
T _ZN17ProtocolContainer13handleTimeoutEi
T _ZN17ProtocolContainer14isObjectsReadyEv
T _ZN17ProtocolContainer15reconnectSocketEb
T _ZN17ProtocolContainer16setSupportObjectEPvj
T _ZN17ProtocolContainer17ignoreThisTimeoutEi
T _ZN17ProtocolContainer21createProtocolObjectsEv
T _ZN17ProtocolContainer21deleteProtocolObjectsEv
T _ZN17ProtocolContainer22startDataFlowByCommandEb
T _ZN17ProtocolContainer23getBitMaskForHTTPMethodE10HttpMethod
T _ZN17ProtocolContainer23sendSocketDisconnectCmdEv
T _ZN17ProtocolContainer27handleProtocolStateCompleteER33PVProtocolEngineNodeInternalEventP40PVProtocolEngineNodeInternalEventHandler
T _ZN17ProtocolContainer5clearEv
T _ZN17ProtocolContainer5doEOSEb
T _ZN17ProtocolContainer6doStopEv
T _ZN17ProtocolContainer7doClearEb
T _ZN17ProtocolContainer8initImplEv
T _ZN17ProtocolContainer9doPrepareEv
T _ZN17ProtocolContainer9getObjectE14NodeObjectType
T _ZN17ProtocolContainerC1EP22PVMFProtocolEngineNode
T _ZN17ProtocolContainerC2EP22PVMFProtocolEngineNode
T _ZN17pvDownloadControl11setFileSizeEj
T _ZN17pvDownloadControl16isResumePlaybackEjjj
T _ZN17pvDownloadControl16setSupportObjectEPv32DownloadControlSupportObjectType
T _ZN17pvDownloadControl18divisionInMilliSecEjj
T _ZN17pvDownloadControl19createDownloadClockEv
T _ZN17pvDownloadControl22sendResumeNotificationEb
T _ZN17pvDownloadControl23checkResumeNotificationEb
T _ZN17pvDownloadControl23isDlAlgoPreConditionMetEjjjj
T _ZN17pvDownloadControl24cancelResumeNotificationEv
T _ZN17pvDownloadControl24checkSendingNotificationEb
T _ZN17pvDownloadControl25approveAutoResumeDecisionEjjj
T _ZN17pvDownloadControl25requestResumeNotificationEjRbS0_
T _ZN17pvDownloadControl26isResumePlaybackWithOldAlgEjj
T _ZN17pvDownloadControl30getPlaybackTimeFromEngineClockERj
T _ZN17pvDownloadControl32sendDownloadCompleteNotificationEv
T _ZN17pvDownloadControl33checkAutoResumeAlgoWithConstraintEjjjj
T _ZN17pvDownloadControl5clearEv
T _ZN17pvDownloadControl9clearBodyEv
T _ZN17pvDownloadControlC1Ev
T _ZN17pvDownloadControlC2Ev
U _ZN18OsclConfigFileList15GetConfigfileAtEj
U _ZN18OsclConfigFileList4SizeEv
U _ZN18OsclConfigFileList8PopulateERK11OSCL_StringNS_8SortTypeE
U _ZN18OsclConfigFileListC1Ev
U _ZN18OsclConfigFileListD1Ev
T _ZN20PVDlCfgFileContainer13configCfgFileER11OSCL_String
T _ZN20PVDlCfgFileContainer13createCfgFileER11OSCL_String
T _ZN20PVDlCfgFileContainer13loadOldConfigEv
T _ZN20pvHttpDownloadOutput10initializeEPv
T _ZN20pvHttpDownloadOutput11discardDataEb
T _ZN20pvHttpDownloadOutput14openDataStreamEPv
T _ZN20pvHttpDownloadOutput15setOutputObjectEPvj
T _ZN20pvHttpDownloadOutput17writeToDataStreamEPhj
T _ZN20pvHttpDownloadOutput17writeToDataStreamER11Oscl_VectorI21OsclRefCounterMemFrag16OsclMemAllocatorE
T _ZN20pvHttpDownloadOutput22getAvailableOutputSizeEv
T _ZN20pvHttpDownloadOutput25getMaxAvailableOutputSizeEv
T _ZN20pvHttpDownloadOutput5resetEv
T _ZN20pvHttpDownloadOutput9flushDataEj
T _ZN20pvHttpDownloadOutputC1EP36PVMFProtocolEngineNodeOutputObserver
T _ZN20pvHttpDownloadOutputC2EP36PVMFProtocolEngineNodeOutputObserver
T _ZN20pvHttpDownloadOutputD0Ev
T _ZN20pvHttpDownloadOutputD1Ev
T _ZN20pvHttpDownloadOutputD2Ev
U _ZN21OsclSingletonRegistry18lockAndGetInstanceEjRi
U _ZN21OsclSingletonRegistry25registerInstanceAndUnlockEPvjRi
U _ZN21PVMFSimpleMediaBufferC1EPvjP14OsclRefCounter
T _ZN21PVMFSocketNodeFactory20CreatePVMFSocketNodeEi
T _ZN21PVMFSocketNodeFactory20DeletePVMFSocketNodeEP17PVMFNodeInterface
T _ZN21downloadEventReporter16checkReportEventEj
T _ZN21downloadEventReporter16setSupportObjectEPv30EventReporterSupportObjectType
T _ZN21downloadEventReporter18sendDataReadyEventEv
T _ZN21downloadEventReporter20checkBufferInfoEventEj
T _ZN21downloadEventReporter21checkContentInfoEventEj
T _ZN21downloadEventReporter21checkContentTruncatedEj
T _ZN21downloadEventReporter21sendBufferStatusEventEv
T _ZN21downloadEventReporter23isDownloadFileTruncatedEj
T _ZN21downloadEventReporter23reportBufferStatusEventEj
T _ZN21downloadEventReporter24checkBufferCompleteEventEj
T _ZN21downloadEventReporter24checkUnexpectedDataEventEj
T _ZN21downloadEventReporter26checkServerDisconnectEventEj
T _ZN21downloadEventReporter28checkContentLengthOrTooLargeEv
T _ZN21downloadEventReporter28enableBufferingCompleteEventEv
T _ZN21downloadEventReporter43checkUnexpectedDataAndServerDisconnectEventEj
T _ZN21downloadEventReporter5clearEv
T _ZN21downloadEventReporterC1EP21EventReporterObserver
T _ZN21downloadEventReporterC2EP21EventReporterObserver
T _ZN22HttpParsingBasicObject11getBasicPtrE9StrPtrLenRj
T _ZN22HttpParsingBasicObject11getRealmPtrERPKcRjS3_
T _ZN22HttpParsingBasicObject13getAuthenInfoER11OSCL_String
T _ZN22HttpParsingBasicObject13parseResponseER11Oscl_VectorI13OsclSharedPtrI12PVMFMediaMsgE16OsclMemAllocatorE
T _ZN22HttpParsingBasicObject14getContentTypeER11OSCL_String
T _ZN22HttpParsingBasicObject14getRedirectURIER11OSCL_String
T _ZN22HttpParsingBasicObject15setDownloadSizeEj
T _ZN22HttpParsingBasicObject32isServerSendAuthenticationHeaderEv
T _ZN22HttpParsingBasicObject34isServerSupportBasicAuthenticationEv
T _ZN22HttpParsingBasicObject39isNewContentRangeInfoMatchingCurrentOneEj
T _ZN22HttpParsingBasicObject6createEv
T _ZN22PVMFProtocolEngineNode24GetMediaPresentationInfoER25PVMFMediaPresentationInfo
U _ZN23PVMFBufferPoolAllocatorC1Eb
U _ZN25PVMFBasicErrorInfoMessageC1EiR8OsclUuidP29PVMFErrorInfoMessageInterface
T _ZN26InterfacingObjectContainer13setHttpHeaderER11Oscl_VectorI21OsclRefCounterMemFrag16OsclMemAllocatorE
T _ZN26InterfacingObjectContainer17setStreamingProxyER12OSCL_wStringj
T _ZN26InterfacingObjectContainer34setNumBuffersInMediaDataPoolSMCalcEj
T _ZN26progressiveDownloadControl16checkNewDurationEjRj
T _ZN26progressiveDownloadControl19updateDownloadClockEv
T _ZN26progressiveDownloadControl21isBufferingEnoughTimeEjjj
T _ZN26progressiveDownloadControl23isDlAlgoPreConditionMetEjjjj
T _ZN26progressiveDownloadControl25checkEstDurationAvailableEjRj
T _ZN26progressiveDownloadControl31checkAutoResumeAlgoNoConstraintEjjRj
T _ZN26progressiveDownloadControl32isPlaybackRateCloseToClipBitrateEjjj
T _ZN26progressiveDownloadControl33approveAutoResumeDecisionShortCutEjjjRj
T _ZN27PVMFProtocolEngineNodeTimer10getTimeoutEj
T _ZN27PVMFProtocolEngineNodeTimer11clearExceptEj
T _ZN27PVMFProtocolEngineNodeTimer3setEji
T _ZN27PVMFProtocolEngineNodeTimer5clearEv
T _ZN27PVMFProtocolEngineNodeTimer5startEji
T _ZN27PVMFProtocolEngineNodeTimer6cancelEj
T _ZN27PVMFProtocolEngineNodeTimer6createEP17OsclTimerObserver
T _ZN27PVMFProtocolEngineNodeTimerD1Ev
T _ZN27PVMFProtocolEngineNodeTimerD2Ev
T _ZN27ProgressiveDownloadProgress16setSupportObjectEPv32DownloadControlSupportObjectType
T _ZN27ProgressiveDownloadProgress19updateDownloadClockEb
T _ZN27ProgressiveDownloadProgress22getDownloadBytePercentEjj
T _ZN27ProgressiveDownloadProgress24calculateDownloadPercentERj
T _ZN27ProgressiveDownloadProgress28calculateDownloadPercentBodyERjj
T _ZN27ProgressiveDownloadProgress40checkDownloadPercentModeAndUpdateDLClockEv
T _ZN27ProgressiveDownloadProgress5resetEv
T _ZN27progressiveStreamingControl15clearPerRequestEv
T _ZN27progressiveStreamingControl25requestResumeNotificationEjRbS0_
T _ZN27progressiveStreamingControlC1Ev
T _ZN27progressiveStreamingControlC2Ev
T _ZN28PVMFProtocolEngineNodeOutput10isPortBusyEv
T _ZN28PVMFProtocolEngineNodeOutput10sendToPortER13OsclSharedPtrI13PVMFMediaDataEj
T _ZN28PVMFProtocolEngineNodeOutput11discardDataEb
T _ZN28PVMFProtocolEngineNodeOutput13createMemPoolEv
T _ZN28PVMFProtocolEngineNodeOutput13deleteMemPoolEv
T _ZN28PVMFProtocolEngineNodeOutput14sendToDestPortER13OsclSharedPtrI13PVMFMediaDataEP22PVMFProtocolEnginePort
T _ZN28PVMFProtocolEngineNodeOutput15createMediaDataER13OsclSharedPtrI13PVMFMediaDataEj
T _ZN28PVMFProtocolEngineNodeOutput15setOutputObjectEPvj
T _ZN28PVMFProtocolEngineNodeOutput21passDownNewOutputDataER11Oscl_VectorI21OsclRefCounterMemFrag16OsclMemAllocatorEPv
T _ZN28PVMFProtocolEngineNodeOutput5resetEv
T _ZN28PVMFProtocolEngineNodeOutput9flushDataEj
T _ZN28PVMFProtocolEngineNodeOutput9getBufferER13OsclSharedPtrI13PVMFMediaDataEj
T _ZN28PVMFProtocolEngineNodeOutputC1EP36PVMFProtocolEngineNodeOutputObserver
T _ZN28PVMFProtocolEngineNodeOutputC2EP36PVMFProtocolEngineNodeOutputObserver
T _ZN28PVMFProtocolEngineNodeOutputD0Ev
T _ZN28PVMFProtocolEngineNodeOutputD1Ev
T _ZN28PVMFProtocolEngineNodeOutputD2Ev
T _ZN28ProgressiveDownloadContainer19needSocketReconnectEv
T _ZN28ProgressiveDownloadContainer21createProtocolObjectsEv
T _ZN28ProgressiveDownloadContainer26initProtocol_SetConfigInfoEv
T _ZN28ProgressiveDownloadContainer8initImplEv
T _ZN28ProgressiveDownloadContainerC1EP22PVMFProtocolEngineNode
T _ZN28ProgressiveDownloadContainerC2EP22PVMFProtocolEngineNode
T _ZN28ProgressiveDownloadState_GET15setHeaderFieldsEv
T _ZN28ProgressiveDownloadState_GET18checkParsingStatusEi
T _ZN28ProgressiveDownloadState_GET19OutputDataAvailableEP11Oscl_VectorI21OsclRefCounterMemFrag16OsclMemAllocatorEb
T _ZN28ProgressiveDownloadState_GET20setRangeHeaderFieldsEv
T _ZN28ProgressiveDownloadState_GET21updateOutputDataQueueEP11Oscl_VectorI21OsclRefCounterMemFrag16OsclMemAllocatorE
T _ZN28ProgressiveDownloadState_GET24updateDownloadStatisticsEv
T _ZN28ProgressiveDownloadState_GET31getEndFragmentInNewDownloadDataER11Oscl_VectorI21OsclRefCounterMemFrag16OsclMemAllocatorERjS5_
T _ZN28ProgressiveDownloadState_GET33getStartFragmentInNewDownloadDataER11Oscl_VectorI21OsclRefCounterMemFrag16OsclMemAllocatorERbRjS6_
T _ZN28ProgressiveDownloadState_GET36processMicroStateGetResponsePreCheckEv
T _ZN28ProgressiveDownloadState_GET41checkContentInfoMatchingForResumeDownloadEv
T _ZN28ProgressiveStreamingProgress24calculateDownloadPercentERj
T _ZN28pvProgressiveStreamingOutput14openDataStreamEPv
T _ZN28pvProgressiveStreamingOutput14releaseMemFragEP21OsclRefCounterMemFrag
T _ZN28pvProgressiveStreamingOutput14seekDataStreamEj
T _ZN28pvProgressiveStreamingOutput15flushDataStreamEv
T _ZN28pvProgressiveStreamingOutput16setContentLengthEj
T _ZN28pvProgressiveStreamingOutput26dataStreamCommandCompletedERK11PVMFCmdResp
T _ZN28pvProgressiveStreamingOutput9flushDataEj
T _ZN28pvProgressiveStreamingOutputC1EP36PVMFProtocolEngineNodeOutputObserver
T _ZN28pvProgressiveStreamingOutputC2EP36PVMFProtocolEngineNodeOutputObserver
U _ZN29OsclMemPoolResizableAllocator9removeRefEv
U _ZN29OsclMemPoolResizableAllocatorC1EjjjP13Oscl_DefAlloc
T _ZN29PVMFProtocolEngineNodeFactory28CreatePVMFProtocolEngineNodeEi
T _ZN29PVMFProtocolEngineNodeFactory28DeletePVMFProtocolEngineNodeEP17PVMFNodeInterface
T _ZN29ProgressiveDownloadState_HEAD15setHeaderFieldsEv
T _ZN29ProgressiveDownloadState_HEAD16setRequestBasicsEv
T _ZN29ProgressiveDownloadState_HEAD18checkParsingStatusEi
T _ZN29ProgressiveDownloadState_HEAD19OutputDataAvailableEP11Oscl_VectorI21OsclRefCounterMemFrag16OsclMemAllocatorEb
T _ZN29ProgressiveStreamingContainer10doSeekBodyEj
T _ZN29ProgressiveStreamingContainer12doInfoUpdateEj
T _ZN29ProgressiveStreamingContainer13getSeekOffsetER29PVMFProtocolEngineNodeCommand
T _ZN29ProgressiveStreamingContainer21createProtocolObjectsEv
T _ZN29ProgressiveStreamingContainer21updateDownloadControlEb
T _ZN29ProgressiveStreamingContainer25completeRepositionRequestEv
T _ZN29ProgressiveStreamingContainer36needToCheckResumeNotificationMauallyEv
T _ZN29ProgressiveStreamingContainer6doSeekER29PVMFProtocolEngineNodeCommand
T _ZN29ProgressiveStreamingContainer6doStopEv
T _ZN29ProgressiveStreamingContainerC1EP22PVMFProtocolEngineNode
T _ZN29ProgressiveStreamingContainerC2EP22PVMFProtocolEngineNode
T _ZN29ProgressiveStreamingState_GET18checkParsingStatusEi
T _ZN29UserAgentFieldForProgDownload19getDefaultUserAgentER11OSCL_String
T _ZN29UserAgentFieldForProgDownloadC1ER11OSCL_Stringb
T _ZN29UserAgentFieldForProgDownloadC1ER12OSCL_wStringb
T _ZN29UserAgentFieldForProgDownloadC2ER11OSCL_Stringb
T _ZN29UserAgentFieldForProgDownloadC2ER12OSCL_wStringb
U _ZN30OsclMemPoolFixedChunkAllocator23enablenullpointerreturnEv
U _ZN30OsclMemPoolFixedChunkAllocator9removeRefEv
U _ZN30OsclMemPoolFixedChunkAllocatorC1EjjP13Oscl_DefAlloc
U _ZN30OsclMemPoolFixedChunkAllocatorD1Ev
U _ZN30PVMFMemPoolFixedChunkAllocatorC1EPKcjjP13Oscl_DefAlloc
U _ZN30PVMFMemPoolFixedChunkAllocatorD1Ev
T _ZN33progressiveStreamingEventReporter23reportBufferStatusEventEi
U _ZN34PVMFSimpleMediaBufferCombinedAlloc8allocateEj
T _ZN36PVMFSocketNodeExtensionInterfaceImpl18CreateSharedBufferEPK17PVMFPortInterfacejjjj
T _ZN36PVMFSocketNodeExtensionInterfaceImpl23GetMaxTCPRecvBufferSizeERj
T _ZN36PVMFSocketNodeExtensionInterfaceImpl23SetMaxTCPRecvBufferSizeEj
T _ZN36PVMFSocketNodeExtensionInterfaceImpl24AllocateConsecutivePortsEP11OSCL_StringRjS2_S2_
T _ZN36PVMFSocketNodeExtensionInterfaceImpl24GetMaxTCPRecvBufferCountERj
T _ZN36PVMFSocketNodeExtensionInterfaceImpl24SetMaxTCPRecvBufferCountEj
T _ZN37PVProgressiveDownloadCfgFileContainer13configCfgFileER11OSCL_String
T _ZN37PVProgressiveDownloadCfgFileContainer31convertToConfigFilePlaybackModeEN26PVMFDownloadDataSourceHTTP18TPVPlaybackControlE
U _ZN37PvmiCapabilityAndConfigPortFormatImpl17getParametersSyncEPvPcRP9__PvmiKvpRiS0_
U _ZN37PvmiCapabilityAndConfigPortFormatImpl17releaseParametersEPvP9__PvmiKvpi
U _ZN37PvmiCapabilityAndConfigPortFormatImpl17setParametersSyncEPvP9__PvmiKvpiRS2_
U _ZN37PvmiCapabilityAndConfigPortFormatImpl20verifyParametersSyncEPvP9__PvmiKvpi
T _ZN57PVMFProtocolEngineNodeProgressiveDownloadContainerFactory6CreateEP22PVMFProtocolEngineNode
T _ZN57PVMFProtocolEngineNodeProgressiveDownloadContainerFactory6DeleteEP17ProtocolContainer
T _ZN58PVMFProtocolEngineNodeProgressiveStreamingContainerFactory6CreateEP22PVMFProtocolEngineNode
T _ZN58PVMFProtocolEngineNodeProgressiveStreamingContainerFactory6DeleteEP17ProtocolContainer
T _ZN7INetURI14getHostAndPortER11OSCL_StringRi
T _ZN7INetURI6setURIER12OSCL_wStringb
U _ZN7OsclDNS13GetHostByNameEPcR18OsclNetworkAddressi
U _ZN7OsclDNS19CancelGetHostByNameEv
U _ZN7OsclDNS4NewLER13Oscl_DefAllocR14OsclSocketServR15OsclDNSObserverj
U _ZN8CHeapRep10append_repERPS_R13Oscl_DefAllocPKcj
U _ZN8CHeapRep10append_repERPS_R13Oscl_DefAllocPKwj
U _ZN8CHeapRep10remove_refER13Oscl_DefAlloc
U _ZN8CHeapRep6assignERPS_S0_R13Oscl_DefAlloc
U _ZN8CHeapRep7set_repERPS_R13Oscl_DefAllocPKcj
U _ZN8CHeapRep7set_repERPS_R13Oscl_DefAllocPKwj
U _ZN8PVLogger15GetLoggerObjectEPKc
U _ZN9CStackRep3setEPKcj
U _ZN9CStackRep6appendEPKcj
U _ZN9OsclError11LeaveIfNullEPv
U _ZN9OsclError5LeaveEi
U _ZN9Oscl_File4OpenEPKwjR15Oscl_FileServer
U _ZN9Oscl_File4ReadEPvjj
U _ZN9Oscl_File5CloseEv
U _ZN9Oscl_File5FlushEv
U _ZN9Oscl_File5WriteEPKvjj
U _ZN9Oscl_FileC1Ej
U _ZNK11OSCL_String11is_writableEv
U _ZNK11OSCL_String4hashEv
U _ZNK11OSCL_String4readEj
U _ZNK11OSCL_StringeqEPKc
U _ZNK11OSCL_StringeqERKS_
U _ZNK12OSCL_wString11is_writableEv
U _ZNK12OSCL_wString4hashEv
U _ZNK12OSCL_wString4readEj
U _ZNK12PVActiveBase7IsAddedEv
U _ZNK14PVMFFormatType12isCompressedEv
U _ZNK15OSCL_FastString7get_strEv
U _ZNK15OSCL_FastString8get_cstrEv
U _ZNK15OSCL_FastString8get_sizeEv
U _ZNK15OsclTimerObject6StatusEv
U _ZNK16PvmfPortBaseImpl10GetPortTagEv
V _ZTV10BasicAlloc
V _ZTV10Oscl_Alloc
V _ZTV11Oscl_TAllocI14PVMFSocketPort16OsclMemAllocatorE
V _ZTV11Oscl_TAllocI15OSCL_HeapStringI16OsclMemAllocatorES1_E
V _ZTV11Oscl_TAllocI21OsclRefCounterMemFrag16OsclMemAllocatorE
V _ZTV11Oscl_TAllocI22PVMFProtocolEnginePort16OsclMemAllocatorE
V _ZTV11Oscl_TAllocI8OsclUuid16OsclMemAllocatorE
V _ZTV11Oscl_TAllocIN9OsclTimerI16OsclMemAllocatorE11_TimerEntryES1_E
V _ZTV11Oscl_VectorI13OsclSharedPtrI12PVMFMediaMsgE16OsclMemAllocatorE
V _ZTV11Oscl_VectorI14PVMFFormatType16OsclMemAllocatorE
V _ZTV11Oscl_VectorI15OSCL_HeapStringI16OsclMemAllocatorES1_E
V _ZTV11Oscl_VectorI15PVMFNodeSession16OsclMemAllocatorE
V _ZTV11Oscl_VectorI16PVMFPortActivity16OsclMemAllocatorE
V _ZTV11Oscl_VectorI18OsclMemoryFragment16OsclMemAllocatorE
V _ZTV11Oscl_VectorI20StrCSumPtrLenWrapper16OsclMemAllocatorE
V _ZTV11Oscl_VectorI21OsclRefCounterMemFrag11Oscl_TAllocIS0_16OsclMemAllocatorEE
V _ZTV11Oscl_VectorI21OsclRefCounterMemFrag16OsclMemAllocatorE
V _ZTV11Oscl_VectorI21PVMFSocketNodeCommand16OsclMemAllocatorE
V _ZTV11Oscl_VectorI24RefCounterMemoryFragment16OsclMemAllocatorE
V _ZTV11Oscl_VectorI26OutgoingMsgSentSuccessInfo16OsclMemAllocatorE
V _ZTV11Oscl_VectorI29PVMFProtocolEngineNodeCommand16OsclMemAllocatorE
V _ZTV11Oscl_VectorI31PVMFProtocolEngineContainerInfo16OsclMemAllocatorE
V _ZTV11Oscl_VectorI33PVProtocolEngineNodeInternalEvent16OsclMemAllocatorE
V _ZTV11Oscl_VectorI9TimerUnit16OsclMemAllocatorE
V _ZTV11Oscl_VectorIP13OsclTCPSocket16OsclMemAllocatorE
V _ZTV11Oscl_VectorIP13OsclUDPSocket16OsclMemAllocatorE
V _ZTV11Oscl_VectorIP14PVMFSocketPort16OsclMemAllocatorE
V _ZTV11Oscl_VectorIP16SocketPortConfig16OsclMemAllocatorE
V _ZTV11Oscl_VectorIP21OsclRefCounterMemFrag16OsclMemAllocatorE
V _ZTV11Oscl_VectorIP22PVMFProtocolEnginePort16OsclMemAllocatorE
V _ZTV11Oscl_VectorIP7OsclDNS16OsclMemAllocatorE
V _ZTV11Oscl_VectorIPN30PVMFProtocolEngineNodeRegistry33PVProtocolEngineNodeSharedLibInfoE16OsclMemAllocatorE
V _ZTV11Oscl_VectorIPN9OsclTimerI16OsclMemAllocatorE11_TimerEntryES1_E
V _ZTV11Oscl_VectorIS_I21OsclRefCounterMemFrag16OsclMemAllocatorES1_E
V _ZTV11Oscl_VectorIb16OsclMemAllocatorE
V _ZTV11Oscl_VectorIi16OsclMemAllocatorE
V _ZTV11Oscl_VectorIj16OsclMemAllocatorE
D _ZTV11PVDlCfgFile
V _ZTV11PVInterface
U _ZTV11PVMFCmdResp
V _ZTV12Oscl_Dealloc
V _ZTV12PVMFPortIter
V _ZTV12PVMFTimebase
V _ZTV12UserCommands
V _ZTV13CallbackTimerI16OsclMemAllocatorE
D _ZTV13DownloadState
D _ZTV13EventReporter
V _ZTV13OsclSharedPtrI11PVDlCfgFileE
V _ZTV13OsclSharedPtrI12PVMFMediaCmdE
V _ZTV13OsclSharedPtrI12PVMFMediaMsgE
V _ZTV13OsclSharedPtrI13PVMFMediaDataE
V _ZTV13OsclSharedPtrI14PVMFMediaClockE
V _ZTV13OsclSharedPtrI17PVMFMediaDataImplE
V _ZTV13Oscl_DefAlloc
V _ZTV13PVMFEventBase
D _ZTV13ProtocolState
V _ZTV13_OsclHeapBase
V _ZTV14OsclRefCounter
U _ZTV14PVMFAsyncEvent
V _ZTV14PVMFFormatType
V _ZTV14PVMFPortVectorI14PVMFSocketPort16OsclMemAllocatorE
V _ZTV14PVMFPortVectorI22PVMFProtocolEnginePort16OsclMemAllocatorE
D _ZTV14PVMFSocketNode
D _ZTV14PVMFSocketPort
V _ZTV14UserAgentField
V _ZTV15OSCL_HeapStringI16OsclMemAllocatorE
V _ZTV15OsclDNSObserver
V _ZTV15PVInterfaceImplI16OsclMemAllocatorE
D _ZTV16DownloadProgress
V _ZTV16OSCL_StackStringILj128EE
V _ZTV16OSCL_wHeapStringI16OsclMemAllocatorE
V _ZTV16OsclMemAllocator
V _ZTV16OsclRefCounterDA
V _ZTV16OsclRefCounterSAI18PVDlSharedPtrAllocI11PVDlCfgFileEE
V _ZTV16OsclRefCounterSAI18PVDlSharedPtrAllocI14PVMFMediaClockEE
V _ZTV16OsclRefCounterSAI30OsclRefCounterMemFragCleanupSAE
V _ZTV16Oscl_Vector_Base
V _ZTV16ProtocolObserver
D _ZTV16SocketPortConfig
D _ZTV17DownloadContainer
V _ZTV17HttpBasedProtocol
V _ZTV17OsclTimerObserver
V _ZTV17PVMFMediaDataImpl
U _ZTV17PVMFNodeInterface
D _ZTV17ProtocolContainer
D _ZTV17pvDownloadControl
V _ZTV18OsclSocketObserver
V _ZTV18PVDlSharedPtrAllocI11PVDlCfgFileE
V _ZTV18PVDlSharedPtrAllocI14PVMFMediaClockE
V _ZTV18PVMFMediaFragGroupI16OsclMemAllocatorE
V _ZTV19OsclDestructDealloc
V _ZTV19ProgressiveDownload
V _ZTV19pvHttpDownloadInput
D _ZTV20PVDlCfgFileContainer
V _ZTV20ProgressiveStreaming
D _ZTV20pvHttpDownloadOutput
V _ZTV21CallbackTimerObserver
V _ZTV21EventReporterObserver
D _ZTV21NormalDataFlowHandler
V _ZTV21PVMFSocketNodeCommand
V _ZTV21PVMFSocketNodeMemPool
V _ZTV21ProtocolStateObserver
D _ZTV21downloadEventReporter
V _ZTV22HttpParsingBasicObject
V _ZTV22Oscl_Opaque_Type_Alloc
V _ZTV22PVMFGenericNodeCommandI16OsclMemAllocatorE
D _ZTV22PVMFProtocolEngineNode
D _ZTV22PVMFProtocolEnginePort
U _ZTV22PVMFTimebase_Tickcount
V _ZTV23PVMFPortActivityHandler
V _ZTV23PvmiCapabilityAndConfig
V _ZTV24DownloadControlInterface
V _ZTV25DownloadProgressInterface
V _ZTV25ProtocolContainerObserver
D _ZTV25ProtocolStateErrorHandler
D _ZTV26EndOfDataProcessingHandler
D _ZTV26HTTPParserCTEContentObject
V _ZTV26HTTPParserEntityBodyObject
D _ZTV26HttpHeaderAvailableHandler
D _ZTV26NormalDataAvailableHandler
D _ZTV26progressiveDownloadControl
D _ZTV27FirstPacketAvailableHandler
V _ZTV27PVMIDatastreamuserInterface
D _ZTV27ProgressiveDownloadProgress
D _ZTV27progressiveStreamingControl
D _ZTV28PVMFProtocolEngineNodeOutput
D _ZTV28ProgressiveDownloadContainer
D _ZTV28ProgressiveDownloadState_GET
D _ZTV28ProgressiveStreamingProgress
D _ZTV28ProtocolStateCompleteHandler
D _ZTV28pvProgressiveStreamingOutput
D _ZTV29HTTPParserNormalContentObject
D _ZTV29OutgoingMsgSentSuccessHandler
V _ZTV29PVMFDownloadProgressInterface
V _ZTV29PVMFProtocolEngineNodeCommand
D _ZTV29ProgressiveDownloadState_HEAD
D _ZTV29ProgressiveStreamingContainer
D _ZTV29ProgressiveStreamingState_GET
V _ZTV29PvmiDataStreamRequestObserver
D _ZTV29UserAgentFieldForProgDownload
D _ZTV30CheckResumeNotificationHandler
V _ZTV30HttpParsingBasicObjectObserver
V _ZTV30OsclRefCounterMemFragCleanupDA
V _ZTV30OsclRefCounterMemFragCleanupSA
D _ZTV30PVMFProtocolEngineNodeRegistry
V _ZTV31PVMFMediaFragGroupCombinedAllocI16OsclMemAllocatorE
D _ZTV32HTTPParserMultipartContentObject
V _ZTV32PVMFResizableSimpleMediaMsgAlloc
V _ZTV32PVMFSocketNodeExtensionInterface
V _ZTV33OsclMemPoolVariableChunkAllocator
V _ZTV33progressiveStreamingEventReporter
V _ZTV34PVMFSimpleMediaBufferCombinedAlloc
D _ZTV35ServerResponseErrorBypassingHandler
V _ZTV36PVMFProtocolEngineNodeOutputObserver
D _ZTV36PVMFSocketNodeExtensionInterfaceImpl
V _ZTV36PVMFTrackSelectionExtensionInterface
V _ZTV37OsclMemPoolResizableAllocatorObserver
D _ZTV37PVProgressiveDownloadCfgFileContainer
U _ZTV37PvmiCapabilityAndConfigPortFormatImpl
V _ZTV38OsclMemPoolFixedChunkAllocatorObserver
V _ZTV38OsclMemPoolResizableAllocatorCleanupDA
V _ZTV38PVProgressiveStreamingCfgFileContainer
V _ZTV39PVMFProtocolEngineNodeRegistryInterface
V _ZTV40PVMFProtocolEngineNodeExtensionInterface
D _ZTV40PVProtocolEngineNodeInternalEventHandler
V _ZTV46PVMFDataSourceInitializationExtensionInterface
V _ZTV55PVMFProtocolEngineNodeMSHTTPStreamingExtensionInterface
V _ZTV8HeapBase
V _ZTV9OsclTimerI16OsclMemAllocatorE
T _ZThn136_N14PVMFSocketNode17HandleSocketEventEi12TPVSocketFxn14TPVSocketEventi
T _ZThn136_N14PVMFSocketNodeD0Ev
T _ZThn136_N14PVMFSocketNodeD1Ev
T _ZThn140_N14PVMFSocketNode14HandleDNSEventEi9TPVDNSFxn11TPVDNSEventi
T _ZThn140_N14PVMFSocketNodeD0Ev
T _ZThn140_N14PVMFSocketNodeD1Ev
T _ZThn148_N22PVMFProtocolEngineNode24GetMediaPresentationInfoER25PVMFMediaPresentationInfo
T _ZThn24_N36PVMFSocketNodeExtensionInterfaceImpl18CreateSharedBufferEPK17PVMFPortInterfacejjjj
T _ZThn24_N36PVMFSocketNodeExtensionInterfaceImpl23GetMaxTCPRecvBufferSizeERj
T _ZThn24_N36PVMFSocketNodeExtensionInterfaceImpl23SetMaxTCPRecvBufferSizeEj
T _ZThn24_N36PVMFSocketNodeExtensionInterfaceImpl24AllocateConsecutivePortsEP11OSCL_StringRjS2_S2_
T _ZThn24_N36PVMFSocketNodeExtensionInterfaceImpl24GetMaxTCPRecvBufferCountERj
T _ZThn24_N36PVMFSocketNodeExtensionInterfaceImpl24SetMaxTCPRecvBufferCountEj
T _ZThn4_N14PVMFSocketNode11ReleasePortEiR17PVMFPortInterfacePKv
T _ZThn4_N14PVMFSocketNode11RequestPortEiiPK11OSCL_StringPKv
T _ZThn4_N14PVMFSocketNode11ThreadLogonEv
T _ZThn4_N14PVMFSocketNode12ThreadLogoffEv
T _ZThn4_N14PVMFSocketNode13CancelCommandEiiPKv
T _ZThn4_N14PVMFSocketNode13GetCapabilityER18PVMFNodeCapability
T _ZThn4_N14PVMFSocketNode14QueryInterfaceEiRK8OsclUuidRP11PVInterfacePKv
T _ZThn4_N14PVMFSocketNode17CancelAllCommandsEiPKv
T _ZThn4_N14PVMFSocketNode4InitEiPKv
T _ZThn4_N14PVMFSocketNode4StopEiPKv
T _ZThn4_N14PVMFSocketNode5FlushEiPKv
T _ZThn4_N14PVMFSocketNode5PauseEiPKv
T _ZThn4_N14PVMFSocketNode5ResetEiPKv
T _ZThn4_N14PVMFSocketNode5StartEiPKv
T _ZThn4_N14PVMFSocketNode7PrepareEiPKv
T _ZThn4_N14PVMFSocketNode8GetPortsEPK14PVMFPortFilter
T _ZThn4_N14PVMFSocketNode9QueryUUIDEiRK11OSCL_StringR11Oscl_VectorI8OsclUuid16OsclMemAllocatorEbPKv
T _ZThn4_N14PVMFSocketNodeD0Ev
T _ZThn4_N14PVMFSocketNodeD1Ev
U _ZThn4_N15OsclTimerObject8DoCancelEv
U _ZThn4_N15OsclTimerObject8RunErrorEi
U _ZThn4_N16OsclActiveObject8DoCancelEv
U _ZThn4_N16OsclActiveObject8RunErrorEi
T _ZThn52_N14PVMFSocketNodeD0Ev
T _ZThn52_N14PVMFSocketNodeD1Ev
T _ZThn56_N14PVMFSocketNodeD0Ev
T _ZThn56_N14PVMFSocketNodeD1Ev
U _ZdaPv
U _ZdlPv
U _Znaj
U _Znwj
U __aeabi_d2uiz
U __aeabi_dmul
U __aeabi_f2uiz
U __aeabi_fadd
U __aeabi_fdiv
U __aeabi_fmul
U __aeabi_i2f
U __aeabi_idiv
U __aeabi_ui2d
U __aeabi_ui2f
U __aeabi_uidiv
U __aeabi_uidivmod
U __aeabi_unwind_cpp_pr0
U __aeabi_unwind_cpp_pr1
A __bss_end__
A __bss_start
A __bss_start__
U __cxa_pure_virtual
A __data_start
A __end__
A __exidx_end
A __exidx_start
U __stack_chk_fail
U __stack_chk_guard
A _bss_end__
A _edata
A _end
A _stack
U free
U gettimeofday
U inet_addr
U lrand48
U malloc
U memcpy
U memset
U setjmp
U srand48
