T AMRDecode
T A_Refl
T AmrWbInterpol
T AmrWbUp_samp
T Bgn_scd
T Bgn_scd_reset
U Bits2prm
T CN_dithering
T Cb_gain_average
T Cb_gain_average_reset
U Copy
T D_plsf_3
T D_plsf_5
T D_plsf_reset
T Dec_gain
T Dec_lag3
T Dec_lag6
T Decoder_amr
T Decoder_amr_init
T Decoder_amr_reset
T Disf_ns
T Dot_product12
T Dpisf_2s_36b
T Dpisf_2s_46b
T Ex_ctrl
T GSMDecodeFrameExit
T GSMFrameDecode
T GSMInitDecode
T Get_isp_pol
T Get_isp_pol_16kHz
R If2DecBytesPerFrame
T Init_D_plsf_3
T Init_Lagconc
U Int_lpc_1and3
U Int_lpc_1to3
T Int_lsf
U Inv_sqrt
T Isf_isp
T Isp_Az
U L_abs
U L_deposit_h
U L_deposit_l
U L_shr_r
T Lg2_normalized
U Log2
U Lsf_lsp
U Lsp_Az
U Lsp_lsf
T PVGetInterface
T PVReleaseInterface
T Pit_shrp
T Post_Filter
T Post_Filter_reset
T Post_Process
T Post_Process_reset
U Pow2
T Pred_lt4
U Pred_lt_3or6
T Reorder_isf
U Reorder_lsf
U Residu
T Serial_parm
T Serial_parm_1bit
U Set_zero
T Speech_Decode_Frame_reset
U Syn_filt
T Syn_filt_32
U Weight_Ai
R WmfDecBytesPerFrame
U _Z11oscl_strcmpPKcS0_
T _Z14insertion_sortPss
U _Z15GetQueueNumElemP9QueueType
U _Z17_oscl_default_newj
T _Z18energy_new_WrapperPssPi
T _Z18energy_old_WrapperPssPi
T _Z22AmrOmxComponentFactoryPPvS_S_PcRS_S_Rm
T _Z25AmrOmxComponentDestructorPvRS_S_Rm
T _Z25decoder_homing_frame_testPs4Mode
T _Z31decoder_homing_frame_test_firstPs4Mode
T _Z6insertPsss
U _Z7DeQueueP9QueueType
T _ZN12OpenmaxAmrAO11ProcessDataEv
T _ZN12OpenmaxAmrAO13ComponentInitEv
T _ZN12OpenmaxAmrAO14ResetComponentEv
T _ZN12OpenmaxAmrAO15ComponentDeInitEv
T _ZN12OpenmaxAmrAO16DecodeWithMarkerEv
T _ZN12OpenmaxAmrAO16DestroyComponentEv
T _ZN12OpenmaxAmrAO18ConstructComponentEPvS0_
T _ZN12OpenmaxAmrAO18DoSilenceInsertionEv
T _ZN12OpenmaxAmrAO19DecodeWithoutMarkerEv
T _ZN12OpenmaxAmrAO19ProcessInBufferFlagEv
T _ZN12OpenmaxAmrAO22SyncWithInputTimestampEv
T _ZN12OpenmaxAmrAO24CheckForSilenceInsertionEv
T _ZN12OpenmaxAmrAO28ComponentGetRolesOfComponentEPPc
T _ZN12OpenmaxAmrAO32ComponentBufferMgmtWithoutMarkerEv
T _ZN12OpenmaxAmrAO9GetConfigEPv13OMX_INDEXTYPES0_
T _ZN12OpenmaxAmrAOC1Ev
T _ZN12OpenmaxAmrAOC2Ev
T _ZN12OpenmaxAmrAOD0Ev
T _ZN12OpenmaxAmrAOD1Ev
T _ZN12OpenmaxAmrAOD2Ev
T _ZN13OmxAmrDecoder10AmrDecInitE28OMX_AUDIO_AMRFRAMEFORMATTYPE25OMX_AUDIO_AMRBANDMODETYPE
T _ZN13OmxAmrDecoder12AmrDecDeinitEv
T _ZN13OmxAmrDecoder12ResetDecoderEv
T _ZN13OmxAmrDecoder14AmrDecodeFrameEPsPmPPhS1_PlP8OMX_BOOL
T _ZN13OmxAmrDecoder18GetFrameTypeLengthERPhPl
T _ZN13OmxAmrDecoder21AmrDecodeSilenceFrameEPsPm
T _ZN13OmxAmrDecoder33GetStartPointsForIETFCombinedModeEPhmRS0_Pl
T _ZN13OmxAmrDecoderC1Ev
T _ZN13OmxAmrDecoderC2Ev
T _ZN15CDecoder_AMR_NB10ConstructLEv
T _ZN15CDecoder_AMR_NB13ResetDecoderLEv
T _ZN15CDecoder_AMR_NB17TerminateDecoderLEv
T _ZN15CDecoder_AMR_NB4NewLEv
T _ZN15CDecoder_AMR_NB5StopLEv
T _ZN15CDecoder_AMR_NB6StartLEP21tPVAmrDecoderExternalbb
T _ZN15CDecoder_AMR_NB8ExecuteLEP21tPVAmrDecoderExternal
T _ZN15CDecoder_AMR_NBD0Ev
T _ZN15CDecoder_AMR_NBD1Ev
T _ZN15CDecoder_AMR_NBD2Ev
T _ZN15CDecoder_AMR_WB10ConstructLEv
T _ZN15CDecoder_AMR_WB13ResetDecoderLEv
T _ZN15CDecoder_AMR_WB17TerminateDecoderLEv
T _ZN15CDecoder_AMR_WB4NewLEv
T _ZN15CDecoder_AMR_WB5StopLEv
T _ZN15CDecoder_AMR_WB6StartLEP21tPVAmrDecoderExternalbb
T _ZN15CDecoder_AMR_WB8ExecuteLEP21tPVAmrDecoderExternal
T _ZN15CDecoder_AMR_WBD0Ev
T _ZN15CDecoder_AMR_WBD1Ev
T _ZN15CDecoder_AMR_WBD2Ev
U _ZN16OmxComponentBase17ReturnInputBufferEP20OMX_BUFFERHEADERTYPEP17ComponentPortType
U _ZN16OmxComponentBase18BufferMgmtFunctionEv
U _ZN16OmxComponentBase18ReturnOutputBufferEP20OMX_BUFFERHEADERTYPEP17ComponentPortType
U _ZN16OmxComponentBase20DestroyBaseComponentEv
U _ZN16OmxComponentBase21BaseComponentGetStateEPvP13OMX_STATETYPE
U _ZN16OmxComponentBase22BaseComponentGetConfigEPv13OMX_INDEXTYPES0_
U _ZN16OmxComponentBase22BaseComponentSetConfigEPv13OMX_INDEXTYPES0_
U _ZN16OmxComponentBase22BaseComponentUseBufferEPvPP20OMX_BUFFERHEADERTYPEmS0_mPh
U _ZN16OmxComponentBase22ConstructBaseComponentEPv
U _ZN16OmxComponentBase23BaseComponentFreeBufferEPvmP20OMX_BUFFERHEADERTYPE
U _ZN16OmxComponentBase23BufferMgmtWithoutMarkerEv
U _ZN16OmxComponentBase24BaseComponentSendCommandEPv15OMX_COMMANDTYPEmS0_
U _ZN16OmxComponentBase25BaseComponentGetParameterEPv13OMX_INDEXTYPES0_
U _ZN16OmxComponentBase25BaseComponentSetCallbacksEPvP16OMX_CALLBACKTYPES0_
U _ZN16OmxComponentBase25BaseComponentSetParameterEPv13OMX_INDEXTYPES0_
U _ZN16OmxComponentBase26BaseComponentProxyGetStateEPvP13OMX_STATETYPE
U _ZN16OmxComponentBase26ParseFullAVCFramesIntoNALsEP20OMX_BUFFERHEADERTYPE
U _ZN16OmxComponentBase27BaseComponentAllocateBufferEPvPP20OMX_BUFFERHEADERTYPEmS0_m
U _ZN16OmxComponentBase27BaseComponentFillThisBufferEPvP20OMX_BUFFERHEADERTYPE
U _ZN16OmxComponentBase27BaseComponentProxyGetConfigEPv13OMX_INDEXTYPES0_
U _ZN16OmxComponentBase27BaseComponentProxySetConfigEPv13OMX_INDEXTYPES0_
U _ZN16OmxComponentBase27BaseComponentProxyUseBufferEPvPP20OMX_BUFFERHEADERTYPEmS0_mPh
U _ZN16OmxComponentBase28BaseComponentEmptyThisBufferEPvP20OMX_BUFFERHEADERTYPE
U _ZN16OmxComponentBase28BaseComponentProxyFreeBufferEPvmP20OMX_BUFFERHEADERTYPE
U _ZN16OmxComponentBase29BaseComponentProxySendCommandEPv15OMX_COMMANDTYPEmS0_
U _ZN16OmxComponentBase30BaseComponentGetExtensionIndexEPvPcP13OMX_INDEXTYPE
U _ZN16OmxComponentBase30BaseComponentProxyGetParameterEPv13OMX_INDEXTYPES0_
U _ZN16OmxComponentBase30BaseComponentProxySetParameterEPv13OMX_INDEXTYPES0_
U _ZN16OmxComponentBase32BaseComponentProxyAllocateBufferEPvPP20OMX_BUFFERHEADERTYPEmS0_m
U _ZN16OmxComponentBase32BaseComponentProxyFillThisBufferEPvP20OMX_BUFFERHEADERTYPE
U _ZN16OmxComponentBase32TempInputBufferMgmtWithoutMarkerEv
U _ZN16OmxComponentBase33BaseComponentProxyEmptyThisBufferEPvP20OMX_BUFFERHEADERTYPE
U _ZN16OmxComponentBase35BaseComponentProxyGetExtensionIndexEPvPcP13OMX_INDEXTYPE
U _ZN16OmxComponentBase3RunEv
U _ZN16OmxComponentBase9SetConfigEPv13OMX_INDEXTYPES0_
U _ZN16OmxComponentBase9SetHeaderEPvm
U _ZN16OsclActiveObject13RunIfNotReadyEv
U _ZN16OsclActiveObject14AddToSchedulerEv
U _ZN16OsclActiveObject19RemoveFromSchedulerEv
U _ZN16OsclActiveObject8DoCancelEv
U _ZN16OsclActiveObject8RunErrorEi
U _ZN16OsclActiveObjectD1Ev
U _ZN17OmxComponentAudio12GetParameterEPv13OMX_INDEXTYPES0_
U _ZN17OmxComponentAudio12SetParameterEPv13OMX_INDEXTYPES0_
U _ZN17OmxComponentAudioC1Ev
U _ZNK12PVActiveBase7IsAddedEv
D _ZTV12OpenmaxAmrAO
D _ZTV15CDecoder_AMR_NB
D _ZTV15CDecoder_AMR_WB
U _ZTV16OmxComponentBase
V _ZTV21CDecoder_AMRInterface
V _ZTV25OmxSharedLibraryInterface
V _ZTV26OsclSharedLibraryInterface
V _ZTV28AmrOmxSharedLibraryInterface
T _ZThn4_N12OpenmaxAmrAOD0Ev
T _ZThn4_N12OpenmaxAmrAOD1Ev
U _ZThn4_N16OmxComponentBase3RunEv
U _ZThn4_N16OsclActiveObject8DoCancelEv
U _ZThn4_N16OsclActiveObject8RunErrorEi
U _ZdaPv
U _ZdlPv
U _Znaj
U _Znwj
U __aeabi_ldivmod
U __aeabi_unwind_cpp_pr0
U __aeabi_unwind_cpp_pr1
A __bss_end__
A __bss_start
A __bss_start__
U __cxa_pure_virtual
A __data_start
A __end__
A __exidx_end
A __exidx_start
U __stack_chk_fail
U __stack_chk_guard
A _bss_end__
A _edata
A _end
A _stack
U add
T add_pulses
T agc
T agc2
T agc2_amr_wb
T agc_reset
T amrwb_log_2
T aver_isf_history
T band_pass_6k_7k
T band_pass_6k_7k_init
U bitno
T build_CN_code
T build_CN_param
T d_gain_code
T d_gain_pitch
T dec_10i40_35bits
T dec_1p_N1
T dec_2p_2N1
T dec_3p_3N1
T dec_4p_4N
T dec_4p_4N1
T dec_5p_5N
T dec_6p_6N_2
T dec_8i40_31bits
T dec_acelp_2p_in_64
T dec_acelp_4p_in_64
T dec_gain2_amr_wb
T dec_gain2_amr_wb_init
T decode_2i40_11bits
T decode_2i40_9bits
T decode_3i40_14bits
T decode_4i40_17bits
T deemphasis_32
U dgray
T dhf_test
R dico1_isf
R dico1_isf_noise
U dico1_lsf_3
U dico1_lsf_5
R dico21_isf
R dico21_isf_36b
R dico22_isf
R dico22_isf_36b
R dico23_isf
R dico23_isf_36b
R dico24_isf
R dico25_isf
R dico2_isf
R dico2_isf_noise
U dico2_lsf_3
U dico2_lsf_5
R dico3_isf_noise
U dico3_lsf_3
U dico3_lsf_5
R dico4_isf_noise
U dico4_lsf_5
R dico5_isf_noise
U dico5_lsf_5
T dithering_control
T div_16by16
U div_s
T dtx_dec
T dtx_dec_activity_update
T dtx_dec_amr_wb
T dtx_dec_amr_wb_activity_update
T dtx_dec_amr_wb_reset
T dtx_dec_reset
T ec_gain_code
T ec_gain_code_reset
T ec_gain_code_update
T ec_gain_pitch
T ec_gain_pitch_reset
T ec_gain_pitch_update
U extract_h
U extract_l
T find_frame_indices
U free
U gc_pred
U gc_pred_average_limited
U gc_pred_reset
U gc_pred_update
U gmed_n
T highpass_400Hz_at_12k8
T highpass_400Hz_at_12k8_init
T highpass_50Hz_at_12k8
T highpass_50Hz_at_12k8_init
T if2_to_ets
T int32_to_dpf
T interpolate_isp
T isf_extrapolation
T lagconceal
T low_pass_filt_7k
T low_pass_filt_7k_init
T lsp_avg
T lsp_avg_reset
U malloc
R mean_isf
R mean_isf_noise
U mean_lsf_3
U mean_lsf_5
T median5
U memcpy
U memset
T mime_unsorting
T mpy_dpf_32
U mr515_3_lsf
U mr795_1_lsf
T mult_int16_r
T noise_gen_amrwb
U numCompressedBytes
U numOfBits
T one_ov_sqrt
T one_ov_sqrt_norm
T oversamp_12k8_to_16k
T oversamp_12k8_to_16k_init
R packed_size
U past_rq_init
T ph_disp
T ph_disp_lock
T ph_disp_release
T ph_disp_reset
U ph_imp_low
U ph_imp_low_MR795
U ph_imp_mid
U ph_imp_mid_MR795
T phase_dispersion
T power_of_2
U pred_fac_3
T preemph_amrwb_dec
T preemphasis
T preemphasis_reset
U prmno
U prmnofsf
T pseudonoise
T pvDecoder_AmrWb
T pvDecoder_AmrWbMemRequirements
T pvDecoder_AmrWb_Init
T pvDecoder_AmrWb_Reset
T pvDecoder_AmrWb_homing_frame_test
T pvDecoder_AmrWb_homing_frame_test_first
U pv_round
U qua_gain_code
U qua_gain_pitch
U reorderBits
T rx_amr_wb_dtx_handler
T rx_dtx_handler
T scale_signal
U shr
U shr_r
T shr_rnd
R sort_1265
R sort_1425
R sort_1585
R sort_1825
R sort_1985
R sort_2305
R sort_2385
R sort_660
R sort_885
R sort_SID
U sqrt_l_exp
U startPos
U sub
T synthesis_amr_wb
R t_qua_gain6b
R t_qua_gain7b
R table_gain_MR475
U table_gain_highrates
U table_gain_lowrates
R toc_byte
R unpacked_size
R unused_size
T voice_factor
T wb_syn_filt
T weight_amrwb_lpc
U window_200_40
T wmf_to_ets
