T OMXConfigParser
T OMX_ComponentNameEnum
T OMX_Deinit
T OMX_FreeHandle
T OMX_GetComponentsOfRole
T OMX_GetContentPipe
T OMX_GetHandle
T OMX_GetRolesOfComponent
T OMX_Init
T OMX_SetupTunnel
T PVGetInterface
T PVReleaseInterface
T _Z11QueueDeinitP9QueueType
U _Z11oscl_strcmpPKcS0_
U _Z11oscl_strlenPKc
T _Z12AddQueueElemP9QueueType
U _Z12oscl_strncmpPKcS0_j
U _Z12oscl_strncpyPcPKcj
U _Z13oscl_snprintfPcjPKcz
U _Z14oscl_vsnprintfPcjPKcPv
T _Z15GetQueueNumElemP9QueueType
U _Z22pv_audio_config_parserP25pvAudioConfigParserInputsP26pvAudioConfigParserOutputs
U _Z22pv_video_config_parserP25pvVideoConfigParserInputsP26pvVideoConfigParserOutputs
T _Z29GlobalProxyComponentGetHandlePPvPcS_P16OMX_CALLBACKTYPES_
T _Z30GlobalProxyComponentFreeHandlePv
T _Z5QueueP9QueueTypePv
T _Z7DeQueueP9QueueType
T _Z9QueueInitP9QueueType
U _ZN10OsclThread5GetIdERl
U _ZN10OsclThread6CreateEPFPvS0_EiS0_16OsclThread_Stateb
U _ZN10OsclThread9TerminateEPv
U _ZN10OsclThreadC1Ev
U _ZN10OsclThreadD1Ev
U _ZN11OSCL_String5writeEjc
U _ZN11OSCL_String5writeEjjPKc
U _ZN11OSCL_StringC1Ev
U _ZN11OSCL_StringD1Ev
U _ZN13OsclErrorTrap4InitEP13Oscl_DefAlloc
U _ZN13OsclErrorTrap7CleanupEv
U _ZN13OsclScheduler4InitEPKcP13Oscl_DefAlloci
U _ZN13OsclScheduler7CleanupEv
U _ZN13OsclSemaphore4WaitEv
U _ZN13OsclSemaphore5CloseEv
U _ZN13OsclSemaphore6CreateEj
U _ZN13OsclSemaphore6SignalEv
U _ZN13OsclSemaphoreC1Ev
U _ZN13OsclSemaphoreD1Ev
U _ZN13StrCSumPtrLen11setCheckSumEv
U _ZN15PVThreadContext17ExitThreadContextEv
U _ZN15PVThreadContext18EnterThreadContextEv
U _ZN15PVThreadContext19IsSameThreadContextEv
U _ZN15PVThreadContextC1Ev
U _ZN15PVThreadContextD1Ev
T _ZN16OmxComponentBase10DoStateSetEm
T _ZN16OmxComponentBase10EnablePortEl
T _ZN16OmxComponentBase10FreeBufferEPvmP20OMX_BUFFERHEADERTYPE
T _ZN16OmxComponentBase11CheckHeaderEPvm
T _ZN16OmxComponentBase11DisablePortEl
T _ZN16OmxComponentBase11SendCommandEPv15OMX_COMMANDTYPElS0_
T _ZN16OmxComponentBase12SetCallbacksEPvP16OMX_CALLBACKTYPES0_
T _ZN16OmxComponentBase13TunnelRequestEPvmS0_mP19OMX_TUNNELSETUPTYPE
T _ZN16OmxComponentBase14AllocateBufferEPvPP20OMX_BUFFERHEADERTYPEmS0_m
T _ZN16OmxComponentBase14FillThisBufferEPvP20OMX_BUFFERHEADERTYPE
T _ZN16OmxComponentBase14MessageHandlerEP11CoreMessage
T _ZN16OmxComponentBase15EmptyThisBufferEPvP20OMX_BUFFERHEADERTYPE
T _ZN16OmxComponentBase15ResetAfterFlushEl
T _ZN16OmxComponentBase16EnableSinglePortEm
T _ZN16OmxComponentBase16SetPortFlushFlagEll8OMX_BOOL
T _ZN16OmxComponentBase17DisableSinglePortEm
T _ZN16OmxComponentBase17ReturnInputBufferEP20OMX_BUFFERHEADERTYPEP17ComponentPortType
T _ZN16OmxComponentBase17SetNumBufferFlushElll
T _ZN16OmxComponentBase18BufferMgmtFunctionEv
T _ZN16OmxComponentBase18ReturnOutputBufferEP20OMX_BUFFERHEADERTYPEP17ComponentPortType
T _ZN16OmxComponentBase20DestroyBaseComponentEv
T _ZN16OmxComponentBase20ParameterSanityCheckEPvmS0_j
T _ZN16OmxComponentBase21AssemblePartialFramesEP20OMX_BUFFERHEADERTYPE
T _ZN16OmxComponentBase21BaseComponentGetStateEPvP13OMX_STATETYPE
T _ZN16OmxComponentBase22BaseComponentGetConfigEPv13OMX_INDEXTYPES0_
T _ZN16OmxComponentBase22BaseComponentSetConfigEPv13OMX_INDEXTYPES0_
T _ZN16OmxComponentBase22BaseComponentUseBufferEPvPP20OMX_BUFFERHEADERTYPEmS0_mPh
T _ZN16OmxComponentBase22ConstructBaseComponentEPv
T _ZN16OmxComponentBase23BaseComponentFreeBufferEPvmP20OMX_BUFFERHEADERTYPE
T _ZN16OmxComponentBase23BufferMgmtWithoutMarkerEv
T _ZN16OmxComponentBase24BaseComponentSendCommandEPv15OMX_COMMANDTYPEmS0_
T _ZN16OmxComponentBase25BaseComponentGetParameterEPv13OMX_INDEXTYPES0_
T _ZN16OmxComponentBase25BaseComponentSetCallbacksEPvP16OMX_CALLBACKTYPES0_
T _ZN16OmxComponentBase25BaseComponentSetParameterEPv13OMX_INDEXTYPES0_
T _ZN16OmxComponentBase26BaseComponentProxyGetStateEPvP13OMX_STATETYPE
T _ZN16OmxComponentBase26ParseFullAVCFramesIntoNALsEP20OMX_BUFFERHEADERTYPE
T _ZN16OmxComponentBase27BaseComponentAllocateBufferEPvPP20OMX_BUFFERHEADERTYPEmS0_m
T _ZN16OmxComponentBase27BaseComponentFillThisBufferEPvP20OMX_BUFFERHEADERTYPE
T _ZN16OmxComponentBase27BaseComponentProxyGetConfigEPv13OMX_INDEXTYPES0_
T _ZN16OmxComponentBase27BaseComponentProxySetConfigEPv13OMX_INDEXTYPES0_
T _ZN16OmxComponentBase27BaseComponentProxyUseBufferEPvPP20OMX_BUFFERHEADERTYPEmS0_mPh
T _ZN16OmxComponentBase28BaseComponentEmptyThisBufferEPvP20OMX_BUFFERHEADERTYPE
T _ZN16OmxComponentBase28BaseComponentProxyFreeBufferEPvmP20OMX_BUFFERHEADERTYPE
T _ZN16OmxComponentBase29BaseComponentProxySendCommandEPv15OMX_COMMANDTYPEmS0_
T _ZN16OmxComponentBase30BaseComponentGetExtensionIndexEPvPcP13OMX_INDEXTYPE
T _ZN16OmxComponentBase30BaseComponentProxyGetParameterEPv13OMX_INDEXTYPES0_
T _ZN16OmxComponentBase30BaseComponentProxySetCallbacksEPvP16OMX_CALLBACKTYPES0_
T _ZN16OmxComponentBase30BaseComponentProxySetParameterEPv13OMX_INDEXTYPES0_
T _ZN16OmxComponentBase32BaseComponentProxyAllocateBufferEPvPP20OMX_BUFFERHEADERTYPEmS0_m
T _ZN16OmxComponentBase32BaseComponentProxyFillThisBufferEPvP20OMX_BUFFERHEADERTYPE
T _ZN16OmxComponentBase32ComponentBufferMgmtWithoutMarkerEv
T _ZN16OmxComponentBase32TempInputBufferMgmtWithoutMarkerEv
T _ZN16OmxComponentBase33BaseComponentProxyEmptyThisBufferEPvP20OMX_BUFFERHEADERTYPE
T _ZN16OmxComponentBase35BaseComponentProxyGetExtensionIndexEPvPcP13OMX_INDEXTYPE
T _ZN16OmxComponentBase3RunEv
T _ZN16OmxComponentBase8GetStateEP13OMX_STATETYPE
T _ZN16OmxComponentBase9FlushPortEl
T _ZN16OmxComponentBase9GetConfigEPv13OMX_INDEXTYPES0_
T _ZN16OmxComponentBase9SetConfigEPv13OMX_INDEXTYPES0_
T _ZN16OmxComponentBase9SetHeaderEPvm
T _ZN16OmxComponentBase9UseBufferEPvPP20OMX_BUFFERHEADERTYPEmS0_mPh
T _ZN16OmxComponentBaseC1Ev
T _ZN16OmxComponentBaseC2Ev
U _ZN16OsclActiveObject11PendForExecEv
U _ZN16OsclActiveObject12PendCompleteEi
U _ZN16OsclActiveObject13RunIfNotReadyEv
U _ZN16OsclActiveObject14AddToSchedulerEv
U _ZN16OsclActiveObject19RemoveFromSchedulerEv
U _ZN16OsclActiveObject8DoCancelEv
U _ZN16OsclActiveObject8RunErrorEi
U _ZN16OsclActiveObjectC1EiPKc
U _ZN16OsclActiveObjectD1Ev
U _ZN16OsclErrorTrapImp4TrapEv
U _ZN16OsclErrorTrapImp6UnTrapEv
U _ZN16Oscl_Vector_Base5eraseEPv
U _ZN16Oscl_Vector_Base5eraseEPvS0_
U _ZN16Oscl_Vector_Base7destroyEv
U _ZN16Oscl_Vector_Base9constructEP22Oscl_Opaque_Type_Alloc
U _ZN16Oscl_Vector_Base9push_backEPKv
T _ZN17OmxComponentAudio12GetParameterEPv13OMX_INDEXTYPES0_
T _ZN17OmxComponentAudio12SetParameterEPv13OMX_INDEXTYPES0_
T _ZN17OmxComponentAudioC1Ev
T _ZN17OmxComponentAudioC2Ev
T _ZN17OmxComponentVideo12GetParameterEPv13OMX_INDEXTYPES0_
T _ZN17OmxComponentVideo12SetParameterEPv13OMX_INDEXTYPES0_
T _ZN17OmxComponentVideoC1Ev
T _ZN17OmxComponentVideoC2Ev
U _ZN17OsclExecScheduler7CurrentEv
U _ZN17OsclSharedLibrary14QueryInterfaceERK8OsclUuidRPv
U _ZN17OsclSharedLibrary5CloseEv
U _ZN17OsclSharedLibrary7LoadLibEv
U _ZN17OsclSharedLibraryC1ERK11OSCL_String
U _ZN17OsclSharedLibraryD1Ev
T _ZN20ProxyApplication_OMX13ProxyGetStateEPvP13OMX_STATETYPE
T _ZN20ProxyApplication_OMX14ProxyGetConfigEPv13OMX_INDEXTYPES0_
T _ZN20ProxyApplication_OMX14ProxyGetHandleEPPvPcS0_P16OMX_CALLBACKTYPE
T _ZN20ProxyApplication_OMX14ProxySetConfigEPv13OMX_INDEXTYPES0_
T _ZN20ProxyApplication_OMX14ProxyUseBufferEPvPP20OMX_BUFFERHEADERTYPEmS0_mPh
T _ZN20ProxyApplication_OMX15ProxyFreeBufferEPvmP20OMX_BUFFERHEADERTYPE
T _ZN20ProxyApplication_OMX15ProxyFreeHandleEPv
T _ZN20ProxyApplication_OMX16ProxySendCommandEPv15OMX_COMMANDTYPEmS0_
T _ZN20ProxyApplication_OMX17ProxyGetParameterEPv13OMX_INDEXTYPES0_
T _ZN20ProxyApplication_OMX17ProxySetCallbacksEPvP16OMX_CALLBACKTYPES0_
T _ZN20ProxyApplication_OMX17ProxySetParameterEPv13OMX_INDEXTYPES0_
T _ZN20ProxyApplication_OMX19ProxyAllocateBufferEPvPP20OMX_BUFFERHEADERTYPEmS0_m
T _ZN20ProxyApplication_OMX19ProxyFillThisBufferEPvP20OMX_BUFFERHEADERTYPE
T _ZN20ProxyApplication_OMX20ProxyEmptyThisBufferEPvP20OMX_BUFFERHEADERTYPE
T _ZN20ProxyApplication_OMX22ProxyGetExtensionIndexEPvPcP13OMX_INDEXTYPE
T _ZN20ProxyApplication_OMX4ExitEv
T _ZN20ProxyApplication_OMX5StartEv
T _ZN20ProxyApplication_OMXC1Ev
T _ZN20ProxyApplication_OMXC2Ev
T _ZN20ProxyApplication_OMXD0Ev
T _ZN20ProxyApplication_OMXD1Ev
T _ZN20ProxyApplication_OMXD2Ev
T _ZN21CPVInterfaceProxy_OMX11SendCommandEiiPv
T _ZN21CPVInterfaceProxy_OMX12StopPVThreadEv
T _ZN21CPVInterfaceProxy_OMX13CancelCommandEii
T _ZN21CPVInterfaceProxy_OMX13StartPVThreadEv
T _ZN21CPVInterfaceProxy_OMX16SendNotificationEiPv
T _ZN21CPVInterfaceProxy_OMX17CancelAllCommandsEi
T _ZN21CPVInterfaceProxy_OMX18CancelNotificationEii
T _ZN21CPVInterfaceProxy_OMX20DeliverNotificationsEiRi
T _ZN21CPVInterfaceProxy_OMX22CancelAllNotificationsEi
T _ZN21CPVInterfaceProxy_OMX24RegisterProxiedInterfaceER28PVProxiedInterfaceServer_OMXR28PVProxiedInterfaceClient_OMX
T _ZN21CPVInterfaceProxy_OMX26UnregisterProxiedInterfaceEi
T _ZN21CPVInterfaceProxy_OMX4NewLER19PVProxiedEngine_OMXP13Oscl_DefAllocijjii
T _ZN21CPVInterfaceProxy_OMX6DeleteEv
U _ZN21OsclSingletonRegistry11getInstanceEjRi
U _ZN21OsclSingletonRegistry18lockAndGetInstanceEjRi
U _ZN21OsclSingletonRegistry25registerInstanceAndUnlockEPvjRi
U _ZN27OsclExecSchedulerCommonBase13StopSchedulerEv
U _ZN27OsclExecSchedulerCommonBase14StartSchedulerEP13OsclSemaphore
U _ZN36ThreadSafeMemPoolFixedChunkAllocator6CreateEjjP13Oscl_DefAlloc
U _ZN36ThreadSafeMemPoolFixedChunkAllocator9removeRefEv
U _ZN7OsclMem4InitEv
U _ZN7OsclMem7CleanupEv
U _ZN8CHeapRep10append_repERPS_R13Oscl_DefAllocPKcj
U _ZN8CHeapRep10remove_refER13Oscl_DefAlloc
U _ZN8CHeapRep6assignERPS_S0_R13Oscl_DefAlloc
U _ZN8CHeapRep7set_repERPS_R13Oscl_DefAllocPKcj
U _ZN8OsclBase4InitEv
U _ZN8OsclBase7CleanupEv
U _ZN8OsclInit4InitERiPK10OsclSelect
U _ZN8OsclInit7CleanupERiPK10OsclSelect
U _ZN8PVLogger15GetLoggerObjectEPKc
U _ZN8PVLogger4InitEv
U _ZN8PVLogger7CleanupEv
U _ZN9CStackRep3setEPKcj
U _ZN9CStackRep6appendEPKcj
U _ZN9OsclError11LeaveIfNullEPv
U _ZN9OsclError12LeaveIfErrorEi
U _ZN9OsclError5LeaveEi
U _ZN9OsclMutex4LockEv
U _ZN9OsclMutex5CloseEv
U _ZN9OsclMutex6CreateEv
U _ZN9OsclMutex6UnlockEv
U _ZN9OsclMutexC1Ev
U _ZN9OsclMutexD1Ev
U _ZNK11OSCL_String11is_writableEv
U _ZNK11OSCL_String4hashEv
U _ZNK11OSCL_String4readEj
U _ZNK12PVActiveBase7IsAddedEv
U _ZNK16OsclActiveObject6StatusEv
V _ZTV10Oscl_Alloc
V _ZTV11Oscl_TAllocI15CPVProxyMsg_OMX21Oscl_Vector_AllocatorE
V _ZTV11Oscl_TAllocI21CPVProxyInterface_OMX21Oscl_Vector_AllocatorE
V _ZTV11Oscl_VectorI15CPVProxyMsg_OMX16OsclMemAllocatorE
V _ZTV12OMXInterface
V _ZTV12OsclLockBase
V _ZTV12OsclNullLock
V _ZTV12Oscl_Dealloc
V _ZTV13OsclSharedPtrI16PVLoggerAppenderE
V _ZTV13Oscl_DefAlloc
V _ZTV14OsclRefCounter
V _ZTV14PVLoggerLayout
V _ZTV14PVMFFormatType
V _ZTV14PVOMXInterface
V _ZTV14StdErrAppenderI15TimeAndIdLayoutLi1024E12OsclNullLockE
V _ZTV15OSCL_HeapStringI16OsclMemAllocatorE
V _ZTV15Oscl_Vector_NewI15CPVProxyMsg_OMX21Oscl_Vector_AllocatorE
V _ZTV15Oscl_Vector_NewI21CPVProxyInterface_OMX21Oscl_Vector_AllocatorE
V _ZTV15PVMainProxy_OMX
V _ZTV15TimeAndIdLayout
V _ZTV16OSCL_StackStringILj256EE
D _ZTV16OmxComponentBase
V _ZTV16OsclMemAllocator
V _ZTV16OsclRefCounterSAI20BasicDestructDeallocE
V _ZTV16Oscl_Vector_Base
V _ZTV16PVLoggerAppender
D _ZTV17OmxComponentAudio
D _ZTV17OmxComponentVideo
V _ZTV19OsclDestructDealloc
V _ZTV19PVProxiedEngine_OMX
V _ZTV19_OsclBasicAllocator
V _ZTV20BasicDestructDealloc
D _ZTV20ProxyApplication_OMX
D _ZTV21CPVInterfaceProxy_OMX
V _ZTV21Oscl_Vector_Allocator
V _ZTV22Oscl_Opaque_Type_Alloc
V _ZTV26OsclSharedLibraryInterface
D _ZTV28CPVInterfaceProxyHandler_OMX
V _ZTV28PVProxiedInterfaceClient_OMX
V _ZTV28PVProxiedInterfaceServer_OMX
D _ZTV29CPVInterfaceProxyNotifier_OMX
T _ZThn4_N16OmxComponentBase3RunEv
U _ZThn4_N16OsclActiveObject8DoCancelEv
U _ZThn4_N16OsclActiveObject8RunErrorEi
T _ZThn4_N20ProxyApplication_OMXD0Ev
T _ZThn4_N20ProxyApplication_OMXD1Ev
T _ZThn8_N20ProxyApplication_OMXD0Ev
T _ZThn8_N20ProxyApplication_OMXD1Ev
U _ZdlPv
U _Znwj
U __aeabi_atexit
U __aeabi_unwind_cpp_pr0
U __aeabi_unwind_cpp_pr1
A __bss_end__
A __bss_start
A __bss_start__
U __cxa_pure_virtual
A __data_start
U __dso_handle
A __end__
A __exidx_end
A __exidx_start
U __sF
U __stack_chk_fail
U __stack_chk_guard
A _bss_end__
A _edata
A _end
A _stack
U calloc
U fputc
U fputs
U free
U gettimeofday
U malloc
U memcpy
U memmove
U memset
U prctl
U setjmp
U setpriority
