T BitStreamCreateEnc
T BitstreamAppendEnc
T BitstreamAppendPacket
T BitstreamAppendPacketNoOffset
T BitstreamCloseEnc
T BitstreamEncReset
T BitstreamFlushBits
T BitstreamGetPos
T BitstreamMpeg4ByteAlignStuffing
T BitstreamPrependPacket
T BitstreamPutBits
T BitstreamPutGT16Bits
T BitstreamRepos
T BitstreamSavePartial
T BitstreamSaveWord
T BitstreamSetOverrunBuffer
T BitstreamShortHeaderByteAlignStuffing
T BitstreamUseOverrunBuffer
T Block1x1DCTIntra
T Block1x1DCTwSub
T Block2x2DCT_AANIntra
T Block2x2DCT_AANwSub
T Block4x4DCT_AANIntra
T Block4x4DCT_AANwSub
T BlockCodeCoeff_Normal
T BlockCodeCoeff_RVLC
T BlockCodeCoeff_ShortHeader
T BlockDCT_AANIntra
T BlockDCT_AANwSub
T BlockIDCTMotionComp
T BlockQuantDequantH263DCInter
T BlockQuantDequantH263DCIntra
T BlockQuantDequantH263Inter
T BlockQuantDequantH263Intra
T BlockQuantDequantMPEGDCInter
T BlockQuantDequantMPEGDCIntra
T BlockQuantDequantMPEGInter
T BlockQuantDequantMPEGIntra
T CalcThreshold
T CandidateSelection
T ChooseMode_C
T CodeMB_H263
T CodeMB_MPEG
T ComputeMBSum_C
T Copy_B_from_Vop
T Copy_B_into_Vop
T Copy_MB_from_Vop
T Copy_MB_into_Vop
T DCACPred
T EncGetPredOutside
T EncPrediction_Chrom
T EncPrediction_INTER
T EncPrediction_INTER4V
T EncodeFrameCombinedMode
T EncodeFrameDataPartMode
T EncodeSlice
T EncodeSliceCombinedMode
T EncodeSliceDataPartMode
T EncodeVideoPacketHeader
T EncodeVop
T FindHalfPelBlk
T FindHalfPelMB
T FindMin
T GetHalfPelBlkRegion
T GetHalfPelMBRegion_C
T GetPredAdvBy0x0
T GetPredAdvBy0x1
T GetPredAdvBy1x0
T GetPredAdvBy1x1
T HTFMPrepareCurMB
T HalfPel1_SAD_Blk
T HalfPel1_SAD_MB
T HalfPel2_SAD_Blk
T HalfPel2_SAD_MB
T InitHTFM
T IntraDC_dpcm
T MBMotionSearch
T MBVlcEncodeCombined_I_VOP
T MBVlcEncodeCombined_P_VOP
T MBVlcEncodeDataPar_I_VOP
T MBVlcEncodeDataPar_P_VOP
T MotionEstimation
T MoveNeighborSAD
T PVCleanUpVideoEncoder
T PVEncodeFrameSet
T PVEncodeSlice
T PVEncodeVideoFrame
T PVGetDefaultEncOption
T PVGetEncMemoryUsage
T PVGetH263ProfileLevelID
T PVGetHintTrack
T PVGetInterface
T PVGetMPEG4ProfileLevelID
T PVGetMaxVideoFrameSize
T PVGetOverrunBuffer
T PVGetVBVSize
T PVGetVolHeader
T PVIFrameRequest
T PVInitVideoEncoder
T PVReleaseInterface
T PVUpdateBitRate
T PVUpdateEncFrameRate
T PVUpdateIFrameInterval
T PVUpdateNumIntraMBRefresh
T PaddingEdge
T PrepareCurMB
T PutCBPY
T PutCoeff_Inter
T PutCoeff_Inter_Last
T PutCoeff_Inter_RVLC
T PutCoeff_Inter_RVLC_Last
T PutCoeff_Intra
T PutCoeff_Intra_Last
T PutCoeff_Intra_RVLC
T PutCoeff_Intra_RVLC_Last
T PutDCsize_chrom
T PutDCsize_lum
T PutLevelCoeff_Inter
T PutLevelCoeff_Inter_Last
T PutLevelCoeff_Intra
T PutLevelCoeff_Intra_Last
T PutMCBPC_Inter
T PutMCBPC_Intra
T PutMV
T PutRunCoeff_Inter
T PutRunCoeff_Inter_Last
T PutRunCoeff_Intra
T PutRunCoeff_Intra_Last
T PutSkippedBlock
T RC_Cleanup
T RC_GetSkipNextFrame
T RC_Initialize
T RC_ResetSkipNextFrame
T RC_UpdateBXRCParams
T RC_UpdateBuffer
T RC_VopQPSetting
T RC_VopUpdateStat
T RasterIntraUpdate
T ResetIntraUpdate
T ResetIntraUpdateRegion
T RunLevel
T SAD_Blk_HalfPel_C
T SAD_Block_C
T SAD_MB_HP_HTFM_Collectxh
T SAD_MB_HP_HTFM_Collectxhyh
T SAD_MB_HP_HTFM_Collectyh
T SAD_MB_HP_HTFMxh
T SAD_MB_HP_HTFMxhyh
T SAD_MB_HP_HTFMyh
T SAD_MB_HTFM
T SAD_MB_HTFM_Collect
T SAD_MB_HalfPel_Cxh
T SAD_MB_HalfPel_Cxhyh
T SAD_MB_HalfPel_Cyh
T SAD_Macroblock_C
T Sad8x8
T ScaleMVD
T UpdateHTFM
T WriteMVcomponent
T _Z13SaveRDSamplesP12tagMultiPassi
T _Z14EncodeVop_NoMEP15tagVideoEncData
T _Z15EncodeGOBHeaderP15tagVideoEncDataiii
T _Z15EncodeGOVHeaderP12tagBitstreamj
T _Z15EncodeVOPHeaderP12tagBitstreamP6tagVolP6tagVOP
T _Z15EncodeVOS_StartP19tagvideoEncControls
U _Z15GetQueueNumElemP9QueueType
T _Z16DetermineVopTypeP15tagVideoEncDatai
T _Z16PVUpdateVBVDelayP19tagvideoEncControlsf
T _Z17EncodeShortHeaderP12tagBitstreamP6tagVOP
U _Z17_oscl_default_newj
T _Z17updateRC_PostProcP11rateControlP15tagVideoEncData
T _Z17updateRateControlP11rateControlP15tagVideoEncData
T _Z19UpdateSkipNextFrameP15tagVideoEncDataPmPi9PV_STATUS
T _Z20DetermineCodingLayerP15tagVideoEncDataPim
T _Z20targetBitCalculationPv
T _Z21SetProfile_BufferSizeP15tagVideoEncDatafi
T _Z26H263EncOmxComponentFactoryPPvS_S_PcRS_S_Rm
T _Z27Mpeg4EncOmxComponentFactoryPPvS_S_PcRS_S_Rm
T _Z28calculateQuantizer_MultipassPv
T _Z29H263EncOmxComponentDestructorPvRS_S_Rm
T _Z30Mpeg4EncOmxComponentDestructorPvRS_S_Rm
U _Z7DeQueueP9QueueType
T _Z7VOS_EndP19tagvideoEncControls
T _Z8idct_colPs
T _ZN13CPVM4VEncoder10InitializeEP19TPVVideoInputFormatP19TPVVideoEncodeParam
T _ZN13CPVM4VEncoder11CopyToYUVInEPhiiii
T _ZN13CPVM4VEncoder11EncodeFrameEP17TPVVideoInputDataP18TPVVideoOutputDataPi
T _ZN13CPVM4VEncoder11FlushOutputEP18TPVVideoOutputData
T _ZN13CPVM4VEncoder11SetObserverEP15MPVCVEIObserver
T _ZN13CPVM4VEncoder12GetVolHeaderEPhPii
T _ZN13CPVM4VEncoder13GetBufferSizeEv
T _ZN13CPVM4VEncoder13IFrameRequestEv
T _ZN13CPVM4VEncoder13UpdateBitRateEiPi
T _ZN13CPVM4VEncoder14GetEncodeWidthEi
T _ZN13CPVM4VEncoder15GetEncodeHeightEi
T _ZN13CPVM4VEncoder15UpdateFrameRateEiPf
T _ZN13CPVM4VEncoder17SetIntraMBRefreshEi
T _ZN13CPVM4VEncoder18GetEncodeFrameRateEi
T _ZN13CPVM4VEncoder18iDecodeShortHeaderEP13mp4StreamTypeP18tagvideoEncOptions
T _ZN13CPVM4VEncoder20UpdateIFrameIntervalEi
T _ZN13CPVM4VEncoder3NewEi
T _ZN13CPVM4VEncoder3RunEv
T _ZN13CPVM4VEncoder6EncodeEP17TPVVideoInputData
T _ZN13CPVM4VEncoder8DoCancelEv
T _ZN13CPVM4VEncoder8ParseFSIEPhiP18tagvideoEncOptions
T _ZN13CPVM4VEncoder8ReadBitsEP13mp4StreamTypehPj
T _ZN13CPVM4VEncoder8ShowBitsEP13mp4StreamTypehPj
T _ZN13CPVM4VEncoder9AddBufferEP18TPVVideoOutputData
T _ZN13CPVM4VEncoder9ByteAlignEP13mp4StreamType
T _ZN13CPVM4VEncoder9ConstructEi
T _ZN13CPVM4VEncoder9FlushBitsEP13mp4StreamTypeh
T _ZN13CPVM4VEncoder9TerminateEv
T _ZN13CPVM4VEncoderC1Ev
T _ZN13CPVM4VEncoderC2Ev
T _ZN13CPVM4VEncoderD0Ev
T _ZN13CPVM4VEncoderD1Ev
T _ZN13CPVM4VEncoderD2Ev
U _ZN15CCRGB12toYUV4203NewEv
U _ZN15CCRGB24toYUV4203NewEv
U _ZN15OsclTimerObject13RunIfNotReadyEj
U _ZN15OsclTimerObject14AddToSchedulerEv
U _ZN15OsclTimerObject6CancelEv
U _ZN15OsclTimerObject8RunErrorEi
U _ZN15OsclTimerObjectC1EiPKc
U _ZN15OsclTimerObjectD1Ev
T _ZN16Mpeg4Encoder_OMX10Mp4EncInitEl28OMX_VIDEO_PORTDEFINITIONTYPE23OMX_CONFIG_ROTATIONTYPES0_25OMX_VIDEO_PARAM_MPEG4TYPE35OMX_VIDEO_PARAM_ERRORCORRECTIONTYPE27OMX_VIDEO_PARAM_BITRATETYPE32OMX_VIDEO_PARAM_QUANTIZATIONTYPE32OMX_VIDEO_PARAM_MOTIONVECTORTYPE32OMX_VIDEO_PARAM_INTRAREFRESHTYPE24OMX_VIDEO_PARAM_H263TYPEP32OMX_VIDEO_PARAM_PROFILELEVELTYPE
T _ZN16Mpeg4Encoder_OMX11CopyToYUVInEPhiiii
T _ZN16Mpeg4Encoder_OMX12Mp4EncDeinitEv
T _ZN16Mpeg4Encoder_OMX14Mp4EncodeVideoEPhPmP8OMX_BOOLPS0_S0_mxPxS3_
T _ZN16Mpeg4Encoder_OMX16Mp4RequestIFrameEv
T _ZN16Mpeg4Encoder_OMX16Mp4UpdateBitRateEm
T _ZN16Mpeg4Encoder_OMX18Mp4UpdateFrameRateEm
T _ZN16Mpeg4Encoder_OMX8LessThanERjS0_j
T _ZN16Mpeg4Encoder_OMXC1Ev
T _ZN16Mpeg4Encoder_OMXC2Ev
U _ZN16OmxComponentBase11CheckHeaderEPvm
U _ZN16OmxComponentBase17ReturnInputBufferEP20OMX_BUFFERHEADERTYPEP17ComponentPortType
U _ZN16OmxComponentBase18BufferMgmtFunctionEv
U _ZN16OmxComponentBase18ReturnOutputBufferEP20OMX_BUFFERHEADERTYPEP17ComponentPortType
U _ZN16OmxComponentBase20DestroyBaseComponentEv
U _ZN16OmxComponentBase21BaseComponentGetStateEPvP13OMX_STATETYPE
U _ZN16OmxComponentBase22BaseComponentGetConfigEPv13OMX_INDEXTYPES0_
U _ZN16OmxComponentBase22BaseComponentSetConfigEPv13OMX_INDEXTYPES0_
U _ZN16OmxComponentBase22BaseComponentUseBufferEPvPP20OMX_BUFFERHEADERTYPEmS0_mPh
U _ZN16OmxComponentBase22ConstructBaseComponentEPv
U _ZN16OmxComponentBase23BaseComponentFreeBufferEPvmP20OMX_BUFFERHEADERTYPE
U _ZN16OmxComponentBase23BufferMgmtWithoutMarkerEv
U _ZN16OmxComponentBase24BaseComponentSendCommandEPv15OMX_COMMANDTYPEmS0_
U _ZN16OmxComponentBase25BaseComponentGetParameterEPv13OMX_INDEXTYPES0_
U _ZN16OmxComponentBase25BaseComponentSetCallbacksEPvP16OMX_CALLBACKTYPES0_
U _ZN16OmxComponentBase25BaseComponentSetParameterEPv13OMX_INDEXTYPES0_
U _ZN16OmxComponentBase26BaseComponentProxyGetStateEPvP13OMX_STATETYPE
U _ZN16OmxComponentBase26ParseFullAVCFramesIntoNALsEP20OMX_BUFFERHEADERTYPE
U _ZN16OmxComponentBase27BaseComponentAllocateBufferEPvPP20OMX_BUFFERHEADERTYPEmS0_m
U _ZN16OmxComponentBase27BaseComponentFillThisBufferEPvP20OMX_BUFFERHEADERTYPE
U _ZN16OmxComponentBase27BaseComponentProxyGetConfigEPv13OMX_INDEXTYPES0_
U _ZN16OmxComponentBase27BaseComponentProxySetConfigEPv13OMX_INDEXTYPES0_
U _ZN16OmxComponentBase27BaseComponentProxyUseBufferEPvPP20OMX_BUFFERHEADERTYPEmS0_mPh
U _ZN16OmxComponentBase28BaseComponentEmptyThisBufferEPvP20OMX_BUFFERHEADERTYPE
U _ZN16OmxComponentBase28BaseComponentProxyFreeBufferEPvmP20OMX_BUFFERHEADERTYPE
U _ZN16OmxComponentBase29BaseComponentProxySendCommandEPv15OMX_COMMANDTYPEmS0_
U _ZN16OmxComponentBase30BaseComponentGetExtensionIndexEPvPcP13OMX_INDEXTYPE
U _ZN16OmxComponentBase30BaseComponentProxyGetParameterEPv13OMX_INDEXTYPES0_
U _ZN16OmxComponentBase30BaseComponentProxySetParameterEPv13OMX_INDEXTYPES0_
U _ZN16OmxComponentBase32BaseComponentProxyAllocateBufferEPvPP20OMX_BUFFERHEADERTYPEmS0_m
U _ZN16OmxComponentBase32BaseComponentProxyFillThisBufferEPvP20OMX_BUFFERHEADERTYPE
U _ZN16OmxComponentBase32ComponentBufferMgmtWithoutMarkerEv
U _ZN16OmxComponentBase33BaseComponentProxyEmptyThisBufferEPvP20OMX_BUFFERHEADERTYPE
U _ZN16OmxComponentBase35BaseComponentProxyGetExtensionIndexEPvPcP13OMX_INDEXTYPE
U _ZN16OmxComponentBase3RunEv
U _ZN16OmxComponentBase9GetConfigEPv13OMX_INDEXTYPES0_
U _ZN16OmxComponentBase9SetHeaderEPvm
U _ZN16OsclActiveObject13RunIfNotReadyEv
U _ZN16OsclActiveObject14AddToSchedulerEv
U _ZN16OsclActiveObject19RemoveFromSchedulerEv
U _ZN16OsclActiveObject8DoCancelEv
U _ZN16OsclActiveObject8RunErrorEi
U _ZN16OsclActiveObjectD1Ev
U _ZN17OmxComponentVideo12GetParameterEPv13OMX_INDEXTYPES0_
U _ZN17OmxComponentVideo12SetParameterEPv13OMX_INDEXTYPES0_
U _ZN17OmxComponentVideoC1Ev
U _ZN20CCYUV420SEMItoYUV4203NewEv
T _ZN22OmxComponentMpeg4EncAO11ProcessDataEv
T _ZN22OmxComponentMpeg4EncAO13ComponentInitEv
T _ZN22OmxComponentMpeg4EncAO14SetEncoderModeEl
T _ZN22OmxComponentMpeg4EncAO15ComponentDeInitEv
T _ZN22OmxComponentMpeg4EncAO16DestroyComponentEv
T _ZN22OmxComponentMpeg4EncAO18ConstructComponentEPvS0_
T _ZN22OmxComponentMpeg4EncAO19ProcessInBufferFlagEv
T _ZN22OmxComponentMpeg4EncAO22CopyDataToOutputBufferEv
T _ZN22OmxComponentMpeg4EncAO28ComponentGetRolesOfComponentEPPc
T _ZN22OmxComponentMpeg4EncAO9SetConfigEPv13OMX_INDEXTYPES0_
T _ZN22OmxComponentMpeg4EncAOC1Ev
T _ZN22OmxComponentMpeg4EncAOC2Ev
T _ZN22OmxComponentMpeg4EncAOD0Ev
T _ZN22OmxComponentMpeg4EncAOD1Ev
T _ZN22OmxComponentMpeg4EncAOD2Ev
U _ZNK12PVActiveBase7IsAddedEv
D _ZTV13CPVM4VEncoder
U _ZTV16OmxComponentBase
V _ZTV18CommonVideoEncoder
D _ZTV22OmxComponentMpeg4EncAO
V _ZTV25OmxSharedLibraryInterface
V _ZTV26OsclSharedLibraryInterface
V _ZTV37Mpeg4H263EncOmxSharedLibraryInterface
T _ZThn4_N13CPVM4VEncoder3RunEv
T _ZThn4_N13CPVM4VEncoder8DoCancelEv
T _ZThn4_N13CPVM4VEncoderD0Ev
T _ZThn4_N13CPVM4VEncoderD1Ev
U _ZThn4_N15OsclTimerObject8RunErrorEi
U _ZThn4_N16OmxComponentBase3RunEv
U _ZThn4_N16OsclActiveObject8DoCancelEv
U _ZThn4_N16OsclActiveObject8RunErrorEi
T _ZThn4_N22OmxComponentMpeg4EncAOD0Ev
T _ZThn4_N22OmxComponentMpeg4EncAOD1Ev
U _ZdlPv
U _Znwj
U __aeabi_d2f
U __aeabi_d2iz
U __aeabi_d2uiz
U __aeabi_dadd
U __aeabi_dcmpgt
U __aeabi_dcmple
U __aeabi_dcmplt
U __aeabi_ddiv
U __aeabi_dmul
U __aeabi_dsub
U __aeabi_f2d
U __aeabi_f2iz
U __aeabi_f2uiz
U __aeabi_fadd
U __aeabi_fcmpeq
U __aeabi_fcmpge
U __aeabi_fcmpgt
U __aeabi_fcmple
U __aeabi_fcmplt
U __aeabi_fdiv
U __aeabi_fmul
U __aeabi_fsub
U __aeabi_i2d
U __aeabi_i2f
U __aeabi_idiv
U __aeabi_idivmod
U __aeabi_ui2d
U __aeabi_ui2f
U __aeabi_uidiv
U __aeabi_unwind_cpp_pr0
U __aeabi_unwind_cpp_pr1
A __bss_end__
A __bss_start
A __bss_start__
U __cxa_pure_virtual
A __data_start
A __end__
A __exidx_end
A __exidx_start
U __stack_chk_fail
U __stack_chk_guard
A _bss_end__
A _edata
A _end
A _stack
T cal_dc_scalerENC
T find_pmvs
U free
T fullsearch
T fullsearchBlk
T getBlockSAV
T getBlockSum
T getMotionCompensatedMB
T get_MB
T idct_col0
T idct_col0x10
T idct_col0x20
T idct_col0x40
T idct_col1
T idct_col2
T idct_col3
T idct_col4
T idct_row0Inter
T idct_row0Intra
T idct_row0x10Inter
T idct_row0x10Intra
T idct_row0x10zmv
T idct_row0x20Inter
T idct_row0x20Intra
T idct_row0x20zmv
T idct_row0x40Inter
T idct_row0x40Intra
T idct_row0x40zmv
T idct_row0zmv
T idct_row1Inter
T idct_row1Intra
T idct_row1zmv
T idct_row2Inter
T idct_row2Intra
T idct_row2zmv
T idct_row3Inter
T idct_row3Intra
T idct_row3zmv
T idct_row4Inter
T idct_row4Intra
T idct_row4zmv
T idct_rowInter
T idct_rowIntra
T idct_rowzmv
U log
U malloc
U memcpy
U memset
U pow
U sqrt
