U _ZN7android10IInterface8asBinderEv
U _ZN7android12AudioFlinger11instantiateEv
U _ZN7android12ProcessState15startThreadPoolEv
U _ZN7android12ProcessState4selfEv
U _ZN7android13CameraService11instantiateEv
U _ZN7android14AndroidRuntime10callStaticEPKcS2_
U _ZN7android14AndroidRuntime10getRuntimeEv
U _ZN7android14IPCThreadState14joinThreadPoolEb
U _ZN7android14IPCThreadState4selfEv
U _ZN7android14SurfaceFlinger11instantiateEv
U _ZN7android18MediaPlayerService11instantiateEv
U _ZN7android21defaultServiceManagerEv
U _ZN7android7RefBase10onFirstRefEv
U _ZN7android7RefBase13onLastWeakRefEPKv
U _ZN7android7RefBase15onLastStrongRefEPKv
U _ZN7android7RefBase20onIncStrongAttemptedEjPKv
U _ZN7android7RefBaseC1Ev
U _ZN7android7RefBaseD1Ev
U _ZNK7android12ProcessState17supportsProcessesEv
U _ZNK7android7RefBase9decStrongEPKv
U _ZNK7android7RefBase9incStrongEPKv
V _ZTCN7android10GrimReaperE0_NS_7IBinder14DeathRecipientE
V _ZTTN7android10GrimReaperE
V _ZTTN7android7IBinder14DeathRecipientE
V _ZTVN7android10GrimReaperE
V _ZTVN7android7IBinder14DeathRecipientE
W _ZTv0_n12_N7android10GrimReaperD0Ev
W _ZTv0_n12_N7android10GrimReaperD1Ev
W _ZTv0_n12_N7android7IBinder14DeathRecipientD0Ev
W _ZTv0_n12_N7android7IBinder14DeathRecipientD1Ev
U _ZdlPv
U _Znwj
U __aeabi_unwind_cpp_pr0
U __android_log_print
A __bss_end__
A __bss_start
A __bss_start__
U __cxa_pure_virtual
A __data_start
A __end__
A __exidx_end
A __exidx_start
U __stack_chk_fail
U __stack_chk_guard
A _bss_end__
A _edata
A _end
A _stack
U getpid
U kill
U property_get
U strcmp
T system_init
