U _Z22SkFloatBits_toIntRoundi
T _ZN7android10GPUFactory6getGPUEv
U _ZN7android10IInterface8asBinderEv
U _ZN7android10OverlayRefC1EPK15native_handle_tRKNS_2spINS_8IOverlayEEEjjijj
U _ZN7android10VectorImpl13finish_vectorEv
U _ZN7android10VectorImpl13removeItemsAtEjj
U _ZN7android10VectorImpl16editItemLocationEj
U _ZN7android10VectorImpl19reservedVectorImpl1Ev
U _ZN7android10VectorImpl19reservedVectorImpl2Ev
U _ZN7android10VectorImpl19reservedVectorImpl3Ev
U _ZN7android10VectorImpl19reservedVectorImpl4Ev
U _ZN7android10VectorImpl19reservedVectorImpl5Ev
U _ZN7android10VectorImpl19reservedVectorImpl6Ev
U _ZN7android10VectorImpl19reservedVectorImpl7Ev
U _ZN7android10VectorImpl19reservedVectorImpl8Ev
U _ZN7android10VectorImpl3addEPKv
U _ZN7android10VectorImpl5clearEv
U _ZN7android10VectorImpl8insertAtEPKvjj
U _ZN7android10VectorImplC1ERKS0_
U _ZN7android10VectorImplC1Ejj
U _ZN7android10VectorImplD1Ev
U _ZN7android10VectorImplaSERKS0_
T _ZN7android10blurFilterEPK10GGLSurfaceii
W _ZN7android11BnInterfaceINS_11IMemoryHeapEE10onAsBinderEv
W _ZN7android11BnInterfaceINS_16ISurfaceComposerEE10onAsBinderEv
W _ZN7android11BnInterfaceINS_21ISurfaceFlingerClientEE10onAsBinderEv
W _ZN7android11BnInterfaceINS_7IMemoryEE10onAsBinderEv
W _ZN7android11BnInterfaceINS_8IOverlayEE10onAsBinderEv
W _ZN7android11BnInterfaceINS_8ISurfaceEE10onAsBinderEv
T _ZN7android11GPUHardware10binderDiedERKNS_2wpINS_7IBinderEEE
T _ZN7android11GPUHardware13releaseLockedEv
T _ZN7android11GPUHardware13requestLockedEi
T _ZN7android11GPUHardware14friendlyRevokeEv
T _ZN7android11GPUHardware15getClientLockedEi
R _ZN7android11GPUHardware17GPU_RESERVED_SIZEE
T _ZN7android11GPUHardware17takeBackGPULockedEv
T _ZN7android11GPUHardware19unconditionalRevokeEv
T _ZN7android11GPUHardware22registerCallbackLockedERKNS_2spINS_12IGPUCallbackEEERNS0_6ClientE
T _ZN7android11GPUHardware6Client14revokeAllHeapsEv
T _ZN7android11GPUHardware6Client17createClientHeapsEv
T _ZN7android11GPUHardware6revokeEi
T _ZN7android11GPUHardware7GPUArea3mapEv
T _ZN7android11GPUHardware7requestEi
T _ZN7android11GPUHardware7requestEiRKNS_2spINS_12IGPUCallbackEEEPNS_16ISurfaceComposer10gpu_info_tE
R _ZN7android11GPUHardware9GPUR_SIZEE
T _ZN7android11GPUHardwareC1Ev
T _ZN7android11GPUHardwareC2Ev
T _ZN7android11GPUHardwareD0Ev
T _ZN7android11GPUHardwareD1Ev
T _ZN7android11GPUHardwareD2Ev
U _ZN7android11IMemoryHeap10descriptorE
T _ZN7android11LayerBitmap4initERKNS_2spINS_12MemoryDealerEEE
T _ZN7android11LayerBitmap5clearEv
T _ZN7android11LayerBitmap6resizeEjj
T _ZN7android11LayerBitmap7setBitsEjjjij
T _ZN7android11LayerBitmapC1Ev
T _ZN7android11LayerBitmapC2Ev
T _ZN7android11LayerBitmapD1Ev
T _ZN7android11LayerBitmapD2Ev
T _ZN7android11LayerBuffer10postBufferEl
T _ZN7android11LayerBuffer11clearSourceEv
T _ZN7android11LayerBuffer12BufferSource10postBufferEl
T _ZN7android11LayerBuffer12BufferSource17unregisterBuffersEv
T _ZN7android11LayerBuffer12BufferSource9setBufferERKNS_2spINS0_6BufferEEE
T _ZN7android11LayerBuffer12BufferSourceC1ERS0_RKNS_8ISurface10BufferHeapE
T _ZN7android11LayerBuffer12BufferSourceC2ERS0_RKNS_8ISurface10BufferHeapE
T _ZN7android11LayerBuffer12BufferSourceD0Ev
T _ZN7android11LayerBuffer12BufferSourceD1Ev
T _ZN7android11LayerBuffer12BufferSourceD2Ev
T _ZN7android11LayerBuffer13OverlaySource13onTransactionEj
T _ZN7android11LayerBuffer13OverlaySource13serverDestroyEv
T _ZN7android11LayerBuffer13OverlaySource14destroyOverlayEv
T _ZN7android11LayerBuffer13OverlaySource20onVisibilityResolvedERKNS_9TransformE
T _ZN7android11LayerBuffer13OverlaySourceC1ERS0_PNS_2spINS_10OverlayRefEEEjji
T _ZN7android11LayerBuffer13OverlaySourceC2ERS0_PNS_2spINS_10OverlayRefEEEjji
T _ZN7android11LayerBuffer13OverlaySourceD0Ev
T _ZN7android11LayerBuffer13OverlaySourceD1Ev
T _ZN7android11LayerBuffer13OverlaySourceD2Ev
T _ZN7android11LayerBuffer13SurfaceBuffer10onTransactEjRKNS_6ParcelEPS2_j
T _ZN7android11LayerBuffer13SurfaceBuffer10postBufferEl
T _ZN7android11LayerBuffer13SurfaceBuffer13createOverlayEjji
T _ZN7android11LayerBuffer13SurfaceBuffer15registerBuffersERKNS_8ISurface10BufferHeapE
T _ZN7android11LayerBuffer13SurfaceBuffer17unregisterBuffersEv
T _ZN7android11LayerBuffer13SurfaceBuffer6disownEv
T _ZN7android11LayerBuffer13SurfaceBufferC1EiPS0_
T _ZN7android11LayerBuffer13SurfaceBufferC2EiPS0_
T _ZN7android11LayerBuffer13SurfaceBufferD0Ev
T _ZN7android11LayerBuffer13SurfaceBufferD1Ev
T _ZN7android11LayerBuffer13SurfaceBufferD2Ev
T _ZN7android11LayerBuffer13createOverlayEjji
T _ZN7android11LayerBuffer13doTransactionEj
T _ZN7android11LayerBuffer14unlockPageFlipERKNS_9TransformERNS_6RegionE
T _ZN7android11LayerBuffer15registerBuffersERKNS_8ISurface10BufferHeapE
T _ZN7android11LayerBuffer16setNeedsBlendingEb
T _ZN7android11LayerBuffer17unregisterBuffersEv
T _ZN7android11LayerBuffer6BufferC1ERKNS_8ISurface10BufferHeapEl
T _ZN7android11LayerBuffer6BufferC2ERKNS_8ISurface10BufferHeapEl
T _ZN7android11LayerBuffer6BufferD1Ev
T _ZN7android11LayerBuffer6BufferD2Ev
T _ZN7android11LayerBuffer6Source10postBufferEl
T _ZN7android11LayerBuffer6Source13onTransactionEj
T _ZN7android11LayerBuffer6Source17unregisterBuffersEv
T _ZN7android11LayerBuffer6Source20onVisibilityResolvedERKNS_9TransformE
T _ZN7android11LayerBuffer6SourceC1ERS0_
T _ZN7android11LayerBuffer6SourceC2ERS0_
T _ZN7android11LayerBuffer6SourceD0Ev
T _ZN7android11LayerBuffer6SourceD1Ev
T _ZN7android11LayerBuffer6SourceD2Ev
D _ZN7android11LayerBuffer6typeIDE
B _ZN7android11LayerBuffer8typeInfoE
T _ZN7android11LayerBufferC1EPNS_14SurfaceFlingerEiPNS_6ClientEi
T _ZN7android11LayerBufferC2EPNS_14SurfaceFlingerEiPNS_6ClientEi
T _ZN7android11LayerBufferD0Ev
T _ZN7android11LayerBufferD1Ev
T _ZN7android11LayerBufferD2Ev
U _ZN7android12BnMemoryHeap10onTransactEjRKNS_6ParcelEPS1_j
T _ZN7android12GraphicPlane12setTransformERKNS_9TransformE
T _ZN7android12GraphicPlane14setOrientationEi
T _ZN7android12GraphicPlane18setDisplayHardwareEPNS_15DisplayHardwareE
T _ZN7android12GraphicPlane22orientationToTransfromEiiiPNS_9TransformE
T _ZN7android12GraphicPlaneC1Ev
T _ZN7android12GraphicPlaneC2Ev
T _ZN7android12GraphicPlaneD1Ev
T _ZN7android12GraphicPlaneD2Ev
U _ZN7android12MemoryDealerC1ERKNS_2spINS_13HeapInterfaceEEERKNS1_INS_18AllocatorInterfaceEEE
U _ZN7android12MemoryDealerC1EjjPKc
U _ZN7android13bytesPerPixelEi
U _ZN7android14IPCThreadState13getCallingPidEv
U _ZN7android14IPCThreadState13getCallingUidEv
U _ZN7android14IPCThreadState4selfEv
U _ZN7android14MemoryHeapBaseC2EPKcjj
U _ZN7android14MemoryHeapBaseD0Ev
U _ZN7android14MemoryHeapBaseD1Ev
U _ZN7android14MemoryHeapBaseD2Ev
U _ZN7android14MemoryHeapPmem10MemoryPmemC2ERKNS_2spIS0_EE
U _ZN7android14MemoryHeapPmem10MemoryPmemD0Ev
U _ZN7android14MemoryHeapPmem10MemoryPmemD1Ev
U _ZN7android14MemoryHeapPmem10MemoryPmemD2Ev
U _ZN7android14MemoryHeapPmem12createMemoryEjj
U _ZN7android14MemoryHeapPmem4slapEv
U _ZN7android14MemoryHeapPmem6revokeEv
U _ZN7android14MemoryHeapPmem6unslapEv
U _ZN7android14MemoryHeapPmem9mapMemoryEjj
U _ZN7android14MemoryHeapPmemC1ERKNS_2spINS_14MemoryHeapBaseEEEj
U _ZN7android14MemoryHeapPmemC2ERKNS_2spINS_14MemoryHeapBaseEEEj
U _ZN7android14MemoryHeapPmemD0Ev
U _ZN7android14MemoryHeapPmemD1Ev
U _ZN7android14MemoryHeapPmemD2Ev
T _ZN7android14SurfaceFlinger10addLayer_lEPNS_9LayerBaseE
T _ZN7android14SurfaceFlinger10onFirstRefEv
T _ZN7android14SurfaceFlinger10onTransactEjRKNS_6ParcelEPS1_j
T _ZN7android14SurfaceFlinger10readyToRunEv
T _ZN7android14SurfaceFlinger10requestGPUERKNS_2spINS_12IGPUCallbackEEEPNS_16ISurfaceComposer10gpu_info_tE
T _ZN7android14SurfaceFlinger10threadLoopEv
T _ZN7android14SurfaceFlinger11LayerVector3addEPNS_9LayerBaseEPFiPKS3_S5_E
T _ZN7android14SurfaceFlinger11LayerVector6removeEPNS_9LayerBaseE
T _ZN7android14SurfaceFlinger11LayerVector7reorderEPNS_9LayerBaseEPFiPKS3_S5_E
T _ZN7android14SurfaceFlinger11LayerVectorC1ERKS1_
T _ZN7android14SurfaceFlinger11LayerVectorC2ERKS1_
T _ZN7android14SurfaceFlinger11instantiateEv
T _ZN7android14SurfaceFlinger11removeLayerEPNS_9LayerBaseE
T _ZN7android14SurfaceFlinger11signalEventEv
T _ZN7android14SurfaceFlinger12bootFinishedEv
T _ZN7android14SurfaceFlinger12graphicPlaneEi
T _ZN7android14SurfaceFlinger12lockPageFlipERKNS0_11LayerVectorE
T _ZN7android14SurfaceFlinger12waitForEventEv
T _ZN7android14SurfaceFlinger13createSurfaceEiiPNS_21ISurfaceFlingerClient14surface_data_tEijjij
T _ZN7android14SurfaceFlinger13freezeDisplayEij
T _ZN7android14SurfaceFlinger13handleRepaintEv
T _ZN7android14SurfaceFlinger13removeLayer_lEPNS_9LayerBaseE
T _ZN7android14SurfaceFlinger13unlockClientsEv
T _ZN7android14SurfaceFlinger14destroySurfaceEi
T _ZN7android14SurfaceFlinger14handleDebugCpuEv
T _ZN7android14SurfaceFlinger14handlePageFlipEv
T _ZN7android14SurfaceFlinger14screenAcquiredEi
T _ZN7android14SurfaceFlinger14screenReleasedEi
T _ZN7android14SurfaceFlinger14setClientStateEiiPKNS_13layer_state_tE
T _ZN7android14SurfaceFlinger14setOrientationEiij
T _ZN7android14SurfaceFlinger14unlockPageFlipERKNS0_11LayerVectorE
T _ZN7android14SurfaceFlinger15composeSurfacesERKNS_6RegionE
T _ZN7android14SurfaceFlinger15postFramebufferEv
T _ZN7android14SurfaceFlinger15unfreezeDisplayEij
T _ZN7android14SurfaceFlinger16createConnectionEv
T _ZN7android14SurfaceFlinger16free_resources_lEv
T _ZN7android14SurfaceFlinger17commitTransactionEv
T _ZN7android14SurfaceFlinger17debugFlashRegionsEv
T _ZN7android14SurfaceFlinger17destroyConnectionEi
T _ZN7android14SurfaceFlinger17handleTransactionEj
T _ZN7android14SurfaceFlinger17scheduleBroadcastEPNS_6ClientE
T _ZN7android14SurfaceFlinger18signalDelayedEventEx
T _ZN7android14SurfaceFlinger19getTransactionFlagsEj
T _ZN7android14SurfaceFlinger19handleConsoleEventsEv
T _ZN7android14SurfaceFlinger19setTransactionFlagsEjx
T _ZN7android14SurfaceFlinger21computeVisibleRegionsERNS0_11LayerVectorERNS_6RegionES4_
T _ZN7android14SurfaceFlinger21openGlobalTransactionEv
T _ZN7android14SurfaceFlinger22closeGlobalTransactionEv
T _ZN7android14SurfaceFlinger22createDimSurfaceLockedEPNS_6ClientEiijjj
T _ZN7android14SurfaceFlinger23createBlurSurfaceLockedEPNS_6ClientEiijjj
T _ZN7android14SurfaceFlinger25createNormalSurfaceLockedEPNS_6ClientEiijjij
T _ZN7android14SurfaceFlinger25invalidateLayerVisibilityEPNS_9LayerBaseE
T _ZN7android14SurfaceFlinger26executeScheduledBroadcastsEv
T _ZN7android14SurfaceFlinger28destroy_all_removed_layers_lEv
T _ZN7android14SurfaceFlinger30createPushBuffersSurfaceLockedEPNS_6ClientEiijjj
T _ZN7android14SurfaceFlinger4dumpEiRKNS_6VectorINS_8String16EEE
T _ZN7android14SurfaceFlinger4initEv
T _ZN7android14SurfaceFlinger8addLayerEPNS_9LayerBaseE
T _ZN7android14SurfaceFlinger8shutdownEv
T _ZN7android14SurfaceFlinger9revokeGPUEv
T _ZN7android14SurfaceFlingerC1Ev
T _ZN7android14SurfaceFlingerC2Ev
T _ZN7android14SurfaceFlingerD0Ev
T _ZN7android14SurfaceFlingerD1Ev
T _ZN7android14SurfaceFlingerD2Ev
T _ZN7android15DisplayHardware4finiEv
T _ZN7android15DisplayHardware4initEj
T _ZN7android15DisplayHardwareC1ERKNS_2spINS_14SurfaceFlingerEEEj
T _ZN7android15DisplayHardwareC2ERKNS_2spINS_14SurfaceFlingerEEEj
T _ZN7android15DisplayHardwareD1Ev
T _ZN7android15DisplayHardwareD2Ev
T _ZN7android15GPURegisterHeap14MemoryHeapRegs12createMemoryEjj
T _ZN7android15GPURegisterHeap14MemoryHeapRegs6revokeEv
T _ZN7android15GPURegisterHeap14MemoryHeapRegs9GPUHandle10onTransactEjRKNS_6ParcelEPS3_j
T _ZN7android15GPURegisterHeap14MemoryHeapRegs9GPUHandle18revokeNotificationEv
T _ZN7android15GPURegisterHeap14MemoryHeapRegs9GPUHandleD0Ev
T _ZN7android15GPURegisterHeap14MemoryHeapRegs9GPUHandleD1Ev
T _ZN7android15GPURegisterHeap14MemoryHeapRegs9GPUHandleD2Ev
D _ZN7android15LayerBaseClient6typeIDE
R _ZN7android15LayerBaseClient8typeInfoE
T _ZN7android15LayerBaseClientC1EPNS_14SurfaceFlingerEiPNS_6ClientEi
T _ZN7android15LayerBaseClientC2EPNS_14SurfaceFlingerEiPNS_6ClientEi
T _ZN7android15LayerBaseClientD0Ev
T _ZN7android15LayerBaseClientD1Ev
T _ZN7android15LayerBaseClientD2Ev
U _ZN7android16ISurfaceComposer10descriptorE
U _ZN7android16SortedVectorImpl25reservedSortedVectorImpl1Ev
U _ZN7android16SortedVectorImpl25reservedSortedVectorImpl2Ev
U _ZN7android16SortedVectorImpl25reservedSortedVectorImpl3Ev
U _ZN7android16SortedVectorImpl25reservedSortedVectorImpl4Ev
U _ZN7android16SortedVectorImpl25reservedSortedVectorImpl5Ev
U _ZN7android16SortedVectorImpl25reservedSortedVectorImpl6Ev
U _ZN7android16SortedVectorImpl25reservedSortedVectorImpl7Ev
U _ZN7android16SortedVectorImpl25reservedSortedVectorImpl8Ev
U _ZN7android16SortedVectorImpl3addEPKv
U _ZN7android16SortedVectorImpl6removeEPKv
U _ZN7android16SortedVectorImplC1Ejj
U _ZN7android16SortedVectorImplD1Ev
U _ZN7android16SortedVectorImplaSERKS0_
U _ZN7android17BnSurfaceComposer10onTransactEjRKNS_6ParcelEPS1_j
U _ZN7android17EGLDisplaySurface15copyBackToImageERK15copybit_image_t
U _ZN7android17EGLDisplaySurface15copyFrontToBackERKNS_6RegionE
U _ZN7android17EGLDisplaySurface16copyFrontToImageERK15copybit_image_t
U _ZN7android17EGLDisplaySurface16setSwapRectangleEiiii
U _ZN7android17EGLDisplaySurfaceC1Ev
U _ZN7android17EGLDisplaySurfaceD1Ev
W _ZN7android17move_forward_typeINS_16key_value_pair_tINS_2wpINS_7IBinderEEEiEEEEvPT_PKS6_j
W _ZN7android17move_forward_typeINS_16key_value_pair_tIiNS_11GPUHardware6ClientEEEEEvPT_PKS5_j
U _ZN7android17per_client_cblk_tC1Ev
T _ZN7android18SurfaceHeapManager10createHeapEjiRKNS_2spINS_12MemoryDealerEEE
T _ZN7android18SurfaceHeapManager10onFirstRefEv
B _ZN7android18SurfaceHeapManager16global_pmem_heapE
T _ZN7android18SurfaceHeapManagerC1ERKNS_2spINS_14SurfaceFlingerEEEj
T _ZN7android18SurfaceHeapManagerC2ERKNS_2spINS_14SurfaceFlingerEEEj
T _ZN7android18SurfaceHeapManagerD0Ev
T _ZN7android18SurfaceHeapManagerD1Ev
T _ZN7android18SurfaceHeapManagerD2Ev
U _ZN7android18getPixelFormatInfoEiPNS_15PixelFormatInfoE
W _ZN7android18move_backward_typeINS_16key_value_pair_tINS_2wpINS_7IBinderEEEiEEEEvPT_PKS6_j
W _ZN7android18move_backward_typeINS_16key_value_pair_tIiNS_11GPUHardware6ClientEEEEEvPT_PKS5_j
T _ZN7android19DisplayHardwareBase18DisplayEventThread10readyToRunEv
T _ZN7android19DisplayHardwareBase18DisplayEventThread10threadLoopEv
T _ZN7android19DisplayHardwareBase18DisplayEventThreadC1ERKNS_2spINS_14SurfaceFlingerEEE
T _ZN7android19DisplayHardwareBase18DisplayEventThreadC2ERKNS_2spINS_14SurfaceFlingerEEE
T _ZN7android19DisplayHardwareBase18DisplayEventThreadD0Ev
T _ZN7android19DisplayHardwareBase18DisplayEventThreadD1Ev
T _ZN7android19DisplayHardwareBase18DisplayEventThreadD2Ev
T _ZN7android19DisplayHardwareBase20ConsoleManagerThread10readyToRunEv
T _ZN7android19DisplayHardwareBase20ConsoleManagerThread10sigHandlerEi
T _ZN7android19DisplayHardwareBase20ConsoleManagerThread10threadLoopEv
T _ZN7android19DisplayHardwareBase20ConsoleManagerThread11requestExitEv
B _ZN7android19DisplayHardwareBase20ConsoleManagerThread17sSignalCatcherPidE
T _ZN7android19DisplayHardwareBase20ConsoleManagerThreadC1ERKNS_2spINS_14SurfaceFlingerEEE
T _ZN7android19DisplayHardwareBase20ConsoleManagerThreadC2ERKNS_2spINS_14SurfaceFlingerEEE
T _ZN7android19DisplayHardwareBase20ConsoleManagerThreadD0Ev
T _ZN7android19DisplayHardwareBase20ConsoleManagerThreadD1Ev
T _ZN7android19DisplayHardwareBase20ConsoleManagerThreadD2Ev
T _ZN7android19DisplayHardwareBase22DisplayEventThreadBaseC1ERKNS_2spINS_14SurfaceFlingerEEE
T _ZN7android19DisplayHardwareBase22DisplayEventThreadBaseC2ERKNS_2spINS_14SurfaceFlingerEEE
T _ZN7android19DisplayHardwareBase22DisplayEventThreadBaseD0Ev
T _ZN7android19DisplayHardwareBase22DisplayEventThreadBaseD1Ev
T _ZN7android19DisplayHardwareBase22DisplayEventThreadBaseD2Ev
T _ZN7android19DisplayHardwareBaseC1ERKNS_2spINS_14SurfaceFlingerEEEj
T _ZN7android19DisplayHardwareBaseC2ERKNS_2spINS_14SurfaceFlingerEEEj
T _ZN7android19DisplayHardwareBaseD1Ev
T _ZN7android19DisplayHardwareBaseD2Ev
T _ZN7android20LayerOrientationAnim18validateVisibilityERKNS_9TransformE
T _ZN7android20LayerOrientationAnim22onOrientationCompletedEv
D _ZN7android20LayerOrientationAnim6typeIDE
B _ZN7android20LayerOrientationAnim8typeInfoE
T _ZN7android20LayerOrientationAnimC1EPNS_14SurfaceFlingerEiPNS_20OrientationAnimationERKNS_11LayerBitmapES7_
T _ZN7android20LayerOrientationAnimC2EPNS_14SurfaceFlingerEiPNS_20OrientationAnimationERKNS_11LayerBitmapES7_
T _ZN7android20LayerOrientationAnimD0Ev
T _ZN7android20LayerOrientationAnimD1Ev
T _ZN7android20LayerOrientationAnimD2Ev
T _ZN7android20OrientationAnimation19onAnimationFinishedEv
T _ZN7android20OrientationAnimation20onOrientationChangedEj
T _ZN7android20OrientationAnimation4doneEv
T _ZN7android20OrientationAnimation6phase1Ev
T _ZN7android20OrientationAnimation6phase2Ev
T _ZN7android20OrientationAnimation7prepareEv
T _ZN7android20OrientationAnimation8finishedEv
T _ZN7android20OrientationAnimation8run_implEv
T _ZN7android20OrientationAnimationC1ERKNS_2spINS_14SurfaceFlingerEEE
T _ZN7android20OrientationAnimationC2ERKNS_2spINS_14SurfaceFlingerEEE
T _ZN7android20OrientationAnimationD0Ev
T _ZN7android20OrientationAnimationD1Ev
T _ZN7android20OrientationAnimationD2Ev
U _ZN7android21ISurfaceFlingerClient10descriptorE
U _ZN7android21SurfaceComposerClient13createSurfaceEiijjij
U _ZN7android21SurfaceComposerClient14getDisplayInfoEiPNS_11DisplayInfoE
U _ZN7android21SurfaceComposerClient15openTransactionEv
U _ZN7android21SurfaceComposerClient16closeTransactionEv
U _ZN7android21SurfaceComposerClient19clientForConnectionERKNS_2spINS_7IBinderEEE
U _ZN7android21SurfaceFlingerSynchro4openEv
U _ZN7android21SurfaceFlingerSynchro4waitEv
U _ZN7android21SurfaceFlingerSynchro4waitEx
U _ZN7android21SurfaceFlingerSynchroC1Ev
U _ZN7android21SurfaceFlingerSynchroD1Ev
U _ZN7android21defaultServiceManagerEv
U _ZN7android22BnSurfaceFlingerClient10onTransactEjRKNS_6ParcelEPS1_j
U _ZN7android22SimpleBestFitAllocatorC1Ej
U _ZN7android22checkCallingPermissionERKNS_8String16E
U _ZN7android22surface_flinger_cblk_tC1Ev
U _ZN7android24GLES_localSurfaceManagerE
W _ZN7android2spINS_10FreezeLockEEaSERKS2_
W _ZN7android2spINS_10OverlayRefEEaSEPS1_
W _ZN7android2spINS_10OverlayRefEEaSERKS2_
W _ZN7android2spINS_11GPUAreaHeapEEaSEPS1_
W _ZN7android2spINS_11GPUAreaHeapEEaSERKS2_
W _ZN7android2spINS_11GPUAreaHeapEEaSINS_15GPURegisterHeapEEERS2_PT_
W _ZN7android2spINS_11IMemoryHeapEEaSERKS2_
W _ZN7android2spINS_11LayerBuffer13OverlaySourceEEaSERKS3_
W _ZN7android2spINS_11LayerBuffer13SurfaceBufferEEaSEPS2_
W _ZN7android2spINS_11LayerBuffer13SurfaceBufferEEaSERKS3_
W _ZN7android2spINS_11LayerBuffer6BufferEEaSEPS2_
W _ZN7android2spINS_11LayerBuffer6BufferEEaSERKS3_
W _ZN7android2spINS_11LayerBuffer6SourceEEaSERKS3_
W _ZN7android2spINS_11LayerBuffer6SourceEEaSINS1_12BufferSourceEEERS3_RKNS0_IT_EE
W _ZN7android2spINS_11LayerBuffer6SourceEEaSINS1_13OverlaySourceEEERS3_RKNS0_IT_EE
W _ZN7android2spINS_12IGPUCallbackEEaSERKS2_
W _ZN7android2spINS_12MemoryDealerEEaSEPS1_
W _ZN7android2spINS_12MemoryDealerEEaSERKS2_
W _ZN7android2spINS_14MemoryHeapPmemEEaSERKS2_
W _ZN7android2spINS_15GPURegisterHeap14MemoryHeapRegs9GPUHandleEEaSEPS3_
W _ZN7android2spINS_15LayerBaseClient7SurfaceEEaSEPS2_
W _ZN7android2spINS_15LayerBaseClient7SurfaceEEaSERKS3_
W _ZN7android2spINS_17EGLDisplaySurfaceEEaSEPS1_
W _ZN7android2spINS_18AllocatorInterfaceEEaSINS_22SimpleBestFitAllocatorEEERS2_RKNS0_IT_EE
W _ZN7android2spINS_18SurfaceHeapManagerEEaSEPS1_
W _ZN7android2spINS_19DisplayHardwareBase22DisplayEventThreadBaseEEaSINS1_18DisplayEventThreadEEERS3_PT_
W _ZN7android2spINS_19DisplayHardwareBase22DisplayEventThreadBaseEEaSINS1_20ConsoleManagerThreadEEERS3_PT_
W _ZN7android2spINS_20GPUHardwareInterfaceEEaSERKS2_
W _ZN7android2spINS_20GPUHardwareInterfaceEEaSINS_11GPUHardwareEEERS2_PT_
W _ZN7android2spINS_21SurfaceComposerClientEEaSERKS2_
W _ZN7android2spINS_22SimpleBestFitAllocatorEEaSEPS1_
W _ZN7android2spINS_22SimpleBestFitAllocatorEEaSERKS2_
W _ZN7android2spINS_7IMemoryEEaSERKS2_
W _ZN7android2spINS_8CPUGaugeEEaSEPS1_
W _ZN7android2spINS_8PMemHeapEEaSEPS1_
W _ZN7android2wpINS_11LayerBuffer13SurfaceBufferEEaSERKNS_2spIS2_EE
T _ZN7android5Layer10initStatesEjjj
T _ZN7android5Layer10setBuffersEPNS_6ClientEjjij
T _ZN7android5Layer12lockPageFlipERb
T _ZN7android5Layer13doTransactionEj
T _ZN7android5Layer13reloadTextureERKNS_6RegionE
T _ZN7android5Layer14finishPageFlipEv
T _ZN7android5Layer14setSizeChangedEjj
T _ZN7android5Layer14unlockPageFlipERKNS_9TransformERNS_6RegionE
T _ZN7android5Layer16reallocateBufferEijj
T _ZN7android5Layer4postEPjRb
T _ZN7android5Layer6resizeEijjPKc
D _ZN7android5Layer6typeIDE
B _ZN7android5Layer8typeInfoE
T _ZN7android5LayerC1EPNS_14SurfaceFlingerEiPNS_6ClientEi
T _ZN7android5LayerC2EPNS_14SurfaceFlingerEiPNS_6ClientEi
T _ZN7android5LayerD0Ev
T _ZN7android5LayerD1Ev
T _ZN7android5LayerD2Ev
U _ZN7android5Mutex4lockEv
U _ZN7android5Mutex6unlockEv
U _ZN7android5Mutex7tryLockEv
U _ZN7android5MutexC1Ev
U _ZN7android5MutexD1Ev
T _ZN7android6Client10generateIdEi
T _ZN7android6Client15createAllocatorEj
T _ZN7android6Client4dumpEPKc
T _ZN7android6Client4freeEi
T _ZN7android6Client9bindLayerEPNS_15LayerBaseClientEi
T _ZN7android6ClientC1EiRKNS_2spINS_14SurfaceFlingerEEE
T _ZN7android6ClientC2EiRKNS_2spINS_14SurfaceFlingerEEE
T _ZN7android6ClientD1Ev
T _ZN7android6ClientD2Ev
U _ZN7android6Parcel10writeInt32Ei
U _ZN7android6Region10writeEmptyEPvj
U _ZN7android6Region12subtractSelfERKS0_
U _ZN7android6Region3setERKNS_4RectE
U _ZN7android6Region5clearEv
U _ZN7android6Region6orSelfERKNS_4RectE
U _ZN7android6Region6orSelfERKS0_
U _ZN7android6Region7andSelfERKNS_4RectE
U _ZN7android6Region7andSelfERKS0_
U _ZN7android6Region8iterator7iterateEPNS_4RectE
U _ZN7android6Region8iteratorC1ERKS0_
U _ZN7android6RegionC1EPKv
U _ZN7android6RegionC1ERKNS_4RectE
U _ZN7android6RegionC1ERKS0_
U _ZN7android6RegionC1Ev
U _ZN7android6RegionD1Ev
U _ZN7android6RegionaSERKS0_
U _ZN7android6Thread10readyToRunEv
U _ZN7android6Thread11requestExitEv
U _ZN7android6Thread18requestExitAndWaitEv
U _ZN7android6Thread3runEPKcij
U _ZN7android6ThreadC2Eb
U _ZN7android6ThreadD0Ev
U _ZN7android6ThreadD1Ev
U _ZN7android6ThreadD2Ev
U _ZN7android7BBinder10onTransactEjRKNS_6ParcelEPS1_j
U _ZN7android7BBinder10pingBinderEv
U _ZN7android7BBinder11linkToDeathERKNS_2spINS_7IBinder14DeathRecipientEEEPvj
U _ZN7android7BBinder11localBinderEv
U _ZN7android7BBinder12attachObjectEPKvPvS3_PFvS2_S3_S3_E
U _ZN7android7BBinder12detachObjectEPKv
U _ZN7android7BBinder13unlinkToDeathERKNS_2wpINS_7IBinder14DeathRecipientEEEPvjPS4_
U _ZN7android7BBinder4dumpEiRKNS_6VectorINS_8String16EEE
U _ZN7android7BBinder8transactEjRKNS_6ParcelEPS1_j
U _ZN7android7BBinderC2Ev
U _ZN7android7BBinderD0Ev
U _ZN7android7BBinderD1Ev
U _ZN7android7BBinderD2Ev
T _ZN7android7BClient13createSurfaceEPNS_21ISurfaceFlingerClient14surface_data_tEiijjij
T _ZN7android7BClient14destroySurfaceEi
T _ZN7android7BClient8setStateEiPKNS_13layer_state_tE
T _ZN7android7BClientC1EPNS_14SurfaceFlingerEiRKNS_2spINS_7IMemoryEEE
T _ZN7android7BClientC2EPNS_14SurfaceFlingerEiRKNS_2spINS_7IMemoryEEE
T _ZN7android7BClientD0Ev
T _ZN7android7BClientD1Ev
T _ZN7android7BClientD2Ev
U _ZN7android7IBinder11localBinderEv
U _ZN7android7IBinder12remoteBinderEv
U _ZN7android7IBinder19queryLocalInterfaceERKNS_8String16E
U _ZN7android7IMemory10descriptorE
U _ZN7android7RefBase10onFirstRefEv
U _ZN7android7RefBase12weakref_type16attemptIncStrongEPKv
U _ZN7android7RefBase12weakref_type7decWeakEPKv
U _ZN7android7RefBase12weakref_type7incWeakEPKv
U _ZN7android7RefBase13onLastWeakRefEPKv
U _ZN7android7RefBase15onLastStrongRefEPKv
U _ZN7android7RefBase20onIncStrongAttemptedEjPKv
U _ZN7android7RefBaseC1Ev
U _ZN7android7RefBaseD1Ev
U _ZN7android7String86appendEPKc
U _ZN7android7String8C1Ev
U _ZN7android7String8D1Ev
U _ZN7android7Surface13unlockAndPostEv
U _ZN7android7Surface4lockEPNS0_11SurfaceInfoEb
U _ZN7android7Surface8setLayerEi
U _ZN7android8BnMemory10onTransactEjRKNS_6ParcelEPS1_j
T _ZN7android8CPUGauge10onFirstRefEv
T _ZN7android8CPUGauge10readyToRunEv
T _ZN7android8CPUGauge10threadLoopEv
T _ZN7android8CPUGauge6sampleEv
T _ZN7android8CPUGaugeC1ERKNS_2spINS_16ISurfaceComposerEEExii
T _ZN7android8CPUGaugeC2ERKNS_2spINS_16ISurfaceComposerEEExii
T _ZN7android8CPUGaugeD0Ev
T _ZN7android8CPUGaugeD1Ev
T _ZN7android8CPUGaugeD2Ev
U _ZN7android8IOverlay10descriptorE
U _ZN7android8ISurface10BufferHeapC1Ev
U _ZN7android8ISurface10BufferHeapD1Ev
U _ZN7android8ISurface10descriptorE
T _ZN7android8LayerDim10initDimmerEPNS_14SurfaceFlingerEjj
B _ZN7android8LayerDim13mDimmerBitmapE
B _ZN7android8LayerDim13mDimmerDealerE
D _ZN7android8LayerDim6typeIDE
B _ZN7android8LayerDim8typeInfoE
T _ZN7android8LayerDimC1EPNS_14SurfaceFlingerEiPNS_6ClientEi
T _ZN7android8LayerDimC2EPNS_14SurfaceFlingerEiPNS_6ClientEi
T _ZN7android8LayerDimD0Ev
T _ZN7android8LayerDimD1Ev
T _ZN7android8LayerDimD2Ev
T _ZN7android8PMemHeap16createClientHeapEv
T _ZN7android8PMemHeapC1EPKcjj
T _ZN7android8PMemHeapC2EPKcjj
T _ZN7android8PMemHeapD0Ev
T _ZN7android8PMemHeapD1Ev
T _ZN7android8PMemHeapD2Ev
U _ZN7android8String16C1EPKc
U _ZN7android8String16D1Ev
T _ZN7android8clz_implEi
U _ZN7android9BnOverlay10onTransactEjRKNS_6ParcelEPS1_j
U _ZN7android9BnSurface10onTransactEjRKNS_6ParcelEPS1_j
U _ZN7android9Condition12waitRelativeERNS_5MutexEx
U _ZN7android9Condition4waitERNS_5MutexE
U _ZN7android9Condition6signalEv
U _ZN7android9Condition9broadcastEv
U _ZN7android9ConditionC1Ev
U _ZN7android9ConditionD1Ev
T _ZN7android9LayerBase10initStatesEjjj
T _ZN7android9LayerBase10invalidateEv
T _ZN7android9LayerBase11setPositionEii
T _ZN7android9LayerBase12graphicPlaneEi
T _ZN7android9LayerBase12lockPageFlipERb
T _ZN7android9LayerBase13doTransactionEj
T _ZN7android9LayerBase14finishPageFlipEv
T _ZN7android9LayerBase14setSizeChangedEjj
T _ZN7android9LayerBase14unlockPageFlipERKNS_9TransformERNS_6RegionE
B _ZN7android9LayerBase15deletedTexturesE
T _ZN7android9LayerBase16setCoveredRegionERKNS_6RegionE
T _ZN7android9LayerBase16setVisibleRegionERKNS_6RegionE
T _ZN7android9LayerBase17commitTransactionEb
T _ZN7android9LayerBase18requestTransactionEv
T _ZN7android9LayerBase18validateVisibilityERKNS_9TransformE
T _ZN7android9LayerBase19getTransactionFlagsEj
T _ZN7android9LayerBase19setTransactionFlagsEj
T _ZN7android9LayerBase24setTransparentRegionHintERKNS_6RegionE
T _ZN7android9LayerBase26forceVisibilityTransactionEv
D _ZN7android9LayerBase6typeIDE
T _ZN7android9LayerBase7setSizeEjj
T _ZN7android9LayerBase8setAlphaEh
T _ZN7android9LayerBase8setFlagsEhh
T _ZN7android9LayerBase8setLayerEj
R _ZN7android9LayerBase8typeInfoE
B _ZN7android9LayerBase9sIdentityE
T _ZN7android9LayerBase9setMatrixERKNS_13layer_state_t10matrix22_tE
T _ZN7android9LayerBaseC1EPNS_14SurfaceFlingerEi
T _ZN7android9LayerBaseC2EPNS_14SurfaceFlingerEi
T _ZN7android9LayerBaseD0Ev
T _ZN7android9LayerBaseD1Ev
T _ZN7android9LayerBaseD2Ev
T _ZN7android9LayerBlur13doTransactionEj
T _ZN7android9LayerBlur14unlockPageFlipERKNS_9TransformERNS_6RegionE
T _ZN7android9LayerBlur16setVisibleRegionERKNS_6RegionE
D _ZN7android9LayerBlur6typeIDE
B _ZN7android9LayerBlur8typeInfoE
T _ZN7android9LayerBlurC1EPNS_14SurfaceFlingerEiPNS_6ClientEi
T _ZN7android9LayerBlurC2EPNS_14SurfaceFlingerEiPNS_6ClientEi
T _ZN7android9LayerBlurD0Ev
T _ZN7android9LayerBlurD1Ev
T _ZN7android9LayerBlurD2Ev
T _ZN7android9Tokenizer14_insertTokenAtEjj
T _ZN7android9Tokenizer7acquireEv
T _ZN7android9Tokenizer7releaseEj
T _ZN7android9Tokenizer7reserveEj
T _ZN7android9TokenizerC1ERKS0_
T _ZN7android9TokenizerC1Ev
T _ZN7android9TokenizerC2ERKS0_
T _ZN7android9TokenizerC2Ev
T _ZN7android9TokenizerD1Ev
T _ZN7android9TokenizerD2Ev
T _ZN7android9Transform3setEfff
T _ZN7android9Transform3setEffff
T _ZN7android9Transform3setEii
T _ZN7android9Transform5resetEv
T _ZN7android9Transform5scaleEfff
T _ZN7android9TransformC1ERKS0_
T _ZN7android9TransformC1Ev
T _ZN7android9TransformC2ERKS0_
T _ZN7android9TransformC2Ev
T _ZN7android9TransformD1Ev
T _ZN7android9TransformD2Ev
U _ZN8SkMatrix11gMapXYProcsE
U _ZN8SkMatrix5resetEv
U _ZN8SkMatrix9postScaleEffff
U _ZN8SkMatrix9preConcatERKS_
T _ZNK7android11GPUHardware12getAllocatorEv
U _ZNK7android11IMemoryHeap22getInterfaceDescriptorEv
T _ZNK7android11LayerBitmap16getBitmapSurfaceEP15copybit_image_t
T _ZNK7android11LayerBitmap4sizeEv
T _ZNK7android11LayerBitmap7getInfoEPNS_14surface_info_tE
T _ZNK7android11LayerBuffer10getSurfaceEv
T _ZNK7android11LayerBuffer11transformedEv
T _ZNK7android11LayerBuffer12BufferSource11transformedEv
T _ZNK7android11LayerBuffer12BufferSource6onDrawERKNS_6RegionE
T _ZNK7android11LayerBuffer12BufferSource9getBufferEv
T _ZNK7android11LayerBuffer13needsBlendingEv
T _ZNK7android11LayerBuffer16getClientSurfaceEv
T _ZNK7android11LayerBuffer6Source11transformedEv
T _ZNK7android11LayerBuffer6Source6onDrawERKNS_6RegionE
T _ZNK7android11LayerBuffer6onDrawERKNS_6RegionE
T _ZNK7android11LayerBuffer9getSourceEv
T _ZNK7android12GraphicPlane11initializedEv
T _ZNK7android12GraphicPlane15displayHardwareEv
T _ZNK7android12GraphicPlane9transformEv
U _ZNK7android12MemoryDealer4heapEv
W _ZNK7android12SortedVectorINS_16key_value_pair_tINS_2wpINS_7IBinderEEEiEEE10do_compareEPKvS8_
W _ZNK7android12SortedVectorINS_16key_value_pair_tINS_2wpINS_7IBinderEEEiEEE10do_destroyEPvj
W _ZNK7android12SortedVectorINS_16key_value_pair_tINS_2wpINS_7IBinderEEEiEEE12do_constructEPvj
W _ZNK7android12SortedVectorINS_16key_value_pair_tINS_2wpINS_7IBinderEEEiEEE15do_move_forwardEPvPKvj
W _ZNK7android12SortedVectorINS_16key_value_pair_tINS_2wpINS_7IBinderEEEiEEE16do_move_backwardEPvPKvj
W _ZNK7android12SortedVectorINS_16key_value_pair_tINS_2wpINS_7IBinderEEEiEEE7do_copyEPvPKvj
W _ZNK7android12SortedVectorINS_16key_value_pair_tINS_2wpINS_7IBinderEEEiEEE8do_splatEPvPKvj
W _ZNK7android12SortedVectorINS_16key_value_pair_tIPNS_9LayerBaseEjEEE10do_compareEPKvS7_
W _ZNK7android12SortedVectorINS_16key_value_pair_tIPNS_9LayerBaseEjEEE10do_destroyEPvj
W _ZNK7android12SortedVectorINS_16key_value_pair_tIPNS_9LayerBaseEjEEE12do_constructEPvj
W _ZNK7android12SortedVectorINS_16key_value_pair_tIPNS_9LayerBaseEjEEE15do_move_forwardEPvPKvj
W _ZNK7android12SortedVectorINS_16key_value_pair_tIPNS_9LayerBaseEjEEE16do_move_backwardEPvPKvj
W _ZNK7android12SortedVectorINS_16key_value_pair_tIPNS_9LayerBaseEjEEE7do_copyEPvPKvj
W _ZNK7android12SortedVectorINS_16key_value_pair_tIPNS_9LayerBaseEjEEE8do_splatEPvPKvj
W _ZNK7android12SortedVectorINS_16key_value_pair_tIiNS_11GPUHardware6ClientEEEE10do_compareEPKvS7_
W _ZNK7android12SortedVectorINS_16key_value_pair_tIiNS_11GPUHardware6ClientEEEE10do_destroyEPvj
W _ZNK7android12SortedVectorINS_16key_value_pair_tIiNS_11GPUHardware6ClientEEEE12do_constructEPvj
W _ZNK7android12SortedVectorINS_16key_value_pair_tIiNS_11GPUHardware6ClientEEEE15do_move_forwardEPvPKvj
W _ZNK7android12SortedVectorINS_16key_value_pair_tIiNS_11GPUHardware6ClientEEEE16do_move_backwardEPvPKvj
W _ZNK7android12SortedVectorINS_16key_value_pair_tIiNS_11GPUHardware6ClientEEEE7do_copyEPvPKvj
W _ZNK7android12SortedVectorINS_16key_value_pair_tIiNS_11GPUHardware6ClientEEEE8do_splatEPvPKvj
W _ZNK7android12SortedVectorINS_16key_value_pair_tIiPNS_15LayerBaseClientEEEE10do_compareEPKvS7_
W _ZNK7android12SortedVectorINS_16key_value_pair_tIiPNS_15LayerBaseClientEEEE10do_destroyEPvj
W _ZNK7android12SortedVectorINS_16key_value_pair_tIiPNS_15LayerBaseClientEEEE12do_constructEPvj
W _ZNK7android12SortedVectorINS_16key_value_pair_tIiPNS_15LayerBaseClientEEEE15do_move_forwardEPvPKvj
W _ZNK7android12SortedVectorINS_16key_value_pair_tIiPNS_15LayerBaseClientEEEE16do_move_backwardEPvPKvj
W _ZNK7android12SortedVectorINS_16key_value_pair_tIiPNS_15LayerBaseClientEEEE7do_copyEPvPKvj
W _ZNK7android12SortedVectorINS_16key_value_pair_tIiPNS_15LayerBaseClientEEEE8do_splatEPvPKvj
W _ZNK7android12SortedVectorINS_16key_value_pair_tIiPNS_6ClientEEEE10do_compareEPKvS7_
W _ZNK7android12SortedVectorINS_16key_value_pair_tIiPNS_6ClientEEEE10do_destroyEPvj
W _ZNK7android12SortedVectorINS_16key_value_pair_tIiPNS_6ClientEEEE12do_constructEPvj
W _ZNK7android12SortedVectorINS_16key_value_pair_tIiPNS_6ClientEEEE15do_move_forwardEPvPKvj
W _ZNK7android12SortedVectorINS_16key_value_pair_tIiPNS_6ClientEEEE16do_move_backwardEPvPKvj
W _ZNK7android12SortedVectorINS_16key_value_pair_tIiPNS_6ClientEEEE7do_copyEPvPKvj
W _ZNK7android12SortedVectorINS_16key_value_pair_tIiPNS_6ClientEEEE8do_splatEPvPKvj
W _ZNK7android12SortedVectorIPNS_6ClientEE10do_compareEPKvS5_
W _ZNK7android12SortedVectorIPNS_6ClientEE10do_destroyEPvj
W _ZNK7android12SortedVectorIPNS_6ClientEE12do_constructEPvj
W _ZNK7android12SortedVectorIPNS_6ClientEE15do_move_forwardEPvPKvj
W _ZNK7android12SortedVectorIPNS_6ClientEE16do_move_backwardEPvPKvj
W _ZNK7android12SortedVectorIPNS_6ClientEE7do_copyEPvPKvj
W _ZNK7android12SortedVectorIPNS_6ClientEE8do_splatEPvPKvj
W _ZNK7android12SortedVectorIPNS_9LayerBaseEE10do_compareEPKvS5_
W _ZNK7android12SortedVectorIPNS_9LayerBaseEE10do_destroyEPvj
W _ZNK7android12SortedVectorIPNS_9LayerBaseEE12do_constructEPvj
W _ZNK7android12SortedVectorIPNS_9LayerBaseEE15do_move_forwardEPvPKvj
W _ZNK7android12SortedVectorIPNS_9LayerBaseEE16do_move_backwardEPvPKvj
W _ZNK7android12SortedVectorIPNS_9LayerBaseEE7do_copyEPvPKvj
W _ZNK7android12SortedVectorIPNS_9LayerBaseEE8do_splatEPvPKvj
W _ZNK7android12SortedVectorIhE10do_compareEPKvS3_
W _ZNK7android12SortedVectorIhE10do_destroyEPvj
W _ZNK7android12SortedVectorIhE12do_constructEPvj
W _ZNK7android12SortedVectorIhE15do_move_forwardEPvPKvj
W _ZNK7android12SortedVectorIhE16do_move_backwardEPvPKvj
W _ZNK7android12SortedVectorIhE7do_copyEPvPKvj
W _ZNK7android12SortedVectorIhE8do_splatEPvPKvj
U _ZNK7android14MemoryHeapBase7getBaseEv
U _ZNK7android14MemoryHeapBase7getSizeEv
U _ZNK7android14MemoryHeapBase8getFlagsEv
U _ZNK7android14MemoryHeapBase9getHeapIDEv
T _ZNK7android14SurfaceFlinger11LayerVector7indexOfEPNS_9LayerBaseEj
T _ZNK7android14SurfaceFlinger12debugShowFPSEv
T _ZNK7android14SurfaceFlinger12drawWormholeEv
T _ZNK7android14SurfaceFlinger12graphicPlaneEi
T _ZNK7android14SurfaceFlinger13getBlitEngineEv
T _ZNK7android14SurfaceFlinger13getFreezeLockEv
T _ZNK7android14SurfaceFlinger14getLayerUser_lEi
T _ZNK7android14SurfaceFlinger16getOverlayEngineEv
T _ZNK7android14SurfaceFlinger6signalEv
T _ZNK7android14SurfaceFlinger7getCblkEv
T _ZNK7android15DisplayHardware10getDensityEv
T _ZNK7android15DisplayHardware11makeCurrentEv
T _ZNK7android15DisplayHardware13acquireScreenEv
T _ZNK7android15DisplayHardware13releaseScreenEv
T _ZNK7android15DisplayHardware14getRefreshRateEv
T _ZNK7android15DisplayHardware15copyBackToImageERK15copybit_image_t
T _ZNK7android15DisplayHardware16copyFrontToImageERK15copybit_image_t
T _ZNK7android15DisplayHardware16getPageFlipCountEv
T _ZNK7android15DisplayHardware17getDisplaySurfaceEP10GGLSurface
T _ZNK7android15DisplayHardware17getDisplaySurfaceEP15copybit_image_t
T _ZNK7android15DisplayHardware4flipERKNS_6RegionE
T _ZNK7android15DisplayHardware7getDpiXEv
T _ZNK7android15DisplayHardware7getDpiYEv
T _ZNK7android15DisplayHardware8getFlagsEv
T _ZNK7android15DisplayHardware8getWidthEv
T _ZNK7android15DisplayHardware9getFormatEv
T _ZNK7android15DisplayHardware9getHeightEv
T _ZNK7android15GPURegisterHeap14MemoryHeapRegs9GPUHandle9getMemoryEPlPj
T _ZNK7android15LayerBaseClient10getSurfaceEv
T _ZNK7android15LayerBaseClient11serverIndexEv
U _ZNK7android15PixelFormatInfo15getScanlineSizeEj
U _ZNK7android16ISurfaceComposer22getInterfaceDescriptorEv
U _ZNK7android16SortedVectorImpl7indexOfEPKv
U _ZNK7android17EGLDisplaySurface16getPageFlipCountEv
T _ZNK7android18SurfaceHeapManager12getAllocatorEi
T _ZNK7android19DisplayHardwareBase13acquireScreenEv
T _ZNK7android19DisplayHardwareBase13releaseScreenEv
T _ZNK7android19DisplayHardwareBase18DisplayEventThread13releaseScreenEv
T _ZNK7android19DisplayHardwareBase18DisplayEventThread9initCheckEv
T _ZNK7android19DisplayHardwareBase20ConsoleManagerThread13releaseScreenEv
T _ZNK7android19DisplayHardwareBase20ConsoleManagerThread9initCheckEv
T _ZNK7android19DisplayHardwareBase7canDrawEv
T _ZNK7android20LayerOrientationAnim13needsBlendingEv
T _ZNK7android20LayerOrientationAnim15getPhysicalSizeEv
T _ZNK7android20LayerOrientationAnim6onDrawERKNS_6RegionE
U _ZNK7android21ISurfaceFlingerClient22getInterfaceDescriptorEv
T _ZNK7android5Layer10getSurfaceEv
T _ZNK7android5Layer15getPhysicalSizeEv
T _ZNK7android5Layer6onDrawERKNS_6RegionE
T _ZNK7android6Client12getLayerUserEi
T _ZNK7android6Client21getSurfaceHeapManagerEv
U _ZNK7android6Parcel9readInt32Ev
U _ZNK7android6Region4dumpERNS_7String8EPKcj
U _ZNK7android6Region5mergeERKS0_
U _ZNK7android6Region6boundsEv
U _ZNK7android6Region8subtractERKS0_
U _ZNK7android6Region9intersectERKS0_
U _ZNK7android6Region9translateEii
U _ZNK7android6Thread11exitPendingEv
W _ZNK7android6VectorINS_9Tokenizer5run_tEE10do_destroyEPvj
W _ZNK7android6VectorINS_9Tokenizer5run_tEE12do_constructEPvj
W _ZNK7android6VectorINS_9Tokenizer5run_tEE15do_move_forwardEPvPKvj
W _ZNK7android6VectorINS_9Tokenizer5run_tEE16do_move_backwardEPvPKvj
W _ZNK7android6VectorINS_9Tokenizer5run_tEE7do_copyEPvPKvj
W _ZNK7android6VectorINS_9Tokenizer5run_tEE8do_splatEPvPKvj
W _ZNK7android6VectorIPNS_15LayerBaseClientEE10do_destroyEPvj
W _ZNK7android6VectorIPNS_15LayerBaseClientEE12do_constructEPvj
W _ZNK7android6VectorIPNS_15LayerBaseClientEE15do_move_forwardEPvPKvj
W _ZNK7android6VectorIPNS_15LayerBaseClientEE16do_move_backwardEPvPKvj
W _ZNK7android6VectorIPNS_15LayerBaseClientEE7do_copyEPvPKvj
W _ZNK7android6VectorIPNS_15LayerBaseClientEE8do_splatEPvPKvj
W _ZNK7android6VectorIPNS_6ClientEE10do_destroyEPvj
W _ZNK7android6VectorIPNS_6ClientEE12do_constructEPvj
W _ZNK7android6VectorIPNS_6ClientEE15do_move_forwardEPvPKvj
W _ZNK7android6VectorIPNS_6ClientEE16do_move_backwardEPvPKvj
W _ZNK7android6VectorIPNS_6ClientEE7do_copyEPvPKvj
W _ZNK7android6VectorIPNS_6ClientEE8do_splatEPvPKvj
W _ZNK7android6VectorIPNS_9LayerBaseEE10do_destroyEPvj
W _ZNK7android6VectorIPNS_9LayerBaseEE12do_constructEPvj
W _ZNK7android6VectorIPNS_9LayerBaseEE15do_move_forwardEPvPKvj
W _ZNK7android6VectorIPNS_9LayerBaseEE16do_move_backwardEPvPKvj
W _ZNK7android6VectorIPNS_9LayerBaseEE7do_copyEPvPKvj
W _ZNK7android6VectorIPNS_9LayerBaseEE8do_splatEPvPKvj
W _ZNK7android6VectorIjE10do_destroyEPvj
W _ZNK7android6VectorIjE12do_constructEPvj
W _ZNK7android6VectorIjE15do_move_forwardEPvPKvj
W _ZNK7android6VectorIjE16do_move_backwardEPvPKvj
W _ZNK7android6VectorIjE7do_copyEPvPKvj
W _ZNK7android6VectorIjE8do_splatEPvPKvj
U _ZNK7android7BBinder10findObjectEPKv
U _ZNK7android7BBinder13isBinderAliveEv
U _ZNK7android7BBinder22getInterfaceDescriptorEv
T _ZNK7android7BClient16getControlBlocksEPNS_2spINS_7IMemoryEEE
U _ZNK7android7IBinder13checkSubclassEPKv
U _ZNK7android7IMemory22getInterfaceDescriptorEv
U _ZNK7android7IMemory6offsetEv
U _ZNK7android7IMemory7pointerEv
U _ZNK7android7RefBase10createWeakEPKv
U _ZNK7android7RefBase9decStrongEPKv
U _ZNK7android7RefBase9incStrongEPKv
T _ZNK7android8CPUGauge7sessionEv
U _ZNK7android8IOverlay22getInterfaceDescriptorEv
U _ZNK7android8ISurface22getInterfaceDescriptorEv
T _ZNK7android8LayerDim6onDrawERKNS_6RegionE
T _ZNK7android9LayerBase10drawRegionERKNS_6RegionE
T _ZNK7android9LayerBase11loadTextureERKNS_6RegionEiRK10GGLSurfaceRjS7_
T _ZNK7android9LayerBase12graphicPlaneEi
T _ZNK7android9LayerBase13canUseCopybitEv
T _ZNK7android9LayerBase13createTextureEv
T _ZNK7android9LayerBase13visibleBoundsEv
T _ZNK7android9LayerBase14drawWithOpenGLERKNS_6RegionEiRK10GGLSurfacei
T _ZNK7android9LayerBase15clearWithOpenGLERKNS_6RegionE
T _ZNK7android9LayerBase15getPhysicalSizeEv
T _ZNK7android9LayerBase15validateTextureEi
T _ZNK7android9LayerBase4drawERKNS_6RegionE
T _ZNK7android9LayerBlur6onDrawERKNS_6RegionE
T _ZNK7android9Tokenizer10isAcquiredEj
T _ZNK7android9Tokenizer13_indexOrderOfEjPj
T _ZNK7android9Tokenizer4dumpEv
T _ZNK7android9Transform10makeBoundsEii
T _ZNK7android9Transform11transformedEv
T _ZNK7android9Transform13preserveRectsEv
T _ZNK7android9Transform14getOrientationEv
T _ZNK7android9Transform2txEv
T _ZNK7android9Transform2tyEv
T _ZNK7android9Transform4typeEv
T _ZNK7android9Transform9transformEPiii
T _ZNK7android9Transform9transformERKNS_4RectE
T _ZNK7android9Transform9transformERKNS_6RegionE
T _ZNK7android9TransformixEi
T _ZNK7android9TransformmlERKS0_
U _ZNK8SkMatrix15computeTypeMaskEv
U _ZNK8SkMatrix7mapRectEP6SkRectRKS0_
V _ZTCN7android11BnInterfaceINS_11IMemoryHeapEEE0_NS_10IInterfaceE
V _ZTCN7android11BnInterfaceINS_11IMemoryHeapEEE0_S1_
V _ZTCN7android11BnInterfaceINS_11IMemoryHeapEEE4_NS_7BBinderE
V _ZTCN7android11BnInterfaceINS_11IMemoryHeapEEE4_NS_7IBinderE
V _ZTCN7android11BnInterfaceINS_16ISurfaceComposerEEE0_NS_10IInterfaceE
V _ZTCN7android11BnInterfaceINS_16ISurfaceComposerEEE0_S1_
V _ZTCN7android11BnInterfaceINS_16ISurfaceComposerEEE4_NS_7BBinderE
V _ZTCN7android11BnInterfaceINS_16ISurfaceComposerEEE4_NS_7IBinderE
V _ZTCN7android11BnInterfaceINS_21ISurfaceFlingerClientEEE0_NS_10IInterfaceE
V _ZTCN7android11BnInterfaceINS_21ISurfaceFlingerClientEEE0_S1_
V _ZTCN7android11BnInterfaceINS_21ISurfaceFlingerClientEEE4_NS_7BBinderE
V _ZTCN7android11BnInterfaceINS_21ISurfaceFlingerClientEEE4_NS_7IBinderE
V _ZTCN7android11BnInterfaceINS_7IMemoryEEE0_NS_10IInterfaceE
V _ZTCN7android11BnInterfaceINS_7IMemoryEEE0_S1_
V _ZTCN7android11BnInterfaceINS_7IMemoryEEE4_NS_7BBinderE
V _ZTCN7android11BnInterfaceINS_7IMemoryEEE4_NS_7IBinderE
V _ZTCN7android11BnInterfaceINS_8IOverlayEEE0_NS_10IInterfaceE
V _ZTCN7android11BnInterfaceINS_8IOverlayEEE0_S1_
V _ZTCN7android11BnInterfaceINS_8IOverlayEEE4_NS_7BBinderE
V _ZTCN7android11BnInterfaceINS_8IOverlayEEE4_NS_7IBinderE
V _ZTCN7android11BnInterfaceINS_8ISurfaceEEE0_NS_10IInterfaceE
V _ZTCN7android11BnInterfaceINS_8ISurfaceEEE0_S1_
V _ZTCN7android11BnInterfaceINS_8ISurfaceEEE4_NS_7BBinderE
V _ZTCN7android11BnInterfaceINS_8ISurfaceEEE4_NS_7IBinderE
V _ZTCN7android11GPUAreaHeapE0_NS_14MemoryHeapBaseE
V _ZTCN7android11GPUAreaHeapE40_NS_10IInterfaceE
V _ZTCN7android11GPUAreaHeapE40_NS_11BnInterfaceINS_11IMemoryHeapEEE
V _ZTCN7android11GPUAreaHeapE40_NS_11IMemoryHeapE
V _ZTCN7android11GPUAreaHeapE40_NS_12BnMemoryHeapE
V _ZTCN7android11GPUAreaHeapE44_NS_7BBinderE
V _ZTCN7android11GPUAreaHeapE44_NS_7IBinderE
D _ZTCN7android11GPUHardwareE0_NS_20GPUHardwareInterfaceE
D _ZTCN7android11GPUHardwareE4_NS_7IBinder14DeathRecipientE
V _ZTCN7android11LayerBuffer13OverlaySource14OverlayChannelE0_NS_10IInterfaceE
V _ZTCN7android11LayerBuffer13OverlaySource14OverlayChannelE0_NS_11BnInterfaceINS_8IOverlayEEE
V _ZTCN7android11LayerBuffer13OverlaySource14OverlayChannelE0_NS_8IOverlayE
V _ZTCN7android11LayerBuffer13OverlaySource14OverlayChannelE0_NS_9BnOverlayE
V _ZTCN7android11LayerBuffer13OverlaySource14OverlayChannelE4_NS_7BBinderE
V _ZTCN7android11LayerBuffer13OverlaySource14OverlayChannelE4_NS_7IBinderE
D _ZTCN7android11LayerBuffer13SurfaceBufferE0_NS_10IInterfaceE
D _ZTCN7android11LayerBuffer13SurfaceBufferE0_NS_11BnInterfaceINS_8ISurfaceEEE
D _ZTCN7android11LayerBuffer13SurfaceBufferE0_NS_15LayerBaseClient7SurfaceE
D _ZTCN7android11LayerBuffer13SurfaceBufferE0_NS_8ISurfaceE
D _ZTCN7android11LayerBuffer13SurfaceBufferE0_NS_9BnSurfaceE
D _ZTCN7android11LayerBuffer13SurfaceBufferE4_NS_7BBinderE
D _ZTCN7android11LayerBuffer13SurfaceBufferE4_NS_7IBinderE
V _ZTCN7android13GPUClientHeapE0_NS_13HeapInterfaceE
V _ZTCN7android13GPUClientHeapE0_NS_14MemoryHeapPmemE
V _ZTCN7android13GPUClientHeapE4_NS_14MemoryHeapBaseE
V _ZTCN7android13GPUClientHeapE68_NS_10IInterfaceE
V _ZTCN7android13GPUClientHeapE68_NS_11BnInterfaceINS_11IMemoryHeapEEE
V _ZTCN7android13GPUClientHeapE68_NS_11IMemoryHeapE
V _ZTCN7android13GPUClientHeapE68_NS_12BnMemoryHeapE
V _ZTCN7android13GPUClientHeapE72_NS_7BBinderE
V _ZTCN7android13GPUClientHeapE72_NS_7IBinderE
V _ZTCN7android13HeapInterfaceE4_NS_10IInterfaceE
V _ZTCN7android13HeapInterfaceE4_NS_11BnInterfaceINS_11IMemoryHeapEEE
V _ZTCN7android13HeapInterfaceE4_NS_11IMemoryHeapE
V _ZTCN7android13HeapInterfaceE4_NS_12BnMemoryHeapE
V _ZTCN7android13HeapInterfaceE8_NS_7BBinderE
V _ZTCN7android13HeapInterfaceE8_NS_7IBinderE
V _ZTCN7android14SurfaceFlinger18DelayedTransactionE0_NS_6ThreadE
D _ZTCN7android14SurfaceFlingerE0_NS_10IInterfaceE
D _ZTCN7android14SurfaceFlingerE0_NS_11BnInterfaceINS_16ISurfaceComposerEEE
D _ZTCN7android14SurfaceFlingerE0_NS_16ISurfaceComposerE
D _ZTCN7android14SurfaceFlingerE0_NS_17BnSurfaceComposerE
D _ZTCN7android14SurfaceFlingerE16_NS_6ThreadE
D _ZTCN7android14SurfaceFlingerE4_NS_7BBinderE
D _ZTCN7android14SurfaceFlingerE4_NS_7IBinderE
D _ZTCN7android15GPURegisterHeap14MemoryHeapRegs9GPUHandleE0_NS_10IInterfaceE
D _ZTCN7android15GPURegisterHeap14MemoryHeapRegs9GPUHandleE0_NS_11BnInterfaceINS_7IMemoryEEE
D _ZTCN7android15GPURegisterHeap14MemoryHeapRegs9GPUHandleE0_NS_14MemoryHeapPmem10MemoryPmemE
D _ZTCN7android15GPURegisterHeap14MemoryHeapRegs9GPUHandleE0_NS_7IMemoryE
D _ZTCN7android15GPURegisterHeap14MemoryHeapRegs9GPUHandleE0_NS_8BnMemoryE
D _ZTCN7android15GPURegisterHeap14MemoryHeapRegs9GPUHandleE4_NS_7BBinderE
D _ZTCN7android15GPURegisterHeap14MemoryHeapRegs9GPUHandleE4_NS_7IBinderE
D _ZTCN7android15GPURegisterHeap14MemoryHeapRegsE0_NS_13GPUClientHeapE
D _ZTCN7android15GPURegisterHeap14MemoryHeapRegsE0_NS_13HeapInterfaceE
D _ZTCN7android15GPURegisterHeap14MemoryHeapRegsE0_NS_14MemoryHeapPmemE
D _ZTCN7android15GPURegisterHeap14MemoryHeapRegsE4_NS_14MemoryHeapBaseE
D _ZTCN7android15GPURegisterHeap14MemoryHeapRegsE68_NS_10IInterfaceE
D _ZTCN7android15GPURegisterHeap14MemoryHeapRegsE68_NS_11BnInterfaceINS_11IMemoryHeapEEE
D _ZTCN7android15GPURegisterHeap14MemoryHeapRegsE68_NS_11IMemoryHeapE
D _ZTCN7android15GPURegisterHeap14MemoryHeapRegsE68_NS_12BnMemoryHeapE
D _ZTCN7android15GPURegisterHeap14MemoryHeapRegsE72_NS_7BBinderE
D _ZTCN7android15GPURegisterHeap14MemoryHeapRegsE72_NS_7IBinderE
V _ZTCN7android15GPURegisterHeapE0_NS_11GPUAreaHeapE
V _ZTCN7android15GPURegisterHeapE0_NS_14MemoryHeapBaseE
V _ZTCN7android15GPURegisterHeapE40_NS_10IInterfaceE
V _ZTCN7android15GPURegisterHeapE40_NS_11BnInterfaceINS_11IMemoryHeapEEE
V _ZTCN7android15GPURegisterHeapE40_NS_11IMemoryHeapE
V _ZTCN7android15GPURegisterHeapE40_NS_12BnMemoryHeapE
V _ZTCN7android15GPURegisterHeapE44_NS_7BBinderE
V _ZTCN7android15GPURegisterHeapE44_NS_7IBinderE
V _ZTCN7android15LayerBaseClient7SurfaceE0_NS_10IInterfaceE
V _ZTCN7android15LayerBaseClient7SurfaceE0_NS_11BnInterfaceINS_8ISurfaceEEE
V _ZTCN7android15LayerBaseClient7SurfaceE0_NS_8ISurfaceE
V _ZTCN7android15LayerBaseClient7SurfaceE0_NS_9BnSurfaceE
V _ZTCN7android15LayerBaseClient7SurfaceE4_NS_7BBinderE
V _ZTCN7android15LayerBaseClient7SurfaceE4_NS_7IBinderE
D _ZTCN7android19DisplayHardwareBase18DisplayEventThreadE0_NS0_22DisplayEventThreadBaseE
D _ZTCN7android19DisplayHardwareBase18DisplayEventThreadE0_NS_6ThreadE
D _ZTCN7android19DisplayHardwareBase20ConsoleManagerThreadE0_NS0_22DisplayEventThreadBaseE
D _ZTCN7android19DisplayHardwareBase20ConsoleManagerThreadE0_NS_6ThreadE
D _ZTCN7android19DisplayHardwareBase22DisplayEventThreadBaseE0_NS_6ThreadE
D _ZTCN7android7BClientE0_NS_10IInterfaceE
D _ZTCN7android7BClientE0_NS_11BnInterfaceINS_21ISurfaceFlingerClientEEE
D _ZTCN7android7BClientE0_NS_21ISurfaceFlingerClientE
D _ZTCN7android7BClientE0_NS_22BnSurfaceFlingerClientE
D _ZTCN7android7BClientE4_NS_7BBinderE
D _ZTCN7android7BClientE4_NS_7IBinderE
D _ZTCN7android8CPUGaugeE0_NS_6ThreadE
D _ZTCN7android8PMemHeapE0_NS_14MemoryHeapBaseE
D _ZTCN7android8PMemHeapE32_NS_10IInterfaceE
D _ZTCN7android8PMemHeapE32_NS_11BnInterfaceINS_11IMemoryHeapEEE
D _ZTCN7android8PMemHeapE32_NS_11IMemoryHeapE
D _ZTCN7android8PMemHeapE32_NS_12BnMemoryHeapE
D _ZTCN7android8PMemHeapE36_NS_7BBinderE
D _ZTCN7android8PMemHeapE36_NS_7IBinderE
V _ZTTN7android10IInterfaceE
V _ZTTN7android11BnInterfaceINS_11IMemoryHeapEEE
V _ZTTN7android11BnInterfaceINS_16ISurfaceComposerEEE
V _ZTTN7android11BnInterfaceINS_21ISurfaceFlingerClientEEE
V _ZTTN7android11BnInterfaceINS_7IMemoryEEE
V _ZTTN7android11BnInterfaceINS_8IOverlayEEE
V _ZTTN7android11BnInterfaceINS_8ISurfaceEEE
V _ZTTN7android11GPUAreaHeapE
D _ZTTN7android11GPUHardwareE
U _ZTTN7android11IMemoryHeapE
V _ZTTN7android11LayerBuffer13OverlaySource14OverlayChannelE
D _ZTTN7android11LayerBuffer13SurfaceBufferE
U _ZTTN7android12BnMemoryHeapE
V _ZTTN7android13GPUClientHeapE
V _ZTTN7android13HeapInterfaceE
V _ZTTN7android14SurfaceFlinger18DelayedTransactionE
D _ZTTN7android14SurfaceFlingerE
D _ZTTN7android15GPURegisterHeap14MemoryHeapRegs9GPUHandleE
D _ZTTN7android15GPURegisterHeap14MemoryHeapRegsE
V _ZTTN7android15GPURegisterHeapE
V _ZTTN7android15LayerBaseClient7SurfaceE
U _ZTTN7android16ISurfaceComposerE
U _ZTTN7android17BnSurfaceComposerE
D _ZTTN7android19DisplayHardwareBase18DisplayEventThreadE
D _ZTTN7android19DisplayHardwareBase20ConsoleManagerThreadE
D _ZTTN7android19DisplayHardwareBase22DisplayEventThreadBaseE
V _ZTTN7android20GPUHardwareInterfaceE
U _ZTTN7android21ISurfaceFlingerClientE
U _ZTTN7android22BnSurfaceFlingerClientE
D _ZTTN7android7BClientE
V _ZTTN7android7IBinder14DeathRecipientE
U _ZTTN7android7IMemoryE
U _ZTTN7android8BnMemoryE
D _ZTTN7android8CPUGaugeE
U _ZTTN7android8IOverlayE
U _ZTTN7android8ISurfaceE
D _ZTTN7android8PMemHeapE
U _ZTTN7android9BnOverlayE
U _ZTTN7android9BnSurfaceE
V _ZTVN7android10IInterfaceE
V _ZTVN7android11BnInterfaceINS_11IMemoryHeapEEE
V _ZTVN7android11BnInterfaceINS_16ISurfaceComposerEEE
V _ZTVN7android11BnInterfaceINS_21ISurfaceFlingerClientEEE
V _ZTVN7android11BnInterfaceINS_7IMemoryEEE
V _ZTVN7android11BnInterfaceINS_8IOverlayEEE
V _ZTVN7android11BnInterfaceINS_8ISurfaceEEE
V _ZTVN7android11GPUAreaHeapE
D _ZTVN7android11GPUHardwareE
U _ZTVN7android11IMemoryHeapE
D _ZTVN7android11LayerBuffer12BufferSourceE
V _ZTVN7android11LayerBuffer13OverlaySource14OverlayChannelE
D _ZTVN7android11LayerBuffer13OverlaySourceE
D _ZTVN7android11LayerBuffer13SurfaceBufferE
D _ZTVN7android11LayerBuffer6SourceE
D _ZTVN7android11LayerBufferE
U _ZTVN7android12BnMemoryHeapE
V _ZTVN7android12SortedVectorINS_16key_value_pair_tINS_2wpINS_7IBinderEEEiEEEE
V _ZTVN7android12SortedVectorINS_16key_value_pair_tIPNS_9LayerBaseEjEEEE
V _ZTVN7android12SortedVectorINS_16key_value_pair_tIiNS_11GPUHardware6ClientEEEEE
V _ZTVN7android12SortedVectorINS_16key_value_pair_tIiPNS_15LayerBaseClientEEEEE
V _ZTVN7android12SortedVectorINS_16key_value_pair_tIiPNS_6ClientEEEEE
V _ZTVN7android12SortedVectorIPNS_6ClientEEE
V _ZTVN7android12SortedVectorIPNS_9LayerBaseEEE
V _ZTVN7android12SortedVectorIhEE
V _ZTVN7android13GPUClientHeapE
V _ZTVN7android13HeapInterfaceE
V _ZTVN7android14SurfaceFlinger18DelayedTransactionE
D _ZTVN7android14SurfaceFlingerE
D _ZTVN7android15GPURegisterHeap14MemoryHeapRegs9GPUHandleE
D _ZTVN7android15GPURegisterHeap14MemoryHeapRegsE
V _ZTVN7android15GPURegisterHeapE
V _ZTVN7android15LayerBaseClient7SurfaceE
D _ZTVN7android15LayerBaseClientE
U _ZTVN7android16ISurfaceComposerE
U _ZTVN7android17BnSurfaceComposerE
D _ZTVN7android18SurfaceHeapManagerE
D _ZTVN7android19DisplayHardwareBase18DisplayEventThreadE
D _ZTVN7android19DisplayHardwareBase20ConsoleManagerThreadE
D _ZTVN7android19DisplayHardwareBase22DisplayEventThreadBaseE
V _ZTVN7android20GPUHardwareInterfaceE
D _ZTVN7android20LayerOrientationAnimE
D _ZTVN7android20OrientationAnimationE
U _ZTVN7android21ISurfaceFlingerClientE
U _ZTVN7android22BnSurfaceFlingerClientE
V _ZTVN7android24LayerOrientationAnimBaseE
D _ZTVN7android5LayerE
V _ZTVN7android6VectorINS_9Tokenizer5run_tEEE
V _ZTVN7android6VectorIPNS_15LayerBaseClientEEE
V _ZTVN7android6VectorIPNS_6ClientEEE
V _ZTVN7android6VectorIPNS_9LayerBaseEEE
V _ZTVN7android6VectorIjEE
D _ZTVN7android7BClientE
V _ZTVN7android7IBinder14DeathRecipientE
U _ZTVN7android7IBinderE
U _ZTVN7android7IMemoryE
U _ZTVN7android8BnMemoryE
D _ZTVN7android8CPUGaugeE
U _ZTVN7android8IOverlayE
U _ZTVN7android8ISurfaceE
D _ZTVN7android8LayerDimE
D _ZTVN7android8PMemHeapE
U _ZTVN7android9BnOverlayE
U _ZTVN7android9BnSurfaceE
D _ZTVN7android9LayerBaseE
D _ZTVN7android9LayerBlurE
T _ZThn16_N7android14SurfaceFlinger10readyToRunEv
T _ZThn16_N7android14SurfaceFlinger10threadLoopEv
T _ZThn16_N7android14SurfaceFlingerD0Ev
T _ZThn16_N7android14SurfaceFlingerD1Ev
T _ZThn4_N7android11GPUHardware10binderDiedERKNS_2wpINS_7IBinderEEE
T _ZThn4_N7android11GPUHardwareD0Ev
T _ZThn4_N7android11GPUHardwareD1Ev
T _ZThn4_N7android11LayerBuffer13SurfaceBuffer10onTransactEjRKNS_6ParcelEPS2_j
T _ZThn4_N7android11LayerBuffer13SurfaceBufferD0Ev
T _ZThn4_N7android11LayerBuffer13SurfaceBufferD1Ev
U _ZThn4_N7android12BnMemoryHeap10onTransactEjRKNS_6ParcelEPS1_j
U _ZThn4_N7android14MemoryHeapPmem10MemoryPmemD0Ev
U _ZThn4_N7android14MemoryHeapPmem10MemoryPmemD1Ev
U _ZThn4_N7android14MemoryHeapPmemD0Ev
U _ZThn4_N7android14MemoryHeapPmemD1Ev
T _ZThn4_N7android14SurfaceFlinger10onTransactEjRKNS_6ParcelEPS1_j
T _ZThn4_N7android14SurfaceFlinger4dumpEiRKNS_6VectorINS_8String16EEE
T _ZThn4_N7android14SurfaceFlingerD0Ev
T _ZThn4_N7android14SurfaceFlingerD1Ev
T _ZThn4_N7android15GPURegisterHeap14MemoryHeapRegs9GPUHandle10onTransactEjRKNS_6ParcelEPS3_j
T _ZThn4_N7android15GPURegisterHeap14MemoryHeapRegs9GPUHandleD0Ev
T _ZThn4_N7android15GPURegisterHeap14MemoryHeapRegs9GPUHandleD1Ev
U _ZThn4_N7android17BnSurfaceComposer10onTransactEjRKNS_6ParcelEPS1_j
U _ZThn4_N7android22BnSurfaceFlingerClient10onTransactEjRKNS_6ParcelEPS1_j
T _ZThn4_N7android7BClientD0Ev
T _ZThn4_N7android7BClientD1Ev
U _ZThn4_N7android8BnMemory10onTransactEjRKNS_6ParcelEPS1_j
U _ZThn4_N7android9BnOverlay10onTransactEjRKNS_6ParcelEPS1_j
U _ZThn4_N7android9BnSurface10onTransactEjRKNS_6ParcelEPS1_j
W _ZTv0_n12_N7android10IInterfaceD0Ev
W _ZTv0_n12_N7android10IInterfaceD1Ev
W _ZTv0_n12_N7android11BnInterfaceINS_11IMemoryHeapEED0Ev
W _ZTv0_n12_N7android11BnInterfaceINS_11IMemoryHeapEED1Ev
W _ZTv0_n12_N7android11BnInterfaceINS_16ISurfaceComposerEED0Ev
W _ZTv0_n12_N7android11BnInterfaceINS_16ISurfaceComposerEED1Ev
W _ZTv0_n12_N7android11BnInterfaceINS_21ISurfaceFlingerClientEED0Ev
W _ZTv0_n12_N7android11BnInterfaceINS_21ISurfaceFlingerClientEED1Ev
W _ZTv0_n12_N7android11BnInterfaceINS_7IMemoryEED0Ev
W _ZTv0_n12_N7android11BnInterfaceINS_7IMemoryEED1Ev
W _ZTv0_n12_N7android11BnInterfaceINS_8IOverlayEED0Ev
W _ZTv0_n12_N7android11BnInterfaceINS_8IOverlayEED1Ev
W _ZTv0_n12_N7android11BnInterfaceINS_8ISurfaceEED0Ev
W _ZTv0_n12_N7android11BnInterfaceINS_8ISurfaceEED1Ev
W _ZTv0_n12_N7android11GPUAreaHeapD0Ev
W _ZTv0_n12_N7android11GPUAreaHeapD1Ev
T _ZTv0_n12_N7android11GPUHardwareD0Ev
T _ZTv0_n12_N7android11GPUHardwareD1Ev
W _ZTv0_n12_N7android11IMemoryHeapD0Ev
W _ZTv0_n12_N7android11IMemoryHeapD1Ev
W _ZTv0_n12_N7android11LayerBuffer13OverlaySource14OverlayChannelD0Ev
W _ZTv0_n12_N7android11LayerBuffer13OverlaySource14OverlayChannelD1Ev
T _ZTv0_n12_N7android11LayerBuffer13SurfaceBufferD0Ev
T _ZTv0_n12_N7android11LayerBuffer13SurfaceBufferD1Ev
W _ZTv0_n12_N7android12BnMemoryHeapD0Ev
W _ZTv0_n12_N7android12BnMemoryHeapD1Ev
W _ZTv0_n12_N7android13GPUClientHeapD0Ev
W _ZTv0_n12_N7android13GPUClientHeapD1Ev
W _ZTv0_n12_N7android13HeapInterfaceD0Ev
W _ZTv0_n12_N7android13HeapInterfaceD1Ev
U _ZTv0_n12_N7android14MemoryHeapBaseD0Ev
U _ZTv0_n12_N7android14MemoryHeapBaseD1Ev
U _ZTv0_n12_N7android14MemoryHeapPmem10MemoryPmemD0Ev
U _ZTv0_n12_N7android14MemoryHeapPmem10MemoryPmemD1Ev
U _ZTv0_n12_N7android14MemoryHeapPmemD0Ev
U _ZTv0_n12_N7android14MemoryHeapPmemD1Ev
W _ZTv0_n12_N7android14SurfaceFlinger18DelayedTransactionD0Ev
W _ZTv0_n12_N7android14SurfaceFlinger18DelayedTransactionD1Ev
T _ZTv0_n12_N7android14SurfaceFlingerD0Ev
T _ZTv0_n12_N7android14SurfaceFlingerD1Ev
T _ZTv0_n12_N7android15GPURegisterHeap14MemoryHeapRegs9GPUHandleD0Ev
T _ZTv0_n12_N7android15GPURegisterHeap14MemoryHeapRegs9GPUHandleD1Ev
W _ZTv0_n12_N7android15GPURegisterHeap14MemoryHeapRegsD0Ev
W _ZTv0_n12_N7android15GPURegisterHeap14MemoryHeapRegsD1Ev
W _ZTv0_n12_N7android15GPURegisterHeapD0Ev
W _ZTv0_n12_N7android15GPURegisterHeapD1Ev
W _ZTv0_n12_N7android15LayerBaseClient7SurfaceD0Ev
W _ZTv0_n12_N7android15LayerBaseClient7SurfaceD1Ev
W _ZTv0_n12_N7android16ISurfaceComposerD0Ev
W _ZTv0_n12_N7android16ISurfaceComposerD1Ev
W _ZTv0_n12_N7android17BnSurfaceComposerD0Ev
W _ZTv0_n12_N7android17BnSurfaceComposerD1Ev
T _ZTv0_n12_N7android19DisplayHardwareBase18DisplayEventThreadD0Ev
T _ZTv0_n12_N7android19DisplayHardwareBase18DisplayEventThreadD1Ev
T _ZTv0_n12_N7android19DisplayHardwareBase20ConsoleManagerThreadD0Ev
T _ZTv0_n12_N7android19DisplayHardwareBase20ConsoleManagerThreadD1Ev
T _ZTv0_n12_N7android19DisplayHardwareBase22DisplayEventThreadBaseD0Ev
T _ZTv0_n12_N7android19DisplayHardwareBase22DisplayEventThreadBaseD1Ev
W _ZTv0_n12_N7android20GPUHardwareInterfaceD0Ev
W _ZTv0_n12_N7android20GPUHardwareInterfaceD1Ev
W _ZTv0_n12_N7android21ISurfaceFlingerClientD0Ev
W _ZTv0_n12_N7android21ISurfaceFlingerClientD1Ev
W _ZTv0_n12_N7android22BnSurfaceFlingerClientD0Ev
W _ZTv0_n12_N7android22BnSurfaceFlingerClientD1Ev
U _ZTv0_n12_N7android6ThreadD0Ev
U _ZTv0_n12_N7android6ThreadD1Ev
U _ZTv0_n12_N7android7BBinderD0Ev
U _ZTv0_n12_N7android7BBinderD1Ev
T _ZTv0_n12_N7android7BClientD0Ev
T _ZTv0_n12_N7android7BClientD1Ev
W _ZTv0_n12_N7android7IBinder14DeathRecipientD0Ev
W _ZTv0_n12_N7android7IBinder14DeathRecipientD1Ev
W _ZTv0_n12_N7android7IBinderD0Ev
W _ZTv0_n12_N7android7IBinderD1Ev
W _ZTv0_n12_N7android7IMemoryD0Ev
W _ZTv0_n12_N7android7IMemoryD1Ev
W _ZTv0_n12_N7android8BnMemoryD0Ev
W _ZTv0_n12_N7android8BnMemoryD1Ev
T _ZTv0_n12_N7android8CPUGaugeD0Ev
T _ZTv0_n12_N7android8CPUGaugeD1Ev
W _ZTv0_n12_N7android8IOverlayD0Ev
W _ZTv0_n12_N7android8IOverlayD1Ev
W _ZTv0_n12_N7android8ISurfaceD0Ev
W _ZTv0_n12_N7android8ISurfaceD1Ev
T _ZTv0_n12_N7android8PMemHeapD0Ev
T _ZTv0_n12_N7android8PMemHeapD1Ev
W _ZTv0_n12_N7android9BnOverlayD0Ev
W _ZTv0_n12_N7android9BnOverlayD1Ev
W _ZTv0_n12_N7android9BnSurfaceD0Ev
W _ZTv0_n12_N7android9BnSurfaceD1Ev
T _ZTv0_n16_N7android14SurfaceFlinger10onFirstRefEv
W _ZTv0_n16_N7android19DisplayHardwareBase22DisplayEventThreadBase10onFirstRefEv
T _ZTv0_n16_N7android8CPUGauge10onFirstRefEv
W _ZTv0_n20_N7android11GPUAreaHeapD0Ev
W _ZTv0_n20_N7android11GPUAreaHeapD1Ev
W _ZTv0_n20_N7android13GPUClientHeapD0Ev
W _ZTv0_n20_N7android13GPUClientHeapD1Ev
W _ZTv0_n20_N7android13HeapInterfaceD0Ev
W _ZTv0_n20_N7android13HeapInterfaceD1Ev
U _ZTv0_n20_N7android14MemoryHeapBaseD0Ev
U _ZTv0_n20_N7android14MemoryHeapBaseD1Ev
U _ZTv0_n20_N7android14MemoryHeapPmemD0Ev
U _ZTv0_n20_N7android14MemoryHeapPmemD1Ev
W _ZTv0_n20_N7android15GPURegisterHeap14MemoryHeapRegsD0Ev
W _ZTv0_n20_N7android15GPURegisterHeap14MemoryHeapRegsD1Ev
W _ZTv0_n20_N7android15GPURegisterHeapD0Ev
W _ZTv0_n20_N7android15GPURegisterHeapD1Ev
T _ZTv0_n20_N7android8PMemHeapD0Ev
T _ZTv0_n20_N7android8PMemHeapD1Ev
U _ZTv0_n28_NK7android14MemoryHeapBase9getHeapIDEv
U _ZTv0_n32_NK7android14MemoryHeapBase7getBaseEv
U _ZTv0_n36_NK7android14MemoryHeapBase7getSizeEv
U _ZTv0_n40_NK7android14MemoryHeapBase8getFlagsEv
W _ZTvn4_n20_N7android11GPUAreaHeapD0Ev
W _ZTvn4_n20_N7android11GPUAreaHeapD1Ev
W _ZTvn4_n20_N7android13GPUClientHeapD0Ev
W _ZTvn4_n20_N7android13GPUClientHeapD1Ev
W _ZTvn4_n20_N7android13HeapInterfaceD0Ev
W _ZTvn4_n20_N7android13HeapInterfaceD1Ev
U _ZTvn4_n20_N7android14MemoryHeapBaseD0Ev
U _ZTvn4_n20_N7android14MemoryHeapBaseD1Ev
U _ZTvn4_n20_N7android14MemoryHeapPmemD0Ev
U _ZTvn4_n20_N7android14MemoryHeapPmemD1Ev
W _ZTvn4_n20_N7android15GPURegisterHeap14MemoryHeapRegsD0Ev
W _ZTvn4_n20_N7android15GPURegisterHeap14MemoryHeapRegsD1Ev
W _ZTvn4_n20_N7android15GPURegisterHeapD0Ev
W _ZTvn4_n20_N7android15GPURegisterHeapD1Ev
T _ZTvn4_n20_N7android8PMemHeapD0Ev
T _ZTvn4_n20_N7android8PMemHeapD1Ev
U _ZdlPv
U _Znwj
U __aeabi_atexit
U __aeabi_f2d
U __aeabi_f2iz
U __aeabi_f2uiz
U __aeabi_fadd
U __aeabi_fcmpeq
U __aeabi_fcmpgt
U __aeabi_fcmplt
U __aeabi_fdiv
U __aeabi_fmul
U __aeabi_fsub
U __aeabi_i2f
U __aeabi_idiv
U __aeabi_l2f
U __aeabi_ldivmod
U __aeabi_lmul
U __aeabi_ui2f
U __aeabi_uidiv
U __aeabi_unwind_cpp_pr0
U __aeabi_unwind_cpp_pr1
U __android_log_print
A __bss_end__
A __bss_start
A __bss_start__
U __cxa_pure_virtual
D __data_start
U __dso_handle
A __end__
U __errno
A __exidx_end
A __exidx_start
U __page_size
U __stack_chk_fail
U __stack_chk_guard
A _bss_end__
A _edata
A _end
A _stack
U access
U android_atomic_and
U android_atomic_cmpxchg
U android_atomic_dec
U android_atomic_inc
U android_atomic_or
U android_atomic_write
U atoi
U close
U cosf
U eglChooseConfig
U eglCreateContext
U eglCreateWindowSurface
U eglGetConfigAttrib
U eglGetConfigs
U eglGetDisplay
U eglGetError
U eglInitialize
U eglMakeCurrent
U eglQueryString
U eglQuerySurface
U eglSwapBuffers
U eglTerminate
U fclose
U fgets
U floorf
U fopen
U free
U getpid
U gettid
U gglInit
U gglUninit
U glActiveTexture
U glBindTexture
U glBlendFunc
U glClear
U glClearColor
U glClearColorx
U glColor4x
U glDeleteTextures
U glDisable
U glDisableClientState
U glDrawArrays
U glDrawTexiOES
U glEnable
U glEnableClientState
U glGenTextures
U glGetError
U glGetString
U glLoadIdentity
U glMatrixMode
U glOrthof
U glPixelStorei
U glReadPixels
U glRotatef
U glScalef
U glScissor
U glShadeModel
U glTexCoordPointer
U glTexEnvx
U glTexImage2D
U glTexParameteriv
U glTexParameterx
U glTexSubImage2D
U glTranslatef
U glVertexPointer
U glViewport
U hw_get_module
U ioctl
U kill
U malloc
U memcpy
U memmove
U memset
U open
U printf
U property_get
U property_set
U read
U rewind
U setvbuf
U sigaction
U sigprocmask
U sigwait
U sinf
U snprintf
U sprintf
U strcpy
U strerror
U strsep
U strstr
U strzcmp16
U systemTime
U usleep
U write
