T _ZN15KeyCharacterMap10getKeyDataEiPtS0_S0_
T _ZN15KeyCharacterMap15getDisplayLabelEi
T _ZN15KeyCharacterMap3getEii
T _ZN15KeyCharacterMap4loadEi
T _ZN15KeyCharacterMap8find_keyEi
T _ZN15KeyCharacterMap8getMatchEiPKtij
T _ZN15KeyCharacterMap8try_fileEPKc
T _ZN15KeyCharacterMap9find_charEtPjS0_
T _ZN15KeyCharacterMap9getEventsEPtjPN7android6VectorIiEEPNS2_IjEE
T _ZN15KeyCharacterMap9getNumberEi
T _ZN15KeyCharacterMapC1Ev
T _ZN15KeyCharacterMapC2Ev
T _ZN15KeyCharacterMapD1Ev
T _ZN15KeyCharacterMapD2Ev
U _ZN7android10IInterface8asBinderEv
T _ZN7android10OverlayRef13writeToParcelEPNS_6ParcelERKNS_2spIS0_EE
T _ZN7android10OverlayRef14readFromParcelERKNS_6ParcelE
T _ZN7android10OverlayRefC1EPK15native_handle_tRKNS_2spINS_8IOverlayEEEjjijj
T _ZN7android10OverlayRefC1Ev
T _ZN7android10OverlayRefC2EPK15native_handle_tRKNS_2spINS_8IOverlayEEEjjijj
T _ZN7android10OverlayRefC2Ev
T _ZN7android10OverlayRefD0Ev
T _ZN7android10OverlayRefD1Ev
T _ZN7android10OverlayRefD2Ev
U _ZN7android10VectorImpl13editArrayImplEv
U _ZN7android10VectorImpl13finish_vectorEv
U _ZN7android10VectorImpl13removeItemsAtEjj
U _ZN7android10VectorImpl19reservedVectorImpl1Ev
U _ZN7android10VectorImpl19reservedVectorImpl2Ev
U _ZN7android10VectorImpl19reservedVectorImpl3Ev
U _ZN7android10VectorImpl19reservedVectorImpl4Ev
U _ZN7android10VectorImpl19reservedVectorImpl5Ev
U _ZN7android10VectorImpl19reservedVectorImpl6Ev
U _ZN7android10VectorImpl19reservedVectorImpl7Ev
U _ZN7android10VectorImpl19reservedVectorImpl8Ev
U _ZN7android10VectorImpl3addEPKv
U _ZN7android10VectorImpl4pushEPKv
U _ZN7android10VectorImpl5clearEv
U _ZN7android10VectorImplC1ERKS0_
U _ZN7android10VectorImplC1Ejj
U _ZN7android10VectorImplD1Ev
W _ZN7android11BnInterfaceINS_12IGPUCallbackEE10onAsBinderEv
W _ZN7android11BnInterfaceINS_13ICameraClientEE10onAsBinderEv
W _ZN7android11BnInterfaceINS_14ICameraServiceEE10onAsBinderEv
W _ZN7android11BnInterfaceINS_16ISurfaceComposerEE10onAsBinderEv
W _ZN7android11BnInterfaceINS_21ISurfaceFlingerClientEE10onAsBinderEv
W _ZN7android11BnInterfaceINS_7ICameraEE10onAsBinderEv
W _ZN7android11BnInterfaceINS_8IOverlayEE10onAsBinderEv
W _ZN7android11BnInterfaceINS_8ISurfaceEE10onAsBinderEv
U _ZN7android11IMemoryHeap11asInterfaceERKNS_2spINS_7IBinderEEE
B _ZN7android12IGPUCallback10descriptorE
T _ZN7android12IGPUCallback11asInterfaceERKNS_2spINS_7IBinderEEE
T _ZN7android12KeyLayoutMap4loadEPKc
T _ZN7android12KeyLayoutMapC1Ev
T _ZN7android12KeyLayoutMapC2Ev
T _ZN7android12KeyLayoutMapD1Ev
T _ZN7android12KeyLayoutMapD2Ev
T _ZN7android12bitsPerPixelEi
W _ZN7android12compare_typeINS_16key_value_pair_tINS_7String8ES2_EEEEiRKT_S6_
T _ZN7android13BnGPUCallback10onTransactEjRKNS_6ParcelEPS1_j
B _ZN7android13ICameraClient10descriptorE
T _ZN7android13ICameraClient11asInterfaceERKNS_2spINS_7IBinderEEE
T _ZN7android13bytesPerPixelEi
T _ZN7android13layer_state_t4readERKNS_6ParcelE
T _ZN7android14BnCameraClient10onTransactEjRKNS_6ParcelEPS1_j
B _ZN7android14ICameraService10descriptorE
T _ZN7android14ICameraService11asInterfaceERKNS_2spINS_7IBinderEEE
U _ZN7android14IPCThreadState13flushCommandsEv
U _ZN7android14IPCThreadState13getCallingPidEv
U _ZN7android14IPCThreadState13getCallingUidEv
U _ZN7android14IPCThreadState4selfEv
T _ZN7android15BnCameraService10onTransactEjRKNS_6ParcelEPS1_j
T _ZN7android15EventRecurrence5parseERKNS_8String16E
T _ZN7android15EventRecurrenceC1Ev
T _ZN7android15EventRecurrenceC2Ev
T _ZN7android15EventRecurrenceD1Ev
T _ZN7android15EventRecurrenceD2Ev
T _ZN7android16CameraParameters14setOrientationEi
T _ZN7android16CameraParameters14setPictureSizeEii
T _ZN7android16CameraParameters14setPreviewSizeEii
T _ZN7android16CameraParameters16setPictureFormatEPKc
T _ZN7android16CameraParameters16setPreviewFormatEPKc
T _ZN7android16CameraParameters19setPreviewFrameRateEi
T _ZN7android16CameraParameters3setEPKcS2_
T _ZN7android16CameraParameters3setEPKci
T _ZN7android16CameraParameters9unflattenERKNS_7String8E
T _ZN7android16CameraParametersC1Ev
T _ZN7android16CameraParametersC2Ev
T _ZN7android16CameraParametersD1Ev
T _ZN7android16CameraParametersD2Ev
B _ZN7android16ISurfaceComposer10descriptorE
T _ZN7android16ISurfaceComposer11asInterfaceERKNS_2spINS_7IBinderEEE
U _ZN7android16SortedVectorImpl25reservedSortedVectorImpl1Ev
U _ZN7android16SortedVectorImpl25reservedSortedVectorImpl2Ev
U _ZN7android16SortedVectorImpl25reservedSortedVectorImpl3Ev
U _ZN7android16SortedVectorImpl25reservedSortedVectorImpl4Ev
U _ZN7android16SortedVectorImpl25reservedSortedVectorImpl5Ev
U _ZN7android16SortedVectorImpl25reservedSortedVectorImpl6Ev
U _ZN7android16SortedVectorImpl25reservedSortedVectorImpl7Ev
U _ZN7android16SortedVectorImpl25reservedSortedVectorImpl8Ev
U _ZN7android16SortedVectorImpl3addEPKv
U _ZN7android16SortedVectorImpl6removeEPKv
U _ZN7android16SortedVectorImplC1Ejj
U _ZN7android16SortedVectorImplD1Ev
T _ZN7android17BnSurfaceComposer10onTransactEjRKNS_6ParcelEPS1_j
T _ZN7android17EGLDisplaySurface11hook_decRefEP19egl_native_window_t
T _ZN7android17EGLDisplaySurface11hook_incRefEP19egl_native_window_t
T _ZN7android17EGLDisplaySurface11swapBuffersEv
T _ZN7android17EGLDisplaySurface14mapFrameBufferEv
T _ZN7android17EGLDisplaySurface15copyBackToImageERK15copybit_image_t
T _ZN7android17EGLDisplaySurface15copyFrontToBackERKNS_6RegionE
T _ZN7android17EGLDisplaySurface16copyFrontToImageERK15copybit_image_t
T _ZN7android17EGLDisplaySurface16hook_swapBuffersEP19egl_native_window_t
T _ZN7android17EGLDisplaySurface16setSwapRectangleEiiii
T _ZN7android17EGLDisplaySurfaceC1Ev
T _ZN7android17EGLDisplaySurfaceC2Ev
T _ZN7android17EGLDisplaySurfaceD1Ev
T _ZN7android17EGLDisplaySurfaceD2Ev
W _ZN7android17move_forward_typeINS_13layer_state_tEEEvPT_PKS2_j
W _ZN7android17move_forward_typeINS_16key_value_pair_tINS_2spINS_7IBinderEEENS2_INS_21SurfaceComposerClientEEEEEEEvPT_PKS8_j
W _ZN7android17move_forward_typeINS_16key_value_pair_tINS_7String8ES2_EEEEvPT_PKS4_j
W _ZN7android17move_forward_typeINS_2spINS_21SurfaceComposerClientEEEEEvPT_PKS4_j
T _ZN7android17per_client_cblk_t10lock_layerEjj
T _ZN7android17per_client_cblk_t12unlock_layerEj
T _ZN7android17per_client_cblk_t21unlock_layer_and_postEj
T _ZN7android17per_client_cblk_tC1Ev
T _ZN7android17per_client_cblk_tC2Ev
T _ZN7android18getPixelFormatInfoEiPNS_15PixelFormatInfoE
W _ZN7android18move_backward_typeINS_13layer_state_tEEEvPT_PKS2_j
W _ZN7android18move_backward_typeINS_16key_value_pair_tINS_2spINS_7IBinderEEENS2_INS_21SurfaceComposerClientEEEEEEEvPT_PKS8_j
W _ZN7android18move_backward_typeINS_16key_value_pair_tINS_7String8ES2_EEEEvPT_PKS4_j
W _ZN7android18move_backward_typeINS_2spINS_21SurfaceComposerClientEEEEEvPT_PKS4_j
T _ZN7android20_get_surface_managerEv
B _ZN7android21ISurfaceFlingerClient10descriptorE
T _ZN7android21ISurfaceFlingerClient11asInterfaceERKNS_2spINS_7IBinderEEE
T _ZN7android21ISurfaceFlingerClient14surface_data_t14readFromParcelERKNS_6ParcelE
T _ZN7android21SurfaceComposerClient10nextBufferEPNS_7SurfaceEPNS1_11SurfaceInfoE
T _ZN7android21SurfaceComposerClient11lockSurfaceEPNS_7SurfaceEPNS1_11SurfaceInfoEPNS_6RegionEb
T _ZN7android21SurfaceComposerClient11setPositionEPNS_7SurfaceEii
T _ZN7android21SurfaceComposerClient13createSurfaceEiijjij
T _ZN7android21SurfaceComposerClient13freezeDisplayEij
T _ZN7android21SurfaceComposerClient13setFreezeTintEPNS_7SurfaceEj
T _ZN7android21SurfaceComposerClient13unlockSurfaceEPNS_7SurfaceE
T _ZN7android21SurfaceComposerClient14_signal_serverEv
T _ZN7android21SurfaceComposerClient14destroySurfaceEi
T _ZN7android21SurfaceComposerClient14getDisplayInfoEiPNS_11DisplayInfoE
T _ZN7android21SurfaceComposerClient14setOrientationEiij
T _ZN7android21SurfaceComposerClient15_lockLayerStateERKNS_2spINS_7SurfaceEEE
T _ZN7android21SurfaceComposerClient15getDisplayWidthEi
T _ZN7android21SurfaceComposerClient15openTransactionEv
T _ZN7android21SurfaceComposerClient15unfreezeDisplayEij
T _ZN7android21SurfaceComposerClient15validateSurfaceEPKNS_17per_client_cblk_tEPKNS_7SurfaceE
T _ZN7android21SurfaceComposerClient16closeTransactionEv
T _ZN7android21SurfaceComposerClient16getDisplayHeightEi
T _ZN7android21SurfaceComposerClient18_send_dirty_regionEPNS_12layer_cblk_tERKNS_6RegionE
T _ZN7android21SurfaceComposerClient19clientForConnectionERKNS_2spINS_7IBinderEEE
T _ZN7android21SurfaceComposerClient19getNumberOfDisplaysEv
T _ZN7android21SurfaceComposerClient20unlockAndPostSurfaceEPNS_7SurfaceE
T _ZN7android21SurfaceComposerClient21getDisplayOrientationEi
T _ZN7android21SurfaceComposerClient21openGlobalTransactionEv
T _ZN7android21SurfaceComposerClient22closeGlobalTransactionEv
T _ZN7android21SurfaceComposerClient24setTransparentRegionHintEPNS_7SurfaceERKNS_6RegionE
T _ZN7android21SurfaceComposerClient4hideEPNS_7SurfaceE
T _ZN7android21SurfaceComposerClient4showEPNS_7SurfaceEi
T _ZN7android21SurfaceComposerClient5_initERKNS_2spINS_16ISurfaceComposerEEERKNS1_INS_21ISurfaceFlingerClientEEE
T _ZN7android21SurfaceComposerClient6freezeEPNS_7SurfaceE
T _ZN7android21SurfaceComposerClient7disposeEv
T _ZN7android21SurfaceComposerClient7setSizeEPNS_7SurfaceEjj
T _ZN7android21SurfaceComposerClient8setAlphaEPNS_7SurfaceEf
T _ZN7android21SurfaceComposerClient8setFlagsEPNS_7SurfaceEjj
T _ZN7android21SurfaceComposerClient8setLayerEPNS_7SurfaceEi
T _ZN7android21SurfaceComposerClient8unfreezeEPNS_7SurfaceE
T _ZN7android21SurfaceComposerClient9setMatrixEPNS_7SurfaceEffff
T _ZN7android21SurfaceComposerClientC1ERKNS_2spINS_16ISurfaceComposerEEERKNS1_INS_7IBinderEEE
T _ZN7android21SurfaceComposerClientC1Ev
T _ZN7android21SurfaceComposerClientC2ERKNS_2spINS_16ISurfaceComposerEEERKNS1_INS_7IBinderEEE
T _ZN7android21SurfaceComposerClientC2Ev
T _ZN7android21SurfaceComposerClientD0Ev
T _ZN7android21SurfaceComposerClientD1Ev
T _ZN7android21SurfaceComposerClientD2Ev
T _ZN7android21SurfaceFlingerSynchro4openEv
T _ZN7android21SurfaceFlingerSynchro4waitEv
T _ZN7android21SurfaceFlingerSynchro4waitEx
T _ZN7android21SurfaceFlingerSynchro6signalEv
T _ZN7android21SurfaceFlingerSynchro7Barrier12waitAndCloseEv
T _ZN7android21SurfaceFlingerSynchro7Barrier12waitAndCloseEx
T _ZN7android21SurfaceFlingerSynchro7Barrier4openEv
T _ZN7android21SurfaceFlingerSynchro7Barrier5closeEv
T _ZN7android21SurfaceFlingerSynchro7BarrierC1Ev
T _ZN7android21SurfaceFlingerSynchro7BarrierC2Ev
T _ZN7android21SurfaceFlingerSynchro7BarrierD1Ev
T _ZN7android21SurfaceFlingerSynchro7BarrierD2Ev
T _ZN7android21SurfaceFlingerSynchroC1ERKNS_2spINS_16ISurfaceComposerEEE
T _ZN7android21SurfaceFlingerSynchroC1Ev
T _ZN7android21SurfaceFlingerSynchroC2ERKNS_2spINS_16ISurfaceComposerEEE
T _ZN7android21SurfaceFlingerSynchroC2Ev
T _ZN7android21SurfaceFlingerSynchroD1Ev
T _ZN7android21SurfaceFlingerSynchroD2Ev
U _ZN7android21defaultServiceManagerEv
T _ZN7android22BnSurfaceFlingerClient10onTransactEjRKNS_6ParcelEPS1_j
T _ZN7android22EGLNativeWindowSurface10disconnectEv
T _ZN7android22EGLNativeWindowSurface11hook_decRefEP19egl_native_window_t
T _ZN7android22EGLNativeWindowSurface11hook_incRefEP19egl_native_window_t
T _ZN7android22EGLNativeWindowSurface11swapBuffersEv
T _ZN7android22EGLNativeWindowSurface12hook_connectEP19egl_native_window_t
T _ZN7android22EGLNativeWindowSurface15hook_disconnectEP19egl_native_window_t
T _ZN7android22EGLNativeWindowSurface16hook_swapBuffersEP19egl_native_window_t
T _ZN7android22EGLNativeWindowSurface16setSwapRectangleEiiii
T _ZN7android22EGLNativeWindowSurface7connectEv
T _ZN7android22EGLNativeWindowSurfaceC1ERKNS_2spINS_7SurfaceEEE
T _ZN7android22EGLNativeWindowSurfaceC2ERKNS_2spINS_7SurfaceEEE
T _ZN7android22EGLNativeWindowSurfaceD1Ev
T _ZN7android22EGLNativeWindowSurfaceD2Ev
U _ZN7android22checkCallingPermissionERKNS_8String16E
T _ZN7android22surface_flinger_cblk_tC1Ev
T _ZN7android22surface_flinger_cblk_tC2Ev
W _ZN7android2spINS_10OverlayRefEEaSEPS1_
W _ZN7android2spINS_11IMemoryHeapEEaSERKS2_
W _ZN7android2spINS_12IGPUCallbackEEaSEPS1_
W _ZN7android2spINS_12IGPUCallbackEEaSINS_13BpGPUCallbackEEERS2_PT_
W _ZN7android2spINS_13ICameraClientEEaSEPS1_
W _ZN7android2spINS_13ICameraClientEEaSINS_14BpCameraClientEEERS2_PT_
W _ZN7android2spINS_14CameraListenerEEaSERKS2_
W _ZN7android2spINS_14ICameraServiceEEaSEPS1_
W _ZN7android2spINS_14ICameraServiceEEaSERKS2_
W _ZN7android2spINS_14ICameraServiceEEaSINS_15BpCameraServiceEEERS2_PT_
W _ZN7android2spINS_16ISurfaceComposerEEaSEPS1_
W _ZN7android2spINS_16ISurfaceComposerEEaSERKS2_
W _ZN7android2spINS_16ISurfaceComposerEEaSINS_17BpSurfaceComposerEEERS2_PT_
W _ZN7android2spINS_21ISurfaceFlingerClientEEaSEPS1_
W _ZN7android2spINS_21ISurfaceFlingerClientEEaSERKS2_
W _ZN7android2spINS_21ISurfaceFlingerClientEEaSINS_22BpSurfaceFlingerClientEEERS2_PT_
W _ZN7android2spINS_21SurfaceComposerClientEEaSEPS1_
W _ZN7android2spINS_21SurfaceComposerClientEEaSERKS2_
W _ZN7android2spINS_6Camera13DeathNotifierEEaSEPS2_
W _ZN7android2spINS_7IBinderEEaSERKS2_
W _ZN7android2spINS_7ICameraEEaSEPS1_
W _ZN7android2spINS_7ICameraEEaSERKS2_
W _ZN7android2spINS_7ICameraEEaSINS_8BpCameraEEERS2_PT_
W _ZN7android2spINS_7IMemoryEEaSERKS2_
W _ZN7android2spINS_7SurfaceEEaSEPS1_
W _ZN7android2spINS_8IOverlayEEaSEPS1_
W _ZN7android2spINS_8IOverlayEEaSERKS2_
W _ZN7android2spINS_8IOverlayEEaSINS_9BpOverlayEEERS2_PT_
W _ZN7android2spINS_8ISurfaceEEaSEPS1_
W _ZN7android2spINS_8ISurfaceEEaSERKS2_
W _ZN7android2spINS_8ISurfaceEEaSINS_9BpSurfaceEEERS2_PT_
T _ZN7android4Rect11makeInvalidEv
T _ZN7android4Rect8offsetByEii
T _ZN7android4Rect8offsetToEii
U _ZN7android5Mutex4lockEv
U _ZN7android5Mutex6unlockEv
U _ZN7android5MutexC1Ev
U _ZN7android5MutexD1Ev
T _ZN7android6Camera10binderDiedERKNS_2wpINS_7IBinderEEE
T _ZN7android6Camera10disconnectEv
T _ZN7android6Camera11setListenerERKNS_2spINS_14CameraListenerEEE
T _ZN7android6Camera11stopPreviewEv
T _ZN7android6Camera11takePictureEv
T _ZN7android6Camera12dataCallbackEiRKNS_2spINS_7IMemoryEEE
T _ZN7android6Camera12startPreviewEv
T _ZN7android6Camera13DeathNotifier10binderDiedERKNS_2wpINS_7IBinderEEE
T _ZN7android6Camera13setParametersERKNS_7String8E
T _ZN7android6Camera13stopRecordingEv
B _ZN7android6Camera14mCameraServiceE
B _ZN7android6Camera14mDeathNotifierE
T _ZN7android6Camera14notifyCallbackEiii
T _ZN7android6Camera14previewEnabledEv
T _ZN7android6Camera14startRecordingEv
T _ZN7android6Camera16getCameraServiceEv
T _ZN7android6Camera16recordingEnabledEv
T _ZN7android6Camera17setPreviewDisplayERKNS_2spINS_7SurfaceEEE
T _ZN7android6Camera17setPreviewDisplayERKNS_2spINS_8ISurfaceEEE
T _ZN7android6Camera21dataCallbackTimestampExiRKNS_2spINS_7IMemoryEEE
T _ZN7android6Camera21releaseRecordingFrameERKNS_2spINS_7IMemoryEEE
T _ZN7android6Camera23setPreviewCallbackFlagsEi
T _ZN7android6Camera4initEv
T _ZN7android6Camera4lockEv
B _ZN7android6Camera5mLockE
T _ZN7android6Camera6createERKNS_2spINS_7ICameraEEE
T _ZN7android6Camera6remoteEv
T _ZN7android6Camera6unlockEv
T _ZN7android6Camera7connectEv
T _ZN7android6Camera9autoFocusEv
T _ZN7android6Camera9reconnectEv
T _ZN7android6CameraC1Ev
T _ZN7android6CameraC2Ev
T _ZN7android6CameraD0Ev
T _ZN7android6CameraD1Ev
T _ZN7android6CameraD2Ev
U _ZN7android6Parcel10writeInt32Ei
U _ZN7android6Parcel10writeInt64Ex
U _ZN7android6Parcel12writeInplaceEj
U _ZN7android6Parcel12writeString8ERKNS_7String8E
U _ZN7android6Parcel17writeNativeHandleEPK15native_handle_t
U _ZN7android6Parcel17writeStrongBinderERKNS_2spINS_7IBinderEEE
U _ZN7android6Parcel19writeInterfaceTokenERKNS_8String16E
U _ZN7android6Parcel5writeEPKvj
U _ZN7android6ParcelC1Ev
U _ZN7android6ParcelD1Ev
T _ZN7android6Region10writeEmptyEPvj
T _ZN7android6Region12subtractSelfERKS0_
T _ZN7android6Region12subtractSelfERKS0_ii
T _ZN7android6Region13translateSelfEii
T _ZN7android6Region3setERKNS_4RectE
T _ZN7android6Region4readEPKv
T _ZN7android6Region4readERKNS_6ParcelE
T _ZN7android6Region5clearEv
T _ZN7android6Region6orSelfERKNS_4RectE
T _ZN7android6Region6orSelfERKS0_
T _ZN7android6Region6orSelfERKS0_ii
T _ZN7android6Region7andSelfERKNS_4RectE
T _ZN7android6Region7andSelfERKS0_
T _ZN7android6Region7andSelfERKS0_ii
T _ZN7android6Region7isEmptyEPv
T _ZN7android6Region8iterator7iterateEPNS_4RectE
T _ZN7android6Region8iteratorC1ERKS0_
T _ZN7android6Region8iteratorC2ERKS0_
T _ZN7android6RegionC1EPKv
T _ZN7android6RegionC1ERK8SkRegion
T _ZN7android6RegionC1ERKNS_4RectE
T _ZN7android6RegionC1ERKNS_6ParcelE
T _ZN7android6RegionC1ERKS0_
T _ZN7android6RegionC1Ev
T _ZN7android6RegionC2EPKv
T _ZN7android6RegionC2ERK8SkRegion
T _ZN7android6RegionC2ERKNS_4RectE
T _ZN7android6RegionC2ERKNS_6ParcelE
T _ZN7android6RegionC2ERKS0_
T _ZN7android6RegionC2Ev
T _ZN7android6RegionD1Ev
T _ZN7android6RegionD2Ev
T _ZN7android6RegionaSERKS0_
U _ZN7android7BBinder10onTransactEjRKNS_6ParcelEPS1_j
U _ZN7android7BBinder10pingBinderEv
U _ZN7android7BBinder11linkToDeathERKNS_2spINS_7IBinder14DeathRecipientEEEPvj
U _ZN7android7BBinder11localBinderEv
U _ZN7android7BBinder12attachObjectEPKvPvS3_PFvS2_S3_S3_E
U _ZN7android7BBinder12detachObjectEPKv
U _ZN7android7BBinder13unlinkToDeathERKNS_2wpINS_7IBinder14DeathRecipientEEEPvjPS4_
U _ZN7android7BBinder4dumpEiRKNS_6VectorINS_8String16EEE
U _ZN7android7BBinder8transactEjRKNS_6ParcelEPS1_j
U _ZN7android7BBinderC2Ev
U _ZN7android7BBinderD0Ev
U _ZN7android7BBinderD1Ev
U _ZN7android7BBinderD2Ev
U _ZN7android7IBinder11localBinderEv
U _ZN7android7IBinder12remoteBinderEv
U _ZN7android7IBinder19queryLocalInterfaceERKNS_8String16E
B _ZN7android7ICamera10descriptorE
T _ZN7android7ICamera11asInterfaceERKNS_2spINS_7IBinderEEE
U _ZN7android7IMemory11asInterfaceERKNS_2spINS_7IBinderEEE
T _ZN7android7Overlay11queueBufferEPv
T _ZN7android7Overlay13dequeueBufferEPPv
T _ZN7android7Overlay16getBufferAddressEPv
T _ZN7android7Overlay7destroyEv
T _ZN7android7OverlayC1ERKNS_2spINS_10OverlayRefEEE
T _ZN7android7OverlayC2ERKNS_2spINS_10OverlayRefEEE
T _ZN7android7OverlayD0Ev
T _ZN7android7OverlayD1Ev
T _ZN7android7OverlayD2Ev
U _ZN7android7RefBase10onFirstRefEv
U _ZN7android7RefBase13onLastWeakRefEPKv
U _ZN7android7RefBase15onLastStrongRefEPKv
U _ZN7android7RefBase20onIncStrongAttemptedEjPKv
U _ZN7android7RefBaseC1Ev
U _ZN7android7RefBaseD1Ev
U _ZN7android7String85setToEPKc
U _ZN7android7String85setToERKS0_
U _ZN7android7String86appendEPKc
U _ZN7android7String86appendERKS0_
U _ZN7android7String8C1EPKc
U _ZN7android7String8C1EPKcj
U _ZN7android7String8C1ERKNS_8String16E
U _ZN7android7String8C1ERKS0_
U _ZN7android7String8C1Ev
U _ZN7android7String8D1Ev
T _ZN7android7Surface10nextBufferEPNS0_11SurfaceInfoE
T _ZN7android7Surface11setPositionEii
T _ZN7android7Surface13isSameSurfaceERKNS_2spIS0_EES4_
T _ZN7android7Surface13setFreezeTintEj
T _ZN7android7Surface13unlockAndPostEv
T _ZN7android7Surface13writeToParcelERKNS_2spIS0_EEPNS_6ParcelE
T _ZN7android7Surface14readFromParcelEPNS_6ParcelE
T _ZN7android7Surface16setSwapRectangleERKNS_4RectE
T _ZN7android7Surface24setTransparentRegionHintERKNS_6RegionE
T _ZN7android7Surface4hideEv
T _ZN7android7Surface4lockEPNS0_11SurfaceInfoEPNS_6RegionEb
T _ZN7android7Surface4lockEPNS0_11SurfaceInfoEb
T _ZN7android7Surface4showEi
T _ZN7android7Surface6freezeEv
T _ZN7android7Surface6unlockEv
T _ZN7android7Surface7setSizeEjj
T _ZN7android7Surface8setAlphaEf
T _ZN7android7Surface8setFlagsEjj
T _ZN7android7Surface8setLayerEi
T _ZN7android7Surface8unfreezeEv
T _ZN7android7Surface9setMatrixEffff
T _ZN7android7SurfaceC1EPKS0_
T _ZN7android7SurfaceC1ERKNS_2spINS_21SurfaceComposerClientEEERKNS1_INS_8ISurfaceEEERKNS_21ISurfaceFlingerClient14surface_data_tEjjijb
T _ZN7android7SurfaceC2EPKS0_
T _ZN7android7SurfaceC2ERKNS_2spINS_21SurfaceComposerClientEEERKNS1_INS_8ISurfaceEEERKNS_21ISurfaceFlingerClient14surface_data_tEjjijb
T _ZN7android7SurfaceD0Ev
T _ZN7android7SurfaceD1Ev
T _ZN7android7SurfaceD2Ev
T _ZN7android8BnCamera10onTransactEjRKNS_6ParcelEPS1_j
T _ZN7android8EventHub10onFirstRefEv
T _ZN7android8EventHub11open_deviceEPKc
T _ZN7android8EventHub11read_notifyEi
T _ZN7android8EventHub12close_deviceEPKc
T _ZN7android8EventHub17openPlatformInputEv
T _ZN7android8EventHub7hasKeysEjPiPh
T _ZN7android8EventHub8device_tC1EiPKc
T _ZN7android8EventHub8device_tC2EiPKc
T _ZN7android8EventHub8device_tD1Ev
T _ZN7android8EventHub8device_tD2Ev
T _ZN7android8EventHub8getEventEPiS1_S1_S1_PjS1_Px
T _ZN7android8EventHub8scan_dirEPKc
T _ZN7android8EventHubC1Ev
T _ZN7android8EventHubC2Ev
T _ZN7android8EventHubD0Ev
T _ZN7android8EventHubD1Ev
T _ZN7android8EventHubD2Ev
B _ZN7android8IOverlay10descriptorE
T _ZN7android8IOverlay11asInterfaceERKNS_2spINS_7IBinderEEE
T _ZN7android8ISurface10BufferHeapC1EjjiiiRKNS_2spINS_11IMemoryHeapEEE
T _ZN7android8ISurface10BufferHeapC1EjjiiijjRKNS_2spINS_11IMemoryHeapEEE
T _ZN7android8ISurface10BufferHeapC1Ev
T _ZN7android8ISurface10BufferHeapC2EjjiiiRKNS_2spINS_11IMemoryHeapEEE
T _ZN7android8ISurface10BufferHeapC2EjjiiijjRKNS_2spINS_11IMemoryHeapEEE
T _ZN7android8ISurface10BufferHeapC2Ev
T _ZN7android8ISurface10BufferHeapD1Ev
T _ZN7android8ISurface10BufferHeapD2Ev
B _ZN7android8ISurface10descriptorE
T _ZN7android8ISurface11asInterfaceERKNS_2spINS_7IBinderEEE
U _ZN7android8String165setToERKS0_
U _ZN7android8String16C1EPKc
U _ZN7android8String16C1EPKtj
U _ZN7android8String16C1ERKS0_
U _ZN7android8String16C1Ev
U _ZN7android8String16D1Ev
T _ZN7android9BnOverlay10onTransactEjRKNS_6ParcelEPS1_j
T _ZN7android9BnSurface10onTransactEjRKNS_6ParcelEPS1_j
U _ZN7android9BpRefBase10onFirstRefEv
U _ZN7android9BpRefBase15onLastStrongRefEPKv
U _ZN7android9BpRefBase20onIncStrongAttemptedEjPKv
U _ZN7android9BpRefBaseC2ERKNS_2spINS_7IBinderEEE
U _ZN7android9BpRefBaseD0Ev
U _ZN7android9BpRefBaseD1Ev
U _ZN7android9BpRefBaseD2Ev
U _ZN7android9Condition12waitRelativeERNS_5MutexEx
U _ZN7android9Condition4waitERNS_5MutexE
U _ZN7android9Condition9broadcastEv
U _ZN7android9ConditionC1Ev
U _ZN7android9ConditionD1Ev
U _ZN8SkRegion2opERKS_RK7SkIRectNS_2OpE
U _ZN8SkRegion2opERKS_S1_NS_2OpE
U _ZN8SkRegion7setRectERK7SkIRect
U _ZN8SkRegion8Iterator4nextEv
U _ZN8SkRegion8IteratorC1ERKS_
U _ZN8SkRegion8setEmptyEv
U _ZN8SkRegion9unflattenEPKv
U _ZN8SkRegionC1ERKS_
U _ZN8SkRegionC1Ev
U _ZN8SkRegionD1Ev
U _ZN8SkRegionaSERKS_
T _ZNK7android12IGPUCallback22getInterfaceDescriptorEv
T _ZNK7android12KeyLayoutMap13findScancodesEiPNS_6VectorIiEE
T _ZNK7android12KeyLayoutMap3mapEiPiPj
W _ZNK7android12SortedVectorINS_13layer_state_tEE10do_compareEPKvS4_
W _ZNK7android12SortedVectorINS_13layer_state_tEE10do_destroyEPvj
W _ZNK7android12SortedVectorINS_13layer_state_tEE12do_constructEPvj
W _ZNK7android12SortedVectorINS_13layer_state_tEE15do_move_forwardEPvPKvj
W _ZNK7android12SortedVectorINS_13layer_state_tEE16do_move_backwardEPvPKvj
W _ZNK7android12SortedVectorINS_13layer_state_tEE7do_copyEPvPKvj
W _ZNK7android12SortedVectorINS_13layer_state_tEE8do_splatEPvPKvj
W _ZNK7android12SortedVectorINS_16key_value_pair_tINS_2spINS_7IBinderEEENS2_INS_21SurfaceComposerClientEEEEEE10do_compareEPKvSA_
W _ZNK7android12SortedVectorINS_16key_value_pair_tINS_2spINS_7IBinderEEENS2_INS_21SurfaceComposerClientEEEEEE10do_destroyEPvj
W _ZNK7android12SortedVectorINS_16key_value_pair_tINS_2spINS_7IBinderEEENS2_INS_21SurfaceComposerClientEEEEEE12do_constructEPvj
W _ZNK7android12SortedVectorINS_16key_value_pair_tINS_2spINS_7IBinderEEENS2_INS_21SurfaceComposerClientEEEEEE15do_move_forwardEPvPKvj
W _ZNK7android12SortedVectorINS_16key_value_pair_tINS_2spINS_7IBinderEEENS2_INS_21SurfaceComposerClientEEEEEE16do_move_backwardEPvPKvj
W _ZNK7android12SortedVectorINS_16key_value_pair_tINS_2spINS_7IBinderEEENS2_INS_21SurfaceComposerClientEEEEEE7do_copyEPvPKvj
W _ZNK7android12SortedVectorINS_16key_value_pair_tINS_2spINS_7IBinderEEENS2_INS_21SurfaceComposerClientEEEEEE8do_splatEPvPKvj
W _ZNK7android12SortedVectorINS_16key_value_pair_tINS_7String8ES2_EEE10do_compareEPKvS6_
W _ZNK7android12SortedVectorINS_16key_value_pair_tINS_7String8ES2_EEE10do_destroyEPvj
W _ZNK7android12SortedVectorINS_16key_value_pair_tINS_7String8ES2_EEE12do_constructEPvj
W _ZNK7android12SortedVectorINS_16key_value_pair_tINS_7String8ES2_EEE15do_move_forwardEPvPKvj
W _ZNK7android12SortedVectorINS_16key_value_pair_tINS_7String8ES2_EEE16do_move_backwardEPvPKvj
W _ZNK7android12SortedVectorINS_16key_value_pair_tINS_7String8ES2_EEE7do_copyEPvPKvj
W _ZNK7android12SortedVectorINS_16key_value_pair_tINS_7String8ES2_EEE8do_splatEPvPKvj
W _ZNK7android12SortedVectorINS_16key_value_pair_tIiNS_12KeyLayoutMap3KeyEEEE10do_compareEPKvS7_
W _ZNK7android12SortedVectorINS_16key_value_pair_tIiNS_12KeyLayoutMap3KeyEEEE10do_destroyEPvj
W _ZNK7android12SortedVectorINS_16key_value_pair_tIiNS_12KeyLayoutMap3KeyEEEE12do_constructEPvj
W _ZNK7android12SortedVectorINS_16key_value_pair_tIiNS_12KeyLayoutMap3KeyEEEE15do_move_forwardEPvPKvj
W _ZNK7android12SortedVectorINS_16key_value_pair_tIiNS_12KeyLayoutMap3KeyEEEE16do_move_backwardEPvPKvj
W _ZNK7android12SortedVectorINS_16key_value_pair_tIiNS_12KeyLayoutMap3KeyEEEE7do_copyEPvPKvj
W _ZNK7android12SortedVectorINS_16key_value_pair_tIiNS_12KeyLayoutMap3KeyEEEE8do_splatEPvPKvj
W _ZNK7android12SortedVectorINS_2spINS_21SurfaceComposerClientEEEE10do_compareEPKvS6_
W _ZNK7android12SortedVectorINS_2spINS_21SurfaceComposerClientEEEE10do_destroyEPvj
W _ZNK7android12SortedVectorINS_2spINS_21SurfaceComposerClientEEEE12do_constructEPvj
W _ZNK7android12SortedVectorINS_2spINS_21SurfaceComposerClientEEEE15do_move_forwardEPvPKvj
W _ZNK7android12SortedVectorINS_2spINS_21SurfaceComposerClientEEEE16do_move_backwardEPvPKvj
W _ZNK7android12SortedVectorINS_2spINS_21SurfaceComposerClientEEEE7do_copyEPvPKvj
W _ZNK7android12SortedVectorINS_2spINS_21SurfaceComposerClientEEEE8do_splatEPvPKvj
T _ZNK7android13ICameraClient22getInterfaceDescriptorEv
T _ZNK7android13layer_state_t5writeERNS_6ParcelE
T _ZNK7android14ICameraService22getInterfaceDescriptorEv
T _ZNK7android15PixelFormatInfo15getScanlineSizeEj
T _ZNK7android16CameraParameters14getOrientationEv
T _ZNK7android16CameraParameters14getPictureSizeEPiS1_
T _ZNK7android16CameraParameters14getPreviewSizeEPiS1_
T _ZNK7android16CameraParameters16getPictureFormatEv
T _ZNK7android16CameraParameters16getPreviewFormatEv
T _ZNK7android16CameraParameters19getPreviewFrameRateEv
T _ZNK7android16CameraParameters3getEPKc
T _ZNK7android16CameraParameters4dumpEiRKNS_6VectorINS_8String16EEE
T _ZNK7android16CameraParameters4dumpEv
T _ZNK7android16CameraParameters6getIntEPKc
T _ZNK7android16CameraParameters7flattenEv
T _ZNK7android16ISurfaceComposer22getInterfaceDescriptorEv
U _ZNK7android16SortedVectorImpl7indexOfEPKv
T _ZNK7android17EGLDisplaySurface16getPageFlipCountEv
T _ZNK7android21ISurfaceFlingerClient14surface_data_t13writeToParcelEPNS_6ParcelE
T _ZNK7android21ISurfaceFlingerClient22getInterfaceDescriptorEv
T _ZNK7android21SurfaceComposerClient10connectionEv
T _ZNK7android21SurfaceComposerClient9initCheckEv
T _ZNK7android4Rect9intersectERKS0_PS0_
T _ZNK7android4RectltERKS0_
T _ZNK7android4RectmiERKNS_5PointE
T _ZNK7android4RectplERKNS_5PointE
T _ZNK7android6Camera13getParametersEv
U _ZNK7android6Parcel11readInplaceEj
U _ZNK7android6Parcel11readString8Ev
U _ZNK7android6Parcel16enforceInterfaceERKNS_8String16E
U _ZNK7android6Parcel16readNativeHandleEv
U _ZNK7android6Parcel16readStrongBinderEv
U _ZNK7android6Parcel4readEPvj
U _ZNK7android6Parcel9readInt32Ev
U _ZNK7android6Parcel9readInt64Ev
T _ZNK7android6Region10toSkRegionEv
T _ZNK7android6Region4dumpEPKcj
T _ZNK7android6Region4dumpERNS_7String8EPKcj
T _ZNK7android6Region5mergeERKS0_
T _ZNK7android6Region5mergeERKS0_ii
T _ZNK7android6Region5rectsERNS_6VectorINS_4RectEEE
T _ZNK7android6Region5writeEPvj
T _ZNK7android6Region5writeERNS_6ParcelE
T _ZNK7android6Region6boundsEv
T _ZNK7android6Region8subtractERKS0_
T _ZNK7android6Region8subtractERKS0_ii
T _ZNK7android6Region9intersectERKS0_
T _ZNK7android6Region9intersectERKS0_ii
T _ZNK7android6Region9translateEii
W _ZNK7android6VectorINS_4RectEE10do_destroyEPvj
W _ZNK7android6VectorINS_4RectEE12do_constructEPvj
W _ZNK7android6VectorINS_4RectEE15do_move_forwardEPvPKvj
W _ZNK7android6VectorINS_4RectEE16do_move_backwardEPvPKvj
W _ZNK7android6VectorINS_4RectEE7do_copyEPvPKvj
W _ZNK7android6VectorINS_4RectEE8do_splatEPvPKvj
W _ZNK7android6VectorIiE10do_destroyEPvj
W _ZNK7android6VectorIiE12do_constructEPvj
W _ZNK7android6VectorIiE15do_move_forwardEPvPKvj
W _ZNK7android6VectorIiE16do_move_backwardEPvPKvj
W _ZNK7android6VectorIiE7do_copyEPvPKvj
W _ZNK7android6VectorIiE8do_splatEPvPKvj
U _ZNK7android7BBinder10findObjectEPKv
U _ZNK7android7BBinder13isBinderAliveEv
U _ZNK7android7BBinder22getInterfaceDescriptorEv
U _ZNK7android7IBinder13checkSubclassEPKv
T _ZNK7android7ICamera22getInterfaceDescriptorEv
U _ZNK7android7IMemory7pointerEv
T _ZNK7android7Overlay12getHandleRefEv
T _ZNK7android7Overlay14getBufferCountEv
T _ZNK7android7Overlay14getWidthStrideEv
T _ZNK7android7Overlay15getHeightStrideEv
T _ZNK7android7Overlay8getWidthEv
T _ZNK7android7Overlay9getFormatEv
T _ZNK7android7Overlay9getHeightEv
T _ZNK7android7Overlay9getStatusEv
U _ZNK7android7RefBase9decStrongEPKv
U _ZNK7android7RefBase9incStrongEPKv
T _ZNK7android7Surface11dirtyRegionEv
T _ZNK7android7Surface13swapRectangleEv
T _ZNK7android7Surface14setDirtyRegionERKNS_6RegionE
T _ZNK7android7Surface3dupEv
T _ZNK7android7Surface8heapBaseEi
T _ZNK7android8EventHub10errorCheckEv
T _ZNK7android8EventHub13getDeviceNameEi
T _ZNK7android8EventHub14getSwitchStateEi
T _ZNK7android8EventHub14getSwitchStateEii
T _ZNK7android8EventHub15getAbsoluteInfoEiiPiS1_S1_S1_
T _ZNK7android8EventHub15getKeycodeStateEi
T _ZNK7android8EventHub15getKeycodeStateEii
T _ZNK7android8EventHub16getDeviceClassesEi
T _ZNK7android8EventHub16getScancodeStateEi
T _ZNK7android8EventHub16getScancodeStateEii
T _ZNK7android8EventHub9getDeviceEi
T _ZNK7android8IOverlay22getInterfaceDescriptorEv
T _ZNK7android8ISurface22getInterfaceDescriptorEv
U _ZNK8SkRegion7flattenEPv
U _ZNK8SkRegion9translateEiiPS_
V _ZTCN7android11BnInterfaceINS_12IGPUCallbackEEE0_NS_10IInterfaceE
V _ZTCN7android11BnInterfaceINS_12IGPUCallbackEEE0_S1_
V _ZTCN7android11BnInterfaceINS_12IGPUCallbackEEE4_NS_7BBinderE
V _ZTCN7android11BnInterfaceINS_12IGPUCallbackEEE4_NS_7IBinderE
V _ZTCN7android11BnInterfaceINS_13ICameraClientEEE0_NS_10IInterfaceE
V _ZTCN7android11BnInterfaceINS_13ICameraClientEEE0_S1_
V _ZTCN7android11BnInterfaceINS_13ICameraClientEEE4_NS_7BBinderE
V _ZTCN7android11BnInterfaceINS_13ICameraClientEEE4_NS_7IBinderE
V _ZTCN7android11BnInterfaceINS_14ICameraServiceEEE0_NS_10IInterfaceE
V _ZTCN7android11BnInterfaceINS_14ICameraServiceEEE0_S1_
V _ZTCN7android11BnInterfaceINS_14ICameraServiceEEE4_NS_7BBinderE
V _ZTCN7android11BnInterfaceINS_14ICameraServiceEEE4_NS_7IBinderE
V _ZTCN7android11BnInterfaceINS_16ISurfaceComposerEEE0_NS_10IInterfaceE
V _ZTCN7android11BnInterfaceINS_16ISurfaceComposerEEE0_S1_
V _ZTCN7android11BnInterfaceINS_16ISurfaceComposerEEE4_NS_7BBinderE
V _ZTCN7android11BnInterfaceINS_16ISurfaceComposerEEE4_NS_7IBinderE
V _ZTCN7android11BnInterfaceINS_21ISurfaceFlingerClientEEE0_NS_10IInterfaceE
V _ZTCN7android11BnInterfaceINS_21ISurfaceFlingerClientEEE0_S1_
V _ZTCN7android11BnInterfaceINS_21ISurfaceFlingerClientEEE4_NS_7BBinderE
V _ZTCN7android11BnInterfaceINS_21ISurfaceFlingerClientEEE4_NS_7IBinderE
V _ZTCN7android11BnInterfaceINS_7ICameraEEE0_NS_10IInterfaceE
V _ZTCN7android11BnInterfaceINS_7ICameraEEE0_S1_
V _ZTCN7android11BnInterfaceINS_7ICameraEEE4_NS_7BBinderE
V _ZTCN7android11BnInterfaceINS_7ICameraEEE4_NS_7IBinderE
V _ZTCN7android11BnInterfaceINS_8IOverlayEEE0_NS_10IInterfaceE
V _ZTCN7android11BnInterfaceINS_8IOverlayEEE0_S1_
V _ZTCN7android11BnInterfaceINS_8IOverlayEEE4_NS_7BBinderE
V _ZTCN7android11BnInterfaceINS_8IOverlayEEE4_NS_7IBinderE
V _ZTCN7android11BnInterfaceINS_8ISurfaceEEE0_NS_10IInterfaceE
V _ZTCN7android11BnInterfaceINS_8ISurfaceEEE0_S1_
V _ZTCN7android11BnInterfaceINS_8ISurfaceEEE4_NS_7BBinderE
V _ZTCN7android11BnInterfaceINS_8ISurfaceEEE4_NS_7IBinderE
V _ZTCN7android11BpInterfaceINS_12IGPUCallbackEEE0_NS_10IInterfaceE
V _ZTCN7android11BpInterfaceINS_12IGPUCallbackEEE0_S1_
V _ZTCN7android11BpInterfaceINS_12IGPUCallbackEEE4_NS_9BpRefBaseE
V _ZTCN7android11BpInterfaceINS_13ICameraClientEEE0_NS_10IInterfaceE
V _ZTCN7android11BpInterfaceINS_13ICameraClientEEE0_S1_
V _ZTCN7android11BpInterfaceINS_13ICameraClientEEE4_NS_9BpRefBaseE
V _ZTCN7android11BpInterfaceINS_14ICameraServiceEEE0_NS_10IInterfaceE
V _ZTCN7android11BpInterfaceINS_14ICameraServiceEEE0_S1_
V _ZTCN7android11BpInterfaceINS_14ICameraServiceEEE4_NS_9BpRefBaseE
V _ZTCN7android11BpInterfaceINS_16ISurfaceComposerEEE0_NS_10IInterfaceE
V _ZTCN7android11BpInterfaceINS_16ISurfaceComposerEEE0_S1_
V _ZTCN7android11BpInterfaceINS_16ISurfaceComposerEEE4_NS_9BpRefBaseE
V _ZTCN7android11BpInterfaceINS_21ISurfaceFlingerClientEEE0_NS_10IInterfaceE
V _ZTCN7android11BpInterfaceINS_21ISurfaceFlingerClientEEE0_S1_
V _ZTCN7android11BpInterfaceINS_21ISurfaceFlingerClientEEE4_NS_9BpRefBaseE
V _ZTCN7android11BpInterfaceINS_7ICameraEEE0_NS_10IInterfaceE
V _ZTCN7android11BpInterfaceINS_7ICameraEEE0_S1_
V _ZTCN7android11BpInterfaceINS_7ICameraEEE4_NS_9BpRefBaseE
V _ZTCN7android11BpInterfaceINS_8IOverlayEEE0_NS_10IInterfaceE
V _ZTCN7android11BpInterfaceINS_8IOverlayEEE0_S1_
V _ZTCN7android11BpInterfaceINS_8IOverlayEEE4_NS_9BpRefBaseE
V _ZTCN7android11BpInterfaceINS_8ISurfaceEEE0_NS_10IInterfaceE
V _ZTCN7android11BpInterfaceINS_8ISurfaceEEE0_S1_
V _ZTCN7android11BpInterfaceINS_8ISurfaceEEE4_NS_9BpRefBaseE
D _ZTCN7android12IGPUCallbackE0_NS_10IInterfaceE
D _ZTCN7android13BnGPUCallbackE0_NS_10IInterfaceE
D _ZTCN7android13BnGPUCallbackE0_NS_11BnInterfaceINS_12IGPUCallbackEEE
D _ZTCN7android13BnGPUCallbackE0_NS_12IGPUCallbackE
D _ZTCN7android13BnGPUCallbackE4_NS_7BBinderE
D _ZTCN7android13BnGPUCallbackE4_NS_7IBinderE
V _ZTCN7android13BpGPUCallbackE0_NS_10IInterfaceE
V _ZTCN7android13BpGPUCallbackE0_NS_11BpInterfaceINS_12IGPUCallbackEEE
V _ZTCN7android13BpGPUCallbackE0_NS_12IGPUCallbackE
V _ZTCN7android13BpGPUCallbackE4_NS_9BpRefBaseE
D _ZTCN7android13ICameraClientE0_NS_10IInterfaceE
D _ZTCN7android14BnCameraClientE0_NS_10IInterfaceE
D _ZTCN7android14BnCameraClientE0_NS_11BnInterfaceINS_13ICameraClientEEE
D _ZTCN7android14BnCameraClientE0_NS_13ICameraClientE
D _ZTCN7android14BnCameraClientE4_NS_7BBinderE
D _ZTCN7android14BnCameraClientE4_NS_7IBinderE
V _ZTCN7android14BpCameraClientE0_NS_10IInterfaceE
V _ZTCN7android14BpCameraClientE0_NS_11BpInterfaceINS_13ICameraClientEEE
V _ZTCN7android14BpCameraClientE0_NS_13ICameraClientE
V _ZTCN7android14BpCameraClientE4_NS_9BpRefBaseE
D _ZTCN7android14ICameraServiceE0_NS_10IInterfaceE
D _ZTCN7android15BnCameraServiceE0_NS_10IInterfaceE
D _ZTCN7android15BnCameraServiceE0_NS_11BnInterfaceINS_14ICameraServiceEEE
D _ZTCN7android15BnCameraServiceE0_NS_14ICameraServiceE
D _ZTCN7android15BnCameraServiceE4_NS_7BBinderE
D _ZTCN7android15BnCameraServiceE4_NS_7IBinderE
V _ZTCN7android15BpCameraServiceE0_NS_10IInterfaceE
V _ZTCN7android15BpCameraServiceE0_NS_11BpInterfaceINS_14ICameraServiceEEE
V _ZTCN7android15BpCameraServiceE0_NS_14ICameraServiceE
V _ZTCN7android15BpCameraServiceE4_NS_9BpRefBaseE
D _ZTCN7android16ISurfaceComposerE0_NS_10IInterfaceE
D _ZTCN7android17BnSurfaceComposerE0_NS_10IInterfaceE
D _ZTCN7android17BnSurfaceComposerE0_NS_11BnInterfaceINS_16ISurfaceComposerEEE
D _ZTCN7android17BnSurfaceComposerE0_NS_16ISurfaceComposerE
D _ZTCN7android17BnSurfaceComposerE4_NS_7BBinderE
D _ZTCN7android17BnSurfaceComposerE4_NS_7IBinderE
V _ZTCN7android17BpSurfaceComposerE0_NS_10IInterfaceE
V _ZTCN7android17BpSurfaceComposerE0_NS_11BpInterfaceINS_16ISurfaceComposerEEE
V _ZTCN7android17BpSurfaceComposerE0_NS_16ISurfaceComposerE
V _ZTCN7android17BpSurfaceComposerE4_NS_9BpRefBaseE
D _ZTCN7android21ISurfaceFlingerClientE0_NS_10IInterfaceE
D _ZTCN7android22BnSurfaceFlingerClientE0_NS_10IInterfaceE
D _ZTCN7android22BnSurfaceFlingerClientE0_NS_11BnInterfaceINS_21ISurfaceFlingerClientEEE
D _ZTCN7android22BnSurfaceFlingerClientE0_NS_21ISurfaceFlingerClientE
D _ZTCN7android22BnSurfaceFlingerClientE4_NS_7BBinderE
D _ZTCN7android22BnSurfaceFlingerClientE4_NS_7IBinderE
V _ZTCN7android22BpSurfaceFlingerClientE0_NS_10IInterfaceE
V _ZTCN7android22BpSurfaceFlingerClientE0_NS_11BpInterfaceINS_21ISurfaceFlingerClientEEE
V _ZTCN7android22BpSurfaceFlingerClientE0_NS_21ISurfaceFlingerClientE
V _ZTCN7android22BpSurfaceFlingerClientE4_NS_9BpRefBaseE
D _ZTCN7android6Camera13DeathNotifierE0_NS_7IBinder14DeathRecipientE
D _ZTCN7android6CameraE0_NS_10IInterfaceE
D _ZTCN7android6CameraE0_NS_11BnInterfaceINS_13ICameraClientEEE
D _ZTCN7android6CameraE0_NS_13ICameraClientE
D _ZTCN7android6CameraE0_NS_14BnCameraClientE
D _ZTCN7android6CameraE16_NS_7IBinder14DeathRecipientE
D _ZTCN7android6CameraE4_NS_7BBinderE
D _ZTCN7android6CameraE4_NS_7IBinderE
D _ZTCN7android7ICameraE0_NS_10IInterfaceE
D _ZTCN7android8BnCameraE0_NS_10IInterfaceE
D _ZTCN7android8BnCameraE0_NS_11BnInterfaceINS_7ICameraEEE
D _ZTCN7android8BnCameraE0_NS_7ICameraE
D _ZTCN7android8BnCameraE4_NS_7BBinderE
D _ZTCN7android8BnCameraE4_NS_7IBinderE
V _ZTCN7android8BpCameraE0_NS_10IInterfaceE
V _ZTCN7android8BpCameraE0_NS_11BpInterfaceINS_7ICameraEEE
V _ZTCN7android8BpCameraE0_NS_7ICameraE
V _ZTCN7android8BpCameraE4_NS_9BpRefBaseE
D _ZTCN7android8IOverlayE0_NS_10IInterfaceE
D _ZTCN7android8ISurfaceE0_NS_10IInterfaceE
D _ZTCN7android9BnOverlayE0_NS_10IInterfaceE
D _ZTCN7android9BnOverlayE0_NS_11BnInterfaceINS_8IOverlayEEE
D _ZTCN7android9BnOverlayE0_NS_8IOverlayE
D _ZTCN7android9BnOverlayE4_NS_7BBinderE
D _ZTCN7android9BnOverlayE4_NS_7IBinderE
D _ZTCN7android9BnSurfaceE0_NS_10IInterfaceE
D _ZTCN7android9BnSurfaceE0_NS_11BnInterfaceINS_8ISurfaceEEE
D _ZTCN7android9BnSurfaceE0_NS_8ISurfaceE
D _ZTCN7android9BnSurfaceE4_NS_7BBinderE
D _ZTCN7android9BnSurfaceE4_NS_7IBinderE
V _ZTCN7android9BpOverlayE0_NS_10IInterfaceE
V _ZTCN7android9BpOverlayE0_NS_11BpInterfaceINS_8IOverlayEEE
V _ZTCN7android9BpOverlayE0_NS_8IOverlayE
V _ZTCN7android9BpOverlayE4_NS_9BpRefBaseE
V _ZTCN7android9BpSurfaceE0_NS_10IInterfaceE
V _ZTCN7android9BpSurfaceE0_NS_11BpInterfaceINS_8ISurfaceEEE
V _ZTCN7android9BpSurfaceE0_NS_8ISurfaceE
V _ZTCN7android9BpSurfaceE4_NS_9BpRefBaseE
V _ZTTN7android10IInterfaceE
V _ZTTN7android11BnInterfaceINS_12IGPUCallbackEEE
V _ZTTN7android11BnInterfaceINS_13ICameraClientEEE
V _ZTTN7android11BnInterfaceINS_14ICameraServiceEEE
V _ZTTN7android11BnInterfaceINS_16ISurfaceComposerEEE
V _ZTTN7android11BnInterfaceINS_21ISurfaceFlingerClientEEE
V _ZTTN7android11BnInterfaceINS_7ICameraEEE
V _ZTTN7android11BnInterfaceINS_8IOverlayEEE
V _ZTTN7android11BnInterfaceINS_8ISurfaceEEE
V _ZTTN7android11BpInterfaceINS_12IGPUCallbackEEE
V _ZTTN7android11BpInterfaceINS_13ICameraClientEEE
V _ZTTN7android11BpInterfaceINS_14ICameraServiceEEE
V _ZTTN7android11BpInterfaceINS_16ISurfaceComposerEEE
V _ZTTN7android11BpInterfaceINS_21ISurfaceFlingerClientEEE
V _ZTTN7android11BpInterfaceINS_7ICameraEEE
V _ZTTN7android11BpInterfaceINS_8IOverlayEEE
V _ZTTN7android11BpInterfaceINS_8ISurfaceEEE
D _ZTTN7android12IGPUCallbackE
D _ZTTN7android13BnGPUCallbackE
V _ZTTN7android13BpGPUCallbackE
D _ZTTN7android13ICameraClientE
D _ZTTN7android14BnCameraClientE
V _ZTTN7android14BpCameraClientE
D _ZTTN7android14ICameraServiceE
D _ZTTN7android15BnCameraServiceE
V _ZTTN7android15BpCameraServiceE
D _ZTTN7android16ISurfaceComposerE
D _ZTTN7android17BnSurfaceComposerE
V _ZTTN7android17BpSurfaceComposerE
D _ZTTN7android21ISurfaceFlingerClientE
D _ZTTN7android21SurfaceComposerClientE
D _ZTTN7android22BnSurfaceFlingerClientE
V _ZTTN7android22BpSurfaceFlingerClientE
D _ZTTN7android6Camera13DeathNotifierE
D _ZTTN7android6CameraE
V _ZTTN7android7IBinder14DeathRecipientE
D _ZTTN7android7ICameraE
D _ZTTN7android7OverlayE
D _ZTTN7android8BnCameraE
V _ZTTN7android8BpCameraE
D _ZTTN7android8IOverlayE
D _ZTTN7android8ISurfaceE
D _ZTTN7android9BnOverlayE
D _ZTTN7android9BnSurfaceE
V _ZTTN7android9BpOverlayE
V _ZTTN7android9BpSurfaceE
V _ZTVN7android10IInterfaceE
D _ZTVN7android10OverlayRefE
V _ZTVN7android11BnInterfaceINS_12IGPUCallbackEEE
V _ZTVN7android11BnInterfaceINS_13ICameraClientEEE
V _ZTVN7android11BnInterfaceINS_14ICameraServiceEEE
V _ZTVN7android11BnInterfaceINS_16ISurfaceComposerEEE
V _ZTVN7android11BnInterfaceINS_21ISurfaceFlingerClientEEE
V _ZTVN7android11BnInterfaceINS_7ICameraEEE
V _ZTVN7android11BnInterfaceINS_8IOverlayEEE
V _ZTVN7android11BnInterfaceINS_8ISurfaceEEE
V _ZTVN7android11BpInterfaceINS_12IGPUCallbackEEE
V _ZTVN7android11BpInterfaceINS_13ICameraClientEEE
V _ZTVN7android11BpInterfaceINS_14ICameraServiceEEE
V _ZTVN7android11BpInterfaceINS_16ISurfaceComposerEEE
V _ZTVN7android11BpInterfaceINS_21ISurfaceFlingerClientEEE
V _ZTVN7android11BpInterfaceINS_7ICameraEEE
V _ZTVN7android11BpInterfaceINS_8IOverlayEEE
V _ZTVN7android11BpInterfaceINS_8ISurfaceEEE
D _ZTVN7android12IGPUCallbackE
V _ZTVN7android12SortedVectorINS_13layer_state_tEEE
V _ZTVN7android12SortedVectorINS_16key_value_pair_tINS_2spINS_7IBinderEEENS2_INS_21SurfaceComposerClientEEEEEEE
V _ZTVN7android12SortedVectorINS_16key_value_pair_tINS_7String8ES2_EEEE
V _ZTVN7android12SortedVectorINS_16key_value_pair_tIiNS_12KeyLayoutMap3KeyEEEEE
V _ZTVN7android12SortedVectorINS_2spINS_21SurfaceComposerClientEEEEE
D _ZTVN7android13BnGPUCallbackE
V _ZTVN7android13BpGPUCallbackE
D _ZTVN7android13ICameraClientE
D _ZTVN7android14BnCameraClientE
V _ZTVN7android14BpCameraClientE
D _ZTVN7android14ICameraServiceE
D _ZTVN7android15BnCameraServiceE
V _ZTVN7android15BpCameraServiceE
D _ZTVN7android16ISurfaceComposerE
D _ZTVN7android17BnSurfaceComposerE
V _ZTVN7android17BpSurfaceComposerE
D _ZTVN7android21ISurfaceFlingerClientE
D _ZTVN7android21SurfaceComposerClientE
D _ZTVN7android22BnSurfaceFlingerClientE
V _ZTVN7android22BpSurfaceFlingerClientE
D _ZTVN7android6Camera13DeathNotifierE
D _ZTVN7android6CameraE
V _ZTVN7android6VectorINS_4RectEEE
V _ZTVN7android6VectorIiEE
V _ZTVN7android7IBinder14DeathRecipientE
U _ZTVN7android7IBinderE
D _ZTVN7android7ICameraE
D _ZTVN7android7OverlayE
D _ZTVN7android7SurfaceE
D _ZTVN7android8BnCameraE
V _ZTVN7android8BpCameraE
D _ZTVN7android8EventHubE
D _ZTVN7android8IOverlayE
D _ZTVN7android8ISurfaceE
D _ZTVN7android9BnOverlayE
D _ZTVN7android9BnSurfaceE
V _ZTVN7android9BpOverlayE
V _ZTVN7android9BpSurfaceE
T _ZThn16_N7android6Camera10binderDiedERKNS_2wpINS_7IBinderEEE
T _ZThn16_N7android6CameraD0Ev
T _ZThn16_N7android6CameraD1Ev
T _ZThn4_N7android13BnGPUCallback10onTransactEjRKNS_6ParcelEPS1_j
T _ZThn4_N7android14BnCameraClient10onTransactEjRKNS_6ParcelEPS1_j
T _ZThn4_N7android15BnCameraService10onTransactEjRKNS_6ParcelEPS1_j
T _ZThn4_N7android17BnSurfaceComposer10onTransactEjRKNS_6ParcelEPS1_j
T _ZThn4_N7android22BnSurfaceFlingerClient10onTransactEjRKNS_6ParcelEPS1_j
T _ZThn4_N7android6CameraD0Ev
T _ZThn4_N7android6CameraD1Ev
T _ZThn4_N7android8BnCamera10onTransactEjRKNS_6ParcelEPS1_j
T _ZThn4_N7android9BnOverlay10onTransactEjRKNS_6ParcelEPS1_j
T _ZThn4_N7android9BnSurface10onTransactEjRKNS_6ParcelEPS1_j
W _ZTv0_n12_N7android10IInterfaceD0Ev
W _ZTv0_n12_N7android10IInterfaceD1Ev
W _ZTv0_n12_N7android11BnInterfaceINS_12IGPUCallbackEED0Ev
W _ZTv0_n12_N7android11BnInterfaceINS_12IGPUCallbackEED1Ev
W _ZTv0_n12_N7android11BnInterfaceINS_13ICameraClientEED0Ev
W _ZTv0_n12_N7android11BnInterfaceINS_13ICameraClientEED1Ev
W _ZTv0_n12_N7android11BnInterfaceINS_14ICameraServiceEED0Ev
W _ZTv0_n12_N7android11BnInterfaceINS_14ICameraServiceEED1Ev
W _ZTv0_n12_N7android11BnInterfaceINS_16ISurfaceComposerEED0Ev
W _ZTv0_n12_N7android11BnInterfaceINS_16ISurfaceComposerEED1Ev
W _ZTv0_n12_N7android11BnInterfaceINS_21ISurfaceFlingerClientEED0Ev
W _ZTv0_n12_N7android11BnInterfaceINS_21ISurfaceFlingerClientEED1Ev
W _ZTv0_n12_N7android11BnInterfaceINS_7ICameraEED0Ev
W _ZTv0_n12_N7android11BnInterfaceINS_7ICameraEED1Ev
W _ZTv0_n12_N7android11BnInterfaceINS_8IOverlayEED0Ev
W _ZTv0_n12_N7android11BnInterfaceINS_8IOverlayEED1Ev
W _ZTv0_n12_N7android11BnInterfaceINS_8ISurfaceEED0Ev
W _ZTv0_n12_N7android11BnInterfaceINS_8ISurfaceEED1Ev
W _ZTv0_n12_N7android11BpInterfaceINS_12IGPUCallbackEED0Ev
W _ZTv0_n12_N7android11BpInterfaceINS_12IGPUCallbackEED1Ev
W _ZTv0_n12_N7android11BpInterfaceINS_13ICameraClientEED0Ev
W _ZTv0_n12_N7android11BpInterfaceINS_13ICameraClientEED1Ev
W _ZTv0_n12_N7android11BpInterfaceINS_14ICameraServiceEED0Ev
W _ZTv0_n12_N7android11BpInterfaceINS_14ICameraServiceEED1Ev
W _ZTv0_n12_N7android11BpInterfaceINS_16ISurfaceComposerEED0Ev
W _ZTv0_n12_N7android11BpInterfaceINS_16ISurfaceComposerEED1Ev
W _ZTv0_n12_N7android11BpInterfaceINS_21ISurfaceFlingerClientEED0Ev
W _ZTv0_n12_N7android11BpInterfaceINS_21ISurfaceFlingerClientEED1Ev
W _ZTv0_n12_N7android11BpInterfaceINS_7ICameraEED0Ev
W _ZTv0_n12_N7android11BpInterfaceINS_7ICameraEED1Ev
W _ZTv0_n12_N7android11BpInterfaceINS_8IOverlayEED0Ev
W _ZTv0_n12_N7android11BpInterfaceINS_8IOverlayEED1Ev
W _ZTv0_n12_N7android11BpInterfaceINS_8ISurfaceEED0Ev
W _ZTv0_n12_N7android11BpInterfaceINS_8ISurfaceEED1Ev
W _ZTv0_n12_N7android12IGPUCallbackD0Ev
W _ZTv0_n12_N7android12IGPUCallbackD1Ev
W _ZTv0_n12_N7android13BnGPUCallbackD0Ev
W _ZTv0_n12_N7android13BnGPUCallbackD1Ev
W _ZTv0_n12_N7android13BpGPUCallbackD0Ev
W _ZTv0_n12_N7android13BpGPUCallbackD1Ev
W _ZTv0_n12_N7android13ICameraClientD0Ev
W _ZTv0_n12_N7android13ICameraClientD1Ev
W _ZTv0_n12_N7android14BnCameraClientD0Ev
W _ZTv0_n12_N7android14BnCameraClientD1Ev
W _ZTv0_n12_N7android14BpCameraClientD0Ev
W _ZTv0_n12_N7android14BpCameraClientD1Ev
W _ZTv0_n12_N7android14ICameraServiceD0Ev
W _ZTv0_n12_N7android14ICameraServiceD1Ev
W _ZTv0_n12_N7android15BnCameraServiceD0Ev
W _ZTv0_n12_N7android15BnCameraServiceD1Ev
W _ZTv0_n12_N7android15BpCameraServiceD0Ev
W _ZTv0_n12_N7android15BpCameraServiceD1Ev
W _ZTv0_n12_N7android16ISurfaceComposerD0Ev
W _ZTv0_n12_N7android16ISurfaceComposerD1Ev
W _ZTv0_n12_N7android17BnSurfaceComposerD0Ev
W _ZTv0_n12_N7android17BnSurfaceComposerD1Ev
W _ZTv0_n12_N7android17BpSurfaceComposerD0Ev
W _ZTv0_n12_N7android17BpSurfaceComposerD1Ev
W _ZTv0_n12_N7android21ISurfaceFlingerClientD0Ev
W _ZTv0_n12_N7android21ISurfaceFlingerClientD1Ev
T _ZTv0_n12_N7android21SurfaceComposerClientD0Ev
T _ZTv0_n12_N7android21SurfaceComposerClientD1Ev
W _ZTv0_n12_N7android22BnSurfaceFlingerClientD0Ev
W _ZTv0_n12_N7android22BnSurfaceFlingerClientD1Ev
W _ZTv0_n12_N7android22BpSurfaceFlingerClientD0Ev
W _ZTv0_n12_N7android22BpSurfaceFlingerClientD1Ev
W _ZTv0_n12_N7android6Camera13DeathNotifierD0Ev
W _ZTv0_n12_N7android6Camera13DeathNotifierD1Ev
T _ZTv0_n12_N7android6CameraD0Ev
T _ZTv0_n12_N7android6CameraD1Ev
U _ZTv0_n12_N7android7BBinderD0Ev
U _ZTv0_n12_N7android7BBinderD1Ev
W _ZTv0_n12_N7android7IBinder14DeathRecipientD0Ev
W _ZTv0_n12_N7android7IBinder14DeathRecipientD1Ev
W _ZTv0_n12_N7android7IBinderD0Ev
W _ZTv0_n12_N7android7IBinderD1Ev
W _ZTv0_n12_N7android7ICameraD0Ev
W _ZTv0_n12_N7android7ICameraD1Ev
T _ZTv0_n12_N7android7OverlayD0Ev
T _ZTv0_n12_N7android7OverlayD1Ev
W _ZTv0_n12_N7android8BnCameraD0Ev
W _ZTv0_n12_N7android8BnCameraD1Ev
W _ZTv0_n12_N7android8BpCameraD0Ev
W _ZTv0_n12_N7android8BpCameraD1Ev
W _ZTv0_n12_N7android8IOverlayD0Ev
W _ZTv0_n12_N7android8IOverlayD1Ev
W _ZTv0_n12_N7android8ISurfaceD0Ev
W _ZTv0_n12_N7android8ISurfaceD1Ev
W _ZTv0_n12_N7android9BnOverlayD0Ev
W _ZTv0_n12_N7android9BnOverlayD1Ev
W _ZTv0_n12_N7android9BnSurfaceD0Ev
W _ZTv0_n12_N7android9BnSurfaceD1Ev
W _ZTv0_n12_N7android9BpOverlayD0Ev
W _ZTv0_n12_N7android9BpOverlayD1Ev
U _ZTv0_n12_N7android9BpRefBaseD0Ev
U _ZTv0_n12_N7android9BpRefBaseD1Ev
W _ZTv0_n12_N7android9BpSurfaceD0Ev
W _ZTv0_n12_N7android9BpSurfaceD1Ev
U _ZTv0_n16_N7android9BpRefBase10onFirstRefEv
U _ZTv0_n20_N7android9BpRefBase15onLastStrongRefEPKv
U _ZTv0_n24_N7android9BpRefBase20onIncStrongAttemptedEjPKv
U _ZdaPv
U _ZdlPv
U _Znaj
U _Znwj
U __aeabi_atexit
U __aeabi_f2d
T __aeabi_f2uiz
U __aeabi_fadd
U __aeabi_fdiv
U __aeabi_fmul
U __aeabi_i2f
U __aeabi_lmul
U __aeabi_ui2f
U __aeabi_uidiv
U __aeabi_uldivmod
U __aeabi_unwind_cpp_pr0
U __aeabi_unwind_cpp_pr1
U __android_log_print
A __bss_end__
A __bss_start
A __bss_start__
U __cxa_pure_virtual
A __data_start
U __dso_handle
A __end__
U __errno
A __exidx_end
A __exidx_start
T __fixunssfsi
U __stack_chk_fail
U __stack_chk_guard
A _bss_end__
A _edata
A _end
A _stack
U access
U acquire_wake_lock
U android_atomic_and
U android_atomic_cmpxchg
U android_atomic_dec
U android_atomic_inc
T android_createDisplaySurface
U calloc
U close
U closedir
U free
U getenv
U getpid
U gglGetPixelFormatTable
U hw_get_module
U inotify_add_watch
U inotify_init
U ioctl
U lseek
U malloc
U memcmp
U memcpy
U memmove
U memset
U mmap
U munmap
U native_handle_close
U native_handle_delete
U open
U opendir
U poll
U printf
U property_get
U property_set
U read
U readdir
U realloc
U release_wake_lock
U snprintf
U sprintf
U strchr
U strcmp
U strcpy
U strerror
U strlen
U strtol
U strzcmp16
U usleep
U write
