T ZipFileCRO_destroy
T ZipFileCRO_findEntryByName
T ZipFileCRO_getEntryInfo
T ZipFileCRO_uncompressEntry
T ZipFileXRO_open
U _Unwind_Backtrace
U _Unwind_VRS_Get
T _Z14add_recv_statsii
T _Z14add_send_statsii
T _Z16log_socket_closeis
T _Z18log_socket_connectijt
T _Z24androidCreateThreadGetIDPFiPvES_PS_
T _ZN7android10IInterface8asBinderEv
T _ZN7android10MemoryBaseC1ERKNS_2spINS_11IMemoryHeapEEElj
T _ZN7android10MemoryBaseC2ERKNS_2spINS_11IMemoryHeapEEElj
T _ZN7android10MemoryBaseD0Ev
T _ZN7android10MemoryBaseD1Ev
T _ZN7android10MemoryBaseD2Ev
T _ZN7android10ResXMLTree5setToEPKvjb
T _ZN7android10ResXMLTree6uninitEv
T _ZN7android10ResXMLTreeC1EPKvjb
T _ZN7android10ResXMLTreeC1Ev
T _ZN7android10ResXMLTreeC2EPKvjb
T _ZN7android10ResXMLTreeC2Ev
T _ZN7android10ResXMLTreeD1Ev
T _ZN7android10ResXMLTreeD2Ev
T _ZN7android10SharedHeap9mapMemoryEjj
T _ZN7android10SharedHeapC1EjjPKc
T _ZN7android10SharedHeapC2EjjPKc
T _ZN7android10SharedHeapD0Ev
T _ZN7android10SharedHeapD1Ev
T _ZN7android10SharedHeapD2Ev
T _ZN7android10VectorImpl11setCapacityEj
T _ZN7android10VectorImpl12appendVectorERKS0_
T _ZN7android10VectorImpl13editArrayImplEv
T _ZN7android10VectorImpl13finish_vectorEv
T _ZN7android10VectorImpl13removeItemsAtEjj
T _ZN7android10VectorImpl14insertVectorAtERKS0_j
T _ZN7android10VectorImpl15release_storageEv
T _ZN7android10VectorImpl16editItemLocationEj
T _ZN7android10VectorImpl19reservedVectorImpl1Ev
T _ZN7android10VectorImpl19reservedVectorImpl2Ev
T _ZN7android10VectorImpl19reservedVectorImpl3Ev
T _ZN7android10VectorImpl19reservedVectorImpl4Ev
T _ZN7android10VectorImpl19reservedVectorImpl5Ev
T _ZN7android10VectorImpl19reservedVectorImpl6Ev
T _ZN7android10VectorImpl19reservedVectorImpl7Ev
T _ZN7android10VectorImpl19reservedVectorImpl8Ev
T _ZN7android10VectorImpl3addEPKv
T _ZN7android10VectorImpl3addEv
T _ZN7android10VectorImpl3popEv
T _ZN7android10VectorImpl4pushEPKv
T _ZN7android10VectorImpl4pushEv
T _ZN7android10VectorImpl4sortEPFiPKvS2_E
T _ZN7android10VectorImpl4sortEPFiPKvS2_PvES3_
T _ZN7android10VectorImpl5_growEjj
T _ZN7android10VectorImpl5clearEv
T _ZN7android10VectorImpl7_shrinkEjj
T _ZN7android10VectorImpl8insertAtEPKvjj
T _ZN7android10VectorImpl8insertAtEjj
T _ZN7android10VectorImpl9replaceAtEPKvj
T _ZN7android10VectorImpl9replaceAtEj
T _ZN7android10VectorImplC1ERKS0_
T _ZN7android10VectorImplC1Ejj
T _ZN7android10VectorImplC2ERKS0_
T _ZN7android10VectorImplC2Ejj
T _ZN7android10VectorImplD0Ev
T _ZN7android10VectorImplD1Ev
T _ZN7android10VectorImplD2Ev
T _ZN7android10VectorImplaSERKS0_
T _ZN7android10_FileAsset15ensureAlignmentEPNS_7FileMapE
T _ZN7android10_FileAsset4readEPvj
T _ZN7android10_FileAsset4seekEli
T _ZN7android10_FileAsset5closeEv
T _ZN7android10_FileAsset9getBufferEb
T _ZN7android10_FileAsset9openChunkEPKcilj
T _ZN7android10_FileAsset9openChunkEPNS_7FileMapE
T _ZN7android10_FileAssetC1Ev
T _ZN7android10_FileAssetC2Ev
T _ZN7android10_FileAssetD0Ev
T _ZN7android10_FileAssetD1Ev
T _ZN7android10_FileAssetD2Ev
T _ZN7android10concatArgvEiPKPKc
W _ZN7android11BnInterfaceINS_11IMemoryHeapEE10onAsBinderEv
W _ZN7android11BnInterfaceINS_15IServiceManagerEE10onAsBinderEv
W _ZN7android11BnInterfaceINS_21IPermissionControllerEE10onAsBinderEv
W _ZN7android11BnInterfaceINS_7IMemoryEE10onAsBinderEv
B _ZN7android11IMemoryHeap10descriptorE
T _ZN7android11IMemoryHeap11asInterfaceERKNS_2spINS_7IBinderEEE
T _ZN7android11getFileTypeEPKc
T _ZN7android12AssetManager10isUpToDateEv
T _ZN7android12AssetManager11getFileTypeEPKc
T _ZN7android12AssetManager12addAssetPathERKNS_7String8EPPv
T _ZN7android12AssetManager12openNonAssetEPKcNS_5Asset10AccessModeE
T _ZN7android12AssetManager12openNonAssetEPvPKcNS_5Asset10AccessModeE
T _ZN7android12AssetManager13fncScanLockedEPNS_12SortedVectorINS_8AssetDir8FileInfoEEEPKc
T _ZN7android12AssetManager13scanDirLockedERKNS_7String8E
T _ZN7android12AssetManager14getGlobalCountEv
T _ZN7android12AssetManager15mergeInfoLockedEPNS_12SortedVectorINS_8AssetDir8FileInfoEEEPKS4_
T _ZN7android12AssetManager15openNonAssetDirEPvPKc
T _ZN7android12AssetManager15setLocaleLockedEPKc
T _ZN7android12AssetManager16addDefaultAssetsEv
T _ZN7android12AssetManager16getZipFileLockedERKNS0_10asset_pathE
T _ZN7android12AssetManager16openInPathLockedEPKcNS_5Asset10AccessModeERKNS0_10asset_pathE
T _ZN7android12AssetManager16setConfigurationERKNS_15ResTable_configEPKc
T _ZN7android12AssetManager20createPathNameLockedERKNS0_10asset_pathEPKc
T _ZN7android12AssetManager20createPathNameLockedERKNS0_10asset_pathEPKcS5_
T _ZN7android12AssetManager21scanAndMergeDirLockedEPNS_12SortedVectorINS_8AssetDir8FileInfoEEERKNS0_10asset_pathEPKcSA_
T _ZN7android12AssetManager21scanAndMergeZipLockedEPNS_12SortedVectorINS_8AssetDir8FileInfoEEERKNS0_10asset_pathEPKcSA_
T _ZN7android12AssetManager22openAssetFromZipLockedEPKNS_9ZipFileROEPvNS_5Asset10AccessModeERKNS_7String8E
T _ZN7android12AssetManager23loadFileNameCacheLockedEv
T _ZN7android12AssetManager23openAssetFromFileLockedERKNS_7String8ENS_5Asset10AccessModeE
T _ZN7android12AssetManager24fncScanAndMergeDirLockedEPNS_12SortedVectorINS_8AssetDir8FileInfoEEERKNS0_10asset_pathEPKcSA_SA_
T _ZN7android12AssetManager24openInLocaleVendorLockedEPKcNS_5Asset10AccessModeERKNS0_10asset_pathES2_S2_
T _ZN7android12AssetManager24openNonAssetInPathLockedEPKcNS_5Asset10AccessModeERKNS0_10asset_pathE
T _ZN7android12AssetManager24purgeFileNameCacheLockedEv
T _ZN7android12AssetManager25createZipSourceNameLockedERKNS_7String8ES3_S3_
T _ZN7android12AssetManager4openEPKcNS_5Asset10AccessModeE
T _ZN7android12AssetManager6ZipSet10isUpToDateEv
T _ZN7android12AssetManager6ZipSet11getPathNameEPKc
T _ZN7android12AssetManager6ZipSet19getZipResourceTableERKNS_7String8E
T _ZN7android12AssetManager6ZipSet19setZipResourceTableERKNS_7String8EPNS_8ResTableE
T _ZN7android12AssetManager6ZipSet24getZipResourceTableAssetERKNS_7String8E
T _ZN7android12AssetManager6ZipSet24setZipResourceTableAssetERKNS_7String8EPNS_5AssetE
T _ZN7android12AssetManager6ZipSet6getZipERKNS_7String8E
T _ZN7android12AssetManager6ZipSet8closeZipEi
T _ZN7android12AssetManager6ZipSetC1Ev
T _ZN7android12AssetManager6ZipSetC2Ev
T _ZN7android12AssetManager6ZipSetD1Ev
T _ZN7android12AssetManager6ZipSetD2Ev
T _ZN7android12AssetManager7openDirEPKc
T _ZN7android12AssetManager9SharedZip10isUpToDateEv
T _ZN7android12AssetManager9SharedZip16getResourceTableEv
T _ZN7android12AssetManager9SharedZip16setResourceTableEPNS_8ResTableE
T _ZN7android12AssetManager9SharedZip21getResourceTableAssetEv
T _ZN7android12AssetManager9SharedZip21setResourceTableAssetEPNS_5AssetE
T _ZN7android12AssetManager9SharedZip3getERKNS_7String8E
B _ZN7android12AssetManager9SharedZip5gLockE
B _ZN7android12AssetManager9SharedZip5gOpenE
T _ZN7android12AssetManager9SharedZip6getZipEv
T _ZN7android12AssetManager9SharedZipC1ERKNS_7String8El
T _ZN7android12AssetManager9SharedZipC2ERKNS_7String8El
T _ZN7android12AssetManager9SharedZipD0Ev
T _ZN7android12AssetManager9SharedZipD1Ev
T _ZN7android12AssetManager9SharedZipD2Ev
T _ZN7android12AssetManager9setLocaleEPKc
T _ZN7android12AssetManager9setVendorEPKc
T _ZN7android12AssetManagerC1ENS0_9CacheModeE
T _ZN7android12AssetManagerC2ENS0_9CacheModeE
T _ZN7android12AssetManagerD0Ev
T _ZN7android12AssetManagerD1Ev
T _ZN7android12AssetManagerD2Ev
T _ZN7android12BnMemoryHeap10onTransactEjRKNS_6ParcelEPS1_j
T _ZN7android12BpMemoryHeapC1ERKNS_2spINS_7IBinderEEE
T _ZN7android12BpMemoryHeapC2ERKNS_2spINS_7IBinderEEE
T _ZN7android12BpMemoryHeapD0Ev
T _ZN7android12BpMemoryHeapD1Ev
T _ZN7android12BpMemoryHeapD2Ev
T _ZN7android12MemoryDealer10AllocationC1ERKNS_2spIS0_EEljRKNS2_INS_7IMemoryEEE
T _ZN7android12MemoryDealer10AllocationC2ERKNS_2spIS0_EEljRKNS2_INS_7IMemoryEEE
T _ZN7android12MemoryDealer10AllocationD0Ev
T _ZN7android12MemoryDealer10AllocationD1Ev
T _ZN7android12MemoryDealer10AllocationD2Ev
T _ZN7android12MemoryDealer10deallocateEj
T _ZN7android12MemoryDealer8allocateEjj
T _ZN7android12MemoryDealerC1ERKNS_2spINS_13HeapInterfaceEEE
T _ZN7android12MemoryDealerC1ERKNS_2spINS_13HeapInterfaceEEERKNS1_INS_18AllocatorInterfaceEEE
T _ZN7android12MemoryDealerC1EjjPKc
T _ZN7android12MemoryDealerC2ERKNS_2spINS_13HeapInterfaceEEE
T _ZN7android12MemoryDealerC2ERKNS_2spINS_13HeapInterfaceEEERKNS1_INS_18AllocatorInterfaceEEE
T _ZN7android12MemoryDealerC2EjjPKc
T _ZN7android12MemoryDealerD0Ev
T _ZN7android12MemoryDealerD1Ev
T _ZN7android12MemoryDealerD2Ev
T _ZN7android12ProcessState13expungeHandleEiPNS_7IBinderE
T _ZN7android12ProcessState15startThreadPoolEv
T _ZN7android12ProcessState16getContextObjectERKNS_2spINS_7IBinderEEE
T _ZN7android12ProcessState16getContextObjectERKNS_8String16ERKNS_2spINS_7IBinderEEE
T _ZN7android12ProcessState16setContextObjectERKNS_2spINS_7IBinderEEE
T _ZN7android12ProcessState16setContextObjectERKNS_2spINS_7IBinderEEERKNS_8String16E
T _ZN7android12ProcessState16setSingleProcessEb
T _ZN7android12ProcessState17spawnPooledThreadEb
T _ZN7android12ProcessState18lookupHandleLockedEi
T _ZN7android12ProcessState20becomeContextManagerEPFbRKNS_8String16ERKNS_2spINS_7IBinderEEEPvES9_
T _ZN7android12ProcessState21getWeakProxyForHandleEi
T _ZN7android12ProcessState23getStrongProxyForHandleEi
T _ZN7android12ProcessState4selfEv
T _ZN7android12ProcessState7setArgsEiPKPKc
T _ZN7android12ProcessState8setArgV0EPKc
T _ZN7android12ProcessStateC1Ev
T _ZN7android12ProcessStateC2Ev
T _ZN7android12ProcessStateD0Ev
T _ZN7android12ProcessStateD1Ev
T _ZN7android12ProcessStateD2Ev
T _ZN7android12ResXMLParser11setPositionERKNS0_14ResXMLPositionE
T _ZN7android12ResXMLParser4nextEv
T _ZN7android12ResXMLParser7restartEv
T _ZN7android12ResXMLParser8nextNodeEv
T _ZN7android12ResXMLParserC1ERKNS_10ResXMLTreeE
T _ZN7android12ResXMLParserC2ERKNS_10ResXMLTreeE
T _ZN7android12SharedBuffer5allocEj
T _ZN7android12SharedBuffer7deallocEPKS0_
T _ZN7android12SimpleMemoryC1ERKNS_2spINS_11IMemoryHeapEEElj
T _ZN7android12SimpleMemoryC2ERKNS_2spINS_11IMemoryHeapEEElj
T _ZN7android12SimpleMemoryD0Ev
T _ZN7android12SimpleMemoryD1Ev
T _ZN7android12SimpleMemoryD2Ev
W _ZN7android12compare_typeINS_16key_value_pair_tINS_7String8ENS_2wpINS_12AssetManager9SharedZipEEEEEEEiRKT_SA_
W _ZN7android12compare_typeINS_16key_value_pair_tINS_7String8ENS_7FileRecEEEEEiRKT_S7_
W _ZN7android12compare_typeINS_16key_value_pair_tINS_7String8ENS_9FileStateEEEEEiRKT_S7_
W _ZN7android12compare_typeINS_16key_value_pair_tINS_8String16ENS_2spINS_7IBinderEEEEEEEiRKT_S9_
W _ZN7android12compare_typeINS_8AssetDir8FileInfoEEEiRKT_S5_
B _ZN7android12gTextBuffersE
T _ZN7android12printHexDataEiPKvjjijbPFvPvPKcES2_
T _ZN7android12uptimeMillisEv
T _ZN7android13DurationTimer12addToTimevalEP7timevall
T _ZN7android13DurationTimer16subtractTimevalsEPK7timevalS3_
T _ZN7android13DurationTimer4stopEv
T _ZN7android13DurationTimer5startEv
T _ZN7android13ResStringPool5setToEPKvjb
T _ZN7android13ResStringPool6uninitEv
T _ZN7android13ResStringPoolC1EPKvjb
T _ZN7android13ResStringPoolC1Ev
T _ZN7android13ResStringPoolC2EPKvjb
T _ZN7android13ResStringPoolC2Ev
T _ZN7android13ResStringPoolD1Ev
T _ZN7android13ResStringPoolD2Ev
T _ZN7android13back_up_filesEiPNS_16BackupDataWriterEiPKPKcS5_i
B _ZN7android13gProcessMutexE
T _ZN7android13printTypeCodeEjPFvPvPKcES0_
T _ZN7android13roundUpPower2Ej
T _ZN7android14IPCThreadState10freeBufferEPNS_6ParcelEPKhjPKjjPv
T _ZN7android14IPCThreadState11clearCallerEv
T _ZN7android14IPCThreadState11stopProcessEb
T _ZN7android14IPCThreadState13decWeakHandleEi
T _ZN7android14IPCThreadState13expungeHandleEiPNS_7IBinderE
T _ZN7android14IPCThreadState13flushCommandsEv
T _ZN7android14IPCThreadState13getCallingPidEv
T _ZN7android14IPCThreadState13getCallingUidEv
T _ZN7android14IPCThreadState13incWeakHandleEi
T _ZN7android14IPCThreadState14clearLastErrorEv
T _ZN7android14IPCThreadState14executeCommandEi
T _ZN7android14IPCThreadState14joinThreadPoolEb
T _ZN7android14IPCThreadState14talkWithDriverEb
T _ZN7android14IPCThreadState15decStrongHandleEi
T _ZN7android14IPCThreadState15incStrongHandleEi
T _ZN7android14IPCThreadState15waitForResponseEPNS_6ParcelEPi
T _ZN7android14IPCThreadState16threadDestructorEPv
T _ZN7android14IPCThreadState20clearCallingIdentityEv
T _ZN7android14IPCThreadState20writeTransactionDataEijijRKNS_6ParcelEPi
T _ZN7android14IPCThreadState22attemptIncStrongHandleEi
T _ZN7android14IPCThreadState22clearDeathNotificationEiPNS_8BpBinderE
T _ZN7android14IPCThreadState22restoreCallingIdentityEx
T _ZN7android14IPCThreadState24requestDeathNotificationEiPNS_8BpBinderE
T _ZN7android14IPCThreadState4selfEv
T _ZN7android14IPCThreadState7processEv
T _ZN7android14IPCThreadState8shutdownEv
T _ZN7android14IPCThreadState8transactEijRKNS_6ParcelEPS1_j
T _ZN7android14IPCThreadState9sendReplyERKNS_6ParcelEj
T _ZN7android14IPCThreadStateC1Ev
T _ZN7android14IPCThreadStateC2Ev
T _ZN7android14IPCThreadStateD1Ev
T _ZN7android14IPCThreadStateD2Ev
T _ZN7android14MemoryHeapBase4initEiPviiPKc
T _ZN7android14MemoryHeapBase5mapfdEij
T _ZN7android14MemoryHeapBase7disposeEv
T _ZN7android14MemoryHeapBaseC1EPKcjj
T _ZN7android14MemoryHeapBaseC1Eijj
T _ZN7android14MemoryHeapBaseC1EjjPKc
T _ZN7android14MemoryHeapBaseC1Ev
T _ZN7android14MemoryHeapBaseC2EPKcjj
T _ZN7android14MemoryHeapBaseC2Eijj
T _ZN7android14MemoryHeapBaseC2EjjPKc
T _ZN7android14MemoryHeapBaseC2Ev
T _ZN7android14MemoryHeapBaseD0Ev
T _ZN7android14MemoryHeapBaseD1Ev
T _ZN7android14MemoryHeapBaseD2Ev
T _ZN7android14MemoryHeapPmem10MemoryPmemC1ERKNS_2spIS0_EE
T _ZN7android14MemoryHeapPmem10MemoryPmemC2ERKNS_2spIS0_EE
T _ZN7android14MemoryHeapPmem10MemoryPmemD0Ev
T _ZN7android14MemoryHeapPmem10MemoryPmemD1Ev
T _ZN7android14MemoryHeapPmem10MemoryPmemD2Ev
T _ZN7android14MemoryHeapPmem12createMemoryEjj
T _ZN7android14MemoryHeapPmem4slapEv
T _ZN7android14MemoryHeapPmem6removeERKNS_2wpINS0_10MemoryPmemEEE
T _ZN7android14MemoryHeapPmem6revokeEv
T _ZN7android14MemoryHeapPmem6unslapEv
T _ZN7android14MemoryHeapPmem9mapMemoryEjj
T _ZN7android14MemoryHeapPmemC1ERKNS_2spINS_14MemoryHeapBaseEEEj
T _ZN7android14MemoryHeapPmemC2ERKNS_2spINS_14MemoryHeapBaseEEEj
T _ZN7android14MemoryHeapPmemD0Ev
T _ZN7android14MemoryHeapPmemD1Ev
T _ZN7android14MemoryHeapPmemD2Ev
T _ZN7android14Res_png_9patch11deserializeEPKv
T _ZN7android14Res_png_9patch12deviceToFileEv
T _ZN7android14Res_png_9patch12fileToDeviceEv
T _ZN7android14Res_png_9patch14serializedSizeEv
T _ZN7android14Res_png_9patch9serializeEPv
T _ZN7android14Res_png_9patch9serializeEv
T _ZN7android14acquire_objectERKNS_2spINS_12ProcessStateEEERKNS_18flat_binder_objectEPKv
T _ZN7android14flatten_binderERKNS_2spINS_12ProcessStateEEERKNS0_INS_7IBinderEEEPNS_6ParcelE
T _ZN7android14flatten_binderERKNS_2spINS_12ProcessStateEEERKNS_2wpINS_7IBinderEEEPNS_6ParcelE
T _ZN7android14getFileModDateEPKc
T _ZN7android14release_objectERKNS_2spINS_12ProcessStateEEERKNS_18flat_binder_objectEPKv
B _ZN7android15IServiceManager10descriptorE
T _ZN7android15IServiceManager11asInterfaceERKNS_2spINS_7IBinderEEE
T _ZN7android15SubRegionMemory6revokeEv
T _ZN7android15SubRegionMemoryC1ERKNS_2spINS_14MemoryHeapPmemEEElj
T _ZN7android15SubRegionMemoryC2ERKNS_2spINS_14MemoryHeapPmemEEElj
T _ZN7android15SubRegionMemoryD0Ev
T _ZN7android15SubRegionMemoryD1Ev
T _ZN7android15SubRegionMemoryD2Ev
T _ZN7android15elapsedRealtimeEv
T _ZN7android15stringForIndentEi
T _ZN7android16BackupDataReader11HasEntitiesEv
T _ZN7android16BackupDataReader12skip_paddingEv
T _ZN7android16BackupDataReader14ReadEntityDataEPvj
T _ZN7android16BackupDataReader14ReadNextHeaderEPbPi
T _ZN7android16BackupDataReader14SkipEntityDataEv
T _ZN7android16BackupDataReader16ReadEntityHeaderEPNS_7String8EPj
T _ZN7android16BackupDataReader6StatusEv
T _ZN7android16BackupDataReaderC1Ei
T _ZN7android16BackupDataReaderC2Ei
T _ZN7android16BackupDataReaderD1Ev
T _ZN7android16BackupDataReaderD2Ev
T _ZN7android16BackupDataWriter12SetKeyPrefixERKNS_7String8E
T _ZN7android16BackupDataWriter15WriteEntityDataEPKvj
T _ZN7android16BackupDataWriter17WriteEntityHeaderERKNS_7String8Ej
T _ZN7android16BackupDataWriter17write_padding_forEi
T _ZN7android16BackupDataWriterC1Ei
T _ZN7android16BackupDataWriterC2Ei
T _ZN7android16BackupDataWriterD1Ev
T _ZN7android16BackupDataWriterD2Ev
T _ZN7android16BnServiceManager10onTransactEjRKNS_6ParcelEPS1_j
T _ZN7android16SortedVectorImpl25reservedSortedVectorImpl1Ev
T _ZN7android16SortedVectorImpl25reservedSortedVectorImpl2Ev
T _ZN7android16SortedVectorImpl25reservedSortedVectorImpl3Ev
T _ZN7android16SortedVectorImpl25reservedSortedVectorImpl4Ev
T _ZN7android16SortedVectorImpl25reservedSortedVectorImpl5Ev
T _ZN7android16SortedVectorImpl25reservedSortedVectorImpl6Ev
T _ZN7android16SortedVectorImpl25reservedSortedVectorImpl7Ev
T _ZN7android16SortedVectorImpl25reservedSortedVectorImpl8Ev
T _ZN7android16SortedVectorImpl3addEPKv
T _ZN7android16SortedVectorImpl5mergeERKNS_10VectorImplE
T _ZN7android16SortedVectorImpl5mergeERKS0_
T _ZN7android16SortedVectorImpl6removeEPKv
T _ZN7android16SortedVectorImplC1ERKNS_10VectorImplE
T _ZN7android16SortedVectorImplC1Ejj
T _ZN7android16SortedVectorImplC2ERKNS_10VectorImplE
T _ZN7android16SortedVectorImplC2Ejj
T _ZN7android16SortedVectorImplD0Ev
T _ZN7android16SortedVectorImplD1Ev
T _ZN7android16SortedVectorImplD2Ev
T _ZN7android16SortedVectorImplaSERKS0_
T _ZN7android16_CompressedAsset4readEPvj
T _ZN7android16_CompressedAsset4seekEli
T _ZN7android16_CompressedAsset5closeEv
T _ZN7android16_CompressedAsset9getBufferEb
T _ZN7android16_CompressedAsset9openChunkEPNS_7FileMapEij
T _ZN7android16_CompressedAsset9openChunkEilijj
T _ZN7android16_CompressedAssetC1Ev
T _ZN7android16_CompressedAssetC2Ev
T _ZN7android16_CompressedAssetD0Ev
T _ZN7android16_CompressedAssetD1Ev
T _ZN7android16_CompressedAssetD2Ev
T _ZN7android16unflatten_binderERKNS_2spINS_12ProcessStateEEERKNS_6ParcelEPNS0_INS_7IBinderEEE
T _ZN7android16unflatten_binderERKNS_2spINS_12ProcessStateEEERKNS_6ParcelEPNS_2wpINS_7IBinderEEE
T _ZN7android17RestoreHelperBase13WriteSnapshotEi
T _ZN7android17RestoreHelperBase9WriteFileERKNS_7String8EPNS_16BackupDataReaderE
T _ZN7android17RestoreHelperBaseC1Ev
T _ZN7android17RestoreHelperBaseC2Ev
T _ZN7android17RestoreHelperBaseD1Ev
T _ZN7android17RestoreHelperBaseD2Ev
W _ZN7android17move_forward_typeINS_12AssetManager10asset_pathEEEvPT_PKS3_j
W _ZN7android17move_forward_typeINS_16key_value_pair_tINS_2wpINS_7IBinderEEENS_9HeapCache11heap_info_tEEEEEvPT_PKS8_j
W _ZN7android17move_forward_typeINS_16key_value_pair_tINS_7String8ENS_2wpINS_12AssetManager9SharedZipEEEEEEEvPT_PKS8_j
W _ZN7android17move_forward_typeINS_16key_value_pair_tINS_7String8ENS_7FileRecEEEEEvPT_PKS5_j
W _ZN7android17move_forward_typeINS_16key_value_pair_tINS_7String8ENS_9FileStateEEEEEvPT_PKS5_j
W _ZN7android17move_forward_typeINS_16key_value_pair_tINS_8String16ENS_2spINS_7IBinderEEEEEEEvPT_PKS7_j
W _ZN7android17move_forward_typeINS_2spINS_12AssetManager9SharedZipEEEEEvPT_PKS5_j
W _ZN7android17move_forward_typeINS_2spINS_18BufferedTextOutput11BufferStateEEEEEvPT_PKS5_j
W _ZN7android17move_forward_typeINS_2wpINS_14MemoryHeapPmem10MemoryPmemEEEEEvPT_PKS5_j
W _ZN7android17move_forward_typeINS_7String8EEEvPT_PKS2_j
W _ZN7android17move_forward_typeINS_8AssetDir8FileInfoEEEvPT_PKS3_j
W _ZN7android17move_forward_typeINS_8BpBinder8ObituaryEEEvPT_PKS3_j
W _ZN7android17move_forward_typeINS_8String16EEEvPT_PKS2_j
T _ZN7android17terminate_string8Ev
T _ZN7android18BufferedTextOutput10moveIndentEi
T _ZN7android18BufferedTextOutput10pushBundleEv
T _ZN7android18BufferedTextOutput14getThreadStateEv
T _ZN7android18BufferedTextOutput16threadDestructorEPv
T _ZN7android18BufferedTextOutput5printEPKcj
T _ZN7android18BufferedTextOutput9popBundleEv
T _ZN7android18BufferedTextOutputC1Ej
T _ZN7android18BufferedTextOutputC2Ej
T _ZN7android18BufferedTextOutputD0Ev
T _ZN7android18BufferedTextOutputD1Ev
T _ZN7android18BufferedTextOutputD2Ev
T _ZN7android18initialize_string8Ev
W _ZN7android18move_backward_typeINS_12AssetManager10asset_pathEEEvPT_PKS3_j
W _ZN7android18move_backward_typeINS_16key_value_pair_tINS_2wpINS_7IBinderEEENS_9HeapCache11heap_info_tEEEEEvPT_PKS8_j
W _ZN7android18move_backward_typeINS_16key_value_pair_tINS_7String8ENS_2wpINS_12AssetManager9SharedZipEEEEEEEvPT_PKS8_j
W _ZN7android18move_backward_typeINS_16key_value_pair_tINS_7String8ENS_7FileRecEEEEEvPT_PKS5_j
W _ZN7android18move_backward_typeINS_16key_value_pair_tINS_7String8ENS_9FileStateEEEEEvPT_PKS5_j
W _ZN7android18move_backward_typeINS_16key_value_pair_tINS_8String16ENS_2spINS_7IBinderEEEEEEEvPT_PKS7_j
W _ZN7android18move_backward_typeINS_2spINS_12AssetManager9SharedZipEEEEEvPT_PKS5_j
W _ZN7android18move_backward_typeINS_2spINS_18BufferedTextOutput11BufferStateEEEEEvPT_PKS5_j
W _ZN7android18move_backward_typeINS_2wpINS_14MemoryHeapPmem10MemoryPmemEEEEEvPT_PKS5_j
W _ZN7android18move_backward_typeINS_7String8EEEvPT_PKS2_j
W _ZN7android18move_backward_typeINS_8AssetDir8FileInfoEEEvPT_PKS3_j
W _ZN7android18move_backward_typeINS_8BpBinder8ObituaryEEEvPT_PKS3_j
W _ZN7android18move_backward_typeINS_8String16EEEvPT_PKS2_j
T _ZN7android18terminate_string16Ev
B _ZN7android18the_context_objectE
T _ZN7android19initialize_string16Ev
T _ZN7android19setTheContextObjectENS_2spINS_7BBinderEEE
T _ZN7android20setCurrentTimeMillisEx
B _ZN7android21IPermissionController10descriptorE
T _ZN7android21IPermissionController11asInterfaceERKNS_2spINS_7IBinderEEE
T _ZN7android21defaultServiceManagerEv
B _ZN7android21gPermissionControllerE
T _ZN7android22BnPermissionController10onTransactEjRKNS_6ParcelEPS1_j
T _ZN7android22SimpleBestFitAllocator10deallocateEj
R _ZN7android22SimpleBestFitAllocator12kMemoryAlignE
T _ZN7android22SimpleBestFitAllocator5allocEjj
T _ZN7android22SimpleBestFitAllocator7deallocEj
T _ZN7android22SimpleBestFitAllocator8allocateEjj
T _ZN7android22SimpleBestFitAllocatorC1Ej
T _ZN7android22SimpleBestFitAllocatorC2Ej
T _ZN7android22SimpleBestFitAllocatorD0Ev
T _ZN7android22SimpleBestFitAllocatorD1Ev
T _ZN7android22SimpleBestFitAllocatorD2Ev
T _ZN7android22checkCallingPermissionERKNS_8String16E
T _ZN7android22checkCallingPermissionERKNS_8String16EPiS3_
B _ZN7android22gDefaultServiceManagerE
T _ZN7android23backup_helper_test_fourEv
B _ZN7android23gDarwinIsReallyAnnoyingE
T _ZN7android24backup_helper_test_emptyEv
T _ZN7android24backup_helper_test_filesEv
D _ZN7android25gDarwinCantLoadAllObjectsE
B _ZN7android26gDefaultServiceManagerLockE
T _ZN7android27test_read_header_and_entityERNS_16BackupDataReaderEPKc
T _ZN7android28backup_helper_test_null_baseEv
W _ZN7android2spINS_11IMemoryHeapEEaSEPS1_
W _ZN7android2spINS_11IMemoryHeapEEaSERKS2_
W _ZN7android2spINS_11IMemoryHeapEEaSINS_12BpMemoryHeapEEERS2_PT_
W _ZN7android2spINS_12AssetManager9SharedZipEEaSEPS2_
W _ZN7android2spINS_12AssetManager9SharedZipEEaSERKS3_
W _ZN7android2spINS_12ProcessStateEEaSEPS1_
W _ZN7android2spINS_14MemoryHeapBaseEEaSERKS2_
W _ZN7android2spINS_15IServiceManagerEEaSEPS1_
W _ZN7android2spINS_15IServiceManagerEEaSERKS2_
W _ZN7android2spINS_15IServiceManagerEEaSINS_16BpServiceManagerEEERS2_PT_
W _ZN7android2spINS_15SubRegionMemoryEEaSEPS1_
W _ZN7android2spINS_18BufferedTextOutput11BufferStateEEaSEPS2_
W _ZN7android2spINS_21IPermissionControllerEEaSEPS1_
W _ZN7android2spINS_21IPermissionControllerEEaSERKS2_
W _ZN7android2spINS_21IPermissionControllerEEaSINS_22BpPermissionControllerEEERS2_PT_
W _ZN7android2spINS_6ThreadEEaSEPS1_
W _ZN7android2spINS_6ThreadEEaSERKS2_
W _ZN7android2spINS_7BBinderEEaSERKS2_
W _ZN7android2spINS_7IBinderEEaSEPS1_
W _ZN7android2spINS_7IBinderEEaSERKS2_
W _ZN7android2spINS_7IMemoryEEaSEPS1_
W _ZN7android2spINS_7IMemoryEEaSINS_12MemoryDealer10AllocationEEERS2_PT_
W _ZN7android2spINS_7IMemoryEEaSINS_8BpMemoryEEERS2_PT_
W _ZN7android2wpINS_7IBinder14DeathRecipientEEaSERKNS_2spIS2_EE
W _ZN7android2wpINS_7IBinder14DeathRecipientEEaSERKS3_
W _ZN7android2wpINS_7IBinderEE19set_object_and_refsEPS1_PNS_7RefBase12weakref_typeE
W _ZN7android2wpINS_7IBinderEEaSEPS1_
W _ZN7android2wpINS_7IBinderEEaSERKS2_
T _ZN7android30backup_helper_test_data_readerEv
T _ZN7android30backup_helper_test_data_writerEv
T _ZN7android31backup_helper_test_missing_fileEv
D _ZN7android4aerrE
D _ZN7android4alogE
D _ZN7android4aoutE
W _ZN7android4endlERNS_10TextOutputE
T _ZN7android5Asset10handleSeekElill
T _ZN7android5Asset14createFromFileEPKcNS0_10AccessModeE
T _ZN7android5Asset14getGlobalCountEv
T _ZN7android5Asset19getAssetAllocationsEv
T _ZN7android5Asset23createFromCompressedMapEPNS_7FileMapEijNS0_10AccessModeE
T _ZN7android5Asset24createFromCompressedFileEPKcNS0_10AccessModeE
T _ZN7android5Asset25createFromUncompressedMapEPNS_7FileMapENS0_10AccessModeE
T _ZN7android5AssetC1Ev
T _ZN7android5AssetC2Ev
T _ZN7android5AssetD0Ev
T _ZN7android5AssetD1Ev
T _ZN7android5AssetD2Ev
T _ZN7android5Mutex4lockEv
T _ZN7android5Mutex5_initEv
T _ZN7android5Mutex6unlockEv
T _ZN7android5Mutex7tryLockEv
T _ZN7android5MutexC1EPKc
T _ZN7android5MutexC1Ev
T _ZN7android5MutexC2EPKc
T _ZN7android5MutexC2Ev
T _ZN7android5MutexD1Ev
T _ZN7android5MutexD2Ev
B _ZN7android5mArgCE
B _ZN7android5mArgVE
T _ZN7android6Parcel10appendFromEPS0_jj
T _ZN7android6Parcel10writeFloatEf
T _ZN7android6Parcel10writeInt32Ei
T _ZN7android6Parcel10writeInt64Ex
T _ZN7android6Parcel11finishWriteEj
T _ZN7android6Parcel11setDataSizeEj
T _ZN7android6Parcel11writeDoubleEd
T _ZN7android6Parcel11writeObjectERKNS_18flat_binder_objectEb
T _ZN7android6Parcel12restartWriteEj
T _ZN7android6Parcel12writeCStringEPKc
T _ZN7android6Parcel12writeInplaceEj
T _ZN7android6Parcel12writeString8ERKNS_7String8E
T _ZN7android6Parcel13continueWriteEj
T _ZN7android6Parcel13writeString16EPKtj
T _ZN7android6Parcel13writeString16ERKNS_8String16E
T _ZN7android6Parcel13writeUnpaddedEPKvj
T _ZN7android6Parcel14acquireObjectsEv
T _ZN7android6Parcel14freeDataNoInitEv
T _ZN7android6Parcel14releaseObjectsEv
T _ZN7android6Parcel15setDataCapacityEj
T _ZN7android6Parcel15writeWeakBinderERKNS_2wpINS_7IBinderEEE
T _ZN7android6Parcel17writeNativeHandleEPK15native_handle_t
T _ZN7android6Parcel17writeStrongBinderERKNS_2spINS_7IBinderEEE
T _ZN7android6Parcel19ipcSetDataReferenceEPKhjPKjjPFvPS0_S2_jS4_jPvES6_
T _ZN7android6Parcel19writeFileDescriptorEi
T _ZN7android6Parcel19writeInterfaceTokenERKNS_8String16E
T _ZN7android6Parcel20closeFileDescriptorsEv
T _ZN7android6Parcel22writeDupFileDescriptorEi
T _ZN7android6Parcel5writeEPKvj
T _ZN7android6Parcel6removeEjj
T _ZN7android6Parcel7setDataEPKhj
T _ZN7android6Parcel8freeDataEv
T _ZN7android6Parcel8growDataEj
T _ZN7android6Parcel8setErrorEi
T _ZN7android6Parcel9initStateEv
T _ZN7android6ParcelC1Ev
T _ZN7android6ParcelC2Ev
T _ZN7android6ParcelD1Ev
T _ZN7android6ParcelD2Ev
T _ZN7android6Thread10readyToRunEv
T _ZN7android6Thread11_threadLoopEPv
T _ZN7android6Thread11requestExitEv
T _ZN7android6Thread18requestExitAndWaitEv
T _ZN7android6Thread3runEPKcij
T _ZN7android6ThreadC1Eb
T _ZN7android6ThreadC2Eb
T _ZN7android6ThreadD0Ev
T _ZN7android6ThreadD1Ev
T _ZN7android6ThreadD2Ev
W _ZN7android6dedentERNS_10TextOutputE
W _ZN7android6indentERNS_10TextOutputE
T _ZN7android7BBinder10onTransactEjRKNS_6ParcelEPS1_j
T _ZN7android7BBinder10pingBinderEv
T _ZN7android7BBinder11linkToDeathERKNS_2spINS_7IBinder14DeathRecipientEEEPvj
T _ZN7android7BBinder11localBinderEv
T _ZN7android7BBinder12attachObjectEPKvPvS3_PFvS2_S3_S3_E
T _ZN7android7BBinder12detachObjectEPKv
T _ZN7android7BBinder13unlinkToDeathERKNS_2wpINS_7IBinder14DeathRecipientEEEPvjPS4_
T _ZN7android7BBinder4dumpEiRKNS_6VectorINS_8String16EEE
T _ZN7android7BBinder8transactEjRKNS_6ParcelEPS1_j
T _ZN7android7BBinderC1Ev
T _ZN7android7BBinderC2Ev
T _ZN7android7BBinderD0Ev
T _ZN7android7BBinderD1Ev
T _ZN7android7BBinderD2Ev
T _ZN7android7FileMap6adviseENS0_9MapAdviceE
T _ZN7android7FileMap6createEPKciljb
D _ZN7android7FileMap9mPageSizeE
T _ZN7android7FileMapC1Ev
T _ZN7android7FileMapC2Ev
T _ZN7android7FileMapD1Ev
T _ZN7android7FileMapD2Ev
T _ZN7android7HexDumpC1EPKvjj
T _ZN7android7HexDumpC2EPKvjj
T _ZN7android7IBinder11localBinderEv
T _ZN7android7IBinder12remoteBinderEv
T _ZN7android7IBinder19queryLocalInterfaceERKNS_8String16E
B _ZN7android7IMemory10descriptorE
T _ZN7android7IMemory11asInterfaceERKNS_2spINS_7IBinderEEE
B _ZN7android7MapInfo8sMapInfoE
T _ZN7android7RefBase10onFirstRefEv
T _ZN7android7RefBase12weakref_type14attemptIncWeakEPKv
T _ZN7android7RefBase12weakref_type16attemptIncStrongEPKv
T _ZN7android7RefBase12weakref_type7decWeakEPKv
T _ZN7android7RefBase12weakref_type7incWeakEPKv
T _ZN7android7RefBase12weakref_type7trackMeEbb
T _ZN7android7RefBase13onLastWeakRefEPKv
T _ZN7android7RefBase15onLastStrongRefEPKv
T _ZN7android7RefBase20extendObjectLifetimeEi
T _ZN7android7RefBase20onIncStrongAttemptedEjPKv
T _ZN7android7RefBaseC1Ev
T _ZN7android7RefBaseC2Ev
T _ZN7android7RefBaseD0Ev
T _ZN7android7RefBaseD1Ev
T _ZN7android7RefBaseD2Ev
T _ZN7android7String810appendPathEPKc
T _ZN7android7String810lockBufferEj
T _ZN7android7String811real_appendEPKcj
T _ZN7android7String811setPathNameEPKc
T _ZN7android7String811setPathNameEPKcj
T _ZN7android7String812unlockBufferEj
T _ZN7android7String812unlockBufferEv
T _ZN7android7String816convertToResPathEv
T _ZN7android7String85setToEPKc
T _ZN7android7String85setToEPKcj
T _ZN7android7String85setToEPKjj
T _ZN7android7String85setToEPKtj
T _ZN7android7String85setToERKS0_
T _ZN7android7String86appendEPKc
T _ZN7android7String86appendEPKcj
T _ZN7android7String86appendERKS0_
T _ZN7android7String87toLowerEjj
T _ZN7android7String87toLowerEv
T _ZN7android7String87toUpperEjj
T _ZN7android7String87toUpperEv
T _ZN7android7String8C1EPKc
T _ZN7android7String8C1EPKcj
T _ZN7android7String8C1EPKj
T _ZN7android7String8C1EPKjj
T _ZN7android7String8C1EPKt
T _ZN7android7String8C1EPKtj
T _ZN7android7String8C1ERKNS_8String16E
T _ZN7android7String8C1ERKS0_
T _ZN7android7String8C1Ev
T _ZN7android7String8C2EPKc
T _ZN7android7String8C2EPKcj
T _ZN7android7String8C2EPKj
T _ZN7android7String8C2EPKjj
T _ZN7android7String8C2EPKt
T _ZN7android7String8C2EPKtj
T _ZN7android7String8C2ERKNS_8String16E
T _ZN7android7String8C2ERKS0_
T _ZN7android7String8C2Ev
T _ZN7android7String8D1Ev
T _ZN7android7String8D2Ev
T _ZN7android7Unicode10isMirroredEi
T _ZN7android7Unicode13getDigitValueEii
T _ZN7android7Unicode13getPackedDataEi
T _ZN7android7Unicode15getNumericValueEi
T _ZN7android7Unicode17getDirectionalityEi
T _ZN7android7Unicode20getDecompositionTypeEi
T _ZN7android7Unicode7getTypeEi
T _ZN7android7Unicode7toLowerEi
T _ZN7android7Unicode7toTitleEi
T _ZN7android7Unicode7toUpperEi
T _ZN7android7Unicode8toMirrorEi
B _ZN7android7mArgLenE
T _ZN7android8AssetDir8FileInfo9findEntryEPKNS_12SortedVectorIS1_EERKNS_7String8E
T _ZN7android8BnMemory10onTransactEjRKNS_6ParcelEPS1_j
T _ZN7android8BpBinder10onFirstRefEv
T _ZN7android8BpBinder10pingBinderEv
T _ZN7android8BpBinder11linkToDeathERKNS_2spINS_7IBinder14DeathRecipientEEEPvj
T _ZN7android8BpBinder12attachObjectEPKvPvS3_PFvS2_S3_S3_E
T _ZN7android8BpBinder12detachObjectEPKv
T _ZN7android8BpBinder12remoteBinderEv
T _ZN7android8BpBinder12sendObituaryEv
T _ZN7android8BpBinder13ObjectManager4killEv
T _ZN7android8BpBinder13ObjectManager6attachEPKvPvS4_PFvS3_S4_S4_E
T _ZN7android8BpBinder13ObjectManager6detachEPKv
T _ZN7android8BpBinder13ObjectManagerC1Ev
T _ZN7android8BpBinder13ObjectManagerC2Ev
T _ZN7android8BpBinder13ObjectManagerD1Ev
T _ZN7android8BpBinder13ObjectManagerD2Ev
T _ZN7android8BpBinder13unlinkToDeathERKNS_2wpINS_7IBinder14DeathRecipientEEEPvjPS4_
T _ZN7android8BpBinder14reportOneDeathERKNS0_8ObituaryE
T _ZN7android8BpBinder15onLastStrongRefEPKv
T _ZN7android8BpBinder20onIncStrongAttemptedEjPKv
T _ZN7android8BpBinder4dumpEiRKNS_6VectorINS_8String16EEE
T _ZN7android8BpBinder8transactEjRKNS_6ParcelEPS1_j
T _ZN7android8BpBinderC1Ei
T _ZN7android8BpBinderC2Ei
T _ZN7android8BpBinderD0Ev
T _ZN7android8BpBinderD1Ev
T _ZN7android8BpBinderD2Ev
T _ZN7android8BpMemoryC1ERKNS_2spINS_7IBinderEEE
T _ZN7android8BpMemoryC2ERKNS_2spINS_7IBinderEEE
T _ZN7android8BpMemoryD0Ev
T _ZN7android8BpMemoryD1Ev
T _ZN7android8BpMemoryD2Ev
T _ZN7android8ResTable11stringToIntEPKtjPNS_9Res_valueE
T _ZN7android8ResTable12parsePackageEPKNS_16ResTable_packageEPKNS0_6HeaderE
T _ZN7android8ResTable13collectStringEPNS_8String16EPKtjbPPKcb
T _ZN7android8ResTable13setParametersEPKNS_15ResTable_configE
T _ZN7android8ResTable13stringToFloatEPKtjPNS_9Res_valueE
T _ZN7android8ResTable13valueToStringEPKNS_9Res_valueEjPtPj
T _ZN7android8ResTable17expandResourceRefEPKtjPNS_8String16ES4_S4_PKS3_S6_PPKc
T _ZN7android8ResTable3addEPKvjPvPNS_5AssetEb
T _ZN7android8ResTable3addEPKvjPvb
T _ZN7android8ResTable3addEPNS_5AssetEPvb
T _ZN7android8ResTable3addEPS0_
T _ZN7android8ResTable5Theme10applyStyleEjb
T _ZN7android8ResTable5Theme12copy_packageEPNS1_12package_infoE
T _ZN7android8ResTable5Theme12free_packageEPNS1_12package_infoE
T _ZN7android8ResTable5Theme5setToERKS1_
T _ZN7android8ResTable5ThemeC1ERKS0_
T _ZN7android8ResTable5ThemeC2ERKS0_
T _ZN7android8ResTable5ThemeD1Ev
T _ZN7android8ResTable5ThemeD2Ev
T _ZN7android8ResTable6uninitEv
T _ZN7android8ResTableC1EPKvjPvb
T _ZN7android8ResTableC1Ev
T _ZN7android8ResTableC2EPKvjPvb
T _ZN7android8ResTableC2Ev
T _ZN7android8ResTableD1Ev
T _ZN7android8ResTableD2Ev
T _ZN7android8String1610replaceAllEtt
T _ZN7android8String165setToEPKt
T _ZN7android8String165setToEPKtj
T _ZN7android8String165setToERKS0_
T _ZN7android8String165setToERKS0_jj
T _ZN7android8String166appendEPKtj
T _ZN7android8String166appendERKS0_
T _ZN7android8String166insertEjPKt
T _ZN7android8String166insertEjPKtj
T _ZN7android8String166removeEjj
T _ZN7android8String169makeLowerEv
T _ZN7android8String16C1EPKc
T _ZN7android8String16C1EPKcj
T _ZN7android8String16C1EPKt
T _ZN7android8String16C1EPKtj
T _ZN7android8String16C1ERKNS_7String8E
T _ZN7android8String16C1ERKS0_
T _ZN7android8String16C1ERKS0_jj
T _ZN7android8String16C1Ev
T _ZN7android8String16C2EPKc
T _ZN7android8String16C2EPKcj
T _ZN7android8String16C2EPKt
T _ZN7android8String16C2EPKtj
T _ZN7android8String16C2ERKNS_7String8E
T _ZN7android8String16C2ERKS0_
T _ZN7android8String16C2ERKS0_jj
T _ZN7android8String16C2Ev
T _ZN7android8String16D1Ev
T _ZN7android8String16D2Ev
T _ZN7android8ZipUtils11examineGzipEP7__sFILEPiPlS4_Pm
T _ZN7android8ZipUtils15inflateToBufferEP7__sFILEPvll
T _ZN7android8ZipUtils15inflateToBufferEiPvll
B _ZN7android8gProcessE
T _ZN7android9BpRefBase10onFirstRefEv
T _ZN7android9BpRefBase15onLastStrongRefEPKv
T _ZN7android9BpRefBase20onIncStrongAttemptedEjPKv
T _ZN7android9BpRefBaseC1ERKNS_2spINS_7IBinderEEE
T _ZN7android9BpRefBaseC2ERKNS_2spINS_7IBinderEEE
T _ZN7android9BpRefBaseD0Ev
T _ZN7android9BpRefBaseD1Ev
T _ZN7android9BpRefBaseD2Ev
T _ZN7android9CallStack5clearEv
T _ZN7android9CallStack6updateEii
T _ZN7android9CallStackC1ERKS0_
T _ZN7android9CallStackC1Ev
T _ZN7android9CallStackC2ERKS0_
T _ZN7android9CallStackC2Ev
T _ZN7android9CallStackD1Ev
T _ZN7android9CallStackD2Ev
T _ZN7android9CallStackaSERKS0_
T _ZN7android9Condition12waitRelativeERNS_5MutexEx
T _ZN7android9Condition4waitERNS_5MutexE
T _ZN7android9Condition4waitERNS_5MutexEx
T _ZN7android9Condition6signalEv
T _ZN7android9Condition9broadcastEv
T _ZN7android9ConditionC1Ev
T _ZN7android9ConditionC2Ev
T _ZN7android9ConditionD1Ev
T _ZN7android9ConditionD2Ev
T _ZN7android9HeapCache10binderDiedERKNS_2wpINS_7IBinderEEE
T _ZN7android9HeapCache10dump_heapsEv
T _ZN7android9HeapCache8get_heapERKNS_2spINS_7IBinderEEE
T _ZN7android9HeapCache8pin_heapERKNS_2spINS_7IBinderEEE
T _ZN7android9HeapCache9find_heapERKNS_2spINS_7IBinderEEE
T _ZN7android9HeapCache9free_heapERKNS_2spINS_7IBinderEEE
T _ZN7android9HeapCache9free_heapERKNS_2wpINS_7IBinderEEE
T _ZN7android9HeapCacheC1Ev
T _ZN7android9HeapCacheC2Ev
T _ZN7android9HeapCacheD0Ev
T _ZN7android9HeapCacheD1Ev
T _ZN7android9HeapCacheD2Ev
T _ZN7android9StopWatch3lapEv
T _ZN7android9StopWatchC1EPKcij
T _ZN7android9StopWatchC2EPKcij
T _ZN7android9StopWatchD1Ev
T _ZN7android9StopWatchD2Ev
T _ZN7android9ZipFileRO11computeHashEPKci
T _ZN7android9ZipFileRO13inflateBufferEPvPKvll
T _ZN7android9ZipFileRO13inflateBufferEiPKvll
T _ZN7android9ZipFileRO15parseZipArchiveEv
T _ZN7android9ZipFileRO4openEPKc
T _ZN7android9ZipFileRO9addToHashEPKcij
T _ZN7android9countArgvEPKPKc
T _ZN7android9strdupNewEPKc
W _ZN7androidlsERNS_10TextOutputEPKc
T _ZN7androidlsERNS_10TextOutputEPKv
T _ZN7androidlsERNS_10TextOutputERKNS_7HexDumpE
T _ZN7androidlsERNS_10TextOutputERKNS_7String8E
T _ZN7androidlsERNS_10TextOutputERKNS_8String16E
T _ZN7androidlsERNS_10TextOutputERKNS_8TypeCodeE
T _ZN7androidlsERNS_10TextOutputEb
T _ZN7androidlsERNS_10TextOutputEd
T _ZN7androidlsERNS_10TextOutputEf
T _ZN7androidlsERNS_10TextOutputEi
T _ZN7androidlsERNS_10TextOutputEj
T _ZN7androidlsERNS_10TextOutputEl
T _ZN7androidlsERNS_10TextOutputEm
T _ZN7androidlsERNS_10TextOutputEx
T _ZN7androidlsERNS_10TextOutputEy
T _ZNK7android10IInterface8asBinderEv
T _ZNK7android10MemoryBase9getMemoryEPlPj
T _ZNK7android10ResXMLTree10getStringsEv
T _ZNK7android10ResXMLTree12validateNodeEPKNS_15ResXMLTree_nodeE
T _ZNK7android10ResXMLTree8getErrorEv
T _ZNK7android10VectorImpl12itemLocationEj
T _ZNK7android10VectorImpl8capacityEv
T _ZNK7android10VectorImpl8itemSizeEv
T _ZNK7android10_FileAsset18openFileDescriptorEPlS1_
T _ZNK7android11IMemoryHeap22getInterfaceDescriptorEv
T _ZNK7android12AssetManager10getLocalesEPNS_6VectorINS_7String8EEE
T _ZNK7android12AssetManager11getResTableEb
T _ZNK7android12AssetManager12getAssetPathEPv
T _ZNK7android12AssetManager12getResourcesEb
T _ZNK7android12AssetManager13nextAssetPathEPv
T _ZNK7android12AssetManager26updateResourceParamsLockedEv
T _ZNK7android12AssetManager6ZipSet8getIndexERKNS_7String8E
T _ZNK7android12BpMemoryHeap12assertMappedEv
T _ZNK7android12BpMemoryHeap18assertReallyMappedEv
T _ZNK7android12BpMemoryHeap7getBaseEv
T _ZNK7android12BpMemoryHeap7getSizeEv
T _ZNK7android12BpMemoryHeap8getFlagsEv
T _ZNK7android12BpMemoryHeap9getHeapIDEv
T _ZNK7android12MemoryDealer10Allocation9getMemoryEPlPj
T _ZNK7android12MemoryDealer4dumpEPKcj
T _ZNK7android12MemoryDealer4heapEv
T _ZNK7android12MemoryDealer9allocatorEv
T _ZNK7android12ProcessState16isContextManagerEv
T _ZNK7android12ProcessState17supportsProcessesEv
T _ZNK7android12ProcessState7getArgCEv
T _ZNK7android12ProcessState7getArgVEv
T _ZNK7android12ResXMLParser10getCommentEPj
T _ZNK7android12ResXMLParser11getPositionEPNS0_14ResXMLPositionE
T _ZNK7android12ResXMLParser12getCommentIDEv
T _ZNK7android12ResXMLParser12getEventTypeEv
T _ZNK7android12ResXMLParser12getTextValueEPNS_9Res_valueE
T _ZNK7android12ResXMLParser12indexOfClassEv
T _ZNK7android12ResXMLParser12indexOfStyleEv
T _ZNK7android12ResXMLParser13getLineNumberEv
T _ZNK7android12ResXMLParser14getElementNameEPj
T _ZNK7android12ResXMLParser15getNamespaceUriEPj
T _ZNK7android12ResXMLParser16getAttributeDataEj
T _ZNK7android12ResXMLParser16getAttributeNameEjPj
T _ZNK7android12ResXMLParser16getElementNameIDEv
T _ZNK7android12ResXMLParser16indexOfAttributeEPKcS2_
T _ZNK7android12ResXMLParser16indexOfAttributeEPKtjS2_j
T _ZNK7android12ResXMLParser17getAttributeCountEv
T _ZNK7android12ResXMLParser17getAttributeValueEjPNS_9Res_valueE
T _ZNK7android12ResXMLParser17getNamespaceUriIDEv
T _ZNK7android12ResXMLParser18getAttributeNameIDEj
T _ZNK7android12ResXMLParser18getNamespacePrefixEPj
T _ZNK7android12ResXMLParser19getElementNamespaceEPj
T _ZNK7android12ResXMLParser20getAttributeDataTypeEj
T _ZNK7android12ResXMLParser20getNamespacePrefixIDEv
T _ZNK7android12ResXMLParser21getAttributeNameResIDEj
T _ZNK7android12ResXMLParser21getAttributeNamespaceEjPj
T _ZNK7android12ResXMLParser21getElementNamespaceIDEv
T _ZNK7android12ResXMLParser23getAttributeNamespaceIDEj
T _ZNK7android12ResXMLParser23getAttributeStringValueEjPj
T _ZNK7android12ResXMLParser25getAttributeValueStringIDEj
T _ZNK7android12ResXMLParser7getTextEPj
T _ZNK7android12ResXMLParser9getTextIDEv
T _ZNK7android12ResXMLParser9indexOfIDEv
T _ZNK7android12SharedBuffer10editResizeEj
T _ZNK7android12SharedBuffer11attemptEditEv
T _ZNK7android12SharedBuffer4editEv
T _ZNK7android12SharedBuffer5resetEj
T _ZNK7android12SharedBuffer7acquireEv
T _ZNK7android12SharedBuffer7releaseEj
W _ZNK7android12SortedVectorINS_16key_value_pair_tINS_2wpINS_7IBinderEEENS_9HeapCache11heap_info_tEEEE10do_compareEPKvSA_
W _ZNK7android12SortedVectorINS_16key_value_pair_tINS_2wpINS_7IBinderEEENS_9HeapCache11heap_info_tEEEE10do_destroyEPvj
W _ZNK7android12SortedVectorINS_16key_value_pair_tINS_2wpINS_7IBinderEEENS_9HeapCache11heap_info_tEEEE12do_constructEPvj
W _ZNK7android12SortedVectorINS_16key_value_pair_tINS_2wpINS_7IBinderEEENS_9HeapCache11heap_info_tEEEE15do_move_forwardEPvPKvj
W _ZNK7android12SortedVectorINS_16key_value_pair_tINS_2wpINS_7IBinderEEENS_9HeapCache11heap_info_tEEEE16do_move_backwardEPvPKvj
W _ZNK7android12SortedVectorINS_16key_value_pair_tINS_2wpINS_7IBinderEEENS_9HeapCache11heap_info_tEEEE7do_copyEPvPKvj
W _ZNK7android12SortedVectorINS_16key_value_pair_tINS_2wpINS_7IBinderEEENS_9HeapCache11heap_info_tEEEE8do_splatEPvPKvj
W _ZNK7android12SortedVectorINS_16key_value_pair_tINS_7String8ENS_2wpINS_12AssetManager9SharedZipEEEEEE10do_compareEPKvSA_
W _ZNK7android12SortedVectorINS_16key_value_pair_tINS_7String8ENS_2wpINS_12AssetManager9SharedZipEEEEEE10do_destroyEPvj
W _ZNK7android12SortedVectorINS_16key_value_pair_tINS_7String8ENS_2wpINS_12AssetManager9SharedZipEEEEEE12do_constructEPvj
W _ZNK7android12SortedVectorINS_16key_value_pair_tINS_7String8ENS_2wpINS_12AssetManager9SharedZipEEEEEE15do_move_forwardEPvPKvj
W _ZNK7android12SortedVectorINS_16key_value_pair_tINS_7String8ENS_2wpINS_12AssetManager9SharedZipEEEEEE16do_move_backwardEPvPKvj
W _ZNK7android12SortedVectorINS_16key_value_pair_tINS_7String8ENS_2wpINS_12AssetManager9SharedZipEEEEEE7do_copyEPvPKvj
W _ZNK7android12SortedVectorINS_16key_value_pair_tINS_7String8ENS_2wpINS_12AssetManager9SharedZipEEEEEE8do_splatEPvPKvj
W _ZNK7android12SortedVectorINS_16key_value_pair_tINS_7String8ENS_7FileRecEEEE10do_compareEPKvS7_
W _ZNK7android12SortedVectorINS_16key_value_pair_tINS_7String8ENS_7FileRecEEEE10do_destroyEPvj
W _ZNK7android12SortedVectorINS_16key_value_pair_tINS_7String8ENS_7FileRecEEEE12do_constructEPvj
W _ZNK7android12SortedVectorINS_16key_value_pair_tINS_7String8ENS_7FileRecEEEE15do_move_forwardEPvPKvj
W _ZNK7android12SortedVectorINS_16key_value_pair_tINS_7String8ENS_7FileRecEEEE16do_move_backwardEPvPKvj
W _ZNK7android12SortedVectorINS_16key_value_pair_tINS_7String8ENS_7FileRecEEEE7do_copyEPvPKvj
W _ZNK7android12SortedVectorINS_16key_value_pair_tINS_7String8ENS_7FileRecEEEE8do_splatEPvPKvj
W _ZNK7android12SortedVectorINS_16key_value_pair_tINS_7String8ENS_9FileStateEEEE10do_compareEPKvS7_
W _ZNK7android12SortedVectorINS_16key_value_pair_tINS_7String8ENS_9FileStateEEEE10do_destroyEPvj
W _ZNK7android12SortedVectorINS_16key_value_pair_tINS_7String8ENS_9FileStateEEEE12do_constructEPvj
W _ZNK7android12SortedVectorINS_16key_value_pair_tINS_7String8ENS_9FileStateEEEE15do_move_forwardEPvPKvj
W _ZNK7android12SortedVectorINS_16key_value_pair_tINS_7String8ENS_9FileStateEEEE16do_move_backwardEPvPKvj
W _ZNK7android12SortedVectorINS_16key_value_pair_tINS_7String8ENS_9FileStateEEEE7do_copyEPvPKvj
W _ZNK7android12SortedVectorINS_16key_value_pair_tINS_7String8ENS_9FileStateEEEE8do_splatEPvPKvj
W _ZNK7android12SortedVectorINS_16key_value_pair_tINS_8String16ENS_2spINS_7IBinderEEEEEE10do_compareEPKvS9_
W _ZNK7android12SortedVectorINS_16key_value_pair_tINS_8String16ENS_2spINS_7IBinderEEEEEE10do_destroyEPvj
W _ZNK7android12SortedVectorINS_16key_value_pair_tINS_8String16ENS_2spINS_7IBinderEEEEEE12do_constructEPvj
W _ZNK7android12SortedVectorINS_16key_value_pair_tINS_8String16ENS_2spINS_7IBinderEEEEEE15do_move_forwardEPvPKvj
W _ZNK7android12SortedVectorINS_16key_value_pair_tINS_8String16ENS_2spINS_7IBinderEEEEEE16do_move_backwardEPvPKvj
W _ZNK7android12SortedVectorINS_16key_value_pair_tINS_8String16ENS_2spINS_7IBinderEEEEEE7do_copyEPvPKvj
W _ZNK7android12SortedVectorINS_16key_value_pair_tINS_8String16ENS_2spINS_7IBinderEEEEEE8do_splatEPvPKvj
W _ZNK7android12SortedVectorINS_16key_value_pair_tIPKvNS_8BpBinder13ObjectManager7entry_tEEEE10do_compareES3_S3_
W _ZNK7android12SortedVectorINS_16key_value_pair_tIPKvNS_8BpBinder13ObjectManager7entry_tEEEE10do_destroyEPvj
W _ZNK7android12SortedVectorINS_16key_value_pair_tIPKvNS_8BpBinder13ObjectManager7entry_tEEEE12do_constructEPvj
W _ZNK7android12SortedVectorINS_16key_value_pair_tIPKvNS_8BpBinder13ObjectManager7entry_tEEEE15do_move_forwardEPvS3_j
W _ZNK7android12SortedVectorINS_16key_value_pair_tIPKvNS_8BpBinder13ObjectManager7entry_tEEEE16do_move_backwardEPvS3_j
W _ZNK7android12SortedVectorINS_16key_value_pair_tIPKvNS_8BpBinder13ObjectManager7entry_tEEEE7do_copyEPvS3_j
W _ZNK7android12SortedVectorINS_16key_value_pair_tIPKvNS_8BpBinder13ObjectManager7entry_tEEEE8do_splatEPvS3_j
W _ZNK7android12SortedVectorINS_2wpINS_14MemoryHeapPmem10MemoryPmemEEEE10do_compareEPKvS7_
W _ZNK7android12SortedVectorINS_2wpINS_14MemoryHeapPmem10MemoryPmemEEEE10do_destroyEPvj
W _ZNK7android12SortedVectorINS_2wpINS_14MemoryHeapPmem10MemoryPmemEEEE12do_constructEPvj
W _ZNK7android12SortedVectorINS_2wpINS_14MemoryHeapPmem10MemoryPmemEEEE15do_move_forwardEPvPKvj
W _ZNK7android12SortedVectorINS_2wpINS_14MemoryHeapPmem10MemoryPmemEEEE16do_move_backwardEPvPKvj
W _ZNK7android12SortedVectorINS_2wpINS_14MemoryHeapPmem10MemoryPmemEEEE7do_copyEPvPKvj
W _ZNK7android12SortedVectorINS_2wpINS_14MemoryHeapPmem10MemoryPmemEEEE8do_splatEPvPKvj
W _ZNK7android12SortedVectorINS_8AssetDir8FileInfoEE10do_compareEPKvS5_
W _ZNK7android12SortedVectorINS_8AssetDir8FileInfoEE10do_destroyEPvj
W _ZNK7android12SortedVectorINS_8AssetDir8FileInfoEE12do_constructEPvj
W _ZNK7android12SortedVectorINS_8AssetDir8FileInfoEE15do_move_forwardEPvPKvj
W _ZNK7android12SortedVectorINS_8AssetDir8FileInfoEE16do_move_backwardEPvPKvj
W _ZNK7android12SortedVectorINS_8AssetDir8FileInfoEE7do_copyEPvPKvj
W _ZNK7android12SortedVectorINS_8AssetDir8FileInfoEE8do_splatEPvPKvj
T _ZNK7android13DurationTimer13durationUsecsEv
T _ZNK7android13ResStringPool13indexOfStringEPKtj
T _ZNK7android13ResStringPool4sizeEv
T _ZNK7android13ResStringPool7styleAtERKNS_17ResStringPool_refE
T _ZNK7android13ResStringPool7styleAtEj
T _ZNK7android13ResStringPool8getErrorEv
T _ZNK7android13ResStringPool8stringAtEjPj
T _ZNK7android14MemoryHeapBase7getBaseEv
T _ZNK7android14MemoryHeapBase7getSizeEv
T _ZNK7android14MemoryHeapBase8getFlagsEv
T _ZNK7android14MemoryHeapBase9getDeviceEv
T _ZNK7android14MemoryHeapBase9getHeapIDEv
T _ZNK7android15IServiceManager22getInterfaceDescriptorEv
T _ZNK7android15SubRegionMemory9getMemoryEPlPj
T _ZNK7android16SortedVectorImpl13_indexOrderOfEPKvPj
T _ZNK7android16SortedVectorImpl7indexOfEPKv
T _ZNK7android16SortedVectorImpl7orderOfEPKv
T _ZNK7android18BufferedTextOutput9getBufferEv
T _ZNK7android21IPermissionController22getInterfaceDescriptorEv
T _ZNK7android22SimpleBestFitAllocator4dumpEPKcj
T _ZNK7android22SimpleBestFitAllocator4dumpERNS_7String8EPKcj
T _ZNK7android22SimpleBestFitAllocator4sizeEv
T _ZNK7android22SimpleBestFitAllocator6dump_lEPKcj
T _ZNK7android22SimpleBestFitAllocator6dump_lERNS_7String8EPKcj
T _ZNK7android6Parcel10errorCheckEv
T _ZNK7android6Parcel10ipcObjectsEv
T _ZNK7android6Parcel10readDoubleEPd
T _ZNK7android6Parcel10readDoubleEv
T _ZNK7android6Parcel10readObjectEb
T _ZNK7android6Parcel10scanForFdsEv
T _ZNK7android6Parcel11ipcDataSizeEv
T _ZNK7android6Parcel11readCStringEv
T _ZNK7android6Parcel11readInplaceEj
T _ZNK7android6Parcel11readString8Ev
T _ZNK7android6Parcel12dataCapacityEv
T _ZNK7android6Parcel12dataPositionEv
T _ZNK7android6Parcel12objectsCountEv
T _ZNK7android6Parcel12readString16Ev
T _ZNK7android6Parcel14readWeakBinderEv
T _ZNK7android6Parcel15ipcObjectsCountEv
T _ZNK7android6Parcel15setDataPositionEj
T _ZNK7android6Parcel16enforceInterfaceERKNS_8String16E
T _ZNK7android6Parcel16readNativeHandleEv
T _ZNK7android6Parcel16readStrongBinderEv
T _ZNK7android6Parcel18hasFileDescriptorsEv
T _ZNK7android6Parcel18readFileDescriptorEv
T _ZNK7android6Parcel19readString16InplaceEPj
T _ZNK7android6Parcel4dataEv
T _ZNK7android6Parcel4readEPvj
T _ZNK7android6Parcel5printERNS_10TextOutputEj
T _ZNK7android6Parcel7ipcDataEv
T _ZNK7android6Parcel7objectsEv
T _ZNK7android6Parcel8dataSizeEv
T _ZNK7android6Parcel9dataAvailEv
T _ZNK7android6Parcel9readFloatEPf
T _ZNK7android6Parcel9readFloatEv
T _ZNK7android6Parcel9readInt32EPi
T _ZNK7android6Parcel9readInt32Ev
T _ZNK7android6Parcel9readInt64EPx
T _ZNK7android6Parcel9readInt64Ev
T _ZNK7android6Thread11exitPendingEv
W _ZNK7android6VectorINS_12AssetManager10asset_pathEE10do_destroyEPvj
W _ZNK7android6VectorINS_12AssetManager10asset_pathEE12do_constructEPvj
W _ZNK7android6VectorINS_12AssetManager10asset_pathEE15do_move_forwardEPvPKvj
W _ZNK7android6VectorINS_12AssetManager10asset_pathEE16do_move_backwardEPvPKvj
W _ZNK7android6VectorINS_12AssetManager10asset_pathEE7do_copyEPvPKvj
W _ZNK7android6VectorINS_12AssetManager10asset_pathEE8do_splatEPvPKvj
W _ZNK7android6VectorINS_12ProcessState12handle_entryEE10do_destroyEPvj
W _ZNK7android6VectorINS_12ProcessState12handle_entryEE12do_constructEPvj
W _ZNK7android6VectorINS_12ProcessState12handle_entryEE15do_move_forwardEPvPKvj
W _ZNK7android6VectorINS_12ProcessState12handle_entryEE16do_move_backwardEPvPKvj
W _ZNK7android6VectorINS_12ProcessState12handle_entryEE7do_copyEPvPKvj
W _ZNK7android6VectorINS_12ProcessState12handle_entryEE8do_splatEPvPKvj
W _ZNK7android6VectorINS_15ResTable_configEE10do_destroyEPvj
W _ZNK7android6VectorINS_15ResTable_configEE12do_constructEPvj
W _ZNK7android6VectorINS_15ResTable_configEE15do_move_forwardEPvPKvj
W _ZNK7android6VectorINS_15ResTable_configEE16do_move_backwardEPvPKvj
W _ZNK7android6VectorINS_15ResTable_configEE7do_copyEPvPKvj
W _ZNK7android6VectorINS_15ResTable_configEE8do_splatEPvPKvj
W _ZNK7android6VectorINS_2spINS_12AssetManager9SharedZipEEEE10do_destroyEPvj
W _ZNK7android6VectorINS_2spINS_12AssetManager9SharedZipEEEE12do_constructEPvj
W _ZNK7android6VectorINS_2spINS_12AssetManager9SharedZipEEEE15do_move_forwardEPvPKvj
W _ZNK7android6VectorINS_2spINS_12AssetManager9SharedZipEEEE16do_move_backwardEPvPKvj
W _ZNK7android6VectorINS_2spINS_12AssetManager9SharedZipEEEE7do_copyEPvPKvj
W _ZNK7android6VectorINS_2spINS_12AssetManager9SharedZipEEEE8do_splatEPvPKvj
W _ZNK7android6VectorINS_2spINS_18BufferedTextOutput11BufferStateEEEE10do_destroyEPvj
W _ZNK7android6VectorINS_2spINS_18BufferedTextOutput11BufferStateEEEE12do_constructEPvj
W _ZNK7android6VectorINS_2spINS_18BufferedTextOutput11BufferStateEEEE15do_move_forwardEPvPKvj
W _ZNK7android6VectorINS_2spINS_18BufferedTextOutput11BufferStateEEEE16do_move_backwardEPvPKvj
W _ZNK7android6VectorINS_2spINS_18BufferedTextOutput11BufferStateEEEE7do_copyEPvPKvj
W _ZNK7android6VectorINS_2spINS_18BufferedTextOutput11BufferStateEEEE8do_splatEPvPKvj
W _ZNK7android6VectorINS_7String8EE10do_destroyEPvj
W _ZNK7android6VectorINS_7String8EE12do_constructEPvj
W _ZNK7android6VectorINS_7String8EE15do_move_forwardEPvPKvj
W _ZNK7android6VectorINS_7String8EE16do_move_backwardEPvPKvj
W _ZNK7android6VectorINS_7String8EE7do_copyEPvPKvj
W _ZNK7android6VectorINS_7String8EE8do_splatEPvPKvj
W _ZNK7android6VectorINS_8BpBinder8ObituaryEE10do_destroyEPvj
W _ZNK7android6VectorINS_8BpBinder8ObituaryEE12do_constructEPvj
W _ZNK7android6VectorINS_8BpBinder8ObituaryEE15do_move_forwardEPvPKvj
W _ZNK7android6VectorINS_8BpBinder8ObituaryEE16do_move_backwardEPvPKvj
W _ZNK7android6VectorINS_8BpBinder8ObituaryEE7do_copyEPvPKvj
W _ZNK7android6VectorINS_8BpBinder8ObituaryEE8do_splatEPvPKvj
W _ZNK7android6VectorINS_8String16EE10do_destroyEPvj
W _ZNK7android6VectorINS_8String16EE12do_constructEPvj
W _ZNK7android6VectorINS_8String16EE15do_move_forwardEPvPKvj
W _ZNK7android6VectorINS_8String16EE16do_move_backwardEPvPKvj
W _ZNK7android6VectorINS_8String16EE7do_copyEPvPKvj
W _ZNK7android6VectorINS_8String16EE8do_splatEPvPKvj
W _ZNK7android6VectorIPKNS_13ResTable_typeEE10do_destroyEPvj
W _ZNK7android6VectorIPKNS_13ResTable_typeEE12do_constructEPvj
W _ZNK7android6VectorIPKNS_13ResTable_typeEE15do_move_forwardEPvPKvj
W _ZNK7android6VectorIPKNS_13ResTable_typeEE16do_move_backwardEPvPKvj
W _ZNK7android6VectorIPKNS_13ResTable_typeEE7do_copyEPvPKvj
W _ZNK7android6VectorIPKNS_13ResTable_typeEE8do_splatEPvPKvj
W _ZNK7android6VectorIPNS_7BBinderEE10do_destroyEPvj
W _ZNK7android6VectorIPNS_7BBinderEE12do_constructEPvj
W _ZNK7android6VectorIPNS_7BBinderEE15do_move_forwardEPvPKvj
W _ZNK7android6VectorIPNS_7BBinderEE16do_move_backwardEPvPKvj
W _ZNK7android6VectorIPNS_7BBinderEE7do_copyEPvPKvj
W _ZNK7android6VectorIPNS_7BBinderEE8do_splatEPvPKvj
W _ZNK7android6VectorIPNS_7RefBase12weakref_typeEE10do_destroyEPvj
W _ZNK7android6VectorIPNS_7RefBase12weakref_typeEE12do_constructEPvj
W _ZNK7android6VectorIPNS_7RefBase12weakref_typeEE15do_move_forwardEPvPKvj
W _ZNK7android6VectorIPNS_7RefBase12weakref_typeEE16do_move_backwardEPvPKvj
W _ZNK7android6VectorIPNS_7RefBase12weakref_typeEE7do_copyEPvPKvj
W _ZNK7android6VectorIPNS_7RefBase12weakref_typeEE8do_splatEPvPKvj
W _ZNK7android6VectorIPNS_8ResTable12PackageGroupEE10do_destroyEPvj
W _ZNK7android6VectorIPNS_8ResTable12PackageGroupEE12do_constructEPvj
W _ZNK7android6VectorIPNS_8ResTable12PackageGroupEE15do_move_forwardEPvPKvj
W _ZNK7android6VectorIPNS_8ResTable12PackageGroupEE16do_move_backwardEPvPKvj
W _ZNK7android6VectorIPNS_8ResTable12PackageGroupEE7do_copyEPvPKvj
W _ZNK7android6VectorIPNS_8ResTable12PackageGroupEE8do_splatEPvPKvj
W _ZNK7android6VectorIPNS_8ResTable4TypeEE10do_destroyEPvj
W _ZNK7android6VectorIPNS_8ResTable4TypeEE12do_constructEPvj
W _ZNK7android6VectorIPNS_8ResTable4TypeEE15do_move_forwardEPvPKvj
W _ZNK7android6VectorIPNS_8ResTable4TypeEE16do_move_backwardEPvPKvj
W _ZNK7android6VectorIPNS_8ResTable4TypeEE7do_copyEPvPKvj
W _ZNK7android6VectorIPNS_8ResTable4TypeEE8do_splatEPvPKvj
W _ZNK7android6VectorIPNS_8ResTable6HeaderEE10do_destroyEPvj
W _ZNK7android6VectorIPNS_8ResTable6HeaderEE12do_constructEPvj
W _ZNK7android6VectorIPNS_8ResTable6HeaderEE15do_move_forwardEPvPKvj
W _ZNK7android6VectorIPNS_8ResTable6HeaderEE16do_move_backwardEPvPKvj
W _ZNK7android6VectorIPNS_8ResTable6HeaderEE7do_copyEPvPKvj
W _ZNK7android6VectorIPNS_8ResTable6HeaderEE8do_splatEPvPKvj
W _ZNK7android6VectorIPNS_8ResTable7PackageEE10do_destroyEPvj
W _ZNK7android6VectorIPNS_8ResTable7PackageEE12do_constructEPvj
W _ZNK7android6VectorIPNS_8ResTable7PackageEE15do_move_forwardEPvPKvj
W _ZNK7android6VectorIPNS_8ResTable7PackageEE16do_move_backwardEPvPKvj
W _ZNK7android6VectorIPNS_8ResTable7PackageEE7do_copyEPvPKvj
W _ZNK7android6VectorIPNS_8ResTable7PackageEE8do_splatEPvPKvj
W _ZNK7android6VectorIiE10do_destroyEPvj
W _ZNK7android6VectorIiE12do_constructEPvj
W _ZNK7android6VectorIiE15do_move_forwardEPvPKvj
W _ZNK7android6VectorIiE16do_move_backwardEPvPKvj
W _ZNK7android6VectorIiE7do_copyEPvPKvj
W _ZNK7android6VectorIiE8do_splatEPvPKvj
T _ZNK7android7BBinder10findObjectEPKv
T _ZNK7android7BBinder13isBinderAliveEv
T _ZNK7android7BBinder22getInterfaceDescriptorEv
T _ZNK7android7IBinder13checkSubclassEPKv
T _ZNK7android7IMemory11fastPointerERKNS_2spINS_7IBinderEEEl
T _ZNK7android7IMemory22getInterfaceDescriptorEv
T _ZNK7android7IMemory4sizeEv
T _ZNK7android7IMemory6offsetEv
T _ZNK7android7IMemory7pointerEv
T _ZNK7android7RefBase10createWeakEPKv
T _ZNK7android7RefBase11getWeakRefsEv
T _ZNK7android7RefBase12weakref_type12getWeakCountEv
T _ZNK7android7RefBase12weakref_type7refBaseEv
T _ZNK7android7RefBase12weakref_type9printRefsEv
T _ZNK7android7RefBase14forceIncStrongEPKv
T _ZNK7android7RefBase14getStrongCountEv
T _ZNK7android7RefBase9decStrongEPKv
T _ZNK7android7RefBase9incStrongEPKv
T _ZNK7android7String810getPathDirEv
T _ZNK7android7String810getUtf32AtEjPj
T _ZNK7android7String811getBasePathEv
T _ZNK7android7String811getPathLeafEv
T _ZNK7android7String814find_extensionEv
T _ZNK7android7String814getUtf32LengthEv
T _ZNK7android7String816getPathExtensionEv
T _ZNK7android7String84findEPKcj
T _ZNK7android7String88getUtf32EPjj
T _ZNK7android7String88walkPathEPS0_
T _ZNK7android8BpBinder10findObjectEPKv
T _ZNK7android8BpBinder13ObjectManager4findEPKv
T _ZNK7android8BpBinder13isBinderAliveEv
T _ZNK7android8BpBinder22getInterfaceDescriptorEv
T _ZNK7android8BpMemory9getMemoryEPlPj
T _ZNK7android8ResTable10getLocalesEPNS_6VectorINS_7String8EEE
T _ZNK7android8ResTable11getResourceEjPNS_9Res_valueEbPjPNS_15ResTable_configE
T _ZNK7android8ResTable12getBagLockedEjPPKNS0_9bag_entryEPj
T _ZNK7android8ResTable13getParametersEPNS_15ResTable_configE
T _ZNK7android8ResTable13getTableCountEv
T _ZNK7android8ResTable13stringToValueEPNS_9Res_valueEPNS_8String16EPKtjbbjPKS3_S8_PNS0_8AccessorEPvjb
T _ZNK7android8ResTable14getTableCookieEj
T _ZNK7android8ResTable15getResourceNameEjPNS0_13resource_nameE
T _ZNK7android8ResTable16getBasePackageIdEj
T _ZNK7android8ResTable16resolveReferenceEPNS_9Res_valueElPjS3_PNS_15ResTable_configE
T _ZNK7android8ResTable17getConfigurationsEPNS_6VectorINS_15ResTable_configEEE
T _ZNK7android8ResTable17identifierForNameEPKtjS2_jS2_jPj
T _ZNK7android8ResTable18getBasePackageNameEj
T _ZNK7android8ResTable19getBasePackageCountEv
T _ZNK7android8ResTable19getTableStringBlockEj
T _ZNK7android8ResTable4lockEv
T _ZNK7android8ResTable5Theme12getAttributeEjPNS_9Res_valueEPj
T _ZNK7android8ResTable5Theme25resolveAttributeReferenceEPNS_9Res_valueElPjS4_PNS_15ResTable_configE
T _ZNK7android8ResTable5Theme9dumpToLogEv
T _ZNK7android8ResTable6unlockEv
T _ZNK7android8ResTable7lockBagEjPPKNS0_9bag_entryE
T _ZNK7android8ResTable8getEntryEPKNS0_7PackageEiiPKNS_15ResTable_configEPPKNS_13ResTable_typeEPPKNS_14ResTable_entryEPPKNS0_4TypeE
T _ZNK7android8ResTable8getErrorEv
T _ZNK7android8ResTable9unlockBagEPKNS0_9bag_entryE
T _ZNK7android8String1610startsWithEPKt
T _ZNK7android8String1610startsWithERKS0_
T _ZNK7android8String168findLastEt
T _ZNK7android8String169findFirstEt
T _ZNK7android9CallStack19toStringSingleLevelEPKci
T _ZNK7android9CallStack4dumpEPKc
T _ZNK7android9CallStack8toStringEPKc
T _ZNK7android9CallStackeqERKS0_
T _ZNK7android9CallStackgeERKS0_
T _ZNK7android9CallStackgtERKS0_
T _ZNK7android9CallStackixEi
T _ZNK7android9CallStackleERKS0_
T _ZNK7android9CallStackltERKS0_
T _ZNK7android9CallStackneERKS0_
T _ZNK7android9StopWatch11elapsedTimeEv
T _ZNK7android9StopWatch4nameEv
T _ZNK7android9ZipFileRO12entryToIndexEPv
T _ZNK7android9ZipFileRO12getEntryInfoEPvPiPlS3_S3_S3_S3_
T _ZNK7android9ZipFileRO15findEntryByNameEPKc
T _ZNK7android9ZipFileRO15uncompressEntryEPvS1_
T _ZNK7android9ZipFileRO15uncompressEntryEPvi
T _ZNK7android9ZipFileRO16findEntryByIndexEi
T _ZNK7android9ZipFileRO16getEntryFileNameEPvPci
T _ZNK7android9ZipFileRO18createEntryFileMapEPv
D _ZTCN7android10MemoryBaseE0_NS_10IInterfaceE
D _ZTCN7android10MemoryBaseE0_NS_11BnInterfaceINS_7IMemoryEEE
D _ZTCN7android10MemoryBaseE0_NS_7IMemoryE
D _ZTCN7android10MemoryBaseE0_NS_8BnMemoryE
D _ZTCN7android10MemoryBaseE4_NS_7BBinderE
D _ZTCN7android10MemoryBaseE4_NS_7IBinderE
V _ZTCN7android10PoolThreadE0_NS_6ThreadE
D _ZTCN7android10SharedHeapE0_NS_13HeapInterfaceE
D _ZTCN7android10SharedHeapE32_NS_10IInterfaceE
D _ZTCN7android10SharedHeapE32_NS_11BnInterfaceINS_11IMemoryHeapEEE
D _ZTCN7android10SharedHeapE32_NS_11IMemoryHeapE
D _ZTCN7android10SharedHeapE32_NS_12BnMemoryHeapE
D _ZTCN7android10SharedHeapE36_NS_7BBinderE
D _ZTCN7android10SharedHeapE36_NS_7IBinderE
D _ZTCN7android10SharedHeapE4_NS_14MemoryHeapBaseE
V _ZTCN7android11BnInterfaceINS_11IMemoryHeapEEE0_NS_10IInterfaceE
V _ZTCN7android11BnInterfaceINS_11IMemoryHeapEEE0_S1_
V _ZTCN7android11BnInterfaceINS_11IMemoryHeapEEE4_NS_7BBinderE
V _ZTCN7android11BnInterfaceINS_11IMemoryHeapEEE4_NS_7IBinderE
V _ZTCN7android11BnInterfaceINS_15IServiceManagerEEE0_NS_10IInterfaceE
V _ZTCN7android11BnInterfaceINS_15IServiceManagerEEE0_S1_
V _ZTCN7android11BnInterfaceINS_15IServiceManagerEEE4_NS_7BBinderE
V _ZTCN7android11BnInterfaceINS_15IServiceManagerEEE4_NS_7IBinderE
V _ZTCN7android11BnInterfaceINS_21IPermissionControllerEEE0_NS_10IInterfaceE
V _ZTCN7android11BnInterfaceINS_21IPermissionControllerEEE0_S1_
V _ZTCN7android11BnInterfaceINS_21IPermissionControllerEEE4_NS_7BBinderE
V _ZTCN7android11BnInterfaceINS_21IPermissionControllerEEE4_NS_7IBinderE
V _ZTCN7android11BnInterfaceINS_7IMemoryEEE0_NS_10IInterfaceE
V _ZTCN7android11BnInterfaceINS_7IMemoryEEE0_S1_
V _ZTCN7android11BnInterfaceINS_7IMemoryEEE4_NS_7BBinderE
V _ZTCN7android11BnInterfaceINS_7IMemoryEEE4_NS_7IBinderE
V _ZTCN7android11BpInterfaceINS_11IMemoryHeapEEE0_NS_10IInterfaceE
V _ZTCN7android11BpInterfaceINS_11IMemoryHeapEEE0_S1_
V _ZTCN7android11BpInterfaceINS_11IMemoryHeapEEE4_NS_9BpRefBaseE
V _ZTCN7android11BpInterfaceINS_15IServiceManagerEEE0_NS_10IInterfaceE
V _ZTCN7android11BpInterfaceINS_15IServiceManagerEEE0_S1_
V _ZTCN7android11BpInterfaceINS_15IServiceManagerEEE4_NS_9BpRefBaseE
V _ZTCN7android11BpInterfaceINS_21IPermissionControllerEEE0_NS_10IInterfaceE
V _ZTCN7android11BpInterfaceINS_21IPermissionControllerEEE0_S1_
V _ZTCN7android11BpInterfaceINS_21IPermissionControllerEEE4_NS_9BpRefBaseE
V _ZTCN7android11BpInterfaceINS_7IMemoryEEE0_NS_10IInterfaceE
V _ZTCN7android11BpInterfaceINS_7IMemoryEEE0_S1_
V _ZTCN7android11BpInterfaceINS_7IMemoryEEE4_NS_9BpRefBaseE
D _ZTCN7android11IMemoryHeapE0_NS_10IInterfaceE
D _ZTCN7android12BnMemoryHeapE0_NS_10IInterfaceE
D _ZTCN7android12BnMemoryHeapE0_NS_11BnInterfaceINS_11IMemoryHeapEEE
D _ZTCN7android12BnMemoryHeapE0_NS_11IMemoryHeapE
D _ZTCN7android12BnMemoryHeapE4_NS_7BBinderE
D _ZTCN7android12BnMemoryHeapE4_NS_7IBinderE
D _ZTCN7android12BpMemoryHeapE0_NS_10IInterfaceE
D _ZTCN7android12BpMemoryHeapE0_NS_11BpInterfaceINS_11IMemoryHeapEEE
D _ZTCN7android12BpMemoryHeapE0_NS_11IMemoryHeapE
D _ZTCN7android12BpMemoryHeapE4_NS_9BpRefBaseE
D _ZTCN7android12MemoryDealer10AllocationE0_NS_10IInterfaceE
D _ZTCN7android12MemoryDealer10AllocationE0_NS_11BnInterfaceINS_7IMemoryEEE
D _ZTCN7android12MemoryDealer10AllocationE0_NS_7IMemoryE
D _ZTCN7android12MemoryDealer10AllocationE0_NS_8BnMemoryE
D _ZTCN7android12MemoryDealer10AllocationE4_NS_7BBinderE
D _ZTCN7android12MemoryDealer10AllocationE4_NS_7IBinderE
D _ZTCN7android12SimpleMemoryE0_NS_10IInterfaceE
D _ZTCN7android12SimpleMemoryE0_NS_10MemoryBaseE
D _ZTCN7android12SimpleMemoryE0_NS_11BnInterfaceINS_7IMemoryEEE
D _ZTCN7android12SimpleMemoryE0_NS_7IMemoryE
D _ZTCN7android12SimpleMemoryE0_NS_8BnMemoryE
D _ZTCN7android12SimpleMemoryE4_NS_7BBinderE
D _ZTCN7android12SimpleMemoryE4_NS_7IBinderE
V _ZTCN7android13HeapInterfaceE4_NS_10IInterfaceE
V _ZTCN7android13HeapInterfaceE4_NS_11BnInterfaceINS_11IMemoryHeapEEE
V _ZTCN7android13HeapInterfaceE4_NS_11IMemoryHeapE
V _ZTCN7android13HeapInterfaceE4_NS_12BnMemoryHeapE
V _ZTCN7android13HeapInterfaceE8_NS_7BBinderE
V _ZTCN7android13HeapInterfaceE8_NS_7IBinderE
D _ZTCN7android14MemoryHeapBaseE28_NS_10IInterfaceE
D _ZTCN7android14MemoryHeapBaseE28_NS_11BnInterfaceINS_11IMemoryHeapEEE
D _ZTCN7android14MemoryHeapBaseE28_NS_11IMemoryHeapE
D _ZTCN7android14MemoryHeapBaseE28_NS_12BnMemoryHeapE
D _ZTCN7android14MemoryHeapBaseE32_NS_7BBinderE
D _ZTCN7android14MemoryHeapBaseE32_NS_7IBinderE
D _ZTCN7android14MemoryHeapPmem10MemoryPmemE0_NS_10IInterfaceE
D _ZTCN7android14MemoryHeapPmem10MemoryPmemE0_NS_11BnInterfaceINS_7IMemoryEEE
D _ZTCN7android14MemoryHeapPmem10MemoryPmemE0_NS_7IMemoryE
D _ZTCN7android14MemoryHeapPmem10MemoryPmemE0_NS_8BnMemoryE
D _ZTCN7android14MemoryHeapPmem10MemoryPmemE4_NS_7BBinderE
D _ZTCN7android14MemoryHeapPmem10MemoryPmemE4_NS_7IBinderE
D _ZTCN7android14MemoryHeapPmemE0_NS_13HeapInterfaceE
D _ZTCN7android14MemoryHeapPmemE4_NS_14MemoryHeapBaseE
D _ZTCN7android14MemoryHeapPmemE60_NS_10IInterfaceE
D _ZTCN7android14MemoryHeapPmemE60_NS_11BnInterfaceINS_11IMemoryHeapEEE
D _ZTCN7android14MemoryHeapPmemE60_NS_11IMemoryHeapE
D _ZTCN7android14MemoryHeapPmemE60_NS_12BnMemoryHeapE
D _ZTCN7android14MemoryHeapPmemE64_NS_7BBinderE
D _ZTCN7android14MemoryHeapPmemE64_NS_7IBinderE
D _ZTCN7android15IServiceManagerE0_NS_10IInterfaceE
D _ZTCN7android15SubRegionMemoryE0_NS_10IInterfaceE
D _ZTCN7android15SubRegionMemoryE0_NS_11BnInterfaceINS_7IMemoryEEE
D _ZTCN7android15SubRegionMemoryE0_NS_14MemoryHeapPmem10MemoryPmemE
D _ZTCN7android15SubRegionMemoryE0_NS_7IMemoryE
D _ZTCN7android15SubRegionMemoryE0_NS_8BnMemoryE
D _ZTCN7android15SubRegionMemoryE4_NS_7BBinderE
D _ZTCN7android15SubRegionMemoryE4_NS_7IBinderE
D _ZTCN7android16BnServiceManagerE0_NS_10IInterfaceE
D _ZTCN7android16BnServiceManagerE0_NS_11BnInterfaceINS_15IServiceManagerEEE
D _ZTCN7android16BnServiceManagerE0_NS_15IServiceManagerE
D _ZTCN7android16BnServiceManagerE4_NS_7BBinderE
D _ZTCN7android16BnServiceManagerE4_NS_7IBinderE
V _ZTCN7android16BpServiceManagerE0_NS_10IInterfaceE
V _ZTCN7android16BpServiceManagerE0_NS_11BpInterfaceINS_15IServiceManagerEEE
V _ZTCN7android16BpServiceManagerE0_NS_15IServiceManagerE
V _ZTCN7android16BpServiceManagerE4_NS_9BpRefBaseE
D _ZTCN7android21IPermissionControllerE0_NS_10IInterfaceE
D _ZTCN7android22BnPermissionControllerE0_NS_10IInterfaceE
D _ZTCN7android22BnPermissionControllerE0_NS_11BnInterfaceINS_21IPermissionControllerEEE
D _ZTCN7android22BnPermissionControllerE0_NS_21IPermissionControllerE
D _ZTCN7android22BnPermissionControllerE4_NS_7BBinderE
D _ZTCN7android22BnPermissionControllerE4_NS_7IBinderE
V _ZTCN7android22BpPermissionControllerE0_NS_10IInterfaceE
V _ZTCN7android22BpPermissionControllerE0_NS_11BpInterfaceINS_21IPermissionControllerEEE
V _ZTCN7android22BpPermissionControllerE0_NS_21IPermissionControllerE
V _ZTCN7android22BpPermissionControllerE4_NS_9BpRefBaseE
D _ZTCN7android7BBinderE0_NS_7IBinderE
D _ZTCN7android7IMemoryE0_NS_10IInterfaceE
D _ZTCN7android8BnMemoryE0_NS_10IInterfaceE
D _ZTCN7android8BnMemoryE0_NS_11BnInterfaceINS_7IMemoryEEE
D _ZTCN7android8BnMemoryE0_NS_7IMemoryE
D _ZTCN7android8BnMemoryE4_NS_7BBinderE
D _ZTCN7android8BnMemoryE4_NS_7IBinderE
D _ZTCN7android8BpBinderE0_NS_7IBinderE
D _ZTCN7android8BpMemoryE0_NS_10IInterfaceE
D _ZTCN7android8BpMemoryE0_NS_11BpInterfaceINS_7IMemoryEEE
D _ZTCN7android8BpMemoryE0_NS_7IMemoryE
D _ZTCN7android8BpMemoryE4_NS_9BpRefBaseE
D _ZTCN7android9HeapCacheE0_NS_7IBinder14DeathRecipientE
V _ZTTN7android10IInterfaceE
D _ZTTN7android10MemoryBaseE
V _ZTTN7android10PoolThreadE
D _ZTTN7android10SharedHeapE
V _ZTTN7android11BnInterfaceINS_11IMemoryHeapEEE
V _ZTTN7android11BnInterfaceINS_15IServiceManagerEEE
V _ZTTN7android11BnInterfaceINS_21IPermissionControllerEEE
V _ZTTN7android11BnInterfaceINS_7IMemoryEEE
V _ZTTN7android11BpInterfaceINS_11IMemoryHeapEEE
V _ZTTN7android11BpInterfaceINS_15IServiceManagerEEE
V _ZTTN7android11BpInterfaceINS_21IPermissionControllerEEE
V _ZTTN7android11BpInterfaceINS_7IMemoryEEE
D _ZTTN7android11IMemoryHeapE
D _ZTTN7android12BnMemoryHeapE
D _ZTTN7android12BpMemoryHeapE
D _ZTTN7android12MemoryDealer10AllocationE
D _ZTTN7android12ProcessStateE
D _ZTTN7android12SimpleMemoryE
V _ZTTN7android13HeapInterfaceE
D _ZTTN7android14MemoryHeapBaseE
D _ZTTN7android14MemoryHeapPmem10MemoryPmemE
D _ZTTN7android14MemoryHeapPmemE
D _ZTTN7android15IServiceManagerE
D _ZTTN7android15SubRegionMemoryE
D _ZTTN7android16BnServiceManagerE
V _ZTTN7android16BpServiceManagerE
D _ZTTN7android21IPermissionControllerE
D _ZTTN7android22BnPermissionControllerE
V _ZTTN7android22BpPermissionControllerE
D _ZTTN7android6ThreadE
D _ZTTN7android7BBinderE
V _ZTTN7android7IBinder14DeathRecipientE
D _ZTTN7android7IBinderE
D _ZTTN7android7IMemoryE
D _ZTTN7android8BnMemoryE
D _ZTTN7android8BpBinderE
D _ZTTN7android8BpMemoryE
D _ZTTN7android9BpRefBaseE
D _ZTTN7android9HeapCacheE
V _ZTVN7android10IInterfaceE
D _ZTVN7android10MemoryBaseE
V _ZTVN7android10PoolThreadE
D _ZTVN7android10SharedHeapE
V _ZTVN7android10TextOutputE
D _ZTVN7android10VectorImplE
D _ZTVN7android10_FileAssetE
V _ZTVN7android11BnInterfaceINS_11IMemoryHeapEEE
V _ZTVN7android11BnInterfaceINS_15IServiceManagerEEE
V _ZTVN7android11BnInterfaceINS_21IPermissionControllerEEE
V _ZTVN7android11BnInterfaceINS_7IMemoryEEE
V _ZTVN7android11BpInterfaceINS_11IMemoryHeapEEE
V _ZTVN7android11BpInterfaceINS_15IServiceManagerEEE
V _ZTVN7android11BpInterfaceINS_21IPermissionControllerEEE
V _ZTVN7android11BpInterfaceINS_7IMemoryEEE
D _ZTVN7android11IMemoryHeapE
D _ZTVN7android12AssetManager9SharedZipE
D _ZTVN7android12AssetManagerE
D _ZTVN7android12BnMemoryHeapE
D _ZTVN7android12BpMemoryHeapE
V _ZTVN7android12FdTextOutputE
D _ZTVN7android12MemoryDealer10AllocationE
D _ZTVN7android12MemoryDealerE
D _ZTVN7android12ProcessStateE
D _ZTVN7android12SimpleMemoryE
V _ZTVN7android12SortedVectorINS_16key_value_pair_tINS_2wpINS_7IBinderEEENS_9HeapCache11heap_info_tEEEEE
V _ZTVN7android12SortedVectorINS_16key_value_pair_tINS_7String8ENS_2wpINS_12AssetManager9SharedZipEEEEEEE
V _ZTVN7android12SortedVectorINS_16key_value_pair_tINS_7String8ENS_7FileRecEEEEE
V _ZTVN7android12SortedVectorINS_16key_value_pair_tINS_7String8ENS_9FileStateEEEEE
V _ZTVN7android12SortedVectorINS_16key_value_pair_tINS_8String16ENS_2spINS_7IBinderEEEEEEE
V _ZTVN7android12SortedVectorINS_16key_value_pair_tIPKvNS_8BpBinder13ObjectManager7entry_tEEEEE
V _ZTVN7android12SortedVectorINS_2wpINS_14MemoryHeapPmem10MemoryPmemEEEEE
V _ZTVN7android12SortedVectorINS_8AssetDir8FileInfoEEE
V _ZTVN7android13HeapInterfaceE
V _ZTVN7android13LogTextOutputE
D _ZTVN7android14MemoryHeapBaseE
D _ZTVN7android14MemoryHeapPmem10MemoryPmemE
D _ZTVN7android14MemoryHeapPmemE
D _ZTVN7android15IServiceManagerE
D _ZTVN7android15SubRegionMemoryE
D _ZTVN7android16BnServiceManagerE
V _ZTVN7android16BpServiceManagerE
D _ZTVN7android16SortedVectorImplE
D _ZTVN7android16_CompressedAssetE
V _ZTVN7android18AllocatorInterfaceE
V _ZTVN7android18BufferedTextOutput11BufferStateE
D _ZTVN7android18BufferedTextOutputE
D _ZTVN7android21IPermissionControllerE
D _ZTVN7android22BnPermissionControllerE
V _ZTVN7android22BpPermissionControllerE
D _ZTVN7android22SimpleBestFitAllocatorE
D _ZTVN7android5AssetE
D _ZTVN7android6ThreadE
V _ZTVN7android6VectorINS_12AssetManager10asset_pathEEE
V _ZTVN7android6VectorINS_12ProcessState12handle_entryEEE
V _ZTVN7android6VectorINS_15ResTable_configEEE
V _ZTVN7android6VectorINS_2spINS_12AssetManager9SharedZipEEEEE
V _ZTVN7android6VectorINS_2spINS_18BufferedTextOutput11BufferStateEEEEE
V _ZTVN7android6VectorINS_7String8EEE
V _ZTVN7android6VectorINS_8BpBinder8ObituaryEEE
V _ZTVN7android6VectorINS_8String16EEE
V _ZTVN7android6VectorIPKNS_13ResTable_typeEEE
V _ZTVN7android6VectorIPNS_7BBinderEEE
V _ZTVN7android6VectorIPNS_7RefBase12weakref_typeEEE
V _ZTVN7android6VectorIPNS_8ResTable12PackageGroupEEE
V _ZTVN7android6VectorIPNS_8ResTable4TypeEEE
V _ZTVN7android6VectorIPNS_8ResTable6HeaderEEE
V _ZTVN7android6VectorIPNS_8ResTable7PackageEEE
V _ZTVN7android6VectorIiEE
D _ZTVN7android7BBinderE
V _ZTVN7android7IBinder14DeathRecipientE
D _ZTVN7android7IBinderE
D _ZTVN7android7IMemoryE
D _ZTVN7android7RefBaseE
V _ZTVN7android8AssetDirE
D _ZTVN7android8BnMemoryE
D _ZTVN7android8BpBinderE
D _ZTVN7android8BpMemoryE
D _ZTVN7android9BpRefBaseE
D _ZTVN7android9HeapCacheE
T _ZThn4_N7android10MemoryBaseD0Ev
T _ZThn4_N7android10MemoryBaseD1Ev
T _ZThn4_N7android10SharedHeapD0Ev
T _ZThn4_N7android10SharedHeapD1Ev
T _ZThn4_N7android12BnMemoryHeap10onTransactEjRKNS_6ParcelEPS1_j
T _ZThn4_N7android12BpMemoryHeapD0Ev
T _ZThn4_N7android12BpMemoryHeapD1Ev
T _ZThn4_N7android12MemoryDealer10AllocationD0Ev
T _ZThn4_N7android12MemoryDealer10AllocationD1Ev
T _ZThn4_N7android12SimpleMemoryD0Ev
T _ZThn4_N7android12SimpleMemoryD1Ev
T _ZThn4_N7android14MemoryHeapPmem10MemoryPmemD0Ev
T _ZThn4_N7android14MemoryHeapPmem10MemoryPmemD1Ev
T _ZThn4_N7android14MemoryHeapPmemD0Ev
T _ZThn4_N7android14MemoryHeapPmemD1Ev
T _ZThn4_N7android15SubRegionMemoryD0Ev
T _ZThn4_N7android15SubRegionMemoryD1Ev
T _ZThn4_N7android16BnServiceManager10onTransactEjRKNS_6ParcelEPS1_j
T _ZThn4_N7android22BnPermissionController10onTransactEjRKNS_6ParcelEPS1_j
T _ZThn4_N7android8BnMemory10onTransactEjRKNS_6ParcelEPS1_j
T _ZThn4_N7android8BpMemoryD0Ev
T _ZThn4_N7android8BpMemoryD1Ev
W _ZTv0_n12_N7android10IInterfaceD0Ev
W _ZTv0_n12_N7android10IInterfaceD1Ev
T _ZTv0_n12_N7android10MemoryBaseD0Ev
T _ZTv0_n12_N7android10MemoryBaseD1Ev
W _ZTv0_n12_N7android10PoolThreadD0Ev
W _ZTv0_n12_N7android10PoolThreadD1Ev
T _ZTv0_n12_N7android10SharedHeapD0Ev
T _ZTv0_n12_N7android10SharedHeapD1Ev
W _ZTv0_n12_N7android11BnInterfaceINS_11IMemoryHeapEED0Ev
W _ZTv0_n12_N7android11BnInterfaceINS_11IMemoryHeapEED1Ev
W _ZTv0_n12_N7android11BnInterfaceINS_15IServiceManagerEED0Ev
W _ZTv0_n12_N7android11BnInterfaceINS_15IServiceManagerEED1Ev
W _ZTv0_n12_N7android11BnInterfaceINS_21IPermissionControllerEED0Ev
W _ZTv0_n12_N7android11BnInterfaceINS_21IPermissionControllerEED1Ev
W _ZTv0_n12_N7android11BnInterfaceINS_7IMemoryEED0Ev
W _ZTv0_n12_N7android11BnInterfaceINS_7IMemoryEED1Ev
W _ZTv0_n12_N7android11BpInterfaceINS_11IMemoryHeapEED0Ev
W _ZTv0_n12_N7android11BpInterfaceINS_11IMemoryHeapEED1Ev
W _ZTv0_n12_N7android11BpInterfaceINS_15IServiceManagerEED0Ev
W _ZTv0_n12_N7android11BpInterfaceINS_15IServiceManagerEED1Ev
W _ZTv0_n12_N7android11BpInterfaceINS_21IPermissionControllerEED0Ev
W _ZTv0_n12_N7android11BpInterfaceINS_21IPermissionControllerEED1Ev
W _ZTv0_n12_N7android11BpInterfaceINS_7IMemoryEED0Ev
W _ZTv0_n12_N7android11BpInterfaceINS_7IMemoryEED1Ev
W _ZTv0_n12_N7android11IMemoryHeapD0Ev
W _ZTv0_n12_N7android11IMemoryHeapD1Ev
W _ZTv0_n12_N7android12BnMemoryHeapD0Ev
W _ZTv0_n12_N7android12BnMemoryHeapD1Ev
T _ZTv0_n12_N7android12BpMemoryHeapD0Ev
T _ZTv0_n12_N7android12BpMemoryHeapD1Ev
T _ZTv0_n12_N7android12MemoryDealer10AllocationD0Ev
T _ZTv0_n12_N7android12MemoryDealer10AllocationD1Ev
T _ZTv0_n12_N7android12ProcessStateD0Ev
T _ZTv0_n12_N7android12ProcessStateD1Ev
T _ZTv0_n12_N7android12SimpleMemoryD0Ev
T _ZTv0_n12_N7android12SimpleMemoryD1Ev
W _ZTv0_n12_N7android13HeapInterfaceD0Ev
W _ZTv0_n12_N7android13HeapInterfaceD1Ev
T _ZTv0_n12_N7android14MemoryHeapBaseD0Ev
T _ZTv0_n12_N7android14MemoryHeapBaseD1Ev
T _ZTv0_n12_N7android14MemoryHeapPmem10MemoryPmemD0Ev
T _ZTv0_n12_N7android14MemoryHeapPmem10MemoryPmemD1Ev
T _ZTv0_n12_N7android14MemoryHeapPmemD0Ev
T _ZTv0_n12_N7android14MemoryHeapPmemD1Ev
W _ZTv0_n12_N7android15IServiceManagerD0Ev
W _ZTv0_n12_N7android15IServiceManagerD1Ev
T _ZTv0_n12_N7android15SubRegionMemoryD0Ev
T _ZTv0_n12_N7android15SubRegionMemoryD1Ev
W _ZTv0_n12_N7android16BnServiceManagerD0Ev
W _ZTv0_n12_N7android16BnServiceManagerD1Ev
W _ZTv0_n12_N7android16BpServiceManagerD0Ev
W _ZTv0_n12_N7android16BpServiceManagerD1Ev
W _ZTv0_n12_N7android21IPermissionControllerD0Ev
W _ZTv0_n12_N7android21IPermissionControllerD1Ev
W _ZTv0_n12_N7android22BnPermissionControllerD0Ev
W _ZTv0_n12_N7android22BnPermissionControllerD1Ev
W _ZTv0_n12_N7android22BpPermissionControllerD0Ev
W _ZTv0_n12_N7android22BpPermissionControllerD1Ev
T _ZTv0_n12_N7android6ThreadD0Ev
T _ZTv0_n12_N7android6ThreadD1Ev
T _ZTv0_n12_N7android7BBinderD0Ev
T _ZTv0_n12_N7android7BBinderD1Ev
W _ZTv0_n12_N7android7IBinder14DeathRecipientD0Ev
W _ZTv0_n12_N7android7IBinder14DeathRecipientD1Ev
W _ZTv0_n12_N7android7IBinderD0Ev
W _ZTv0_n12_N7android7IBinderD1Ev
W _ZTv0_n12_N7android7IMemoryD0Ev
W _ZTv0_n12_N7android7IMemoryD1Ev
W _ZTv0_n12_N7android8BnMemoryD0Ev
W _ZTv0_n12_N7android8BnMemoryD1Ev
T _ZTv0_n12_N7android8BpBinderD0Ev
T _ZTv0_n12_N7android8BpBinderD1Ev
T _ZTv0_n12_N7android8BpMemoryD0Ev
T _ZTv0_n12_N7android8BpMemoryD1Ev
T _ZTv0_n12_N7android9BpRefBaseD0Ev
T _ZTv0_n12_N7android9BpRefBaseD1Ev
T _ZTv0_n12_N7android9HeapCacheD0Ev
T _ZTv0_n12_N7android9HeapCacheD1Ev
T _ZTv0_n16_N7android8BpBinder10onFirstRefEv
T _ZTv0_n16_N7android9BpRefBase10onFirstRefEv
T _ZTv0_n20_N7android10SharedHeapD0Ev
T _ZTv0_n20_N7android10SharedHeapD1Ev
W _ZTv0_n20_N7android13HeapInterfaceD0Ev
W _ZTv0_n20_N7android13HeapInterfaceD1Ev
T _ZTv0_n20_N7android14MemoryHeapBaseD0Ev
T _ZTv0_n20_N7android14MemoryHeapBaseD1Ev
T _ZTv0_n20_N7android14MemoryHeapPmemD0Ev
T _ZTv0_n20_N7android14MemoryHeapPmemD1Ev
T _ZTv0_n20_N7android8BpBinder15onLastStrongRefEPKv
T _ZTv0_n20_N7android9BpRefBase15onLastStrongRefEPKv
T _ZTv0_n24_N7android8BpBinder20onIncStrongAttemptedEjPKv
T _ZTv0_n24_N7android9BpRefBase20onIncStrongAttemptedEjPKv
T _ZTv0_n28_NK7android14MemoryHeapBase9getHeapIDEv
T _ZTv0_n32_NK7android14MemoryHeapBase7getBaseEv
T _ZTv0_n36_NK7android14MemoryHeapBase7getSizeEv
T _ZTv0_n40_NK7android14MemoryHeapBase8getFlagsEv
T _ZTvn4_n20_N7android10SharedHeapD0Ev
T _ZTvn4_n20_N7android10SharedHeapD1Ev
W _ZTvn4_n20_N7android13HeapInterfaceD0Ev
W _ZTvn4_n20_N7android13HeapInterfaceD1Ev
T _ZTvn4_n20_N7android14MemoryHeapBaseD0Ev
T _ZTvn4_n20_N7android14MemoryHeapBaseD1Ev
T _ZTvn4_n20_N7android14MemoryHeapPmemD0Ev
T _ZTvn4_n20_N7android14MemoryHeapPmemD1Ev
U _ZdaPv
U _ZdlPv
U _Znaj
U _Znwj
U __aeabi_atexit
U __aeabi_d2f
U __aeabi_f2d
U __aeabi_f2ulz
U __aeabi_fadd
U __aeabi_fcmplt
U __aeabi_fmul
U __aeabi_idiv
U __aeabi_idivmod
U __aeabi_ldivmod
T __aeabi_llsr
U __aeabi_lmul
U __aeabi_uidiv
U __aeabi_uidivmod
U __aeabi_unwind_cpp_pr0
U __aeabi_unwind_cpp_pr1
U __android_log_assert
U __android_log_print
U __atomic_cmpxchg
U __atomic_dec
U __atomic_swap
A __bss_end__
A __bss_start
A __bss_start__
U __cxa_guard_acquire
U __cxa_guard_release
U __cxa_pure_virtual
D __data_start
U __dso_handle
A __end__
U __errno
A __exidx_end
A __exidx_start
U __futex_wait
U __futex_wake
T __lshrdi3
U __page_size
U __sF
U __srget
U __stack_chk_fail
U __stack_chk_guard
A _bss_end__
U _ctype_
A _edata
A _end
A _stack
U _tolower_tab_
U _toupper_tab_
T androidCreateRawThreadEtc
T androidCreateThread
T androidCreateThreadEtc
T androidGetThreadId
T androidSetCreateThreadFunc
U android_atomic_add
U android_atomic_cmpxchg
U android_atomic_dec
U android_atomic_inc
U android_atomic_or
U android_atomic_write
U ashmem_create_region
U ashmem_set_prot_region
U atoi
U calloc
U clock_gettime
U close
U closedir
U crc32
U creat
U dup
U fclose
U fcntl
U fdopen
U fgets
U fileno
U fopen
U fprintf
U fputs
U fread
U free
U fseek
U fstat
U ftell
T futex_cond_broadcast
T futex_cond_init
T futex_cond_signal
T futex_cond_wait
T futex_mutex_init
T futex_mutex_lock
T futex_mutex_trylock
T futex_mutex_unlock
U getenv
U getpid
U gettimeofday
U getuid
U inflate
U inflateEnd
U inflateInit2_
U ioctl
U lseek
U madvise
U malloc
U memchr
U memcmp
U memcpy
U memmove
U memset
U mkdir
U mmap
U munmap
U native_handle_close
U native_handle_create
U native_handle_delete
U open
U opendir
U prctl
U printf
U pthread_attr_init
U pthread_attr_setdetachstate
U pthread_attr_setstacksize
U pthread_create
U pthread_getspecific
U pthread_key_create
U pthread_mutex_lock
U pthread_mutex_unlock
U pthread_self
U pthread_setspecific
U read
U readdir
U realloc
U set_process_name
U setpriority
U sleep
T sleepForInterval
U snprintf
U sprintf
U stat
U strcasecmp
U strcat
U strchr
U strcmp
T strcmp16
U strcpy
T strcpy16
U strdup
U strerror
U strlen
T strlen16
T strlen32
U strncmp
T strncmp16
U strncpy
T strncpy16
T strnlen16
T strnlen32
U strrchr
U strstr
U strtod
U strtoull
T strzcmp16
T strzcmp16_h_n
U system
T systemTime
U thread_store_get
U thread_store_set
U unlink
U usleep
T utf32_at
T utf32_length
T utf32_to_utf8
T utf8_length
T utf8_length_from_utf32
T utf8_to_utf32
U utimes
U write
U writev
