T _ZN11WbxmlParser10appendDataEPKcjb
T _ZN11WbxmlParser10readStringER6string
T _ZN11WbxmlParser12readMbuint32Ev
T _ZN11WbxmlParser13readAttributeEP9Attribute
T _ZN11WbxmlParser17saveRemainingDataEv
T _ZN11WbxmlParser17setContentHandlerEP19WbxmlContentHandler
T _ZN11WbxmlParser18resolveStrTableRefEv
T _ZN11WbxmlParser18selectTokenMappingEi
T _ZN11WbxmlParser5parseEPKcjb
T _ZN11WbxmlParser5resetEv
T _ZN11WbxmlParser8peekByteEv
T _ZN11WbxmlParser8readByteEv
T _ZN11WbxmlParserC1Ej
T _ZN11WbxmlParserC2Ej
T _ZN11WbxmlParserD1Ev
T _ZN11WbxmlParserD2Ev
T _ZN16ImpsWbxmlEncoder10charactersEPKci
T _ZN16ImpsWbxmlEncoder10endElementEv
T _ZN16ImpsWbxmlEncoder12encodeAttribEPKcS1_
T _ZN16ImpsWbxmlEncoder12encodeMbuintEj
T _ZN16ImpsWbxmlEncoder12encodeStringEPKci
T _ZN16ImpsWbxmlEncoder12startElementEPKcPS1_
T _ZN16ImpsWbxmlEncoder13encodeIntegerEPKci
T _ZN16ImpsWbxmlEncoder14encodeDatetimeEPKci
T _ZN16ImpsWbxmlEncoder16encodeInlinedStrEPKci
T _ZN16ImpsWbxmlEncoder5resetEv
T _ZN16ImpsWbxmlEncoder6opaqueEPKci
U _ZN7android10VectorImpl13finish_vectorEv
U _ZN7android10VectorImpl16editItemLocationEj
U _ZN7android10VectorImpl19reservedVectorImpl1Ev
U _ZN7android10VectorImpl19reservedVectorImpl2Ev
U _ZN7android10VectorImpl19reservedVectorImpl3Ev
U _ZN7android10VectorImpl19reservedVectorImpl4Ev
U _ZN7android10VectorImpl19reservedVectorImpl5Ev
U _ZN7android10VectorImpl19reservedVectorImpl6Ev
U _ZN7android10VectorImpl19reservedVectorImpl7Ev
U _ZN7android10VectorImpl19reservedVectorImpl8Ev
U _ZN7android10VectorImpl3popEv
U _ZN7android10VectorImpl4pushEPKv
U _ZN7android10VectorImpl5clearEv
U _ZN7android10VectorImplC1Ejj
U _ZN7android10VectorImplD1Ev
W _ZN7android17move_forward_typeI6stringEEvPT_PKS2_j
W _ZN7android17move_forward_typeI9AttributeEEvPT_PKS2_j
W _ZN7android18move_backward_typeI6stringEEvPT_PKS2_j
W _ZN7android18move_backward_typeI9AttributeEEvPT_PKS2_j
U _ZN7android7String85setToEPKc
U _ZN7android7String85setToEPKcj
U _ZN7android7String85setToERKS0_
U _ZN7android7String86appendEPKc
U _ZN7android7String86appendEPKcj
U _ZN7android7String8C1EPKc
U _ZN7android7String8C1EPKcj
U _ZN7android7String8C1ERKS0_
U _ZN7android7String8C1Ev
U _ZN7android7String8D1Ev
T _ZNK11WbxmlParser13lookupTagNameEi
T _ZNK11WbxmlParser14lookupAttrNameEiPPKc
W _ZNK7android6VectorI6stringE10do_destroyEPvj
W _ZNK7android6VectorI6stringE12do_constructEPvj
W _ZNK7android6VectorI6stringE15do_move_forwardEPvPKvj
W _ZNK7android6VectorI6stringE16do_move_backwardEPvPKvj
W _ZNK7android6VectorI6stringE7do_copyEPvPKvj
W _ZNK7android6VectorI6stringE8do_splatEPvPKvj
W _ZNK7android6VectorI9AttributeE10do_destroyEPvj
W _ZNK7android6VectorI9AttributeE12do_constructEPvj
W _ZNK7android6VectorI9AttributeE15do_move_forwardEPvPKvj
W _ZNK7android6VectorI9AttributeE16do_move_backwardEPvPKvj
W _ZNK7android6VectorI9AttributeE7do_copyEPvPKvj
W _ZNK7android6VectorI9AttributeE8do_splatEPvPKvj
V _ZTV12WbxmlEncoder
D _ZTV16ImpsWbxmlEncoder
V _ZTV6vectorI6stringE
V _ZTV6vectorI9AttributeE
V _ZTVN7android6VectorI6stringEE
V _ZTVN7android6VectorI9AttributeEE
U _ZdlPv
U __aeabi_unwind_cpp_pr0
A __bss_end__
A __bss_start
A __bss_start__
U __cxa_pure_virtual
A __data_start
A __end__
A __exidx_end
A __exidx_start
A _bss_end__
A _edata
A _end
A _stack
U bsearch
T csp13IsIntegerTag
T csp13TagNameToKey
T csp13ValueTokenToKey
T findTag
T findToken
T in_word_set
U longjmp
U memset
U printf
U puts
U setjmp
U strcmp
U strlen
U strncmp
U strtoll
