T JNI_OnLoad
U UCNV_FROM_U_CALLBACK_ESCAPE_3_8
U UCNV_FROM_U_CALLBACK_SUBSTITUTE_3_8
U UCNV_TO_U_CALLBACK_SUBSTITUTE_3_8
U _Z14SkUTF16_ToUTF8PKtiPc
U _Z15sk_malloc_flagsjj
U _Z15sk_malloc_throwj
U _Z16Android_SkDebugfPKciS0_S0_z
U _Z16sk_realloc_throwPvj
U _Z17SkPreMultiplyARGBjjjj
U _Z19SkCreateRLEPixelRefRK8SkBitmap
U _Z19SkUTF16_NextUnicharPPKt
U _Z21SkFloatBits_toIntCeili
U _Z22SkFloatBits_toIntFloori
U _Z22SkFloatBits_toIntRoundi
U _Z7sk_freePv
U _Z8sk_throwv
U _ZN10SkPixelRef12setImmutableEv
U _ZN10SkTypeface14CreateFromNameEPKcNS_5StyleE
U _ZN10SkTypeface16CreateFromStreamEP8SkStream
U _ZN10SkTypeface18CreateFromTypefaceEPKS_NS_5StyleE
U _ZN10SkTypeface8UniqueIDEPKS_
U _ZN11GraphicsJNI12createBitmapEP7_JNIEnvP8SkBitmapbP11_jbyteArray
U _ZN11GraphicsJNI12createRegionEP7_JNIEnvP8SkRegion
U _ZN11GraphicsJNI15getNativeCanvasEP7_JNIEnvP8_jobject
U _ZN11GraphicsJNI15getNativeRegionEP7_JNIEnvP8_jobject
U _ZN11GraphicsJNI16getNativePictureEP7_JNIEnvP8_jobject
U _ZN11GraphicsJNI16ipoint_to_jpointERK8SkIPointP7_JNIEnvP8_jobject
U _ZN11GraphicsJNI9get_jrectEP7_JNIEnvP8_jobjectPiS4_S4_S4_
U _ZN11SkAutoUnrefD1Ev
U _ZN11SkNinePatch8DrawNineEP8SkCanvasRK6SkRectRK8SkBitmapRK7SkIRectPK7SkPaint
U _ZN12SkDumpCanvasC1EPNS_6DumperE
U _ZN12SkDumpCanvasD1Ev
U _ZN13SkPageFlipper5invalERK7SkIRect
U _ZN14SkFlipPixelRef11beginUpdateEP8SkBitmap
U _ZN14SkFlipPixelRef9endUpdateEv
U _ZN14SkFlipPixelRefC1EN8SkBitmap6ConfigEii
U _ZN14SkFormatDumperC1EPFvPKcPvES2_
U _ZN14SkImageDecoder12DecodeMemoryEPKvjP8SkBitmapNS2_6ConfigENS_4ModeE
U _ZN14SkImageDecoder13setSampleSizeEi
U _ZN14SkImageDecoder6decodeEP8SkStreamP8SkBitmapNS2_6ConfigENS_4ModeE
U _ZN14SkImageDecoder7FactoryEP8SkStream
U _ZN14SkMemoryStream13getMemoryBaseEv
U _ZN14SkMemoryStream4readEPvj
U _ZN14SkMemoryStream6rewindEv
U _ZN14SkMemoryStreamC1EPKvjb
U _ZN14SkMemoryStreamD1Ev
U _ZN15SkUnPreMultiply14PMColorToColorEj
U _ZN16SkBlurDrawLooperC1Efffj
U _ZN16SkBlurMaskFilter6CreateEfNS_9BlurStyleE
U _ZN16SkDashPathEffectC1EPKfifb
U _ZN16SkGradientShader12CreateLinearEPK7SkPointPKjPKfiN8SkShader8TileModeEP12SkUnitMapper
U _ZN16SkGradientShader12CreateRadialERK7SkPointfPKjPKfiN8SkShader8TileModeEP12SkUnitMapper
U _ZN17SkImageRef_ashmemC1EP8SkStreamN8SkBitmap6ConfigEi
U _ZN17SkLayerDrawLooper8addLayerEff
U _ZN17SkLayerDrawLooperC1Ev
U _ZN18SkCornerPathEffectC1Ef
U _ZN21SkImageRef_GlobalPoolC1EP8SkStreamN8SkBitmap6ConfigEi
U _ZN22SkAutoMemoryUsageProbeC1EPKc
U _ZN22SkAutoMemoryUsageProbeD1Ev
U _ZN6SkPath10incReserveEj
U _ZN6SkPath12addRoundRectERK6SkRectPKfNS_9DirectionE
U _ZN6SkPath4Iter4nextEP7SkPoint
U _ZN6SkPath4IterC1ERKS_b
U _ZN6SkPath4swapERS_
U _ZN6SkPath5arcToERK6SkRectffb
U _ZN6SkPath5arcToEfffff
U _ZN6SkPath5closeEv
U _ZN6SkPath5resetEv
U _ZN6SkPath6addArcERK6SkRectff
U _ZN6SkPath6lineToEff
U _ZN6SkPath6moveToEff
U _ZN6SkPath6quadToEffff
U _ZN6SkPath7addOvalERK6SkRectNS_9DirectionE
U _ZN6SkPath7addPathERKS_RK8SkMatrix
U _ZN6SkPath7addRectERK6SkRectNS_9DirectionE
U _ZN6SkPath7cubicToEffffff
U _ZN6SkPathC1ERKS_
U _ZN6SkPathC1Ev
U _ZN6SkPathD1Ev
U _ZN6SkPathaSERKS_
U _ZN6SkRect4joinEffff
U _ZN6SkTime8GetMSecsEv
U _ZN7SkDeque8pop_backEv
U _ZN7SkDeque9pop_frontEv
U _ZN7SkDeque9push_backEv
U _ZN7SkDequeC1Ej
U _ZN7SkDequeD1Ev
U _ZN7SkIRect4joinEiiii
U _ZN7SkPaint11setTextSizeEf
U _ZN7SkPaint11setTypefaceEP10SkTypeface
U _ZN7SkPaint11setXfermodeEP10SkXfermode
U _ZN7SkPaint12setAntiAliasEb
U _ZN7SkPaint12setStrokeCapENS_3CapE
U _ZN7SkPaint12setTextAlignENS_5AlignE
U _ZN7SkPaint12setTextSkewXEf
U _ZN7SkPaint13setMaskFilterEP12SkMaskFilter
U _ZN7SkPaint13setPathEffectEP12SkPathEffect
U _ZN7SkPaint13setStrokeJoinENS_4JoinE
U _ZN7SkPaint13setTextScaleXEf
U _ZN7SkPaint14setStrokeMiterEf
U _ZN7SkPaint14setStrokeWidthEf
U _ZN7SkPaint15setFakeBoldTextEb
U _ZN7SkPaint15setFilterBitmapEb
U _ZN7SkPaint15setSubpixelTextEb
U _ZN7SkPaint15setTextEncodingENS_12TextEncodingE
U _ZN7SkPaint21setPorterDuffXfermodeEN12SkPorterDuff4ModeE
U _ZN7SkPaint5resetEv
U _ZN7SkPaint7setARGBEjjjj
U _ZN7SkPaint8setColorEj
U _ZN7SkPaint8setFlagsEj
U _ZN7SkPaint8setStyleENS_5StyleE
U _ZN7SkPaint9setDitherEb
U _ZN7SkPaint9setLooperEP12SkDrawLooper
U _ZN7SkPaint9setShaderEP8SkShader
U _ZN7SkPaintC1ERKS_
U _ZN7SkPaintC1Ev
U _ZN7SkPaintD1Ev
U _ZN7SkPaintaSERKS_
U _ZN7android10AudioTrack4stopEv
U _ZN7android10AudioTrack5pauseEv
U _ZN7android10AudioTrack5startEv
U _ZN7android10AudioTrackC1EijiiijPFviPvS1_ES1_i
U _ZN7android10AudioTrackD1Ev
U _ZN7android12AssetManager12openNonAssetEPKcNS_5Asset10AccessModeE
U _ZN7android12AssetManager16addDefaultAssetsEv
U _ZN7android12AssetManager4openEPKcNS_5Asset10AccessModeE
U _ZN7android12AssetManagerC1ENS0_9CacheModeE
U _ZN7android21SurfaceComposerClient14getDisplayInfoEiPNS_11DisplayInfoE
U _ZN7android25assetManagerForJavaObjectEP7_JNIEnvP8_jobject
U _ZN7android5Mutex4lockEv
U _ZN7android5Mutex6unlockEv
U _ZN7android5MutexC1Ev
U _ZN7android5MutexD1Ev
U _ZN7android9EmojiFont11IsAvailableEv
U _ZN7android9EmojiFont14UnicharToGlyphEi
U _ZN7android9EmojiFont15GetAdvanceWidthEtRK7SkPaint
U _ZN7android9EmojiFont4DrawEP8SkCanvastffRK7SkPaint
U _ZN8SkBitmap11allocPixelsEPNS_9AllocatorEP12SkColorTable
U _ZN8SkBitmap11setIsOpaqueEb
U _ZN8SkBitmap11setPixelRefEP10SkPixelRefj
U _ZN8SkBitmap9setConfigENS_6ConfigEiii
U _ZN8SkBitmap9setPixelsEPvP12SkColorTable
U _ZN8SkBitmapC1ERKS_
U _ZN8SkBitmapC1Ev
U _ZN8SkBitmapD1Ev
U _ZN8SkCanvas10clipRegionERK8SkRegionNS0_2OpE
U _ZN8SkCanvas10drawBitmapERK8SkBitmapffPK7SkPaint
U _ZN8SkCanvas10drawPointsENS_9PointModeEjPK7SkPointRK7SkPaint
U _ZN8SkCanvas10drawSpriteERK8SkBitmapiiPK7SkPaint
U _ZN8SkCanvas10setBounderEP9SkBounder
U _ZN8SkCanvas11drawPictureER9SkPicture
U _ZN8SkCanvas11drawPosTextEPKvjPK7SkPointRK7SkPaint
U _ZN8SkCanvas11setViewportEii
U _ZN8SkCanvas12createDeviceEN8SkBitmap6ConfigEiibb
U _ZN8SkCanvas12drawPosTextHEPKvjPKffRK7SkPaint
U _ZN8SkCanvas12drawVerticesENS_10VertexModeEiPK7SkPointS3_PKjP10SkXfermodePKtiRK7SkPaint
U _ZN8SkCanvas13setDrawFilterEP12SkDrawFilter
U _ZN8SkCanvas14drawBitmapRectERK8SkBitmapPK7SkIRectRK6SkRectPK7SkPaint
U _ZN8SkCanvas14drawTextOnPathEPKvjRK6SkPathPK8SkMatrixRK7SkPaint
U _ZN8SkCanvas14restoreToCountEi
U _ZN8SkCanvas14saveLayerAlphaEPK6SkRectjNS_9SaveFlagsE
U _ZN8SkCanvas15setBitmapDeviceERK8SkBitmap
U _ZN8SkCanvas16commonDrawBitmapERK8SkBitmapRK8SkMatrixRK7SkPaint
U _ZN8SkCanvas16drawBitmapMatrixERK8SkBitmapRK8SkMatrixPK7SkPaint
U _ZN8SkCanvas4saveENS_9SaveFlagsE
U _ZN8SkCanvas4skewEff
U _ZN8SkCanvas5scaleEff
U _ZN8SkCanvas6concatERK8SkMatrix
U _ZN8SkCanvas6rotateEf
U _ZN8SkCanvas7restoreEv
U _ZN8SkCanvas8clipPathERK6SkPathN8SkRegion2OpE
U _ZN8SkCanvas8clipRectERK6SkRectN8SkRegion2OpE
U _ZN8SkCanvas8drawLineEffffRK7SkPaint
U _ZN8SkCanvas8drawOvalERK6SkRectRK7SkPaint
U _ZN8SkCanvas8drawPathERK6SkPathRK7SkPaint
U _ZN8SkCanvas8drawRectERK6SkRectRK7SkPaint
U _ZN8SkCanvas8drawTextEPKvjffRK7SkPaint
U _ZN8SkCanvas9drawColorEjN12SkPorterDuff4ModeE
U _ZN8SkCanvas9drawPaintERK7SkPaint
U _ZN8SkCanvas9saveLayerEPK6SkRectPK7SkPaintNS_9SaveFlagsE
U _ZN8SkCanvas9setMatrixERK8SkMatrix
U _ZN8SkCanvas9translateEff
U _ZN8SkCanvasC1EP8SkDevice
U _ZN8SkCanvasC1ERK8SkBitmap
U _ZN8SkCanvasD1Ev
U _ZN8SkDevice12accessBitmapEb
U _ZN8SkMatrix10postConcatERKS_
U _ZN8SkMatrix10postRotateEf
U _ZN8SkMatrix11gMapXYProcsE
U _ZN8SkMatrix12preTranslateEff
U _ZN8SkMatrix13postTranslateEff
U _ZN8SkMatrix5resetEv
U _ZN8SkMatrix7preSkewEff
U _ZN8SkMatrix8postSkewEff
U _ZN8SkMatrix8preScaleEff
U _ZN8SkMatrix9postScaleEff
U _ZN8SkMatrix9preConcatERKS_
U _ZN8SkMatrix9preRotateEf
U _ZN8SkMatrix9setConcatERKS_S1_
U _ZN8SkRegion2opERKS_RK7SkIRectNS_2OpE
U _ZN8SkRegion2opERKS_S1_NS_2OpE
U _ZN8SkRegion7setPathERK6SkPathRKS_
U _ZN8SkRegion7setRectERK7SkIRect
U _ZN8SkRegion7setRectEiiii
U _ZN8SkRegion8Iterator4nextEv
U _ZN8SkRegion8IteratorC1ERKS_
U _ZN8SkRegion8setEmptyEv
U _ZN8SkRegionC1ERK7SkIRect
U _ZN8SkRegionC1ERKS_
U _ZN8SkRegionC1Ev
U _ZN8SkRegionD1Ev
U _ZN8SkRegionaSERKS_
U _ZN8SkShader14setLocalMatrixERK8SkMatrix
U _ZN8SkShader18CreateBitmapShaderERK8SkBitmapNS_8TileModeES3_
U _ZN8SkShaderC1Ev
U _ZN8SkStream11getFileNameEv
U _ZN8SkString5resetEv
U _ZN8SkString6insertEjPKc
U _ZN8SkString8setUTF16EPKtj
U _ZN8SkStringC1EPKc
U _ZN8SkStringC1Ev
U _ZN8SkStringD1Ev
U _ZN8SkStringaSERKS_
U _ZN9SkBounder6commitEv
U _ZN9SkBounder7doIRectERK7SkIRect
U _ZN9SkPicture12endRecordingEv
U _ZN9SkPicture13abortPlaybackEv
U _ZN9SkPicture14beginRecordingEiij
U _ZN9SkPicture4drawEP8SkCanvas
U _ZN9SkPictureC1Ev
U _ZNK6SkPath13computeBoundsEP6SkRectNS_10BoundsTypeE
U _ZNK6SkPath6offsetEffPS_
U _ZNK6SkPath7isEmptyEv
U _ZNK6SkPath9transformERK8SkMatrixPS_
U _ZNK7SkDeque4backEv
U _ZNK7SkDeque5frontEv
U _ZNK7SkPaint11getFillPathERK6SkPathPS0_
U _ZNK7SkPaint11measureTextEPKvjP6SkRectf
U _ZNK7SkPaint12textToGlyphsEPKvjPt
U _ZNK7SkPaint13getTextWidthsEPKvjPfP6SkRect
U _ZNK7SkPaint14getFontMetricsEPNS_11FontMetricsEf
U _ZNK7android10AudioTrack7stoppedEv
U _ZNK7android10AudioTrack9initCheckEv
U _ZNK8SkBitmap10lockPixelsEv
U _ZNK8SkBitmap12unlockPixelsEv
U _ZNK8SkBitmap6copyToEPS_NS_6ConfigEPNS_9AllocatorE
U _ZNK8SkBitmap8isOpaqueEv
U _ZNK8SkBitmap9eraseARGBEjjjj
U _ZNK8SkCanvas11getViewportEP8SkIPoint
U _ZNK8SkCanvas11quickRejectERK6SkPathNS_8EdgeTypeE
U _ZNK8SkCanvas11quickRejectERK6SkRectNS_8EdgeTypeE
U _ZNK8SkCanvas12getSaveCountEv
U _ZNK8SkCanvas12getTotalClipEv
U _ZNK8SkCanvas13getClipBoundsEP6SkRectNS_8EdgeTypeE
U _ZNK8SkCanvas14getTotalMatrixEv
U _ZNK8SkCanvas9getDeviceEv
U _ZNK8SkMatrix15computeTypeMaskEv
U _ZNK8SkMatrix6invertEPS_
U _ZNK8SkMatrix7mapRectEP6SkRectRKS0_
U _ZNK8SkMatrix9mapPointsEP7SkPointPKS0_i
U _ZNK8SkRegion10intersectsERK7SkIRect
U _ZNK8SkRegion10intersectsERKS_
U _ZNK8SkRegion15getBoundaryPathEP6SkPath
U _ZNK8SkRegion8containsERK7SkIRect
U _ZNK8SkRegion8containsERKS_
U _ZNK8SkRegion9translateEiiPS_
D _ZTV10FindCanvas
V _ZTV10FirstCheck
U _ZTV10SkXfermode
V _ZTV10TextCanvas
V _ZTV11CommonCheck
V _ZTV11FindBounder
V _ZTV11SkBitmapRef
U _ZTV13SkColorShader
U _ZTV13SkFlattenable
U _ZTV14SkFormatDumper
V _ZTV16MultilineBuilder
V _ZTV17WebCoreViewBridge
U _ZTV18SkPixelXorXfermode
V _ZTV28PrivateAndroidImageSourceRec
V _ZTV8SkRefCnt
U _ZTV9SkBounder
V _ZTVN12SkDumpCanvas6DumperE
V _ZTVN3JSC10BitAndNodeE
V _ZTVN3JSC10BitXOrNodeE
D _ZTVN3JSC10IfElseNodeE
D _ZTVN3JSC10JSFunctionE
V _ZTVN3JSC10LessEqNodeE
D _ZTVN3JSC10MathObjectE
V _ZTVN3JSC10NegateNodeE
D _ZTVN3JSC10NumberNodeE
D _ZTVN3JSC10RegExpNodeE
D _ZTVN3JSC10ReturnNodeE
D _ZTVN3JSC10StringNodeE
D _ZTVN3JSC10SwitchNodeE
D _ZTVN3JSC11BooleanNodeE
D _ZTVN3JSC11DoWhileNodeE
D _ZTVN3JSC11ElementNodeE
V _ZTVN3JSC11GreaterNodeE
D _ZTVN3JSC11JSByteArrayE
D _ZTVN3JSC11NewExprNodeE
D _ZTVN3JSC11ProgramNodeE
D _ZTVN3JSC11ResolveNodeE
D _ZTVN3JSC11TreeProfileE
D _ZTVN3JSC11UnaryOpNodeE
D _ZTVN3JSC12BinaryOpNodeE
D _ZTVN3JSC12ContinueNodeE
D _ZTVN3JSC12DateInstanceE
D _ZTVN3JSC12FuncDeclNodeE
D _ZTVN3JSC12FuncExprNodeE
D _ZTVN3JSC12GetterSetterE
V _ZTVN3JSC12HeavyProfileE
D _ZTVN3JSC12JSActivationE
V _ZTVN3JSC12JSGlobalData10ClientDataE
D _ZTVN3JSC12JSNumberCellE
V _ZTVN3JSC12NotEqualNodeE
D _ZTVN3JSC12NumberObjectE
D _ZTVN3JSC12PropertyNodeE
D _ZTVN3JSC12RegExpObjectE
D _ZTVN3JSC12RuntimeArrayE
D _ZTVN3JSC12StringObjectE
D _ZTVN3JSC13ArgumentsNodeE
D _ZTVN3JSC13AssignDotNodeE
V _ZTVN3JSC13BooleanObjectE
D _ZTVN3JSC13CaseBlockNodeE
D _ZTVN3JSC13ConstDeclNodeE
D _ZTVN3JSC13DatePrototypeE
D _ZTVN3JSC13DeleteDotNodeE
V _ZTVN3JSC13ErrorInstanceE
V _ZTVN3JSC13GreaterEqNodeE
D _ZTVN3JSC13JSNotAnObjectE
V _ZTVN3JSC13LeftShiftNodeE
D _ZTVN3JSC13LogicalOpNodeE
D _ZTVN3JSC13ParameterNodeE
D _ZTVN3JSC13PrefixDotNodeE
D _ZTVN3JSC13RuntimeMethodE
V _ZTVN3JSC13StatementNodeE
V _ZTVN3JSC13UnaryPlusNodeE
D _ZTVN3JSC14ArrayPrototypeE
V _ZTVN3JSC14BitwiseNotNodeE
D _ZTVN3JSC14CaseClauseNodeE
D _ZTVN3JSC14ClauseListNodeE
V _ZTVN3JSC14ErrorPrototypeE
V _ZTVN3JSC14ExpressionNodeE
D _ZTVN3JSC14InstanceOfNodeE
V _ZTVN3JSC14JSGlobalObject18JSGlobalObjectDataE
D _ZTVN3JSC14JSGlobalObjectE
V _ZTVN3JSC14LogicalNotNodeE
D _ZTVN3JSC14PostfixDotNodeE
V _ZTVN3JSC14RightShiftNodeE
V _ZTVN3JSC14SourceElementsE
V _ZTVN3JSC14SourceProviderE
D _ZTVN3JSC15AssignErrorNodeE
D _ZTVN3JSC15ConditionalNodeE
D _ZTVN3JSC15DateConstructorE
D _ZTVN3JSC15DeleteValueNodeE
D _ZTVN3JSC15DotAccessorNodeE
D _ZTVN3JSC15JSWrapperObjectE
V _ZTVN3JSC15NumberPrototypeE
V _ZTVN3JSC15ObjectPrototypeE
D _ZTVN3JSC15PrefixErrorNodeE
V _ZTVN3JSC15RegExpPrototypeE
D _ZTVN3JSC15StrictEqualNodeE
D _ZTVN3JSC15StringPrototypeE
D _ZTVN3JSC15TypeOfValueNodeE
D _ZTVN3JSC16ArgumentListNodeE
D _ZTVN3JSC16ArrayConstructorE
V _ZTVN3JSC16BooleanPrototypeE
D _ZTVN3JSC16ErrorConstructorE
D _ZTVN3JSC16FunctionBodyNodeE
D _ZTVN3JSC16InternalFunctionE
D _ZTVN3JSC16JSVariableObjectE
D _ZTVN3JSC16ParserRefCountedE
D _ZTVN3JSC16PostfixErrorNodeE
D _ZTVN3JSC16PropertyListNodeE
D _ZTVN3JSC16RuntimeObjectImpE
V _ZTVN3JSC16VarDeclCommaNodeE
D _ZTVN3JSC16VarStatementNodeE
D _ZTVN3JSC17AssignBracketNodeE
D _ZTVN3JSC17AssignResolveNodeE
D _ZTVN3JSC17DeleteBracketNodeE
D _ZTVN3JSC17DeleteResolveNodeE
D _ZTVN3JSC17ExprStatementNodeE
D _ZTVN3JSC17FunctionPrototypeE
D _ZTVN3JSC17NumberConstructorE
D _ZTVN3JSC17ObjectConstructorE
D _ZTVN3JSC17ObjectLiteralNodeE
D _ZTVN3JSC17PrefixBracketNodeE
D _ZTVN3JSC17PrefixResolveNodeE
D _ZTVN3JSC17PrototypeFunctionE
D _ZTVN3JSC17ReadModifyDotNodeE
D _ZTVN3JSC17RegExpConstructorE
D _ZTVN3JSC17StringConstructorE
D _ZTVN3JSC17TypeOfResolveNodeE
D _ZTVN3JSC18BooleanConstructorE
D _ZTVN3JSC18ConstStatementNodeE
D _ZTVN3JSC18DebuggerActivationE
D _ZTVN3JSC18EmptyStatementNodeE
D _ZTVN3JSC18GlobalEvalFunctionE
V _ZTVN3JSC18NotStrictEqualNodeE
D _ZTVN3JSC18PostfixBracketNodeE
D _ZTVN3JSC18PostfixResolveNodeE
V _ZTVN3JSC18PrePostResolveNodeE
D _ZTVN3JSC18RegExpMatchesArrayE
D _ZTVN3JSC19BracketAccessorNodeE
D _ZTVN3JSC19FunctionCallDotNodeE
D _ZTVN3JSC19FunctionConstructorE
D _ZTVN3JSC19JSStaticScopeObjectE
D _ZTVN3JSC19ReverseBinaryOpNodeE
D _ZTVN3JSC20EvalFunctionCallNodeE
V _ZTVN3JSC20NativeErrorPrototypeE
V _ZTVN3JSC20ParserRefCountedDataIN3WTF6VectorINS1_6RefPtrINS_12FuncDeclNodeEEELj0EEEEE
V _ZTVN3JSC20ParserRefCountedDataIN3WTF6VectorISt4pairINS_10IdentifierEjELj0EEEEE
D _ZTVN3JSC21DebuggerStatementNodeE
D _ZTVN3JSC21FunctionCallValueNodeE
D _ZTVN3JSC21ReadModifyBracketNodeE
D _ZTVN3JSC21ReadModifyResolveNodeE
D _ZTVN3JSC21ThrowableBinaryOpNodeE
V _ZTVN3JSC21UStringSourceProviderE
V _ZTVN3JSC22JSNotAnObjectErrorStubE
D _ZTVN3JSC22JSPropertyNameIteratorE
D _ZTVN3JSC22NativeErrorConstructorE
V _ZTVN3JSC22UnsignedRightShiftNodeE
D _ZTVN3JSC23FunctionCallBracketNodeE
D _ZTVN3JSC23FunctionCallResolveNodeE
V _ZTVN3JSC25InterruptedExecutionErrorE
V _ZTVN3JSC38StringObjectThatMasqueradesAsUndefinedE
V _ZTVN3JSC4NodeE
D _ZTVN3JSC6IfNodeE
V _ZTVN3JSC6InNodeE
D _ZTVN3JSC6JSCellE
V _ZTVN3JSC7AddNodeE
V _ZTVN3JSC7DivNodeE
D _ZTVN3JSC7ForNodeE
D _ZTVN3JSC7JSArrayE
V _ZTVN3JSC7ModNodeE
D _ZTVN3JSC7ProfileE
V _ZTVN3JSC7SubNodeE
D _ZTVN3JSC7TryNodeE
D _ZTVN3JSC8Bindings10JavaMethodE
D _ZTVN3JSC8Bindings12JavaInstanceE
V _ZTVN3JSC8Bindings13JavaParameterE
D _ZTVN3JSC8Bindings5ArrayE
V _ZTVN3JSC8Bindings5ClassE
V _ZTVN3JSC8Bindings5FieldE
D _ZTVN3JSC8Bindings6CClassE
D _ZTVN3JSC8Bindings6CFieldE
V _ZTVN3JSC8Bindings6MethodE
V _ZTVN3JSC8Bindings7CMethodE
D _ZTVN3JSC8Bindings8InstanceE
D _ZTVN3JSC8Bindings9CInstanceE
D _ZTVN3JSC8Bindings9JavaArrayE
D _ZTVN3JSC8Bindings9JavaClassE
D _ZTVN3JSC8Bindings9JavaFieldE
D _ZTVN3JSC8DebuggerE
D _ZTVN3JSC8EvalNodeE
D _ZTVN3JSC8JSObjectE
D _ZTVN3JSC8JSStringE
V _ZTVN3JSC8LessNodeE
V _ZTVN3JSC8MultNodeE
D _ZTVN3JSC8NullNodeE
D _ZTVN3JSC8ThisNodeE
D _ZTVN3JSC8VoidNodeE
D _ZTVN3JSC8WithNodeE
D _ZTVN3JSC9ArgumentsE
D _ZTVN3JSC9ArrayNodeE
V _ZTVN3JSC9BitOrNodeE
D _ZTVN3JSC9BlockNodeE
D _ZTVN3JSC9BreakNodeE
D _ZTVN3JSC9CommaNodeE
D _ZTVN3JSC9EqualNodeE
D _ZTVN3JSC9ForInNodeE
D _ZTVN3JSC9LabelNodeE
D _ZTVN3JSC9ScopeNodeE
D _ZTVN3JSC9ThrowNodeE
D _ZTVN3JSC9WhileNodeE
D _ZTVN7WebCore10CachedFontE
V _ZTVN7WebCore10DragClientE
D _ZTVN7WebCore10HTMLParserE
V _ZTVN7WebCore10HostWindowE
D _ZTVN7WebCore10IconLoaderE
D _ZTVN7WebCore10JSCSSValueE
D _ZTVN7WebCore10JSDocumentE
D _ZTVN7WebCore10JSFileListE
D _ZTVN7WebCore10JSLocationE
D _ZTVN7WebCore10JSMimeTypeE
D _ZTVN7WebCore10JSNodeListE
D _ZTVN7WebCore10JSNotationE
D _ZTVN7WebCore10JSRGBColorE
D _ZTVN7WebCore10MouseEventE
D _ZTVN7WebCore10PluginViewE
D _ZTVN7WebCore10RenderFlowE
D _ZTVN7WebCore10RenderPartE
D _ZTVN7WebCore10RenderTextE
D _ZTVN7WebCore10RenderViewE
D _ZTVN7WebCore10ScrollViewE
V _ZTVN7WebCore10StyleImageE
D _ZTVN7WebCore10StyleSheetE
V _ZTVN7WebCore10SyncLoaderE
V _ZTVN7WebCore10TouchEventE
V _ZTVN7WebCore10TreeSharedINS_4NodeEEE
D _ZTVN7WebCore10WheelEventE
D _ZTVN7WebCore11BitmapImageE
D _ZTVN7WebCore11CSSPageRuleE
D _ZTVN7WebCore11CachedImageE
D _ZTVN7WebCore11EditCommandE
D _ZTVN7WebCore11EditingTextE
D _ZTVN7WebCore11EllipsisBoxE
D _ZTVN7WebCore11EventTargetE
D _ZTVN7WebCore11FrameLoaderE
D _ZTVN7WebCore11GeolocationE
D _ZTVN7WebCore11HTMLElementE
D _ZTVN7WebCore11IconFetcherE
D _ZTVN7WebCore11ImageLoaderE
D _ZTVN7WebCore11JSClipboardE
D _ZTVN7WebCore11JSDOMParserE
D _ZTVN7WebCore11JSDOMWindowE
D _ZTVN7WebCore11JSImageDataE
D _ZTVN7WebCore11JSMediaListE
D _ZTVN7WebCore11JSNavigatorE
D _ZTVN7WebCore11JSTextEventE
D _ZTVN7WebCore11JSTouchListE
D _ZTVN7WebCore11MessagePortE
D _ZTVN7WebCore11PluginTimerE
D _ZTVN7WebCore11RenderBlockE
D _ZTVN7WebCore11RenderFrameE
D _ZTVN7WebCore11RenderImageE
D _ZTVN7WebCore11RenderLayerE
D _ZTVN7WebCore11RenderTableE
D _ZTVN7WebCore11RenderThemeE
D _ZTVN7WebCore11ShadowValueE
V _ZTVN7WebCore11TableLayoutE
D _ZTVN7WebCore11TagNodeListE
D _ZTVN7WebCore12CDATASectionE
D _ZTVN7WebCore12CSSMediaRuleE
D _ZTVN7WebCore12CSSStyleRuleE
D _ZTVN7WebCore12CSSValueListE
D _ZTVN7WebCore12CachedScriptE
D _ZTVN7WebCore12ChromeClientE
D _ZTVN7WebCore12DeleteButtonE
D _ZTVN7WebCore12DocumentTypeE
V _ZTVN7WebCore12EditorClientE
V _ZTVN7WebCore12FontSelectorE
D _ZTVN7WebCore12HTMLDocumentE
V _ZTVN7WebCore12ImageDecoderE
V _ZTVN7WebCore12InlineRunBoxE
V _ZTVN7WebCore12InputElementE
D _ZTVN7WebCore12JSMouseEventE
D _ZTVN7WebCore12JSNodeFilterE
D _ZTVN7WebCore12JSStyleSheetE
D _ZTVN7WebCore12JSTimeRangesE
D _ZTVN7WebCore12JSTouchEventE
D _ZTVN7WebCore12JSTreeWalkerE
D _ZTVN7WebCore12JSWheelEventE
D _ZTVN7WebCore12MessageEventE
D _ZTVN7WebCore12NameNodeListE
D _ZTVN7WebCore12NamedAttrMapE
V _ZTVN7WebCore12NamedNodeMapE
D _ZTVN7WebCore12PluginStreamE
D _ZTVN7WebCore12RenderAppletE
D _ZTVN7WebCore12RenderButtonE
D _ZTVN7WebCore12RenderInlineE
V _ZTVN7WebCore12RenderLegendE
D _ZTVN7WebCore12RenderObjectE
D _ZTVN7WebCore12RenderSliderE
D _ZTVN7WebCore12RenderWidgetE
V _ZTVN7WebCore12StyleElementE
D _ZTVN7WebCore12TextCodecICUE
D _ZTVN7WebCore12TextDocumentE
V _ZTVN7WebCore12VoidCallbackE
D _ZTVN7WebCore12XMLTokenizerE
D _ZTVN7WebCore13AnimationBaseE
D _ZTVN7WebCore13CSSImageValueE
D _ZTVN7WebCore13CSSImportRuleE
D _ZTVN7WebCore13CSSStyleSheetE
D _ZTVN7WebCore13CharacterDataE
D _ZTVN7WebCore13ChildNodeListE
D _ZTVN7WebCore13ClassNodeListE
D _ZTVN7WebCore13ContainerNodeE
D _ZTVN7WebCore13DOMStringListE
V _ZTVN7WebCore13EventListenerE
D _ZTVN7WebCore13HTMLBRElementE
D _ZTVN7WebCore13HTMLHRElementE
D _ZTVN7WebCore13HTMLLIElementE
D _ZTVN7WebCore13HTMLTokenizerE
D _ZTVN7WebCore13ImageDocumentE
V _ZTVN7WebCore13ImageObserverE
D _ZTVN7WebCore13InlineFlowBoxE
D _ZTVN7WebCore13InlineTextBoxE
D _ZTVN7WebCore13JSCSSPageRuleE
D _ZTVN7WebCore13JSCSSRuleListE
D _ZTVN7WebCore13JSGeolocationE
D _ZTVN7WebCore13JSGeopositionE
D _ZTVN7WebCore13JSHTMLElementE
D _ZTVN7WebCore13JSMessagePortE
D _ZTVN7WebCore13JSPluginArrayE
D _ZTVN7WebCore13JSTextMetricsE
D _ZTVN7WebCore13KeyboardEventE
D _ZTVN7WebCore13ListMarkerBoxE
D _ZTVN7WebCore13MutationEventE
D _ZTVN7WebCore13NavigatorBaseE
V _ZTVN7WebCore13OptionElementE
D _ZTVN7WebCore13OverflowEventE
V _ZTVN7WebCore13ProgressEventE
D _ZTVN7WebCore13RenderCounterE
D _ZTVN7WebCore13RenderListBoxE
D _ZTVN7WebCore13RenderReplicaE
D _ZTVN7WebCore13RootInlineBoxE
V _ZTVN7WebCore13ScriptElementE
D _ZTVN7WebCore13StyledElementE
D _ZTVN7WebCore13TextTokenizerE
D _ZTVN7WebCore13TypingCommandE
D _ZTVN7WebCore13UnlinkCommandE
D _ZTVN7WebCore14CSSCanvasValueE
D _ZTVN7WebCore14CSSCharsetRuleE
D _ZTVN7WebCore14CachedResourceE
V _ZTVN7WebCore14CanvasObserverE
D _ZTVN7WebCore14ClipboardEventE
D _ZTVN7WebCore14DocumentLoaderE
D _ZTVN7WebCore14GeneratedImageE
D _ZTVN7WebCore14HTMLCollectionE
D _ZTVN7WebCore14HTMLDivElementE
D _ZTVN7WebCore14HTMLMapElementE
V _ZTVN7WebCore14HTMLModElementE
D _ZTVN7WebCore14HTMLPreElementE
D _ZTVN7WebCore14ImageTokenizerE
D _ZTVN7WebCore14JSCDATASectionE
D _ZTVN7WebCore14JSCSSMediaRuleE
D _ZTVN7WebCore14JSCSSStyleRuleE
D _ZTVN7WebCore14JSCSSValueListE
D _ZTVN7WebCore14JSDOMSelectionE
D _ZTVN7WebCore14JSDocumentTypeE
D _ZTVN7WebCore14JSHTMLDocumentE
D _ZTVN7WebCore14JSMessageEventE
D _ZTVN7WebCore14JSNamedNodeMapE
D _ZTVN7WebCore14JSNodeIteratorE
D _ZTVN7WebCore14JSVoidCallbackE
D _ZTVN7WebCore14PluginDocumentE
D _ZTVN7WebCore14RenderFieldsetE
D _ZTVN7WebCore14RenderFrameSetE
D _ZTVN7WebCore14RenderListItemE
D _ZTVN7WebCore14RenderMenuListE
D _ZTVN7WebCore14RenderReplacedE
D _ZTVN7WebCore14RenderTableColE
D _ZTVN7WebCore14RenderTableRowE
D _ZTVN7WebCore14ResourceLoaderE
V _ZTVN7WebCore14ScrollbarThemeE
D _ZTVN7WebCore14SimpleFontDataE
D _ZTVN7WebCore14StaticNodeListE
D _ZTVN7WebCore14TextCodecUTF16E
D _ZTVN7WebCore14XMLHttpRequestE
D _ZTVN7WebCore15ActiveDOMObjectE
D _ZTVN7WebCore15AutoTableLayoutE
D _ZTVN7WebCore15CSSFontFaceRuleE
D _ZTVN7WebCore15CSSFontSelectorE
D _ZTVN7WebCore15CSSInitialValueE
D _ZTVN7WebCore15CSSReflectValueE
D _ZTVN7WebCore15DynamicNodeListE
D _ZTVN7WebCore15EntityReferenceE
D _ZTVN7WebCore15EventTargetNodeE
D _ZTVN7WebCore15FontFamilyValueE
D _ZTVN7WebCore15GIFImageDecoderE
D _ZTVN7WebCore15HTMLAreaElementE
D _ZTVN7WebCore15HTMLBaseElementE
D _ZTVN7WebCore15HTMLBodyElementE
D _ZTVN7WebCore15HTMLFontElementE
D _ZTVN7WebCore15HTMLFormElementE
D _ZTVN7WebCore15HTMLHeadElementE
D _ZTVN7WebCore15HTMLHtmlElementE
D _ZTVN7WebCore15HTMLImageLoaderE
D _ZTVN7WebCore15HTMLLinkElementE
V _ZTVN7WebCore15HTMLMenuElementE
D _ZTVN7WebCore15HTMLMetaElementE
V _ZTVN7WebCore15InspectorClientE
V _ZTVN7WebCore15JSAttrPrototypeE
D _ZTVN7WebCore15JSCSSImportRuleE
D _ZTVN7WebCore15JSCSSStyleSheetE
D _ZTVN7WebCore15JSCanvasPatternE
D _ZTVN7WebCore15JSCharacterDataE
D _ZTVN7WebCore15JSDOMStringListE
V _ZTVN7WebCore15JSDOMWindowBase19JSDOMWindowBaseDataE
D _ZTVN7WebCore15JSDOMWindowBaseE
D _ZTVN7WebCore15JSEventListenerE
V _ZTVN7WebCore15JSFilePrototypeE
D _ZTVN7WebCore15JSHTMLBRElementE
D _ZTVN7WebCore15JSHTMLHRElementE
D _ZTVN7WebCore15JSHTMLLIElementE
D _ZTVN7WebCore15JSKeyboardEventE
D _ZTVN7WebCore15JSMimeTypeArrayE
D _ZTVN7WebCore15JSMutationEventE
D _ZTVN7WebCore15JSNodePrototypeE
D _ZTVN7WebCore15JSOverflowEventE
D _ZTVN7WebCore15JSPositionErrorE
D _ZTVN7WebCore15JSProgressEventE
V _ZTVN7WebCore15JSRectPrototypeE
D _ZTVN7WebCore15JSTextPrototypeE
D _ZTVN7WebCore15JSXMLSerializerE
D _ZTVN7WebCore15MappedAttributeE
D _ZTVN7WebCore15PluginTokenizerE
V _ZTVN7WebCore15PopupMenuClientE
V _ZTVN7WebCore15PropertyWrapperINS_11EVisibilityEEE
V _ZTVN7WebCore15PropertyWrapperINS_6LengthEEE
V _ZTVN7WebCore15PropertyWrapperIRKNS_19TransformOperationsEEE
V _ZTVN7WebCore15PropertyWrapperIRKNS_5ColorEEE
V _ZTVN7WebCore15PropertyWrapperIRKNS_7IntSizeEEE
V _ZTVN7WebCore15PropertyWrapperIfEE
V _ZTVN7WebCore15PropertyWrapperIiEE
V _ZTVN7WebCore15PropertyWrapperIsEE
V _ZTVN7WebCore15PropertyWrapperItEE
D _ZTVN7WebCore15RenderContainerE
D _ZTVN7WebCore15RenderScrollbarE
V _ZTVN7WebCore15RenderSkinComboE
D _ZTVN7WebCore15RenderTableCellE
D _ZTVN7WebCore15RenderWordBreakE
V _ZTVN7WebCore15ScrollbarClientE
D _ZTVN7WebCore15TextCodecLatin1E
D _ZTVN7WebCore15WebKitCSSMatrixE
D _ZTVN7WebCore16CSSFunctionValueE
D _ZTVN7WebCore16CSSGradientValueE
D _ZTVN7WebCore16CSSVariablesRuleE
D _ZTVN7WebCore16ClipboardAndroidE
D _ZTVN7WebCore16DocumentFragmentE
D _ZTVN7WebCore16FixedTableLayoutE
V _ZTVN7WebCore16HTMLDListElementE
D _ZTVN7WebCore16HTMLEmbedElementE
D _ZTVN7WebCore16HTMLFrameElementE
D _ZTVN7WebCore16HTMLImageElementE
D _ZTVN7WebCore16HTMLInputElementE
D _ZTVN7WebCore16HTMLLabelElementE
D _ZTVN7WebCore16HTMLOListElementE
D _ZTVN7WebCore16HTMLParamElementE
V _ZTVN7WebCore16HTMLQuoteElementE
D _ZTVN7WebCore16HTMLStyleElementE
D _ZTVN7WebCore16HTMLTableElementE
D _ZTVN7WebCore16HTMLTitleElementE
D _ZTVN7WebCore16HTMLUListElementE
D _ZTVN7WebCore16JSCSSCharsetRuleE
V _ZTVN7WebCore16JSCSSUnknownRuleE
D _ZTVN7WebCore16JSCanvasGradientE
D _ZTVN7WebCore16JSDOMWindowShellE
D _ZTVN7WebCore16JSEventExceptionE
D _ZTVN7WebCore16JSEventPrototypeE
D _ZTVN7WebCore16JSHTMLCollectionE
D _ZTVN7WebCore16JSHTMLDivElementE
D _ZTVN7WebCore16JSHTMLMapElementE
D _ZTVN7WebCore16JSHTMLModElementE
D _ZTVN7WebCore16JSHTMLPreElementE
D _ZTVN7WebCore16JSMessageChannelE
D _ZTVN7WebCore16JSRangeExceptionE
D _ZTVN7WebCore16JSRangePrototypeE
D _ZTVN7WebCore16JSStyleSheetListE
V _ZTVN7WebCore16JSTouchPrototypeE
D _ZTVN7WebCore16JSXMLHttpRequestE
V _ZTVN7WebCore16PendingCallbacks15PendingCallbackE
V _ZTVN7WebCore16PendingCallbacks20PendingErrorCallbackE
V _ZTVN7WebCore16PendingCallbacks22PendingCommentCallbackE
V _ZTVN7WebCore16PendingCallbacks25PendingCDATABlockCallbackE
V _ZTVN7WebCore16PendingCallbacks25PendingCharactersCallbackE
V _ZTVN7WebCore16PendingCallbacks27PendingEndElementNSCallbackE
V _ZTVN7WebCore16PendingCallbacks29PendingInternalSubsetCallbackE
V _ZTVN7WebCore16PendingCallbacks29PendingStartElementNSCallbackE
V _ZTVN7WebCore16PendingCallbacks36PendingProcessingInstructionCallbackE
V _ZTVN7WebCore16PositionCallbackE
V _ZTVN7WebCore16PostMessageTimerE
D _ZTVN7WebCore16RenderHTMLCanvasE
D _ZTVN7WebCore16RenderListMarkerE
D _ZTVN7WebCore16RenderPartObjectE
D _ZTVN7WebCore16StaticStringListE
D _ZTVN7WebCore16StyleCachedImageE
V _ZTVN7WebCore16ThreadableLoaderE
D _ZTVN7WebCore17AppendNodeCommandE
D _ZTVN7WebCore17ApplyStyleCommandE
D _ZTVN7WebCore17BeforeUnloadEventE
D _ZTVN7WebCore17CSSFontFaceSourceE
D _ZTVN7WebCore17CSSInheritedValueE
D _ZTVN7WebCore17CSSPrimitiveValueE
V _ZTVN7WebCore17ContextMenuClientE
D _ZTVN7WebCore17CreateLinkCommandE
D _ZTVN7WebCore17FileChooserClientE
D _ZTVN7WebCore17FrameLoaderClientE
D _ZTVN7WebCore17HTMLAnchorElementE
D _ZTVN7WebCore17HTMLAppletElementE
D _ZTVN7WebCore17HTMLButtonElementE
D _ZTVN7WebCore17HTMLCanvasElementE
D _ZTVN7WebCore17HTMLIFrameElementE
D _ZTVN7WebCore17HTMLKeygenElementE
D _ZTVN7WebCore17HTMLLegendElementE
D _ZTVN7WebCore17HTMLObjectElementE
D _ZTVN7WebCore17HTMLOptionElementE
D _ZTVN7WebCore17HTMLPlugInElementE
D _ZTVN7WebCore17HTMLScriptElementE
D _ZTVN7WebCore17HTMLSelectElementE
D _ZTVN7WebCore17ImplicitAnimationE
D _ZTVN7WebCore17InsertListCommandE
D _ZTVN7WebCore17InsertTextCommandE
D _ZTVN7WebCore17JSAttrConstructorE
D _ZTVN7WebCore17JSCSSFontFaceRuleE
V _ZTVN7WebCore17JSDOMGlobalObject21JSDOMGlobalObjectDataE
D _ZTVN7WebCore17JSDOMGlobalObjectE
V _ZTVN7WebCore17JSEntityPrototypeE
D _ZTVN7WebCore17JSEntityReferenceE
D _ZTVN7WebCore17JSEventTargetNodeE
D _ZTVN7WebCore17JSFileConstructorE
D _ZTVN7WebCore17JSHTMLAreaElementE
D _ZTVN7WebCore17JSHTMLBaseElementE
D _ZTVN7WebCore17JSHTMLBodyElementE
D _ZTVN7WebCore17JSHTMLFontElementE
D _ZTVN7WebCore17JSHTMLFormElementE
D _ZTVN7WebCore17JSHTMLHeadElementE
D _ZTVN7WebCore17JSHTMLHtmlElementE
D _ZTVN7WebCore17JSHTMLLinkElementE
D _ZTVN7WebCore17JSHTMLMenuElementE
D _ZTVN7WebCore17JSHTMLMetaElementE
D _ZTVN7WebCore17JSNodeConstructorE
D _ZTVN7WebCore17JSPluginPrototypeE
D _ZTVN7WebCore17JSRectConstructorE
V _ZTVN7WebCore17JSScreenPrototypeE
D _ZTVN7WebCore17JSTextConstructorE
D _ZTVN7WebCore17JSWebKitCSSMatrixE
D _ZTVN7WebCore17KeyframeAnimationE
D _ZTVN7WebCore17MouseRelatedEventE
D _ZTVN7WebCore17RemoveNodeCommandE
D _ZTVN7WebCore17RenderFlexibleBoxE
V _ZTVN7WebCore17RenderSkinAndroidE
D _ZTVN7WebCore17RenderTextControlE
D _ZTVN7WebCore17ScriptElementDataE
D _ZTVN7WebCore17SegmentedFontDataE
V _ZTVN7WebCore17SimpleEditCommandE
D _ZTVN7WebCore17SubresourceLoaderE
V _ZTVN7WebCore18FormControlElementE
D _ZTVN7WebCore18FormatBlockCommandE
V _ZTVN7WebCore18GeolocationServiceE
D _ZTVN7WebCore18HTMLFormCollectionE
D _ZTVN7WebCore18HTMLHeadingElementE
D _ZTVN7WebCore18HTMLIsIndexElementE
D _ZTVN7WebCore18HTMLMarqueeElementE
D _ZTVN7WebCore18HTMLNameCollectionE
V _ZTVN7WebCore18IconDatabaseClientE
D _ZTVN7WebCore18ImageEventListenerE
V _ZTVN7WebCore18JSBarInfoPrototypeE
D _ZTVN7WebCore18JSCSSRulePrototypeE
D _ZTVN7WebCore18JSCSSVariablesRuleE
V _ZTVN7WebCore18JSCommentPrototypeE
D _ZTVN7WebCore18JSConsolePrototypeE
V _ZTVN7WebCore18JSCounterPrototypeE
D _ZTVN7WebCore18JSDOMCoreExceptionE
D _ZTVN7WebCore18JSDocumentFragmentE
D _ZTVN7WebCore18JSElementPrototypeE
D _ZTVN7WebCore18JSEventConstructorE
D _ZTVN7WebCore18JSHTMLDListElementE
D _ZTVN7WebCore18JSHTMLEmbedElementE
D _ZTVN7WebCore18JSHTMLFrameElementE
D _ZTVN7WebCore18JSHTMLImageElementE
D _ZTVN7WebCore18JSHTMLInputElementE
D _ZTVN7WebCore18JSHTMLLabelElementE
D _ZTVN7WebCore18JSHTMLOListElementE
D _ZTVN7WebCore18JSHTMLParamElementE
D _ZTVN7WebCore18JSHTMLQuoteElementE
D _ZTVN7WebCore18JSHTMLStyleElementE
D _ZTVN7WebCore18JSHTMLTableElementE
D _ZTVN7WebCore18JSHTMLTitleElementE
D _ZTVN7WebCore18JSHTMLUListElementE
D _ZTVN7WebCore18JSHistoryPrototypeE
D _ZTVN7WebCore18JSImageConstructorE
D _ZTVN7WebCore18JSRangeConstructorE
D _ZTVN7WebCore18JSTouchConstructorE
D _ZTVN7WebCore18JSUIEventPrototypeE
D _ZTVN7WebCore18MainResourceLoaderE
D _ZTVN7WebCore18NamedMappedAttrMapE
V _ZTVN7WebCore18OptionGroupElementE
V _ZTVN7WebCore18PluginManualLoaderE
V _ZTVN7WebCore18PluginStreamClientE
D _ZTVN7WebCore18RenderTableSectionE
D _ZTVN7WebCore18RenderTextFragmentE
D _ZTVN7WebCore18RenderThemeAndroidE
D _ZTVN7WebCore18SharedBufferStreamE
V _ZTVN7WebCore18StrokeStyleApplierE
V _ZTVN7WebCore18TransformOperationE
D _ZTVN7WebCore19CSSBorderImageValueE
D _ZTVN7WebCore19CSSCursorImageValueE
D _ZTVN7WebCore19CSSFontFaceSrcValueE
V _ZTVN7WebCore19CSSStyleDeclarationE
D _ZTVN7WebCore19CachedCSSStyleSheetE
V _ZTVN7WebCore19HTMLBaseFontElementE
D _ZTVN7WebCore19HTMLFieldSetElementE
D _ZTVN7WebCore19HTMLFrameSetElementE
D _ZTVN7WebCore19HTMLOptGroupElementE
D _ZTVN7WebCore19HTMLTableColElementE
D _ZTVN7WebCore19HTMLTableRowElementE
D _ZTVN7WebCore19HTMLTextAreaElementE
D _ZTVN7WebCore19InspectorControllerE
D _ZTVN7WebCore19JSCSSPrimitiveValueE
D _ZTVN7WebCore19JSCSSValuePrototypeE
D _ZTVN7WebCore19JSDOMImplementationE
D _ZTVN7WebCore19JSDocumentPrototypeE
D _ZTVN7WebCore19JSEntityConstructorE
D _ZTVN7WebCore19JSFileListPrototypeE
V _ZTVN7WebCore19JSHTMLAllCollectionE
D _ZTVN7WebCore19JSHTMLAnchorElementE
D _ZTVN7WebCore19JSHTMLAppletElementE
D _ZTVN7WebCore19JSHTMLButtonElementE
D _ZTVN7WebCore19JSHTMLCanvasElementE
D _ZTVN7WebCore19JSHTMLIFrameElementE
D _ZTVN7WebCore19JSHTMLLegendElementE
D _ZTVN7WebCore19JSHTMLObjectElementE
D _ZTVN7WebCore19JSHTMLOptionElementE
D _ZTVN7WebCore19JSHTMLScriptElementE
D _ZTVN7WebCore19JSHTMLSelectElementE
D _ZTVN7WebCore19JSLazyEventListenerE
D _ZTVN7WebCore19JSLocationPrototypeE
V _ZTVN7WebCore19JSMimeTypePrototypeE
D _ZTVN7WebCore19JSNodeListPrototypeE
V _ZTVN7WebCore19JSNotationPrototypeE
D _ZTVN7WebCore19JSOptionConstructorE
D _ZTVN7WebCore19JSPluginConstructorE
V _ZTVN7WebCore19NodeFilterConditionE
V _ZTVN7WebCore19PropertyWrapperBaseE
D _ZTVN7WebCore19RemoveFormatCommandE
D _ZTVN7WebCore19RenderScrollbarPartE
D _ZTVN7WebCore19SplitElementCommandE
D _ZTVN7WebCore19StyleGeneratedImageE
V _ZTVN7WebCore19UIEventWithKeyStateE
V _ZTVN7WebCore19WebCoreJSClientDataE
D _ZTVN7WebCore20CSSUnicodeRangeValueE
V _ZTVN7WebCore20CachedResourceClientE
D _ZTVN7WebCore20CompositeEditCommandE
V _ZTVN7WebCore20HTMLDirectoryElementE
D _ZTVN7WebCore20HTMLFrameElementBaseE
D _ZTVN7WebCore20HTMLParagraphElementE
D _ZTVN7WebCore20HTMLTableCellElementE
D _ZTVN7WebCore20HTMLTablePartElementE
D _ZTVN7WebCore20ImageDocumentElementE
D _ZTVN7WebCore20IndentOutdentCommandE
D _ZTVN7WebCore20JSCSSRuleConstructorE
D _ZTVN7WebCore20JSClipboardPrototypeE
D _ZTVN7WebCore20JSCommentConstructorE
D _ZTVN7WebCore20JSCounterConstructorE
D _ZTVN7WebCore20JSCustomVoidCallbackE
D _ZTVN7WebCore20JSDOMParserPrototypeE
D _ZTVN7WebCore20JSDOMWindowPrototypeE
D _ZTVN7WebCore20JSElementConstructorE
D _ZTVN7WebCore20JSHTMLHeadingElementE
D _ZTVN7WebCore20JSHTMLIsIndexElementE
D _ZTVN7WebCore20JSHTMLMarqueeElementE
V _ZTVN7WebCore20JSImageDataPrototypeE
D _ZTVN7WebCore20JSMediaListPrototypeE
D _ZTVN7WebCore20JSNavigatorPrototypeE
D _ZTVN7WebCore20JSTextEventPrototypeE
D _ZTVN7WebCore20JSTouchListPrototypeE
D _ZTVN7WebCore20JSUIEventConstructorE
D _ZTVN7WebCore20JoinTextNodesCommandE
D _ZTVN7WebCore20MoveSelectionCommandE
D _ZTVN7WebCore20RenderScrollbarThemeE
V _ZTVN7WebCore20ResourceHandleClientE
D _ZTVN7WebCore20SplitTextNodeCommandE
V _ZTVN7WebCore20StringSourceProviderE
D _ZTVN7WebCore20TextCodecUserDefinedE
D _ZTVN7WebCore20WebKitAnimationEventE
D _ZTVN7WebCore20XMLHttpRequestUploadE
D _ZTVN7WebCore21HTMLBlockquoteElementE
D _ZTVN7WebCore21HTMLFrameOwnerElementE
V _ZTVN7WebCore21HTMLOptionsCollectionE
D _ZTVN7WebCore21JSCSSStyleDeclarationE
D _ZTVN7WebCore21JSCSSValueConstructorE
D _ZTVN7WebCore21JSDocumentConstructorE
D _ZTVN7WebCore21JSFileListConstructorE
D _ZTVN7WebCore21JSHTMLBaseFontElementE
D _ZTVN7WebCore21JSHTMLFieldSetElementE
D _ZTVN7WebCore21JSHTMLFrameSetElementE
D _ZTVN7WebCore21JSHTMLOptGroupElementE
D _ZTVN7WebCore21JSHTMLTableColElementE
D _ZTVN7WebCore21JSHTMLTableRowElementE
D _ZTVN7WebCore21JSHTMLTextAreaElementE
D _ZTVN7WebCore21JSJavaScriptCallFrameE
D _ZTVN7WebCore21JSMimeTypeConstructorE
D _ZTVN7WebCore21JSMouseEventPrototypeE
D _ZTVN7WebCore21JSNodeFilterConditionE
D _ZTVN7WebCore21JSNodeFilterPrototypeE
D _ZTVN7WebCore21JSNodeListConstructorE
D _ZTVN7WebCore21JSNotationConstructorE
V _ZTVN7WebCore21JSStyleSheetPrototypeE
D _ZTVN7WebCore21JSTimeRangesPrototypeE
D _ZTVN7WebCore21JSTouchEventPrototypeE
D _ZTVN7WebCore21JSTreeWalkerPrototypeE
V _ZTVN7WebCore21JSWheelEventPrototypeE
D _ZTVN7WebCore21JavaScriptDebugServerE
V _ZTVN7WebCore21PositionErrorCallbackE
D _ZTVN7WebCore21ProcessingInstructionE
V _ZTVN7WebCore21PropertyWrapperGetterINS_11EVisibilityEEE
V _ZTVN7WebCore21PropertyWrapperGetterINS_6LengthEEE
V _ZTVN7WebCore21PropertyWrapperGetterIPNS_10ShadowDataEEE
V _ZTVN7WebCore21PropertyWrapperGetterIRKNS_19TransformOperationsEEE
V _ZTVN7WebCore21PropertyWrapperGetterIRKNS_5ColorEEE
V _ZTVN7WebCore21PropertyWrapperGetterIRKNS_7IntSizeEEE
V _ZTVN7WebCore21PropertyWrapperGetterIfEE
V _ZTVN7WebCore21PropertyWrapperGetterIiEE
V _ZTVN7WebCore21PropertyWrapperGetterIsEE
V _ZTVN7WebCore21PropertyWrapperGetterItEE
V _ZTVN7WebCore21PropertyWrapperShadowE
D _ZTVN7WebCore21WebKitCSSKeyframeRuleE
D _ZTVN7WebCore21WebKitTransitionEventE
D _ZTVN7WebCore22BitmapAllocatorAndroidE
D _ZTVN7WebCore22BreakBlockquoteCommandE
D _ZTVN7WebCore22CSSImageGeneratorValueE
V _ZTVN7WebCore22CSSQuirkPrimitiveValueE
D _ZTVN7WebCore22CSSTimingFunctionValueE
D _ZTVN7WebCore22DeleteSelectionCommandE
D _ZTVN7WebCore22HTMLFormControlElementE
D _ZTVN7WebCore22HTMLPlugInImageElementE
D _ZTVN7WebCore22HTMLSliderThumbElementE
D _ZTVN7WebCore22HTMLViewSourceDocumentE
D _ZTVN7WebCore22InsertLineBreakCommandE
V _ZTVN7WebCore22JSCSSPageRulePrototypeE
D _ZTVN7WebCore22JSCSSRuleListPrototypeE
D _ZTVN7WebCore22JSClipboardConstructorE
D _ZTVN7WebCore22JSDOMParserConstructorE
D _ZTVN7WebCore22JSGeolocationPrototypeE
D _ZTVN7WebCore22JSGeopositionPrototypeE
D _ZTVN7WebCore22JSHTMLDirectoryElementE
D _ZTVN7WebCore22JSHTMLElementPrototypeE
D _ZTVN7WebCore22JSHTMLParagraphElementE
D _ZTVN7WebCore22JSHTMLTableCellElementE
D _ZTVN7WebCore22JSImageDataConstructorE
D _ZTVN7WebCore22JSMediaListConstructorE
D _ZTVN7WebCore22JSMessagePortPrototypeE
D _ZTVN7WebCore22JSNamedNodesCollectionE
D _ZTVN7WebCore22JSPluginArrayPrototypeE
D _ZTVN7WebCore22JSTextEventConstructorE
V _ZTVN7WebCore22JSTextMetricsPrototypeE
D _ZTVN7WebCore22JSTouchListConstructorE
D _ZTVN7WebCore22JSWebKitAnimationEventE
D _ZTVN7WebCore22JSXMLHttpRequestUploadE
D _ZTVN7WebCore22ScriptExecutionContext4TaskE
D _ZTVN7WebCore22ScriptExecutionContextE
D _ZTVN7WebCore22SkewTransformOperationE
V _ZTVN7WebCore22ThreadableLoaderClientE
D _ZTVN7WebCore22WebKitCSSKeyframesRuleE
V _ZTVN7WebCore23BeforeTextInsertedEventE
D _ZTVN7WebCore23CSSVariablesDeclarationE
D _ZTVN7WebCore23HTMLTableCaptionElementE
D _ZTVN7WebCore23HTMLTableRowsCollectionE
D _ZTVN7WebCore23HTMLTableSectionElementE
D _ZTVN7WebCore23InsertNodeBeforeCommandE
D _ZTVN7WebCore23JSAbstractEventListenerE
V _ZTVN7WebCore23JSCDATASectionPrototypeE
D _ZTVN7WebCore23JSCSSMediaRulePrototypeE
V _ZTVN7WebCore23JSCSSStyleRulePrototypeE
D _ZTVN7WebCore23JSCSSValueListPrototypeE
D _ZTVN7WebCore23JSDOMSelectionPrototypeE
V _ZTVN7WebCore23JSDocumentTypePrototypeE
D _ZTVN7WebCore23JSHTMLBlockquoteElementE
D _ZTVN7WebCore23JSHTMLDocumentPrototypeE
D _ZTVN7WebCore23JSHTMLOptionsCollectionE
D _ZTVN7WebCore23JSMessageEventPrototypeE
D _ZTVN7WebCore23JSMouseEventConstructorE
D _ZTVN7WebCore23JSNamedNodeMapPrototypeE
D _ZTVN7WebCore23JSNodeFilterConstructorE
D _ZTVN7WebCore23JSNodeIteratorPrototypeE
D _ZTVN7WebCore23JSPositionErrorCallbackE
D _ZTVN7WebCore23JSProcessingInstructionE
D _ZTVN7WebCore23JSStyleSheetConstructorE
D _ZTVN7WebCore23JSTouchEventConstructorE
D _ZTVN7WebCore23JSTreeWalkerConstructorE
D _ZTVN7WebCore23JSVoidCallbackPrototypeE
D _ZTVN7WebCore23JSWebKitCSSKeyframeRuleE
D _ZTVN7WebCore23JSWebKitTransitionEventE
D _ZTVN7WebCore23JSWheelEventConstructorE
V _ZTVN7WebCore23JavaScriptDebugListenerE
D _ZTVN7WebCore23PluginViewBridgeAndroidE
V _ZTVN7WebCore23ProcessMessagesSoonTaskE
D _ZTVN7WebCore23RenderFileUploadControlE
D _ZTVN7WebCore23ReplaceSelectionCommandE
D _ZTVN7WebCore23ScaleTransformOperationE
D _ZTVN7WebCore23ScrollbarThemeCompositeE
D _ZTVN7WebCore23SetNodeAttributeCommandE
V _ZTVN7WebCore23SubresourceLoaderClientE
V _ZTVN7WebCore23TextControlInnerElementE
D _ZTVN7WebCore23WebKitCSSTransformValueE
V _ZTVN7WebCore24CanvasStrokeStyleApplierE
D _ZTVN7WebCore24ContextMenuClientAndroidE
D _ZTVN7WebCore24DocumentThreadableLoaderE
V _ZTVN7WebCore24GeolocationServiceClientE
V _ZTVN7WebCore24JSCSSImportRulePrototypeE
D _ZTVN7WebCore24JSCSSPageRuleConstructorE
D _ZTVN7WebCore24JSCSSRuleListConstructorE
D _ZTVN7WebCore24JSCSSStyleSheetPrototypeE
V _ZTVN7WebCore24JSCanvasPatternPrototypeE
D _ZTVN7WebCore24JSCharacterDataPrototypeE
D _ZTVN7WebCore24JSCustomPositionCallbackE
D _ZTVN7WebCore24JSDOMStringListPrototypeE
V _ZTVN7WebCore24JSHTMLBRElementPrototypeE
D _ZTVN7WebCore24JSHTMLElementConstructorE
V _ZTVN7WebCore24JSHTMLHRElementPrototypeE
V _ZTVN7WebCore24JSHTMLLIElementPrototypeE
D _ZTVN7WebCore24JSInspectedObjectWrapperE
D _ZTVN7WebCore24JSKeyboardEventPrototypeE
D _ZTVN7WebCore24JSMessagePortConstructorE
D _ZTVN7WebCore24JSMimeTypeArrayPrototypeE
D _ZTVN7WebCore24JSMutationEventPrototypeE
D _ZTVN7WebCore24JSOverflowEventPrototypeE
D _ZTVN7WebCore24JSPluginArrayConstructorE
D _ZTVN7WebCore24JSPositionErrorPrototypeE
D _ZTVN7WebCore24JSProgressEventPrototypeE
D _ZTVN7WebCore24JSTextMetricsConstructorE
D _ZTVN7WebCore24JSWebKitCSSKeyframesRuleE
D _ZTVN7WebCore24JSXMLSerializerPrototypeE
D _ZTVN7WebCore24MatrixTransformOperationE
D _ZTVN7WebCore24RemoveCSSPropertyCommandE
D _ZTVN7WebCore24RotateTransformOperationE
V _ZTVN7WebCore24ShorthandPropertyWrapperE
D _ZTVN7WebCore25CSSVariableDependentValueE
D _ZTVN7WebCore25DeleteFromTextNodeCommandE
D _ZTVN7WebCore25InsertIntoTextNodeCommandE
D _ZTVN7WebCore25JSCDATASectionConstructorE
V _ZTVN7WebCore25JSCSSCharsetRulePrototypeE
D _ZTVN7WebCore25JSCSSMediaRuleConstructorE
D _ZTVN7WebCore25JSCSSStyleRuleConstructorE
V _ZTVN7WebCore25JSCSSUnknownRulePrototypeE
D _ZTVN7WebCore25JSCSSValueListConstructorE
D _ZTVN7WebCore25JSCSSVariablesDeclarationE
D _ZTVN7WebCore25JSCanvasGradientPrototypeE
D _ZTVN7WebCore25JSDocumentTypeConstructorE
D _ZTVN7WebCore25JSEventExceptionPrototypeE
D _ZTVN7WebCore25JSHTMLCollectionPrototypeE
V _ZTVN7WebCore25JSHTMLDivElementPrototypeE
D _ZTVN7WebCore25JSHTMLDocumentConstructorE
V _ZTVN7WebCore25JSHTMLMapElementPrototypeE
V _ZTVN7WebCore25JSHTMLModElementPrototypeE
V _ZTVN7WebCore25JSHTMLPreElementPrototypeE
D _ZTVN7WebCore25JSHTMLTableCaptionElementE
D _ZTVN7WebCore25JSHTMLTableSectionElementE
V _ZTVN7WebCore25JSMessageChannelPrototypeE
D _ZTVN7WebCore25JSMessageEventConstructorE
D _ZTVN7WebCore25JSNamedNodeMapConstructorE
D _ZTVN7WebCore25JSNodeIteratorConstructorE
D _ZTVN7WebCore25JSRangeExceptionPrototypeE
D _ZTVN7WebCore25JSStyleSheetListPrototypeE
D _ZTVN7WebCore25JSWebKitCSSTransformValueE
D _ZTVN7WebCore25JSXMLHttpRequestExceptionE
D _ZTVN7WebCore25JSXMLHttpRequestPrototypeE
V _ZTVN7WebCore25MessagePortCloseEventTaskE
D _ZTVN7WebCore26CSSMutableStyleDeclarationE
V _ZTVN7WebCore26CachedScriptSourceProviderE
V _ZTVN7WebCore26IdentityTransformOperationE
V _ZTVN7WebCore26JSCSSFontFaceRulePrototypeE
D _ZTVN7WebCore26JSCSSImportRuleConstructorE
D _ZTVN7WebCore26JSCSSStyleSheetConstructorE
D _ZTVN7WebCore26JSCanvasRenderingContext2DE
D _ZTVN7WebCore26JSCharacterDataConstructorE
D _ZTVN7WebCore26JSDOMStringListConstructorE
V _ZTVN7WebCore26JSEntityReferencePrototypeE
D _ZTVN7WebCore26JSEventTargetNodePrototypeE
V _ZTVN7WebCore26JSHTMLAreaElementPrototypeE
D _ZTVN7WebCore26JSHTMLBRElementConstructorE
V _ZTVN7WebCore26JSHTMLBaseElementPrototypeE
V _ZTVN7WebCore26JSHTMLBodyElementPrototypeE
V _ZTVN7WebCore26JSHTMLFontElementPrototypeE
D _ZTVN7WebCore26JSHTMLFormElementPrototypeE
D _ZTVN7WebCore26JSHTMLHRElementConstructorE
V _ZTVN7WebCore26JSHTMLHeadElementPrototypeE
V _ZTVN7WebCore26JSHTMLHtmlElementPrototypeE
D _ZTVN7WebCore26JSHTMLLIElementConstructorE
V _ZTVN7WebCore26JSHTMLLinkElementPrototypeE
V _ZTVN7WebCore26JSHTMLMenuElementPrototypeE
V _ZTVN7WebCore26JSHTMLMetaElementPrototypeE
D _ZTVN7WebCore26JSInspectorCallbackWrapperE
D _ZTVN7WebCore26JSKeyboardEventConstructorE
D _ZTVN7WebCore26JSMimeTypeArrayConstructorE
D _ZTVN7WebCore26JSMutationEventConstructorE
D _ZTVN7WebCore26JSOverflowEventConstructorE
D _ZTVN7WebCore26JSPositionErrorConstructorE
D _ZTVN7WebCore26JSProgressEventConstructorE
D _ZTVN7WebCore26JSQuarantinedObjectWrapperE
D _ZTVN7WebCore26JSUnprotectedEventListenerE
D _ZTVN7WebCore26JSWebKitCSSMatrixPrototypeE
D _ZTVN7WebCore26JSXMLSerializerConstructorE
D _ZTVN7WebCore26NetscapePlugInStreamLoaderE
D _ZTVN7WebCore26RenderTextControlMultiLineE
D _ZTVN7WebCore27CSSComputedStyleDeclarationE
V _ZTVN7WebCore27FormControlElementWithStateE
D _ZTVN7WebCore27JSCSSCharsetRuleConstructorE
V _ZTVN7WebCore27JSCSSVariablesRulePrototypeE
D _ZTVN7WebCore27JSDOMCoreExceptionPrototypeE
D _ZTVN7WebCore27JSDocumentFragmentPrototypeE
D _ZTVN7WebCore27JSEventExceptionConstructorE
D _ZTVN7WebCore27JSHTMLCollectionConstructorE
V _ZTVN7WebCore27JSHTMLDListElementPrototypeE
D _ZTVN7WebCore27JSHTMLDivElementConstructorE
V _ZTVN7WebCore27JSHTMLEmbedElementPrototypeE
V _ZTVN7WebCore27JSHTMLFrameElementPrototypeE
V _ZTVN7WebCore27JSHTMLImageElementPrototypeE
D _ZTVN7WebCore27JSHTMLInputElementPrototypeE
V _ZTVN7WebCore27JSHTMLLabelElementPrototypeE
D _ZTVN7WebCore27JSHTMLMapElementConstructorE
D _ZTVN7WebCore27JSHTMLModElementConstructorE
V _ZTVN7WebCore27JSHTMLOListElementPrototypeE
V _ZTVN7WebCore27JSHTMLParamElementPrototypeE
D _ZTVN7WebCore27JSHTMLPreElementConstructorE
V _ZTVN7WebCore27JSHTMLQuoteElementPrototypeE
V _ZTVN7WebCore27JSHTMLStyleElementPrototypeE
D _ZTVN7WebCore27JSHTMLTableElementPrototypeE
V _ZTVN7WebCore27JSHTMLTitleElementPrototypeE
V _ZTVN7WebCore27JSHTMLUListElementPrototypeE
D _ZTVN7WebCore27JSMessageChannelConstructorE
D _ZTVN7WebCore27JSRangeExceptionConstructorE
D _ZTVN7WebCore27JSStyleSheetListConstructorE
D _ZTVN7WebCore27JSXMLHttpRequestConstructorE
D _ZTVN7WebCore27RenderImageGeneratedContentE
D _ZTVN7WebCore27RenderTextControlInnerBlockE
D _ZTVN7WebCore27RenderTextControlSingleLineE
D _ZTVN7WebCore27TextControlInnerTextElementE
D _ZTVN7WebCore27TranslateTransformOperationE
V _ZTVN7WebCore27XMLHttpRequestProgressEventE
D _ZTVN7WebCore28JSCSSFontFaceRuleConstructorE
D _ZTVN7WebCore28JSCSSPrimitiveValuePrototypeE
D _ZTVN7WebCore28JSDOMImplementationPrototypeE
D _ZTVN7WebCore28JSEntityReferenceConstructorE
D _ZTVN7WebCore28JSHTMLAnchorElementPrototypeE
V _ZTVN7WebCore28JSHTMLAppletElementPrototypeE
D _ZTVN7WebCore28JSHTMLAreaElementConstructorE
D _ZTVN7WebCore28JSHTMLBaseElementConstructorE
D _ZTVN7WebCore28JSHTMLBodyElementConstructorE
D _ZTVN7WebCore28JSHTMLButtonElementPrototypeE
D _ZTVN7WebCore28JSHTMLCanvasElementPrototypeE
D _ZTVN7WebCore28JSHTMLFontElementConstructorE
D _ZTVN7WebCore28JSHTMLFormElementConstructorE
D _ZTVN7WebCore28JSHTMLHeadElementConstructorE
D _ZTVN7WebCore28JSHTMLHtmlElementConstructorE
V _ZTVN7WebCore28JSHTMLIFrameElementPrototypeE
V _ZTVN7WebCore28JSHTMLLegendElementPrototypeE
D _ZTVN7WebCore28JSHTMLLinkElementConstructorE
D _ZTVN7WebCore28JSHTMLMenuElementConstructorE
D _ZTVN7WebCore28JSHTMLMetaElementConstructorE
V _ZTVN7WebCore28JSHTMLObjectElementPrototypeE
V _ZTVN7WebCore28JSHTMLOptionElementPrototypeE
V _ZTVN7WebCore28JSHTMLScriptElementPrototypeE
D _ZTVN7WebCore28JSHTMLSelectElementPrototypeE
D _ZTVN7WebCore28JSWebKitCSSMatrixConstructorE
D _ZTVN7WebCore29CSSMappedAttributeDeclarationE
D _ZTVN7WebCore29JSCSSVariablesRuleConstructorE
D _ZTVN7WebCore29JSCustomPositionErrorCallbackE
D _ZTVN7WebCore29JSDOMCoreExceptionConstructorE
D _ZTVN7WebCore29JSDocumentFragmentConstructorE
D _ZTVN7WebCore29JSHTMLDListElementConstructorE
D _ZTVN7WebCore29JSHTMLEmbedElementConstructorE
D _ZTVN7WebCore29JSHTMLFrameElementConstructorE
V _ZTVN7WebCore29JSHTMLHeadingElementPrototypeE
D _ZTVN7WebCore29JSHTMLImageElementConstructorE
D _ZTVN7WebCore29JSHTMLInputElementConstructorE
V _ZTVN7WebCore29JSHTMLIsIndexElementPrototypeE
D _ZTVN7WebCore29JSHTMLLabelElementConstructorE
D _ZTVN7WebCore29JSHTMLMarqueeElementPrototypeE
D _ZTVN7WebCore29JSHTMLOListElementConstructorE
D _ZTVN7WebCore29JSHTMLParamElementConstructorE
D _ZTVN7WebCore29JSHTMLQuoteElementConstructorE
D _ZTVN7WebCore29JSHTMLStyleElementConstructorE
D _ZTVN7WebCore29JSHTMLTableElementConstructorE
D _ZTVN7WebCore29JSHTMLTitleElementConstructorE
D _ZTVN7WebCore29JSHTMLUListElementConstructorE
D _ZTVN7WebCore29JSXMLHttpRequestProgressEventE
D _ZTVN7WebCore29MergeIdenticalElementsCommandE
D _ZTVN7WebCore30JSCSSPrimitiveValueConstructorE
D _ZTVN7WebCore30JSCSSStyleDeclarationPrototypeE
D _ZTVN7WebCore30JSDOMImplementationConstructorE
D _ZTVN7WebCore30JSHTMLAnchorElementConstructorE
D _ZTVN7WebCore30JSHTMLAppletElementConstructorE
V _ZTVN7WebCore30JSHTMLBaseFontElementPrototypeE
D _ZTVN7WebCore30JSHTMLButtonElementConstructorE
D _ZTVN7WebCore30JSHTMLCanvasElementConstructorE
V _ZTVN7WebCore30JSHTMLFieldSetElementPrototypeE
V _ZTVN7WebCore30JSHTMLFrameSetElementPrototypeE
D _ZTVN7WebCore30JSHTMLIFrameElementConstructorE
D _ZTVN7WebCore30JSHTMLLegendElementConstructorE
D _ZTVN7WebCore30JSHTMLObjectElementConstructorE
V _ZTVN7WebCore30JSHTMLOptGroupElementPrototypeE
D _ZTVN7WebCore30JSHTMLOptionElementConstructorE
D _ZTVN7WebCore30JSHTMLScriptElementConstructorE
D _ZTVN7WebCore30JSHTMLSelectElementConstructorE
V _ZTVN7WebCore30JSHTMLTableColElementPrototypeE
D _ZTVN7WebCore30JSHTMLTableRowElementPrototypeE
D _ZTVN7WebCore30JSHTMLTextAreaElementPrototypeE
D _ZTVN7WebCore30JSJavaScriptCallFramePrototypeE
D _ZTVN7WebCore30SearchFieldCancelButtonElementE
D _ZTVN7WebCore30WrapContentsInDummySpanCommandE
D _ZTVN7WebCore31HTMLFormControlElementWithStateE
D _ZTVN7WebCore31InsertParagraphSeparatorCommandE
V _ZTVN7WebCore31JSHTMLDirectoryElementPrototypeE
D _ZTVN7WebCore31JSHTMLHeadingElementConstructorE
D _ZTVN7WebCore31JSHTMLIsIndexElementConstructorE
D _ZTVN7WebCore31JSHTMLMarqueeElementConstructorE
V _ZTVN7WebCore31JSHTMLParagraphElementPrototypeE
V _ZTVN7WebCore31JSHTMLTableCellElementPrototypeE
D _ZTVN7WebCore31JSWebKitAnimationEventPrototypeE
D _ZTVN7WebCore31JSXMLHttpRequestUploadPrototypeE
D _ZTVN7WebCore31ModifySelectionListLevelCommandE
V _ZTVN7WebCore31ScriptExecutionContextTaskTimerE
D _ZTVN7WebCore31SearchFieldResultsButtonElementE
V _ZTVN7WebCore32HTMLFileUploadInnerButtonElementE
D _ZTVN7WebCore32JSCSSStyleDeclarationConstructorE
D _ZTVN7WebCore32JSHTMLBaseFontElementConstructorE
V _ZTVN7WebCore32JSHTMLBlockquoteElementPrototypeE
D _ZTVN7WebCore32JSHTMLFieldSetElementConstructorE
D _ZTVN7WebCore32JSHTMLFrameSetElementConstructorE
D _ZTVN7WebCore32JSHTMLOptGroupElementConstructorE
D _ZTVN7WebCore32JSHTMLOptionsCollectionPrototypeE
D _ZTVN7WebCore32JSHTMLTableColElementConstructorE
D _ZTVN7WebCore32JSHTMLTableRowElementConstructorE
D _ZTVN7WebCore32JSHTMLTextAreaElementConstructorE
D _ZTVN7WebCore32JSPositionErrorCallbackPrototypeE
V _ZTVN7WebCore32JSProcessingInstructionPrototypeE
V _ZTVN7WebCore32JSWebKitCSSKeyframeRulePrototypeE
D _ZTVN7WebCore32JSWebKitTransitionEventPrototypeE
V _ZTVN7WebCore32NetscapePlugInStreamLoaderClientE
V _ZTVN7WebCore32PropertyWrapperMaybeInvalidColorE
D _ZTVN7WebCore33DecreaseSelectionListLevelCommandE
D _ZTVN7WebCore33IncreaseSelectionListLevelCommandE
D _ZTVN7WebCore33JSHTMLDirectoryElementConstructorE
D _ZTVN7WebCore33JSHTMLParagraphElementConstructorE
D _ZTVN7WebCore33JSHTMLTableCellElementConstructorE
D _ZTVN7WebCore33JSWebKitAnimationEventConstructorE
D _ZTVN7WebCore33JSWebKitCSSKeyframesRulePrototypeE
D _ZTVN7WebCore33JSXMLHttpRequestUploadConstructorE
D _ZTVN7WebCore34JSCSSVariablesDeclarationPrototypeE
D _ZTVN7WebCore34JSHTMLBlockquoteElementConstructorE
V _ZTVN7WebCore34JSHTMLTableCaptionElementPrototypeE
D _ZTVN7WebCore34JSHTMLTableSectionElementPrototypeE
D _ZTVN7WebCore34JSPositionErrorCallbackConstructorE
D _ZTVN7WebCore34JSProcessingInstructionConstructorE
D _ZTVN7WebCore34JSWebKitCSSKeyframeRuleConstructorE
D _ZTVN7WebCore34JSWebKitCSSTransformValuePrototypeE
D _ZTVN7WebCore34JSWebKitTransitionEventConstructorE
D _ZTVN7WebCore34JSXMLHttpRequestExceptionPrototypeE
D _ZTVN7WebCore35JSCanvasRenderingContext2DPrototypeE
D _ZTVN7WebCore35JSWebKitCSSKeyframesRuleConstructorE
D _ZTVN7WebCore35RemoveNodePreservingChildrenCommandE
D _ZTVN7WebCore36JSCSSVariablesDeclarationConstructorE
D _ZTVN7WebCore36JSHTMLTableCaptionElementConstructorE
D _ZTVN7WebCore36JSHTMLTableSectionElementConstructorE
D _ZTVN7WebCore36JSWebKitCSSTransformValueConstructorE
D _ZTVN7WebCore36JSXMLHttpRequestExceptionConstructorE
D _ZTVN7WebCore37JSCanvasRenderingContext2DConstructorE
D _ZTVN7WebCore37SplitTextNodeContainingElementCommandE
V _ZTVN7WebCore38JSXMLHttpRequestProgressEventPrototypeE
D _ZTVN7WebCore40JSXMLHttpRequestProgressEventConstructorE
D _ZTVN7WebCore4AttrE
D _ZTVN7WebCore4NodeE
V _ZTVN7WebCore4PairE
D _ZTVN7WebCore4TextE
D _ZTVN7WebCore5EventE
D _ZTVN7WebCore5ImageE
D _ZTVN7WebCore5ThemeE
V _ZTVN7WebCore5TimerIN7android11WebViewCoreEEE
V _ZTVN7WebCore5TimerINS_10PluginViewEEE
V _ZTVN7WebCore5TimerINS_11BitmapImageEEE
V _ZTVN7WebCore5TimerINS_11CachedImageEEE
V _ZTVN7WebCore5TimerINS_11FrameLoaderEEE
V _ZTVN7WebCore5TimerINS_11Geolocation11GeoNotifierEEE
V _ZTVN7WebCore5TimerINS_11RenderImageEEE
V _ZTVN7WebCore5TimerINS_12CachedScriptEEE
V _ZTVN7WebCore5TimerINS_12EventHandlerEEE
V _ZTVN7WebCore5TimerINS_12GCControllerEEE
V _ZTVN7WebCore5TimerINS_12IconDatabaseEEE
V _ZTVN7WebCore5TimerINS_12PluginStreamEEE
V _ZTVN7WebCore5TimerINS_12RenderButtonEEE
V _ZTVN7WebCore5TimerINS_13HTMLTokenizerEEE
V _ZTVN7WebCore5TimerINS_13PluginPackageEEE
V _ZTVN7WebCore5TimerINS_13RenderMarqueeEEE
V _ZTVN7WebCore5TimerINS_14DocumentLoaderEEE
V _ZTVN7WebCore5TimerINS_14ResourceHandleEEE
V _ZTVN7WebCore5TimerINS_18MainResourceLoaderEEE
V _ZTVN7WebCore5TimerINS_19InspectorControllerEEE
V _ZTVN7WebCore5TimerINS_21JavaScriptDebugServerEEE
V _ZTVN7WebCore5TimerINS_26AnimationControllerPrivateEEE
V _ZTVN7WebCore5TimerINS_27RenderTextControlSingleLineEEE
V _ZTVN7WebCore5TimerINS_5FrameEEE
V _ZTVN7WebCore5TimerINS_6LoaderEEE
V _ZTVN7WebCore5TimerINS_8DocumentEEE
V _ZTVN7WebCore5TimerINS_9FrameViewEEE
V _ZTVN7WebCore5TimerINS_9PageCacheEEE
V _ZTVN7WebCore5TimerINS_9ScrollbarEEE
D _ZTVN7WebCore6ChromeE
D _ZTVN7WebCore6JSAttrE
D _ZTVN7WebCore6JSFileE
D _ZTVN7WebCore6JSNodeE
D _ZTVN7WebCore6JSRectE
D _ZTVN7WebCore6JSTextE
D _ZTVN7WebCore6Loader4HostE
D _ZTVN7WebCore6WidgetE
V _ZTVN7WebCore7CSSRuleE
D _ZTVN7WebCore7CommentE
D _ZTVN7WebCore7ElementE
D _ZTVN7WebCore7JSEventE
D _ZTVN7WebCore7JSRangeE
D _ZTVN7WebCore7JSTouchE
D _ZTVN7WebCore7PatternE
D _ZTVN7WebCore7UIEventE
V _ZTVN7WebCore8CSSValueE
D _ZTVN7WebCore8DOMTimerE
D _ZTVN7WebCore8DocumentE
D _ZTVN7WebCore8FontDataE
D _ZTVN7WebCore8GradientE
D _ZTVN7WebCore8JSEntityE
D _ZTVN7WebCore8JSPluginE
D _ZTVN7WebCore8JSScreenE
V _ZTVN7WebCore8NodeListE
D _ZTVN7WebCore8NotationE
D _ZTVN7WebCore8RenderBRE
D _ZTVN7WebCore9AttributeE
V _ZTVN7WebCore9ClipboardE
V _ZTVN7WebCore9DOMObjectE
D _ZTVN7WebCore9DOMWindowE
D _ZTVN7WebCore9FontValueE
D _ZTVN7WebCore9FrameViewE
V _ZTVN7WebCore9GeneratorE
D _ZTVN7WebCore9InlineBoxE
D _ZTVN7WebCore9JSBarInfoE
D _ZTVN7WebCore9JSCSSRuleE
D _ZTVN7WebCore9JSCommentE
D _ZTVN7WebCore9JSConsoleE
D _ZTVN7WebCore9JSCounterE
D _ZTVN7WebCore9JSElementE
D _ZTVN7WebCore9JSHistoryE
D _ZTVN7WebCore9JSUIEventE
D _ZTVN7WebCore9MediaListE
D _ZTVN7WebCore9NavigatorE
D _ZTVN7WebCore9RenderBoxE
D _ZTVN7WebCore9ScrollbarE
D _ZTVN7WebCore9StyleBaseE
V _ZTVN7WebCore9StyleListE
D _ZTVN7WebCore9TextCodecE
D _ZTVN7WebCore9TextEventE
D _ZTVN7WebCore9TimerBaseE
V _ZTVN7WebCore9TokenizerE
V _ZTVN7android10ImageCheckE
D _ZTVN7android10JavaBridgeE
D _ZTVN7android10PictureSetE
V _ZTVN7android11BoundsCheckE
V _ZTVN7android11CenterCheckE
V _ZTVN7android11CommonCheckE
V _ZTVN7android11ImageCanvasE
V _ZTVN7android11JiggleCheckE
V _ZTVN7android11TimerClientE
D _ZTVN7android11WebViewCoreE
V _ZTVN7android12BoundsCanvasE
V _ZTVN7android12CookieClientE
V _ZTVN7android12ListBoxReplyE
V _ZTVN7android12WebCoreReplyE
D _ZTVN7android12WebFrameViewE
V _ZTVN7android13IsEmptyCanvasE
V _ZTVN7android14IsEmptyBounderE
D _ZTVN7android15WebIconDatabaseE
V _ZTVN7android16WeakJavaInstanceE
D _ZTVN7android17DragClientAndroidE
V _ZTVN7android18KeyGeneratorClientE
D _ZTVN7android19ChromeClientAndroidE
D _ZTVN7android19EditorClientAndroidE
D _ZTVN7android21WebCoreResourceLoaderE
V _ZTVN7android21WebIconDatabaseClientE
V _ZTVN7android22InspectorClientAndroidE
D _ZTVN7android24FrameLoaderClientAndroidE
D _ZTVN7android8WebFrameE
V _ZTVN8SkBitmap9AllocatorE
U _ZdaPv
U _ZdlPv
U _ZeqRK8SkRegionS1_
U _Znaj
U _Znwj
U __aeabi_atexit
U __aeabi_d2f
U __aeabi_d2iz
U __aeabi_d2lz
U __aeabi_d2uiz
U __aeabi_d2ulz
U __aeabi_dadd
U __aeabi_dcmpeq
U __aeabi_dcmpge
U __aeabi_dcmpgt
U __aeabi_dcmple
U __aeabi_dcmplt
U __aeabi_dcmpun
U __aeabi_ddiv
U __aeabi_dmul
U __aeabi_dsub
U __aeabi_f2d
U __aeabi_f2iz
U __aeabi_f2uiz
U __aeabi_fadd
U __aeabi_fcmpeq
U __aeabi_fcmpge
U __aeabi_fcmpgt
U __aeabi_fcmple
U __aeabi_fcmplt
U __aeabi_fcmpun
U __aeabi_fdiv
U __aeabi_fmul
U __aeabi_fsub
U __aeabi_i2d
U __aeabi_i2f
U __aeabi_idiv
U __aeabi_idivmod
U __aeabi_l2d
U __aeabi_ldivmod
U __aeabi_lmul
U __aeabi_ui2d
U __aeabi_ui2f
U __aeabi_uidiv
U __aeabi_uidivmod
U __aeabi_ul2d
U __aeabi_uldivmod
U __aeabi_unwind_cpp_pr0
U __aeabi_unwind_cpp_pr1
U __android_log_print
U __android_log_vprint
A __bss_end__
A __bss_start
A __bss_start__
U __cxa_guard_acquire
U __cxa_guard_release
U __cxa_pure_virtual
D __data_start
U __dso_handle
A __end__
U __errno
A __exidx_end
A __exidx_start
U __isfinite
U __isfinitef
U __isinf
U __page_size
U __sF
U __signbit
U __stack_chk_fail
U __stack_chk_guard
A _bss_end__
A _edata
A _end
A _stack
U _toupper_tab_
U access
U acos
U android_atomic_dec
U android_atomic_inc
U asin
U atan
U atan2
U atan2f
U calloc
U ceil
U ceilf
U clock_gettime
U close
U closedir
U cos
U cosf
U difftime
U dirname
U dlclose
U dlerror
U dlopen
U dlsym
U exp
U fclose
U fflush
U floor
U floorf
U fmod
U fmodf
U fnmatch
U fopen
U fprintf
U fputc
U fputs
U fread
U free
U fwrite
U gIEEENotANumber
U getcwd
U getenv
U getpid
U gettimeofday
U jniRegisterNativeMethods
U localtime_r
U log
U log10
U lrand48
U lround
U lroundf
U malloc
U memcmp
U memcpy
U memmove
U memset
U mkdir
U mktime
U mmap
U munmap
U nextafter
U nextafterf
U open
U opendir
U pow
U printf
U pthread_attr_destroy
U pthread_attr_getstack
U pthread_attr_init
U pthread_cond_broadcast
U pthread_cond_destroy
U pthread_cond_init
U pthread_cond_signal
U pthread_cond_timedwait
U pthread_cond_wait
U pthread_create
U pthread_detach
U pthread_equal
U pthread_getattr_np
U pthread_join
U pthread_mutex_destroy
U pthread_mutex_init
U pthread_mutex_lock
U pthread_mutex_trylock
U pthread_mutex_unlock
U pthread_self
U putchar
U puts
U qsort
U read
U readdir
U realloc
U rmdir
U round
U roundf
U sbrk
U setjmp
U sin
U sinf
U snprintf
U sprintf
U sqlite3_bind_blob
U sqlite3_bind_double
U sqlite3_bind_int64
U sqlite3_bind_null
U sqlite3_bind_parameter_count
U sqlite3_bind_text16
U sqlite3_busy_handler
U sqlite3_busy_timeout
U sqlite3_changes
U sqlite3_close
U sqlite3_column_blob
U sqlite3_column_bytes
U sqlite3_column_double
U sqlite3_column_int
U sqlite3_column_int64
U sqlite3_column_name16
U sqlite3_column_text16
U sqlite3_column_value
U sqlite3_data_count
U sqlite3_errcode
U sqlite3_errmsg
U sqlite3_expired
U sqlite3_finalize
U sqlite3_last_insert_rowid
U sqlite3_open16
U sqlite3_prepare16_v2
U sqlite3_reset
U sqlite3_set_authorizer
U sqlite3_step
U sqlite3_value_double
U sqlite3_value_text16
U sqlite3_value_type
U sqrt
U sqrtf
U srand48
U sscanf
U stat
U strcasecmp
U strcat
U strchr
U strcmp
U strcpy
U strdup
U strftime
U strlen
U strncasecmp
U strncmp
U strncpy
U strstr
U strtol
U tan
U time
U trunc
U u_charDirection_3_8
U u_charMirror_3_8
U u_charType_3_8
U u_foldCase_3_8
U u_getCombiningClass_3_8
U u_getIntPropertyValue_3_8
U u_isalnum_3_8
U u_islower_3_8
U u_isprint_3_8
U u_ispunct_3_8
U u_memcasecmp_3_8
U u_strFoldCase_3_8
U u_strToLower_3_8
U u_strToUpper_3_8
U u_tolower_3_8
U u_totitle_3_8
U u_toupper_3_8
U ubrk_current_3_8
U ubrk_first_3_8
U ubrk_following_3_8
U ubrk_isBoundary_3_8
U ubrk_last_3_8
U ubrk_next_3_8
U ubrk_open_3_8
U ubrk_preceding_3_8
U ubrk_previous_3_8
U ubrk_setText_3_8
U ucnv_cbFromUWriteBytes_3_8
U ucnv_cbFromUWriteUChars_3_8
U ucnv_close_3_8
U ucnv_countAliases_3_8
U ucnv_countAvailable_3_8
U ucnv_fromUnicode_3_8
U ucnv_getAlias_3_8
U ucnv_getAvailableName_3_8
U ucnv_getName_3_8
U ucnv_getStandardName_3_8
U ucnv_open_3_8
T ucnv_open_emoji
U ucnv_setFallback_3_8
U ucnv_setFromUCallBack_3_8
U ucnv_setSubstChars_3_8
U ucnv_setToUCallBack_3_8
U ucnv_toUnicode_3_8
U ucol_close_3_8
U ucol_getAttribute_3_8
U ucol_getLocaleByType_3_8
U ucol_getStrength_3_8
U ucol_open_3_8
U ucol_setAttribute_3_8
U ucol_setStrength_3_8
U ucol_strcoll_3_8
U uidna_IDNToASCII_3_8
U unlink
U unorm_normalize_3_8
U unorm_quickCheck_3_8
U usearch_first_3_8
U usearch_getCollator_3_8
U usearch_getMatchedLength_3_8
U usearch_open_3_8
U usearch_reset_3_8
U usearch_setPattern_3_8
U usearch_setText_3_8
U usleep
U vasprintf
U vfprintf
U vsnprintf
U write
