U XML_Parse
U XML_ParserCreate
U XML_ParserFree
U XML_SetCharacterDataHandler
U XML_SetDoctypeDeclHandler
U XML_SetElementHandler
U XML_SetUserData
T _ZN11ExpatParser17charactersWrapperEPvPKci
T _ZN11ExpatParser17endDoctypeWrapperEPv
T _ZN11ExpatParser17endElementWrapperEPvPKc
T _ZN11ExpatParser19startDoctypeWrapperEPvPKcS2_S2_i
T _ZN11ExpatParser19startElementWrapperEPvPKcPS2_
T _ZN11ExpatParser5parseEPKcib
T _ZN11ExpatParserC1Ev
T _ZN11ExpatParserC2Ev
T _ZN11ExpatParserD0Ev
T _ZN11ExpatParserD1Ev
T _ZN11ExpatParserD2Ev
U _ZN16ImpsWbxmlEncoder5resetEv
T _ZN16Xml2WbxmlEncoder10charactersEPKci
T _ZN16Xml2WbxmlEncoder10endElementEPKc
T _ZN16Xml2WbxmlEncoder12startDoctypeEPKcS1_S1_i
T _ZN16Xml2WbxmlEncoder12startElementEPKcPS1_
T _ZN16Xml2WbxmlEncoder14detectPublicIdEPKc
T _ZN16Xml2WbxmlEncoder15setWbxmlHandlerEP12WbxmlHandler
T _ZN16Xml2WbxmlEncoder21detectPublicIdByXmlnsEPKc
T _ZN16Xml2WbxmlEncoder6encodeEPKcjb
T _ZN16Xml2WbxmlEncoderC1Ev
T _ZN16Xml2WbxmlEncoderC2Ev
T _ZN16Xml2WbxmlEncoderD0Ev
T _ZN16Xml2WbxmlEncoderD1Ev
T _ZN16Xml2WbxmlEncoderD2Ev
U _ZN7android7String8C1Ev
D _ZTV11ExpatParser
V _ZTV12WbxmlEncoder
U _ZTV16ImpsWbxmlEncoder
D _ZTV16Xml2WbxmlEncoder
V _ZTV17XmlContentHandler
U _ZdlPv
U _Znwj
U __aeabi_unwind_cpp_pr0
A __bss_end__
A __bss_start
A __bss_start__
U __cxa_pure_virtual
A __data_start
A __end__
A __exidx_end
A __exidx_start
A _bss_end__
A _edata
A _end
A _stack
U strcmp
