U JNI_CreateJavaVM
T Java_LoadClass_registerNatives
T Java_com_android_internal_util_WithFramework_registerNatives
U MD5_Final
U MD5_Init
U MD5_Update
U SHA1_Final
U SHA1_Init
U SHA1_Update
U _Z10SkRGBToHSVjjjPf
T _Z10doThrowIAEP7_JNIEnvPKc
T _Z10doThrowIOEP7_JNIEnvPKc
T _Z10doThrowISEP7_JNIEnvPKc
T _Z10doThrowNPEP7_JNIEnv
T _Z11doThrowOOMEP7_JNIEnvPKc
U _Z12SkHSVToColorjPKf
T _Z12writeToTrackPN7android10AudioTrackEiPaii
T _Z13create_jmovieP7_JNIEnvP7SkMovie
T _Z13doThrowAIOOBEP7_JNIEnv
T _Z14NinePatch_DrawP8SkCanvasRK6SkRectRK8SkBitmapRKN7android14Res_png_9patchEPK7SkPaintPP8SkRegion
U _Z15sk_malloc_flagsjj
U _Z15sk_malloc_throwj
U _Z16Android_SkDebugfPKciS0_S0_z
T _Z16calculateStretchffiii
U _Z16sk_realloc_throwPvj
T _Z17getMimeTypeStringP7_JNIEnvN14SkImageDecoder6FormatE
T _Z17get_native_cameraP7_JNIEnvP8_jobjectPP16JNICameraContext
U _Z17skjpeg_error_exitP18jpeg_common_struct
U _Z18SkPreMultiplyColorj
U _Z19skia_set_text_gammaff
T _Z24android_os_Process_myPidP7_JNIEnvP8_jobject
T _Z24android_os_Process_myTidP7_JNIEnvP8_jobject
T _Z24android_os_Process_myUidP7_JNIEnvP8_jobject
T _Z25android_os_Process_setGidP7_JNIEnvP8_jobjecti
T _Z25android_os_Process_setUidP7_JNIEnvP8_jobjecti
T _Z26android_os_Process_getPidsP7_JNIEnvP8_jobjectP8_jstringP10_jintArray
T _Z26register_android_os_BinderP7_JNIEnv
T _Z27android_os_Process_setArgV0P7_JNIEnvP8_jobjectP8_jstring
T _Z27register_android_os_ProcessP7_JNIEnv
T _Z28CreateJavaInputStreamAdaptorP7_JNIEnvP8_jobjectP11_jbyteArrayi
T _Z28android_os_Process_setOomAdjP7_JNIEnvP8_jobjectii
T _Z29CreateJavaOutputStreamAdaptorP7_JNIEnvP8_jobjectP11_jbyteArray
T _Z29android_os_Process_sendSignalP7_JNIEnvP8_jobjectii
T _Z31android_os_Process_readProcFileP7_JNIEnvP8_jobjectP8_jstringP10_jintArrayP13_jobjectArrayP11_jlongArrayP12_jfloatArray
T _Z31register_android_graphics_MovieP7_JNIEnv
T _Z31register_android_util_FloatMathP7_JNIEnv
T _Z32android_media_translateErrorCodei
T _Z32android_os_Process_getGidForNameP7_JNIEnvP8_jobjectP8_jstring
T _Z32android_os_Process_getUidForNameP7_JNIEnvP8_jobjectP8_jstring
T _Z32android_os_Process_parseProcLineP7_JNIEnvP8_jobjectP11_jbyteArrayiiP10_jintArrayP13_jobjectArrayP11_jlongArrayP12_jfloatArray
T _Z32android_os_Process_readProcLinesP7_JNIEnvP8_jobjectP8_jstringP13_jobjectArrayP11_jlongArray
T _Z32register_android_graphics_BitmapP7_JNIEnv
T _Z32register_android_graphics_CameraP7_JNIEnv
T _Z32register_android_graphics_RegionP7_JNIEnv
T _Z32register_android_graphics_ShaderP7_JNIEnv
T _Z32register_android_hardware_CameraP7_JNIEnv
T _Z32register_android_media_JetPlayerP7_JNIEnv
T _Z33android_os_Process_setThreadGroupP7_JNIEnvP8_jobjectii
T _Z33register_android_media_AudioTrackP7_JNIEnv
T _Z34android_os_Process_sendSignalQuietP7_JNIEnvP8_jobjectii
T _Z34android_os_Process_setProcessGroupP7_JNIEnvP8_jobjectii
T _Z34register_android_graphics_GraphicsP7_JNIEnv
T _Z34register_android_graphics_TypefaceP7_JNIEnv
T _Z34register_android_graphics_YuvImageP7_JNIEnv
T _Z34register_android_media_AudioRecordP7_JNIEnv
T _Z34register_android_media_AudioSystemP7_JNIEnv
T _Z34register_android_opengl_jni_GLES10P7_JNIEnv
T _Z34register_android_opengl_jni_GLES11P7_JNIEnv
T _Z34register_android_opengl_jni_GLES20P7_JNIEnv
T _Z35register_android_graphics_NinePatchP7_JNIEnv
T _Z36android_os_Process_getThreadPriorityP7_JNIEnvP8_jobjecti
T _Z36android_os_Process_setThreadPriorityP7_JNIEnvP8_jobjectii
T _Z36android_os_Process_supportsProcessesP7_JNIEnvP8_jobject
T _Z36register_android_graphics_MaskFilterP7_JNIEnv
T _Z36register_android_graphics_PathEffectP7_JNIEnv
T _Z36register_android_media_ToneGeneratorP7_JNIEnv
T _Z36register_android_message_digest_sha1P7_JNIEnv
T _Z37android_media_getIntConstantFromClassP7_JNIEnvP7_jclassPKcS4_Pi
T _Z37android_os_Process_parseProcLineArrayP7_JNIEnvP8_jobjectPciiP10_jintArrayP13_jobjectArrayP11_jlongArrayP12_jfloatArray
T _Z37register_android_opengl_jni_GLES10ExtP7_JNIEnv
T _Z37register_android_opengl_jni_GLES11ExtP7_JNIEnv
T _Z38register_android_graphics_InterpolatorP7_JNIEnv
T _Z39android_os_Process_setApplicationObjectP7_JNIEnvP8_jobjectS2_
T _Z39register_android_graphics_BitmapFactoryP7_JNIEnv
T _Z39register_android_hardware_SensorManagerP7_JNIEnv
T _Z40android_media_AudioSystem_error_callbacki
T _Z40android_media_translateRecorderErrorCodei
T _Z41register_android_graphics_LayerRasterizerP7_JNIEnv
T _Z43android_os_Process_setCallingThreadPriorityP7_JNIEnvP8_jobjecti
T _Z43register_com_google_android_gles_jni_GLImplP7_JNIEnv
T _Z44register_com_google_android_gles_jni_EGLImplP7_JNIEnv
T _Z45register_android_graphics_BitmapRegionDecoderP7_JNIEnv
T _Z7doThrowP7_JNIEnvPKcS2_
U _Z7sk_freePv
U _Z8sk_throwv
T _Z9doThrowREP7_JNIEnvPKc
U _ZN10SkFDStreamC1Eib
U _ZN10SkGLCanvas17DeleteAllTexturesEv
U _ZN10SkGLCanvas18AbandonAllTexturesEv
U _ZN10SkGLCanvasC1Ev
U _ZN10SkGraphics16SetFontCacheUsedEj
U _ZN10SkGraphics4InitEv
U _ZN10SkGraphics4TermEv
U _ZN10SkImageRef8isOpaqueEP8SkBitmap
U _ZN10SkPixelRef10lockPixelsEv
U _ZN10SkPixelRef12setImmutableEv
U _ZN10SkPixelRef12unlockPixelsEv
U _ZN10SkTypeface14CreateFromFileEPKc
U _ZN10SkTypeface14CreateFromNameEPKcNS_5StyleE
U _ZN10SkTypeface16CreateFromStreamEP8SkStream
U _ZN10SkTypeface18CreateFromTypefaceEPKS_NS_5StyleE
T _ZN11AInputQueue11finishEventEP11AInputEventb
T _ZN11AInputQueue12attachLooperEP7ALooperiPFiiiPvES2_
T _ZN11AInputQueue12detachLooperEv
T _ZN11AInputQueue13dispatchEventEPN7android8KeyEventE
T _ZN11AInputQueue14createKeyEventEv
T _ZN11AInputQueue14doUnhandledKeyEPN7android8KeyEventE
T _ZN11AInputQueue14preDispatchKeyEPN7android8KeyEventE
T _ZN11AInputQueue14wakeupDispatchEv
T _ZN11AInputQueue16preDispatchEventEP11AInputEvent
T _ZN11AInputQueue17createMotionEventEv
T _ZN11AInputQueue17finishPreDispatchEib
T _ZN11AInputQueue21consumeUnhandledEventEv
T _ZN11AInputQueue26consumePreDispatchingEventEPi
T _ZN11AInputQueue8getEventEPP11AInputEvent
T _ZN11AInputQueue9hasEventsEv
T _ZN11AInputQueueC1ERKN7android2spINS0_12InputChannelEEEi
T _ZN11AInputQueueC2ERKN7android2spINS0_12InputChannelEEEi
T _ZN11AInputQueueD0Ev
T _ZN11AInputQueueD1Ev
T _ZN11AInputQueueD2Ev
T _ZN11GraphicsJNI12createBitmapEP7_JNIEnvP8SkBitmapbP11_jbyteArrayi
T _ZN11GraphicsJNI12createRegionEP7_JNIEnvP8SkRegion
T _ZN11GraphicsJNI12hasExceptionEP7_JNIEnv
T _ZN11GraphicsJNI13jrect_to_rectEP7_JNIEnvP8_jobjectP6SkRect
T _ZN11GraphicsJNI14getNativePaintEP7_JNIEnvP8_jobject
T _ZN11GraphicsJNI14irect_to_jrectERK7SkIRectP7_JNIEnvP8_jobject
T _ZN11GraphicsJNI14jrect_to_irectEP7_JNIEnvP8_jobjectP7SkIRect
T _ZN11GraphicsJNI14jrectf_to_rectEP7_JNIEnvP8_jobjectP6SkRect
T _ZN11GraphicsJNI14rect_to_jrectfERK6SkRectP7_JNIEnvP8_jobject
T _ZN11GraphicsJNI15getNativeBitmapEP7_JNIEnvP8_jobject
T _ZN11GraphicsJNI15getNativeCanvasEP7_JNIEnvP8_jobject
T _ZN11GraphicsJNI15getNativeRegionEP7_JNIEnvP8_jobject
T _ZN11GraphicsJNI15setJavaPixelRefEP7_JNIEnvP8SkBitmapP12SkColorTableb
T _ZN11GraphicsJNI16getNativePictureEP7_JNIEnvP8_jobject
T _ZN11GraphicsJNI16ipoint_to_jpointERK8SkIPointP7_JNIEnvP8_jobject
T _ZN11GraphicsJNI16jpoint_to_ipointEP7_JNIEnvP8_jobjectP8SkIPoint
T _ZN11GraphicsJNI16jpointf_to_pointEP7_JNIEnvP8_jobjectP7SkPoint
T _ZN11GraphicsJNI16point_to_jpointfERK7SkPointP7_JNIEnvP8_jobject
T _ZN11GraphicsJNI21getNativeBitmapConfigEP7_JNIEnvP8_jobject
T _ZN11GraphicsJNI25createBitmapRegionDecoderEP7_JNIEnvP21SkBitmapRegionDecoder
T _ZN11GraphicsJNI9SetPixelsEP7_JNIEnvP10_jintArrayiiiiiiRK8SkBitmap
T _ZN11GraphicsJNI9get_jrectEP7_JNIEnvP8_jobjectPiS4_S4_S4_
T _ZN11GraphicsJNI9set_jrectEP7_JNIEnvP8_jobjectiiii
U _ZN11SkAutoUnrefD1Ev
U _ZN11SkNinePatch8DrawMeshEP8SkCanvasRK6SkRectRK8SkBitmapPKiiS9_iPK7SkPaint
U _ZN12SkColorTable12unlockColorsEb
U _ZN12SkColorTableC1EPKji
U _ZN12SkPorterDuff14CreateXfermodeENS_4ModeE
U _ZN12SkPorterDuff14ToXfermodeModeENS_4ModeE
U _ZN13SkColorFilter16CreateModeFilterEjN10SkXfermode4ModeE
U _ZN13SkColorFilter20CreateLightingFilterEjj
U _ZN13SkMeshIndices4initEP7SkPointPtiiii
U _ZN13SkMeshIndicesC1Ev
U _ZN13SkMeshIndicesD1Ev
U _ZN13SkPathMeasure10getSegmentEffP6SkPathb
U _ZN13SkPathMeasure11nextContourEv
U _ZN13SkPathMeasure7setPathEPK6SkPathb
U _ZN13SkPathMeasure8isClosedEv
U _ZN13SkPathMeasure9getLengthEv
U _ZN13SkPathMeasure9getMatrixEfP8SkMatrixNS_11MatrixFlagsE
U _ZN13SkPathMeasure9getPosTanEfP7SkPointS1_
U _ZN13SkPathMeasureC1ERK6SkPathb
U _ZN13SkPathMeasureC1Ev
U _ZN13SkPathMeasureD1Ev
U _ZN14SkImageDecoder11kFormatNameE
U _ZN14SkImageDecoder11setReporterEP18SkVMMemoryReporter
U _ZN14SkImageDecoder12DecodeMemoryEPKvjP8SkBitmapNS2_6ConfigENS_4ModeEPNS_6FormatE
U _ZN14SkImageDecoder12setAllocatorEPN8SkBitmap9AllocatorE
U _ZN14SkImageDecoder13setSampleSizeEi
U _ZN14SkImageDecoder15SetDeviceConfigEN8SkBitmap6ConfigE
U _ZN14SkImageDecoder18setPrefConfigTableEPKN8SkBitmap6ConfigE
U _ZN14SkImageDecoder6decodeEP8SkStreamP8SkBitmapNS2_6ConfigENS_4ModeE
U _ZN14SkImageDecoder7FactoryEP8SkStream
U _ZN14SkImageDecoder9setPeekerEPNS_6PeekerE
U _ZN14SkImageEncoder12encodeStreamEP9SkWStreamRK8SkBitmapi
U _ZN14SkImageEncoder6CreateENS_4TypeE
U _ZN14SkInterpolator11setKeyFrameEijPKfS1_
U _ZN14SkInterpolator5resetEii
U _ZN14SkInterpolatorC1Eii
U _ZN14SkMemoryStreamC1EPKvjb
U _ZN14SkMemoryStreamC1Ej
U _ZN14SkMemoryStreamC1Ev
U _ZN15KeyCharacterMap10getKeyDataEiPtS0_S0_
U _ZN15KeyCharacterMap15getDisplayLabelEi
U _ZN15KeyCharacterMap3getEii
U _ZN15KeyCharacterMap4loadEi
U _ZN15KeyCharacterMap8getMatchEiPKtij
U _ZN15KeyCharacterMap9getEventsEPtjPN7android6VectorIiEEPNS2_IjEE
U _ZN15KeyCharacterMap9getNumberEi
U _ZN15KeyCharacterMapD1Ev
U _ZN15SkAvoidXfermodeC1EjjNS_4ModeE
U _ZN15SkBoundaryPatch11setBoundaryEP10SkBoundary
U _ZN15SkBoundaryPatch9evalPatchEP7SkPointii
U _ZN15SkBoundaryPatchC1Ev
U _ZN15SkBoundaryPatchD1Ev
U _ZN15SkComposeShaderC1EP8SkShaderS1_P10SkXfermode
U _ZN15SkUnPreMultiply14PMColorToColorEj
T _ZN16AutoJavaIntArrayC1EP7_JNIEnvP10_jintArrayi
T _ZN16AutoJavaIntArrayC2EP7_JNIEnvP10_jintArrayi
T _ZN16AutoJavaIntArrayD1Ev
T _ZN16AutoJavaIntArrayD2Ev
T _ZN16JNICameraContext11copyAndPostEP7_JNIEnvRKN7android2spINS2_7IMemoryEEEi
T _ZN16JNICameraContext15setCallbackModeEP7_JNIEnvbb
T _ZN16JNICameraContext17addCallbackBufferEP7_JNIEnvP11_jbyteArray
T _ZN16JNICameraContext17postDataTimestampExiRKN7android2spINS0_7IMemoryEEE
T _ZN16JNICameraContext22clearCallbackBuffers_lEP7_JNIEnv
T _ZN16JNICameraContext6notifyEiii
T _ZN16JNICameraContext7releaseEv
T _ZN16JNICameraContext8postDataEiRKN7android2spINS0_7IMemoryEEE
T _ZN16JNICameraContextC1EP7_JNIEnvP8_jobjectP7_jclassRKN7android2spINS6_6CameraEEE
T _ZN16JNICameraContextC2EP7_JNIEnvP8_jobjectP7_jclassRKN7android2spINS6_6CameraEEE
U _ZN16SkBlurDrawLooperC1Efffj
U _ZN16SkBlurMaskFilter12CreateEmbossEPKffff
U _ZN16SkBlurMaskFilter6CreateEfNS_9BlurStyleE
U _ZN16SkDashPathEffectC1EPKfifb
U _ZN16SkGradientShader11CreateSweepEffPKjPKfiP12SkUnitMapper
U _ZN16SkGradientShader12CreateLinearEPK7SkPointPKjPKfiN8SkShader8TileModeEP12SkUnitMapper
U _ZN16SkGradientShader12CreateRadialERK7SkPointfPKjPKfiN8SkShader8TileModeEP12SkUnitMapper
U _ZN16SkMallocPixelRef12onLockPixelsEPP12SkColorTable
U _ZN16SkMallocPixelRef14onUnlockPixelsEv
U _ZN16SkMallocPixelRefC1EPvjP12SkColorTable
U _ZN16SkMallocPixelRefC1ER23SkFlattenableReadBuffer
U _ZN16SkMallocPixelRefC2EPvjP12SkColorTable
U _ZN16SkMallocPixelRefD2Ev
U _ZN16SkPairPathEffectC2EP12SkPathEffectS1_
T _ZN16YuvToJpegEncoder21setJpegCompressStructEP20jpeg_compress_structiii
T _ZN16YuvToJpegEncoder6createEiPi
T _ZN16YuvToJpegEncoder6encodeEP9SkWStreamPviiPii
T _ZN16YuvToJpegEncoderC1EPi
T _ZN16YuvToJpegEncoderC2EPi
T _ZN17AutoDecoderCancel13RequestCancelEP8_jobject
T _ZN17AutoDecoderCancelC1EP8_jobjectP14SkImageDecoder
T _ZN17AutoDecoderCancelC2EP8_jobjectP14SkImageDecoder
T _ZN17AutoDecoderCancelD1Ev
T _ZN17AutoDecoderCancelD2Ev
T _ZN17AutoJavaByteArrayC1EP7_JNIEnvP11_jbyteArrayi
T _ZN17AutoJavaByteArrayC2EP7_JNIEnvP11_jbyteArrayi
T _ZN17AutoJavaByteArrayD1Ev
T _ZN17AutoJavaByteArrayD2Ev
U _ZN17SkImageRef_ashmemC1EP8SkStreamN8SkBitmap6ConfigEi
U _ZN17SkLayerRasterizer8addLayerERK7SkPaintff
U _ZN17SkLayerRasterizerC1Ev
U _ZN17SkTableMaskFilter13MakeClipTableEPhhh
U _ZN17SkTableMaskFilter14MakeGammaTableEPhf
U _ZN17SkTableMaskFilterC1EPKh
T _ZN18AutoJavaFloatArrayC1EP7_JNIEnvP12_jfloatArrayi9JNIAccess
T _ZN18AutoJavaFloatArrayC2EP7_JNIEnvP12_jfloatArrayi9JNIAccess
T _ZN18AutoJavaFloatArrayD1Ev
T _ZN18AutoJavaFloatArrayD2Ev
T _ZN18AutoJavaShortArrayC1EP7_JNIEnvP12_jshortArrayi9JNIAccess
T _ZN18AutoJavaShortArrayC2EP7_JNIEnvP12_jshortArrayi9JNIAccess
T _ZN18AutoJavaShortArrayD1Ev
T _ZN18AutoJavaShortArrayD2Ev
T _ZN18JavaPixelAllocator13allocPixelRefEP8SkBitmapP12SkColorTable
T _ZN18JavaPixelAllocatorC1EP7_JNIEnvb
T _ZN18JavaPixelAllocatorC2EP7_JNIEnvb
U _ZN18SkCornerPathEffectC1Ef
U _ZN18SkInterpolatorBaseD2Ev
U _ZN18SkPath1DPathEffectC1ERK6SkPathffNS_5StyleE
U _ZN18SkVMMemoryReporterD2Ev
U _ZN19SkColorMatrixFilterC1EPKf
U _ZN20SkDiscretePathEffectC1Eff
T _ZN20Yuv422IToJpegEncoder12deinterleaveEPhS0_S0_S0_iii
T _ZN20Yuv422IToJpegEncoder21configSamplingFactorsEP20jpeg_compress_struct
T _ZN20Yuv422IToJpegEncoder8compressEP20jpeg_compress_structPhPi
T _ZN20Yuv422IToJpegEncoderC1EPi
T _ZN20Yuv422IToJpegEncoderC2EPi
U _ZN21SkImageRef_GlobalPool10SetRAMUsedEj
U _ZN21SkImageRef_GlobalPool12SetRAMBudgetEj
U _ZN21SkImageRef_GlobalPoolC1EP8SkStreamN8SkBitmap6ConfigEi
T _ZN21Yuv420SpToJpegEncoder12deinterleaveEPhS0_S0_ii
T _ZN21Yuv420SpToJpegEncoder21configSamplingFactorsEP20jpeg_compress_struct
T _ZN21Yuv420SpToJpegEncoder8compressEP20jpeg_compress_structPhPi
T _ZN21Yuv420SpToJpegEncoderC1EPi
T _ZN21Yuv420SpToJpegEncoderC2EPi
U _ZN22SkPaintFlagsDrawFilterC1Ejj
U _ZN22skjpeg_destination_mgrC1EP9SkWStream
T _ZN23JavaMemoryUsageReporter12reportMemoryEj
T _ZN23JavaMemoryUsageReporterC1EP7_JNIEnv
T _ZN23JavaMemoryUsageReporterC2EP7_JNIEnv
T _ZN23JavaMemoryUsageReporterD0Ev
T _ZN23JavaMemoryUsageReporterD1Ev
T _ZN23JavaMemoryUsageReporterD2Ev
U _ZN4Sk646setMulEii
U _ZN6SkPath10incReserveEj
U _ZN6SkPath12addRoundRectERK6SkRectPKfNS_9DirectionE
U _ZN6SkPath12addRoundRectERK6SkRectffNS_9DirectionE
U _ZN6SkPath5arcToERK6SkRectffb
U _ZN6SkPath5closeEv
U _ZN6SkPath5resetEv
U _ZN6SkPath6addArcERK6SkRectff
U _ZN6SkPath6lineToEff
U _ZN6SkPath6moveToEff
U _ZN6SkPath6quadToEffff
U _ZN6SkPath6rewindEv
U _ZN6SkPath7addOvalERK6SkRectNS_9DirectionE
U _ZN6SkPath7addPathERKS_RK8SkMatrix
U _ZN6SkPath7addPathERKS_ff
U _ZN6SkPath7addRectERK6SkRectNS_9DirectionE
U _ZN6SkPath7addRectEffffNS_9DirectionE
U _ZN6SkPath7cubicToEffffff
U _ZN6SkPath7rLineToEff
U _ZN6SkPath7rMoveToEff
U _ZN6SkPath7rQuadToEffff
U _ZN6SkPath8rCubicToEffffff
U _ZN6SkPath9addCircleEfffNS_9DirectionE
U _ZN6SkPath9setLastPtEff
U _ZN6SkPathC1ERKS_
U _ZN6SkPathC1Ev
U _ZN6SkPathD1Ev
U _ZN6SkPathaSERKS_
U _ZN7SkMovie12DecodeMemoryEPKvj
U _ZN7SkMovie12DecodeStreamEP8SkStream
U _ZN7SkMovie5widthEv
U _ZN7SkMovie6bitmapEv
U _ZN7SkMovie6heightEv
U _ZN7SkMovie7setTimeEj
U _ZN7SkMovie8durationEv
U _ZN7SkMovie8isOpaqueEv
U _ZN7SkPaint11setTextSizeEf
U _ZN7SkPaint11setTypefaceEP10SkTypeface
U _ZN7SkPaint11setXfermodeEP10SkXfermode
U _ZN7SkPaint12setAntiAliasEb
U _ZN7SkPaint12setStrokeCapENS_3CapE
U _ZN7SkPaint12setTextAlignENS_5AlignE
U _ZN7SkPaint12setTextSkewXEf
U _ZN7SkPaint13setLinearTextEb
U _ZN7SkPaint13setMaskFilterEP12SkMaskFilter
U _ZN7SkPaint13setPathEffectEP12SkPathEffect
U _ZN7SkPaint13setRasterizerEP12SkRasterizer
U _ZN7SkPaint13setStrokeJoinENS_4JoinE
U _ZN7SkPaint13setTextScaleXEf
U _ZN7SkPaint14setColorFilterEP13SkColorFilter
U _ZN7SkPaint14setStrokeMiterEf
U _ZN7SkPaint14setStrokeWidthEf
U _ZN7SkPaint15setFakeBoldTextEb
U _ZN7SkPaint15setFilterBitmapEb
U _ZN7SkPaint15setSubpixelTextEb
U _ZN7SkPaint15setTextEncodingENS_12TextEncodingE
U _ZN7SkPaint16setUnderlineTextEb
U _ZN7SkPaint17setStrikeThruTextEb
U _ZN7SkPaint5resetEv
U _ZN7SkPaint8setAlphaEj
U _ZN7SkPaint8setColorEj
U _ZN7SkPaint8setFlagsEj
U _ZN7SkPaint8setStyleENS_5StyleE
U _ZN7SkPaint9setDitherEb
U _ZN7SkPaint9setLooperEP12SkDrawLooper
U _ZN7SkPaint9setShaderEP8SkShader
U _ZN7SkPaintC1ERKS_
U _ZN7SkPaintC1Ev
U _ZN7SkPaintD1Ev
U _ZN7SkPaintaSERKS_
U _ZN7android10AudioTrack11getPositionEPj
U _ZN7android10AudioTrack11setPositionEj
U _ZN7android10AudioTrack12getSessionIdEv
U _ZN7android10AudioTrack12sharedBufferEv
U _ZN7android10AudioTrack13getSampleRateEv
U _ZN7android10AudioTrack13setSampleRateEi
U _ZN7android10AudioTrack15attachAuxEffectEi
U _ZN7android10AudioTrack16getMinFrameCountEPiij
U _ZN7android10AudioTrack17getMarkerPositionEPj
U _ZN7android10AudioTrack17setMarkerPositionEj
U _ZN7android10AudioTrack21setAuxEffectSendLevelEf
U _ZN7android10AudioTrack23getPositionUpdatePeriodEPj
U _ZN7android10AudioTrack23setPositionUpdatePeriodEj
U _ZN7android10AudioTrack3setEijiiijPFviPvS1_ES1_iRKNS_2spINS_7IMemoryEEEbi
U _ZN7android10AudioTrack4stopEv
U _ZN7android10AudioTrack5flushEv
U _ZN7android10AudioTrack5pauseEv
U _ZN7android10AudioTrack5startEv
U _ZN7android10AudioTrack5writeEPKvj
U _ZN7android10AudioTrack6reloadEv
U _ZN7android10AudioTrack7setLoopEjji
U _ZN7android10AudioTrack9setVolumeEff
U _ZN7android10AudioTrackC1Ev
U _ZN7android10AudioTrackD1Ev
U _ZN7android10IInterface8asBinderEv
U _ZN7android10MemoryBaseC1ERKNS_2spINS_11IMemoryHeapEEElj
U _ZN7android10ResXMLTree5setToEPKvjb
U _ZN7android10ResXMLTreeC1EPKvjb
U _ZN7android10ResXMLTreeC1Ev
U _ZN7android10ResXMLTreeD1Ev
U _ZN7android10VectorImpl11setCapacityEj
U _ZN7android10VectorImpl13editArrayImplEv
U _ZN7android10VectorImpl13finish_vectorEv
U _ZN7android10VectorImpl13removeItemsAtEjj
U _ZN7android10VectorImpl16editItemLocationEj
U _ZN7android10VectorImpl19reservedVectorImpl1Ev
U _ZN7android10VectorImpl19reservedVectorImpl2Ev
U _ZN7android10VectorImpl19reservedVectorImpl3Ev
U _ZN7android10VectorImpl19reservedVectorImpl4Ev
U _ZN7android10VectorImpl19reservedVectorImpl5Ev
U _ZN7android10VectorImpl19reservedVectorImpl6Ev
U _ZN7android10VectorImpl19reservedVectorImpl7Ev
U _ZN7android10VectorImpl19reservedVectorImpl8Ev
U _ZN7android10VectorImpl3addEPKv
U _ZN7android10VectorImpl3popEv
U _ZN7android10VectorImpl4pushEPKv
U _ZN7android10VectorImplC2Ejj
U _ZN7android10VectorImplD2Ev
U _ZN7android11AudioRecord16getMinFrameCountEPijii
U _ZN7android11AudioRecord17getMarkerPositionEPj
U _ZN7android11AudioRecord17setMarkerPositionEj
U _ZN7android11AudioRecord23getPositionUpdatePeriodEPj
U _ZN7android11AudioRecord23setPositionUpdatePeriodEj
U _ZN7android11AudioRecord3setEijijijPFviPvS1_ES1_ibi
U _ZN7android11AudioRecord4readEPvj
U _ZN7android11AudioRecord4stopEv
U _ZN7android11AudioRecord5startEv
U _ZN7android11AudioRecordC1Ev
U _ZN7android11AudioRecordD1Ev
U _ZN7android11AudioSystem11getForceUseENS0_9force_useE
U _ZN7android11AudioSystem11linearToLogEi
U _ZN7android11AudioSystem11setForceUseENS0_9force_useENS0_13forced_configE
U _ZN7android11AudioSystem13getParametersEiRKNS_7String8E
U _ZN7android11AudioSystem13setParametersEiRKNS_7String8E
U _ZN7android11AudioSystem13setPhoneStateEi
U _ZN7android11AudioSystem13setRingerModeEjj
U _ZN7android11AudioSystem14isInputChannelEj
U _ZN7android11AudioSystem14isStreamActiveEiPb
U _ZN7android11AudioSystem14muteMicrophoneEb
U _ZN7android11AudioSystem15isOutputChannelEj
U _ZN7android11AudioSystem16initStreamVolumeENS0_11stream_typeEii
U _ZN7android11AudioSystem16setErrorCallbackEPFviE
U _ZN7android11AudioSystem17isMicrophoneMutedEPb
U _ZN7android11AudioSystem19getOutputFrameCountEPii
U _ZN7android11AudioSystem20getStreamVolumeIndexENS0_11stream_typeEPi
U _ZN7android11AudioSystem20setStreamVolumeIndexENS0_11stream_typeEi
U _ZN7android11AudioSystem21getOutputSamplingRateEPii
U _ZN7android11AudioSystem24getDeviceConnectionStateENS0_13audio_devicesEPKc
U _ZN7android11AudioSystem24setDeviceConnectionStateENS0_13audio_devicesENS0_23device_connection_stateEPKc
U _ZN7android11AudioSystem8popCountEj
U _ZN7android11MotionEvent10initializeEiiiiiiffffxxjPKiPKNS_13PointerCoordsE
U _ZN7android11MotionEvent9addSampleExPKNS_13PointerCoordsE
U _ZN7android12AssetManager10isUpToDateEv
U _ZN7android12AssetManager12addAssetPathERKNS_7String8EPPv
U _ZN7android12AssetManager12openNonAssetEPKcNS_5Asset10AccessModeE
U _ZN7android12AssetManager12openNonAssetEPvPKcNS_5Asset10AccessModeE
U _ZN7android12AssetManager16addDefaultAssetsEv
U _ZN7android12AssetManager16setConfigurationERKNS_15ResTable_configEPKc
U _ZN7android12AssetManager4openEPKcNS_5Asset10AccessModeE
U _ZN7android12AssetManager7openDirEPKc
U _ZN7android12AssetManager9setLocaleEPKc
U _ZN7android12AssetManagerC1ENS0_9CacheModeE
T _ZN7android12CursorWindow10getRowSlotEi
T _ZN7android12CursorWindow10initBufferEb
T _ZN7android12CursorWindow11copyOutLongEj
T _ZN7android12CursorWindow12allocRowSlotEv
T _ZN7android12CursorWindow13copyOutDoubleEj
T _ZN7android12CursorWindow15read_field_slotEiiPNS_12field_slot_tE
T _ZN7android12CursorWindow21getFieldSlotWithCheckEii
T _ZN7android12CursorWindow5allocEjb
T _ZN7android12CursorWindow5clearEv
T _ZN7android12CursorWindow6copyInEjPKhj
T _ZN7android12CursorWindow6copyInEjd
T _ZN7android12CursorWindow6copyInEjx
T _ZN7android12CursorWindow7copyOutEjPhj
T _ZN7android12CursorWindow7getLongEjjPx
T _ZN7android12CursorWindow7getNullEjjPb
T _ZN7android12CursorWindow7putLongEjjx
T _ZN7android12CursorWindow7putNullEjj
T _ZN7android12CursorWindow8allocRowEv
T _ZN7android12CursorWindow9freeSpaceEv
T _ZN7android12CursorWindow9getDoubleEjjPd
T _ZN7android12CursorWindow9putDoubleEjjd
T _ZN7android12CursorWindow9setMemoryERKNS_2spINS_7IMemoryEEE
T _ZN7android12CursorWindowC1Ej
T _ZN7android12CursorWindowC2Ej
T _ZN7android12CursorWindowD1Ev
T _ZN7android12CursorWindowD2Ev
U _ZN7android12InputChannel20openInputChannelPairERKNS_7String8ERNS_2spIS0_EES6_
U _ZN7android12InputChannelC1ERKNS_7String8Eiii
U _ZN7android12ProcessState16getContextObjectERKNS_2spINS_7IBinderEEE
U _ZN7android12ProcessState4selfEv
U _ZN7android12ProcessState8setArgV0EPKc
U _ZN7android12ResXMLParser4nextEv
U _ZN7android12ResXMLParser7restartEv
U _ZN7android12ResXMLParserC1ERKNS_10ResXMLTreeE
U _ZN7android12uptimeMillisEv
U _ZN7android13InputConsumer10initializeEv
U _ZN7android13InputConsumer18sendFinishedSignalEv
U _ZN7android13InputConsumer21receiveDispatchSignalEv
U _ZN7android13InputConsumer7consumeEPNS_26InputEventFactoryInterfaceEPPNS_10InputEventE
U _ZN7android13InputConsumerC1ERKNS_2spINS_12InputChannelEEE
U _ZN7android13InputConsumerD1Ev
U _ZN7android13ResStringPoolC1EPKvjb
U _ZN7android13ResStringPoolD1Ev
U _ZN7android13SensorManager16createEventQueueEv
U _ZN7android13SensorManagerC1Ev
U _ZN7android13ToneGenerator8stopToneEv
U _ZN7android13ToneGenerator9startToneEii
U _ZN7android13ToneGeneratorC1Eifb
U _ZN7android13ToneGeneratorD1Ev
U _ZN7android13back_up_filesEiPNS_16BackupDataWriterEiPKPKcS5_i
U _ZN7android13bytesPerPixelEi
B _ZN7android13g_stringClassE
T _ZN7android14AndroidRuntime10callStaticEPKcS2_
T _ZN7android14AndroidRuntime10getRuntimeEv
T _ZN7android14AndroidRuntime14addVmArgumentsEiPKPKc
T _ZN7android14AndroidRuntime14parseExtraOptsEPc
T _ZN7android14AndroidRuntime15javaThreadShellEPv
T _ZN7android14AndroidRuntime16createJavaThreadEPKcPFvPvES3_
T _ZN7android14AndroidRuntime19javaCreateThreadEtcEPFiPvES1_PKcijPS1_
T _ZN7android14AndroidRuntime21registerNativeMethodsEP7_JNIEnvPKcPK15JNINativeMethodi
T _ZN7android14AndroidRuntime5startEPKcb
T _ZN7android14AndroidRuntime5startEv
T _ZN7android14AndroidRuntime6onExitEi
B _ZN7android14AndroidRuntime7mJavaVME
T _ZN7android14AndroidRuntime7startVmEPP7_JavaVMPP7_JNIEnv
T _ZN7android14AndroidRuntime8callMainEPKciPKS2_
T _ZN7android14AndroidRuntime8startRegEP7_JNIEnv
T _ZN7android14AndroidRuntime9findClassEP7_JNIEnvPKc
T _ZN7android14AndroidRuntime9getJNIEnvEv
T _ZN7android14AndroidRuntimeC1Ev
T _ZN7android14AndroidRuntimeC2Ev
T _ZN7android14AndroidRuntimeD0Ev
T _ZN7android14AndroidRuntimeD1Ev
T _ZN7android14AndroidRuntimeD2Ev
U _ZN7android14IPCThreadState13flushCommandsEv
U _ZN7android14IPCThreadState13getCallingPidEv
U _ZN7android14IPCThreadState13getCallingUidEv
U _ZN7android14IPCThreadState14joinThreadPoolEb
U _ZN7android14IPCThreadState19setStrictModePolicyEi
U _ZN7android14IPCThreadState20clearCallingIdentityEv
U _ZN7android14IPCThreadState22restoreCallingIdentityEx
U _ZN7android14IPCThreadState27disableBackgroundSchedulingEb
U _ZN7android14IPCThreadState29setLastTransactionBinderFlagsEi
U _ZN7android14IPCThreadState4selfEv
U _ZN7android14MemoryHeapBaseC1EjjPKc
U _ZN7android14Res_png_9patch11deserializeEPKv
U _ZN7android14Res_png_9patch12fileToDeviceEv
U _ZN7android14Res_png_9patch14serializedSizeEv
U _ZN7android14Res_png_9patch9serializeEPv
U _ZN7android14SurfaceControl11setPositionEii
U _ZN7android14SurfaceControl13isSameSurfaceERKNS_2spIS0_EES4_
U _ZN7android14SurfaceControl13setFreezeTintEj
U _ZN7android14SurfaceControl20writeSurfaceToParcelERKNS_2spIS0_EEPNS_6ParcelE
U _ZN7android14SurfaceControl24setTransparentRegionHintERKNS_6RegionE
U _ZN7android14SurfaceControl4hideEv
U _ZN7android14SurfaceControl4showEi
U _ZN7android14SurfaceControl5clearEv
U _ZN7android14SurfaceControl6freezeEv
U _ZN7android14SurfaceControl7setSizeEjj
U _ZN7android14SurfaceControl8setAlphaEf
U _ZN7android14SurfaceControl8setFlagsEjj
U _ZN7android14SurfaceControl8setLayerEi
U _ZN7android14SurfaceControl8unfreezeEv
U _ZN7android14SurfaceControl9setMatrixEffff
B _ZN7android14gSensorOffsetsE
T _ZN7android14nio_getPointerEP7_JNIEnvP8_jobjectPP7_jarray
U _ZN7android15EventRecurrence5parseERKNS_8String16E
U _ZN7android15EventRecurrenceC1Ev
U _ZN7android15EventRecurrenceD1Ev
U _ZN7android15elapsedRealtimeEv
U _ZN7android16BackupDataReader14ReadEntityDataEPvj
U _ZN7android16BackupDataReader14ReadNextHeaderEPbPi
U _ZN7android16BackupDataReader14SkipEntityDataEv
U _ZN7android16BackupDataReader16ReadEntityHeaderEPNS_7String8EPj
U _ZN7android16BackupDataReaderC1Ei
U _ZN7android16BackupDataReaderD1Ev
U _ZN7android16BackupDataWriter12SetKeyPrefixERKNS_7String8E
U _ZN7android16BackupDataWriter15WriteEntityDataEPKvj
U _ZN7android16BackupDataWriter17WriteEntityHeaderERKNS_7String8Ej
U _ZN7android16BackupDataWriterC1Ei
U _ZN7android16BackupDataWriterD1Ev
T _ZN7android16NativeInputQueue10ConnectionC1EtRKNS_2spINS_12InputChannelEEERKNS2_INS_6LooperEEE
T _ZN7android16NativeInputQueue10ConnectionC2EtRKNS_2spINS_12InputChannelEEERKNS2_INS_6LooperEEE
T _ZN7android16NativeInputQueue10ConnectionD0Ev
T _ZN7android16NativeInputQueue10ConnectionD1Ev
T _ZN7android16NativeInputQueue10ConnectionD2Ev
T _ZN7android16NativeInputQueue18getConnectionIndexERKNS_2spINS_12InputChannelEEE
T _ZN7android16NativeInputQueue18parseFinishedTokenExPiPtS2_
T _ZN7android16NativeInputQueue20registerInputChannelEP7_JNIEnvP8_jobjectS4_S4_
T _ZN7android16NativeInputQueue21generateFinishedTokenEitt
T _ZN7android16NativeInputQueue21handleReceiveCallbackEiiPv
T _ZN7android16NativeInputQueue22unregisterInputChannelEP7_JNIEnvP8_jobject
T _ZN7android16NativeInputQueue26handleInputChannelDisposedEP7_JNIEnvP8_jobjectRKNS_2spINS_12InputChannelEEEPv
T _ZN7android16NativeInputQueue8finishedEP7_JNIEnvxb
T _ZN7android16NativeInputQueueC1Ev
T _ZN7android16NativeInputQueueC2Ev
T _ZN7android16NativeInputQueueD1Ev
T _ZN7android16NativeInputQueueD2Ev
U _ZN7android16SensorEventQueue4readEP12ASensorEventj
U _ZN7android16SortedVectorImpl25reservedSortedVectorImpl1Ev
U _ZN7android16SortedVectorImpl25reservedSortedVectorImpl2Ev
U _ZN7android16SortedVectorImpl25reservedSortedVectorImpl3Ev
U _ZN7android16SortedVectorImpl25reservedSortedVectorImpl4Ev
U _ZN7android16SortedVectorImpl25reservedSortedVectorImpl5Ev
U _ZN7android16SortedVectorImpl25reservedSortedVectorImpl6Ev
U _ZN7android16SortedVectorImpl25reservedSortedVectorImpl7Ev
U _ZN7android16SortedVectorImpl25reservedSortedVectorImpl8Ev
U _ZN7android16SortedVectorImpl3addEPKv
U _ZN7android16SortedVectorImplC2Ejj
U _ZN7android16SortedVectorImplD2Ev
T _ZN7android16nullObjectReturnEPKc
T _ZN7android17AutoBufferPointerC1EP7_JNIEnvP8_jobjecth
T _ZN7android17AutoBufferPointerC2EP7_JNIEnvP8_jobjecth
T _ZN7android17AutoBufferPointerD1Ev
T _ZN7android17AutoBufferPointerD2Ev
U _ZN7android17RestoreHelperBase13WriteSnapshotEi
U _ZN7android17RestoreHelperBase9WriteFileERKNS_7String8EPNS_16BackupDataReaderE
U _ZN7android17RestoreHelperBaseC1Ev
U _ZN7android17RestoreHelperBaseD1Ev
W _ZN7android17move_forward_typeINS_7String8EEEvPT_PKS2_j
T _ZN7android17newFileDescriptorEP7_JNIEnvi
T _ZN7android18AssetStreamAdaptor4readEPvj
T _ZN7android18AssetStreamAdaptor6rewindEv
T _ZN7android18EmojiFactoryCaller24TryCallGetImplementationEPKc
T _ZN7android18EmojiFactoryCaller33TryCallGetAvailableImplementationEv
T _ZN7android18EmojiFactoryCaller4InitEv
T _ZN7android18EmojiFactoryCallerD0Ev
T _ZN7android18EmojiFactoryCallerD1Ev
T _ZN7android18EmojiFactoryCallerD2Ev
T _ZN7android18NativeInputChannel18setDisposeCallbackEPFvP7_JNIEnvP8_jobjectRKNS_2spINS_12InputChannelEEEPvESA_
T _ZN7android18NativeInputChannel30invokeAndRemoveDisposeCallbackEP7_JNIEnvP8_jobject
T _ZN7android18NativeInputChannelC1ERKNS_2spINS_12InputChannelEEE
T _ZN7android18NativeInputChannelC2ERKNS_2spINS_12InputChannelEEE
T _ZN7android18NativeInputChannelD1Ev
T _ZN7android18NativeInputChannelD2Ev
T _ZN7android18NativeMessageQueue4wakeEv
T _ZN7android18NativeMessageQueue8pollOnceEi
T _ZN7android18NativeMessageQueueC1Ev
T _ZN7android18NativeMessageQueueC2Ev
T _ZN7android18NativeMessageQueueD1Ev
T _ZN7android18NativeMessageQueueD2Ev
U _ZN7android18getPixelFormatInfoEiPNS_15PixelFormatInfoE
W _ZN7android18move_backward_typeINS_7String8EEEvPT_PKS2_j
T _ZN7android18nio_releasePointerEP7_JNIEnvP7_jarrayPvh
T _ZN7android19parcelForJavaObjectEP7_JNIEnvP8_jobject
T _ZN7android20ibinderForJavaObjectEP7_JNIEnvP8_jobject
T _ZN7android20javaObjectForIBinderEP7_JNIEnvRKNS_2spINS_7IBinderEEE
T _ZN7android20nativeUtilsClassInitEP7_JNIEnvP7_jclass
T _ZN7android20poly_clip_to_frustumEPNS_4PolyE
U _ZN7android20setCurrentTimeMillisEx
U _ZN7android21SurfaceComposerClient13createSurfaceEiRKNS_7String8Eijjij
U _ZN7android21SurfaceComposerClient13createSurfaceEiijjij
U _ZN7android21SurfaceComposerClient13freezeDisplayEij
U _ZN7android21SurfaceComposerClient14getDisplayInfoEiPNS_11DisplayInfoE
U _ZN7android21SurfaceComposerClient14setOrientationEiij
U _ZN7android21SurfaceComposerClient15getDisplayWidthEi
U _ZN7android21SurfaceComposerClient15unfreezeDisplayEij
U _ZN7android21SurfaceComposerClient16getDisplayHeightEi
U _ZN7android21SurfaceComposerClient19getNumberOfDisplaysEv
U _ZN7android21SurfaceComposerClient21getDisplayOrientationEi
U _ZN7android21SurfaceComposerClient21openGlobalTransactionEv
U _ZN7android21SurfaceComposerClient22closeGlobalTransactionEv
U _ZN7android21SurfaceComposerClient7disposeEv
U _ZN7android21SurfaceComposerClientC1Ev
U _ZN7android21defaultServiceManagerEv
T _ZN7android22get_window_from_objectEP7_JNIEnvP8_jobject
T _ZN7android22poly_clip_to_halfspaceEPNS_4PolyES1_iff
T _ZN7android23newParcelFileDescriptorEP7_JNIEnvP8_jobject
T _ZN7android23openContentProviderFileERKNS_8String16E
T _ZN7android23signalExceptionForErrorEP7_JNIEnvP8_jobjecti
T _ZN7android23throw_sqlite3_exceptionEP7_JNIEnvP7sqlite3
T _ZN7android23throw_sqlite3_exceptionEP7_JNIEnvP7sqlite3PKc
T _ZN7android23throw_sqlite3_exceptionEP7_JNIEnvPKc
T _ZN7android23throw_sqlite3_exceptionEP7_JNIEnviPKcS3_
T _ZN7android25assetManagerForJavaObjectEP7_JNIEnvP8_jobject
T _ZN7android25getParcelFileDescriptorFDEP7_JNIEnvP8_jobject
T _ZN7android25register_android_os_DebugEP7_JNIEnv
T _ZN7android25register_android_os_PowerEP7_JNIEnv
T _ZN7android25register_android_util_LogEP7_JNIEnv
T _ZN7android26register_android_nio_utilsEP7_JNIEnv
T _ZN7android26register_android_os_StatFsEP7_JNIEnv
T _ZN7android29android_NativeActivity_finishEP15ANativeActivity
T _ZN7android29register_android_os_FileUtilsEP7_JNIEnv
T _ZN7android29register_android_view_DisplayEP7_JNIEnv
T _ZN7android29register_android_view_SurfaceEP7_JNIEnv
W _ZN7android2spI11JavaBBinderEaSEPS1_
W _ZN7android2spI13ANativeWindowEaSERKS2_
W _ZN7android2spINS_10MemoryBaseEEaSEPS1_
W _ZN7android2spINS_12InputChannelEED1Ev
W _ZN7android2spINS_14MemoryHeapBaseEEaSEPS1_
W _ZN7android2spINS_14SurfaceControlEED1Ev
W _ZN7android2spINS_14SurfaceControlEEaSERKS2_
W _ZN7android2spINS_16NativeInputQueue10ConnectionEED1Ev
W _ZN7android2spINS_16NativeInputQueue10ConnectionEEaSERKS3_
W _ZN7android2spINS_6CameraEED1Ev
W _ZN7android2spINS_6CameraEEaSERKS2_
W _ZN7android2spINS_6LooperEEaSEPS1_
W _ZN7android2spINS_6LooperEEaSERKS2_
W _ZN7android2spINS_7IBinderEEC1EPS1_
W _ZN7android2spINS_7IBinderEED1Ev
W _ZN7android2spINS_7IMemoryEED1Ev
W _ZN7android2spINS_7IMemoryEEaSERKS2_
W _ZN7android2spINS_7IMemoryEEaSINS_10MemoryBaseEEERS2_PT_
W _ZN7android2spINS_7SurfaceEED1Ev
W _ZN7android2spINS_7SurfaceEEaSEPS1_
W _ZN7android2spINS_7SurfaceEEaSERKS2_
W _ZN7android2wpI11JavaBBinderEaSERKNS_2spIS1_EE
T _ZN7android30android_view_KeyEvent_toNativeEP7_JNIEnvP8_jobjectPNS_8KeyEventE
T _ZN7android30register_android_debug_JNITestEP7_JNIEnv
T _ZN7android30register_android_graphics_PathEP7_JNIEnv
T _ZN7android30register_android_os_MemoryFileEP7_JNIEnv
T _ZN7android30register_android_util_EventLogEP7_JNIEnv
T _ZN7android30register_android_view_KeyEventEP7_JNIEnv
T _ZN7android30register_android_view_ViewRootEP7_JNIEnv
T _ZN7android31android_Surface_getNativeWindowEP7_JNIEnvP8_jobject
T _ZN7android31register_android_graphics_PaintEP7_JNIEnv
T _ZN7android31register_android_nfc_NdefRecordEP7_JNIEnv
T _ZN7android31register_android_opengl_classesEP7_JNIEnv
T _ZN7android31register_android_os_SystemClockEP7_JNIEnv
T _ZN7android31throw_sqlite3_exception_errcodeEP7_JNIEnviPKc
T _ZN7android32android_view_KeyEvent_fromNativeEP7_JNIEnvPKNS_8KeyEventE
T _ZN7android32android_view_MotionEvent_recycleEP7_JNIEnvP8_jobject
T _ZN7android32register_android_graphics_CanvasEP7_JNIEnv
T _ZN7android32register_android_graphics_MatrixEP7_JNIEnv
T _ZN7android32register_android_nfc_NdefMessageEP7_JNIEnv
T _ZN7android32register_android_os_FileObserverEP7_JNIEnv
T _ZN7android32register_android_os_MessageQueueEP7_JNIEnv
T _ZN7android32register_android_server_WatchdogEP7_JNIEnv
T _ZN7android32register_android_view_InputQueueEP7_JNIEnv
T _ZN7android33android_Configuration_getFromJavaEP7_JNIEnvP8_jobjectP14AConfiguration
T _ZN7android33android_os_MessageQueue_getLooperEP7_JNIEnvP8_jobject
T _ZN7android33android_view_MotionEvent_toNativeEP7_JNIEnvP8_jobjectPNS_11MotionEventE
T _ZN7android33register_android_content_XmlBlockEP7_JNIEnv
T _ZN7android33register_android_graphics_PictureEP7_JNIEnv
T _ZN7android33register_android_net_NetworkUtilsEP7_JNIEnv
T _ZN7android33register_android_net_TrafficStatsEP7_JNIEnv
T _ZN7android33register_android_text_AndroidBidiEP7_JNIEnv
T _ZN7android33register_android_text_format_TimeEP7_JNIEnv
T _ZN7android33register_android_view_MotionEventEP7_JNIEnv
T _ZN7android34android_os_FileUtils_getFileStatusEP7_JNIEnvP8_jobjectP8_jstringS3_
T _ZN7android34register_android_graphics_XfermodeEP7_JNIEnv
T _ZN7android34register_android_os_UEventObserverEP7_JNIEnv
T _ZN7android34register_android_view_InputChannelEP7_JNIEnv
T _ZN7android35android_os_FileUtils_getFatVolumeIdEP7_JNIEnvP8_jobjectP8_jstring
T _ZN7android35android_os_FileUtils_getPermissionsEP7_JNIEnvP8_jobjectP8_jstringP10_jintArray
T _ZN7android35android_os_FileUtils_setPermissionsEP7_JNIEnvP8_jobjectP8_jstringiii
T _ZN7android35android_view_MotionEvent_fromNativeEP7_JNIEnvPKNS_11MotionEventE
T _ZN7android35register_android_app_NativeActivityEP7_JNIEnv
T _ZN7android35register_android_emoji_EmojiFactoryEP7_JNIEnv
T _ZN7android36android_NativeActivity_hideSoftInputEP15ANativeActivityi
T _ZN7android36android_NativeActivity_showSoftInputEP15ANativeActivityi
T _ZN7android36android_os_Debug_getDeathObjectCountEP7_JNIEnvP8_jobject
T _ZN7android36android_os_Debug_getLocalObjectCountEP7_JNIEnvP8_jobject
T _ZN7android36android_os_Debug_getProxyObjectCountEP7_JNIEnvP8_jobject
T _ZN7android36register_android_bluetooth_ScoSocketEP7_JNIEnv
T _ZN7android36register_android_content_StringBlockEP7_JNIEnv
T _ZN7android36register_android_graphics_DrawFilterEP7_JNIEnv
T _ZN7android36register_android_graphics_PorterDuffEP7_JNIEnv
T _ZN7android36register_android_graphics_RasterizerEP7_JNIEnv
T _ZN7android36register_android_net_LocalSocketImplEP7_JNIEnv
T _ZN7android36register_android_os_SystemPropertiesEP7_JNIEnv
T _ZN7android36register_android_pim_EventRecurrenceEP7_JNIEnv
T _ZN7android37android_NativeActivity_setWindowFlagsEP15ANativeActivityii
T _ZN7android37register_android_content_AssetManagerEP7_JNIEnv
T _ZN7android37register_android_database_SQLiteDebugEP7_JNIEnv
T _ZN7android37register_android_database_SQLiteQueryEP7_JNIEnv
T _ZN7android37register_android_graphics_ColorFilterEP7_JNIEnv
T _ZN7android37register_android_graphics_PathMeasureEP7_JNIEnv
T _ZN7android37register_android_graphics_PixelFormatEP7_JNIEnv
T _ZN7android37register_android_net_wifi_WifiManagerEP7_JNIEnv
T _ZN7android37register_android_text_KeyCharacterMapEP7_JNIEnv
T _ZN7android38android_NativeActivity_setWindowFormatEP15ANativeActivityi
T _ZN7android38register_android_bluetooth_HeadsetBaseEP7_JNIEnv
T _ZN7android38register_android_database_CursorWindowEP7_JNIEnv
T _ZN7android38register_android_text_AndroidCharacterEP7_JNIEnv
T _ZN7android39register_android_backup_BackupDataInputEP7_JNIEnv
T _ZN7android39register_android_content_res_ObbScannerEP7_JNIEnv
T _ZN7android39register_android_database_SQLiteProgramEP7_JNIEnv
T _ZN7android40register_android_backup_BackupDataOutputEP7_JNIEnv
T _ZN7android40register_android_database_SQLiteDatabaseEP7_JNIEnv
T _ZN7android40register_android_ddm_DdmHandleNativeHeapEP7_JNIEnv
T _ZN7android40register_android_os_ParcelFileDescriptorEP7_JNIEnv
T _ZN7android40register_android_server_BluetoothServiceEP7_JNIEnv
T _ZN7android41android_view_InputChannel_getInputChannelEP7_JNIEnvP8_jobject
T _ZN7android41register_android_database_SQLiteStatementEP7_JNIEnv
T _ZN7android42register_android_bluetooth_BluetoothSocketEP7_JNIEnv
T _ZN7android42register_android_content_res_ConfigurationEP7_JNIEnv
T _ZN7android42register_android_security_Md5MessageDigestEP7_JNIEnv
T _ZN7android42register_android_server_BluetoothEventLoopEP7_JNIEnv
T _ZN7android43register_android_database_SQLiteCompiledSqlEP7_JNIEnv
T _ZN7android43register_com_android_internal_os_ZygoteInitEP7_JNIEnv
T _ZN7android44android_view_InputChannel_setDisposeCallbackEP7_JNIEnvP8_jobjectPFvS1_S3_RKNS_2spINS_12InputChannelEEEPvES9_
T _ZN7android44register_android_backup_FileBackupHelperBaseEP7_JNIEnv
T _ZN7android44register_android_server_BluetoothA2dpServiceEP7_JNIEnv
T _ZN7android44register_com_android_internal_os_RuntimeInitEP7_JNIEnv
T _ZN7android46register_android_backup_BackupHelperDispatcherEP7_JNIEnv
T _ZN7android48register_android_bluetooth_BluetoothAudioGatewayEP7_JNIEnv
T _ZN7android4Time14switchTimezoneEPKc
T _ZN7android4Time3setEx
T _ZN7android4Time7compareERS0_S1_
T _ZN7android4Time8setToNowEv
T _ZN7android4Time8toMillisEb
T _ZN7android4TimeC1Ev
T _ZN7android4TimeC2Ev
T _ZN7android50register_com_android_internal_graphics_NativeUtilsEP7_JNIEnv
U _ZN7android5Asset14getGlobalCountEv
U _ZN7android5Asset19getAssetAllocationsEv
U _ZN7android6Camera10disconnectEv
U _ZN7android6Camera11sendCommandEiii
U _ZN7android6Camera11setListenerERKNS_2spINS_14CameraListenerEEE
U _ZN7android6Camera11stopPreviewEv
U _ZN7android6Camera11takePictureEv
U _ZN7android6Camera12startPreviewEv
U _ZN7android6Camera13getCameraInfoEiPNS_10CameraInfoE
U _ZN7android6Camera13setParametersERKNS_7String8E
U _ZN7android6Camera14previewEnabledEv
U _ZN7android6Camera15cancelAutoFocusEv
U _ZN7android6Camera17setPreviewDisplayERKNS_2spINS_7SurfaceEEE
U _ZN7android6Camera18getNumberOfCamerasEv
U _ZN7android6Camera23setPreviewCallbackFlagsEi
U _ZN7android6Camera4lockEv
U _ZN7android6Camera6unlockEv
U _ZN7android6Camera7connectEi
U _ZN7android6Camera9autoFocusEv
U _ZN7android6Camera9reconnectEv
U _ZN7android6Looper12getForThreadEv
U _ZN7android6Looper12setForThreadERKNS_2spIS0_EE
U _ZN7android6Looper4wakeEv
U _ZN7android6Looper5addFdEiiiPFiiiPvES1_
U _ZN7android6Looper8pollOnceEiPiS1_PPv
U _ZN7android6Looper8removeFdEi
U _ZN7android6LooperC1Eb
U _ZN7android6Parcel10appendFromEPS0_jj
U _ZN7android6Parcel10writeFloatEf
U _ZN7android6Parcel10writeInt32Ei
U _ZN7android6Parcel10writeInt64Ex
U _ZN7android6Parcel11setDataSizeEj
U _ZN7android6Parcel11writeDoubleEd
U _ZN7android6Parcel12writeInplaceEj
U _ZN7android6Parcel12writeString8ERKNS_7String8E
U _ZN7android6Parcel13writeString16EPKtj
U _ZN7android6Parcel13writeString16ERKNS_8String16E
U _ZN7android6Parcel15setDataCapacityEj
U _ZN7android6Parcel17writeStrongBinderERKNS_2spINS_7IBinderEEE
U _ZN7android6Parcel19writeInterfaceTokenERKNS_8String16E
U _ZN7android6Parcel22writeDupFileDescriptorEi
U _ZN7android6Parcel8freeDataEv
U _ZN7android6ParcelC1Ev
U _ZN7android6ParcelD1Ev
U _ZN7android6Region16addRectUncheckedEiiii
U _ZN7android6Region3setERKNS_4RectE
U _ZN7android6RegionC1ERKNS_4RectE
U _ZN7android6RegionC1Ev
U _ZN7android6RegionD1Ev
U _ZN7android7BBinder10onTransactEjRKNS_6ParcelEPS1_j
U _ZN7android7BBinder10pingBinderEv
U _ZN7android7BBinder11linkToDeathERKNS_2spINS_7IBinder14DeathRecipientEEEPvj
U _ZN7android7BBinder11localBinderEv
U _ZN7android7BBinder12attachObjectEPKvPvS3_PFvS2_S3_S3_E
U _ZN7android7BBinder12detachObjectEPKv
U _ZN7android7BBinder13unlinkToDeathERKNS_2wpINS_7IBinder14DeathRecipientEEEPvjPS4_
U _ZN7android7BBinder4dumpEiRKNS_6VectorINS_8String16EEE
U _ZN7android7BBinder8transactEjRKNS_6ParcelEPS1_j
U _ZN7android7BBinderC2Ev
U _ZN7android7BBinderD0Ev
U _ZN7android7BBinderD1Ev
U _ZN7android7BBinderD2Ev
U _ZN7android7IBinder11localBinderEv
U _ZN7android7IBinder12remoteBinderEv
U _ZN7android7IBinder19queryLocalInterfaceERKNS_8String16E
U _ZN7android7IBinderD0Ev
U _ZN7android7IBinderD1Ev
U _ZN7android7IMemory11asInterfaceERKNS_2spINS_7IBinderEEE
U _ZN7android7ObbFile8readFromEPKc
U _ZN7android7ObbFileC1Ev
U _ZN7android7RefBase10onFirstRefEv
U _ZN7android7RefBase12weakref_type16attemptIncStrongEPKv
U _ZN7android7RefBase12weakref_type7decWeakEPKv
U _ZN7android7RefBase13onLastWeakRefEPKv
U _ZN7android7RefBase15onLastStrongRefEPKv
U _ZN7android7RefBase20onIncStrongAttemptedEjPKv
U _ZN7android7RefBaseC2Ev
U _ZN7android7RefBaseD2Ev
U _ZN7android7String810lockBufferEj
U _ZN7android7String812unlockBufferEj
U _ZN7android7String812unlockBufferEv
U _ZN7android7String85setToEPKc
U _ZN7android7String85setToERKS0_
U _ZN7android7String86appendEPKc
U _ZN7android7String86appendERKS0_
U _ZN7android7String8C1EPKc
U _ZN7android7String8C1EPKtj
U _ZN7android7String8C1ERKNS_8String16E
U _ZN7android7String8C1ERKS0_
U _ZN7android7String8C1Ev
U _ZN7android7String8D1Ev
U _ZN7android7Surface13unlockAndPostEv
U _ZN7android7Surface14readFromParcelERKNS_6ParcelE
U _ZN7android7Surface4lockEPNS0_11SurfaceInfoEPNS_6RegionEb
U _ZN7android7Surface7isValidEv
T _ZN7android7compileEP7_JNIEnvP8_jobjectP7sqlite3P8_jstring
U _ZN7android8KeyEvent10initializeEiiiiiiiixx
U _ZN7android8KeyEvent11isSystemKeyEi
U _ZN7android8KeyEvent16hasDefaultActionEi
U _ZN7android8ResTable5Theme10applyStyleEjb
U _ZN7android8ResTable5Theme5setToERKS1_
U _ZN7android8ResTable5ThemeC1ERKS0_
U _ZN7android8ResTable5ThemeD1Ev
U _ZN7android8String165setToEPKtj
U _ZN7android8String166appendEPKtj
U _ZN7android8String16C1EPKc
U _ZN7android8String16C1EPKcj
U _ZN7android8String16C1EPKtj
U _ZN7android8String16C1ERKNS_7String8E
U _ZN7android8String16C1Ev
U _ZN7android8String16D1Ev
U _ZN7android9JetPlayer10clearQueueEv
U _ZN7android9JetPlayer10loadFromFDEixx
U _ZN7android9JetPlayer11setMuteFlagEibb
U _ZN7android9JetPlayer11triggerClipEi
U _ZN7android9JetPlayer12loadFromFileEPKc
U _ZN7android9JetPlayer12queueSegmentEiiiimh
U _ZN7android9JetPlayer12setMuteFlagsEmb
U _ZN7android9JetPlayer16setEventCallbackEPFviiiPvE
U _ZN7android9JetPlayer4initEv
U _ZN7android9JetPlayer4playEv
U _ZN7android9JetPlayer5pauseEv
U _ZN7android9JetPlayer7releaseEv
U _ZN7android9JetPlayer9closeFileEv
U _ZN7android9JetPlayerC1EP8_jobjectii
U _ZN7android9JetPlayerD1Ev
U _ZN7android9SingletonINS_13SensorManagerEE5sLockE
U _ZN7android9SingletonINS_13SensorManagerEE9sInstanceE
U _ZN8Sk3DView4saveEv
U _ZN8Sk3DView7restoreEv
U _ZN8Sk3DView7rotateXEf
U _ZN8Sk3DView7rotateYEf
U _ZN8Sk3DView7rotateZEf
U _ZN8Sk3DView9translateEfff
U _ZN8Sk3DViewC1Ev
U _ZN8Sk3DViewD1Ev
U _ZN8SkBitmap11allocPixelsEPNS_9AllocatorEP12SkColorTable
U _ZN8SkBitmap11setIsOpaqueEb
U _ZN8SkBitmap11setPixelRefEP10SkPixelRefj
U _ZN8SkBitmap9setConfigENS_6ConfigEiii
U _ZN8SkBitmap9setPixelsEPvP12SkColorTable
U _ZN8SkBitmapC1ERKS_
U _ZN8SkBitmapC1Ev
U _ZN8SkBitmapD1Ev
U _ZN8SkCanvas10drawCircleEfffRK7SkPaint
U _ZN8SkCanvas11resetMatrixEv
U _ZN8SkCanvas13drawRoundRectERK6SkRectffRK7SkPaint
U _ZN8SkCanvas14drawRectCoordsEffffRK7SkPaint
U _ZN8SkCanvas14restoreToCountEi
U _ZN8SkCanvas14saveLayerAlphaEPK6SkRectjNS_9SaveFlagsE
U _ZN8SkCanvas16drawTextOnPathHVEPKvjRK6SkPathffRK7SkPaint
U _ZN8SkCanvas7drawArcERK6SkRectffbRK7SkPaint
U _ZN8SkCanvas8drawARGBEjjjjN10SkXfermode4ModeE
U _ZN8SkCanvas8drawLineEffffRK7SkPaint
U _ZN8SkCanvas8drawOvalERK6SkRectRK7SkPaint
U _ZN8SkCanvas9drawColorEjN10SkXfermode4ModeE
U _ZN8SkCanvas9drawPointEffRK7SkPaint
U _ZN8SkCanvasC1EP8SkDevice
U _ZN8SkCanvasC1ERK8SkBitmap
U _ZN8SkDevice12accessBitmapEb
U _ZN8SkMatrix10postConcatERKS_
U _ZN8SkMatrix10postRotateEf
U _ZN8SkMatrix10postRotateEfff
U _ZN8SkMatrix12preTranslateEff
U _ZN8SkMatrix12setTranslateEff
U _ZN8SkMatrix13postTranslateEff
U _ZN8SkMatrix13setPolyToPolyEPK7SkPointS2_i
U _ZN8SkMatrix13setRectToRectERK6SkRectS2_NS_10ScaleToFitE
U _ZN8SkMatrix5resetEv
U _ZN8SkMatrix7preSkewEff
U _ZN8SkMatrix7preSkewEffff
U _ZN8SkMatrix7setSkewEff
U _ZN8SkMatrix7setSkewEffff
U _ZN8SkMatrix8postSkewEff
U _ZN8SkMatrix8postSkewEffff
U _ZN8SkMatrix8preScaleEff
U _ZN8SkMatrix8preScaleEffff
U _ZN8SkMatrix8setScaleEff
U _ZN8SkMatrix8setScaleEffff
U _ZN8SkMatrix9postScaleEff
U _ZN8SkMatrix9postScaleEffff
U _ZN8SkMatrix9preConcatERKS_
U _ZN8SkMatrix9preRotateEf
U _ZN8SkMatrix9preRotateEfff
U _ZN8SkMatrix9setConcatERKS_S1_
U _ZN8SkMatrix9setRotateEf
U _ZN8SkMatrix9setRotateEfff
U _ZN8SkMatrix9setSinCosEff
U _ZN8SkMatrix9setSinCosEffff
U _ZN8SkRegion2opERK7SkIRectRKS_NS_2OpE
U _ZN8SkRegion2opERKS_RK7SkIRectNS_2OpE
U _ZN8SkRegion2opERKS_S1_NS_2OpE
U _ZN8SkRegion4swapERS_
U _ZN8SkRegion7setPathERK6SkPathRKS_
U _ZN8SkRegion7setRectEiiii
U _ZN8SkRegion8Iterator4nextEv
U _ZN8SkRegion8Iterator5resetERKS_
U _ZN8SkRegion8IteratorC1ERKS_
U _ZN8SkRegion9unflattenEPKv
U _ZN8SkRegionC1ERKS_
U _ZN8SkRegionC1Ev
U _ZN8SkRegionD1Ev
U _ZN8SkRegionaSERKS_
U _ZN8SkShader14setLocalMatrixERK8SkMatrix
U _ZN8SkShader16resetLocalMatrixEv
U _ZN8SkShader18CreateBitmapShaderERK8SkBitmapNS_8TileModeES3_
U _ZN8SkStream11getFileNameEv
U _ZN8SkStream13getMemoryBaseEv
U _ZN8SkStreamD2Ev
U _ZN9SkPicture12endRecordingEv
U _ZN9SkPicture14beginRecordingEiij
U _ZN9SkPicture4drawEP8SkCanvas
U _ZN9SkPictureC1EP8SkStream
U _ZN9SkPictureC1ERKS_
U _ZN9SkPictureC1Ev
U _ZN9SkWStream7newlineEv
U _ZN9SkWStreamD2Ev
U _ZNK14SkInterpolator12timeToValuesEjPf
U _ZNK16SkMallocPixelRef7flattenER24SkFlattenableWriteBuffer
U _ZNK6SkPath13computeBoundsEv
U _ZNK6SkPath6isRectEP6SkRect
U _ZNK6SkPath6offsetEffPS_
U _ZNK6SkPath7isEmptyEv
U _ZNK6SkPath9transformERK8SkMatrixPS_
U _ZNK7SkPaint11getFillPathERK6SkPathPS0_
U _ZNK7SkPaint11getTextPathEPKvjffP6SkPath
U _ZNK7SkPaint11measureTextEPKvjP6SkRectf
U _ZNK7SkPaint13getTextWidthsEPKvjPfP6SkRect
U _ZNK7SkPaint14getFontMetricsEPNS_11FontMetricsEf
U _ZNK7SkPaint9breakTextEPKvjfPfNS_19TextBufferDirectionE
U _ZNK7android10AudioTrack10frameCountEv
U _ZNK7android10AudioTrack9initCheckEv
U _ZNK7android10ResXMLTree8getErrorEv
U _ZNK7android11AudioRecord10frameCountEv
U _ZNK7android11AudioRecord9frameSizeEv
U _ZNK7android11AudioRecord9initCheckEv
U _ZNK7android12AssetManager10getLocalesEPNS_6VectorINS_7String8EEE
U _ZNK7android12AssetManager12getAssetPathEPv
U _ZNK7android12AssetManager12getResourcesEb
U _ZNK7android12ProcessState17supportsProcessesEv
U _ZNK7android12ResXMLParser10getStringsEv
U _ZNK7android12ResXMLParser12indexOfClassEv
U _ZNK7android12ResXMLParser12indexOfStyleEv
U _ZNK7android12ResXMLParser13getLineNumberEv
U _ZNK7android12ResXMLParser16getAttributeDataEj
U _ZNK7android12ResXMLParser16getElementNameIDEv
U _ZNK7android12ResXMLParser16indexOfAttributeEPKtjS2_j
U _ZNK7android12ResXMLParser17getAttributeCountEv
U _ZNK7android12ResXMLParser17getAttributeValueEjPNS_9Res_valueE
U _ZNK7android12ResXMLParser18getAttributeNameIDEj
U _ZNK7android12ResXMLParser20getAttributeDataTypeEj
U _ZNK7android12ResXMLParser21getAttributeNameResIDEj
U _ZNK7android12ResXMLParser21getElementNamespaceIDEv
U _ZNK7android12ResXMLParser23getAttributeNamespaceIDEj
U _ZNK7android12ResXMLParser25getAttributeValueStringIDEj
U _ZNK7android12ResXMLParser9getTextIDEv
U _ZNK7android12ResXMLParser9indexOfIDEv
W _ZNK7android12SortedVectorINS_16key_value_pair_tIiNS_2spINS_16NativeInputQueue10ConnectionEEEEEE10do_compareEPKvS9_
W _ZNK7android12SortedVectorINS_16key_value_pair_tIiNS_2spINS_16NativeInputQueue10ConnectionEEEEEE10do_destroyEPvj
W _ZNK7android12SortedVectorINS_16key_value_pair_tIiNS_2spINS_16NativeInputQueue10ConnectionEEEEEE12do_constructEPvj
W _ZNK7android12SortedVectorINS_16key_value_pair_tIiNS_2spINS_16NativeInputQueue10ConnectionEEEEEE15do_move_forwardEPvPKvj
W _ZNK7android12SortedVectorINS_16key_value_pair_tIiNS_2spINS_16NativeInputQueue10ConnectionEEEEEE16do_move_backwardEPvPKvj
W _ZNK7android12SortedVectorINS_16key_value_pair_tIiNS_2spINS_16NativeInputQueue10ConnectionEEEEEE7do_copyEPvPKvj
W _ZNK7android12SortedVectorINS_16key_value_pair_tIiNS_2spINS_16NativeInputQueue10ConnectionEEEEEE8do_splatEPvPKvj
U _ZNK7android13ResStringPool13indexOfStringEPKtj
U _ZNK7android13ResStringPool4sizeEv
U _ZNK7android13ResStringPool7styleAtEj
U _ZNK7android13ResStringPool8getErrorEv
U _ZNK7android13ResStringPool8stringAtEjPj
U _ZNK7android13ResStringPool9string8AtEjPj
U _ZNK7android13SensorManager13getSensorListEPPKPKNS_6SensorE
U _ZNK7android14IPCThreadState19getStrictModePolicyEv
U _ZNK7android14SurfaceControl10getSurfaceEv
U _ZNK7android16SensorEventQueue12enableSensorEii
U _ZNK7android16SensorEventQueue12waitForEventEv
U _ZNK7android16SensorEventQueue13disableSensorEi
U _ZNK7android16SortedVectorImpl7indexOfEPKv
T _ZNK7android4Time10format2445EPsb
T _ZNK7android4Time6formatEPKcPK15strftime_locale
T _ZNK7android4Time8toStringEv
U _ZNK7android6Camera13getParametersEv
U _ZNK7android6Parcel10readDoubleEv
U _ZNK7android6Parcel11readInplaceEj
U _ZNK7android6Parcel11readString8Ev
U _ZNK7android6Parcel12dataCapacityEv
U _ZNK7android6Parcel12dataPositionEv
U _ZNK7android6Parcel12objectsCountEv
U _ZNK7android6Parcel15setDataPositionEj
U _ZNK7android6Parcel16enforceInterfaceERKNS_8String16EPNS_14IPCThreadStateE
U _ZNK7android6Parcel16readStrongBinderEv
U _ZNK7android6Parcel17readExceptionCodeEv
U _ZNK7android6Parcel18hasFileDescriptorsEv
U _ZNK7android6Parcel18readFileDescriptorEv
U _ZNK7android6Parcel19readString16InplaceEPj
U _ZNK7android6Parcel4dataEv
U _ZNK7android6Parcel8dataSizeEv
U _ZNK7android6Parcel9dataAvailEv
U _ZNK7android6Parcel9readFloatEv
U _ZNK7android6Parcel9readInt32Ev
U _ZNK7android6Parcel9readInt64Ev
U _ZNK7android6Region8getArrayEPj
U _ZNK7android6Sensor11getMaxValueEv
U _ZNK7android6Sensor11getMinDelayEv
U _ZNK7android6Sensor13getPowerUsageEv
U _ZNK7android6Sensor13getResolutionEv
U _ZNK7android6Sensor7getNameEv
U _ZNK7android6Sensor7getTypeEv
U _ZNK7android6Sensor9getHandleEv
U _ZNK7android6Sensor9getVendorEv
W _ZNK7android6VectorI12JavaVMOptionE10do_destroyEPvj
W _ZNK7android6VectorI12JavaVMOptionE12do_constructEPvj
W _ZNK7android6VectorI12JavaVMOptionE15do_move_forwardEPvPKvj
W _ZNK7android6VectorI12JavaVMOptionE16do_move_backwardEPvPKvj
W _ZNK7android6VectorI12JavaVMOptionE7do_copyEPvPKvj
W _ZNK7android6VectorI12JavaVMOptionE8do_splatEPvPKvj
W _ZNK7android6VectorIN11AInputQueue15in_flight_eventEE10do_destroyEPvj
W _ZNK7android6VectorIN11AInputQueue15in_flight_eventEE12do_constructEPvj
W _ZNK7android6VectorIN11AInputQueue15in_flight_eventEE15do_move_forwardEPvPKvj
W _ZNK7android6VectorIN11AInputQueue15in_flight_eventEE16do_move_backwardEPvPKvj
W _ZNK7android6VectorIN11AInputQueue15in_flight_eventEE7do_copyEPvPKvj
W _ZNK7android6VectorIN11AInputQueue15in_flight_eventEE8do_splatEPvPKvj
W _ZNK7android6VectorIN11AInputQueue19finish_pre_dispatchEE10do_destroyEPvj
W _ZNK7android6VectorIN11AInputQueue19finish_pre_dispatchEE12do_constructEPvj
W _ZNK7android6VectorIN11AInputQueue19finish_pre_dispatchEE15do_move_forwardEPvPKvj
W _ZNK7android6VectorIN11AInputQueue19finish_pre_dispatchEE16do_move_backwardEPvPKvj
W _ZNK7android6VectorIN11AInputQueue19finish_pre_dispatchEE7do_copyEPvPKvj
W _ZNK7android6VectorIN11AInputQueue19finish_pre_dispatchEE8do_splatEPvPKvj
W _ZNK7android6VectorINS_13PointerCoordsEE10do_destroyEPvj
W _ZNK7android6VectorINS_13PointerCoordsEE12do_constructEPvj
W _ZNK7android6VectorINS_13PointerCoordsEE15do_move_forwardEPvPKvj
W _ZNK7android6VectorINS_13PointerCoordsEE16do_move_backwardEPvPKvj
W _ZNK7android6VectorINS_13PointerCoordsEE7do_copyEPvPKvj
W _ZNK7android6VectorINS_13PointerCoordsEE8do_splatEPvPKvj
W _ZNK7android6VectorINS_7String8EE10do_destroyEPvj
W _ZNK7android6VectorINS_7String8EE12do_constructEPvj
W _ZNK7android6VectorINS_7String8EE15do_move_forwardEPvPKvj
W _ZNK7android6VectorINS_7String8EE16do_move_backwardEPvPKvj
W _ZNK7android6VectorINS_7String8EE7do_copyEPvPKvj
W _ZNK7android6VectorINS_7String8EE8do_splatEPvPKvj
W _ZNK7android6VectorIP11_jbyteArrayE10do_destroyEPvj
W _ZNK7android6VectorIP11_jbyteArrayE12do_constructEPvj
W _ZNK7android6VectorIP11_jbyteArrayE15do_move_forwardEPvPKvj
W _ZNK7android6VectorIP11_jbyteArrayE16do_move_backwardEPvPKvj
W _ZNK7android6VectorIP11_jbyteArrayE7do_copyEPvPKvj
W _ZNK7android6VectorIP11_jbyteArrayE8do_splatEPvPKvj
W _ZNK7android6VectorIPNS_11MotionEventEE10do_destroyEPvj
W _ZNK7android6VectorIPNS_11MotionEventEE12do_constructEPvj
W _ZNK7android6VectorIPNS_11MotionEventEE15do_move_forwardEPvPKvj
W _ZNK7android6VectorIPNS_11MotionEventEE16do_move_backwardEPvPKvj
W _ZNK7android6VectorIPNS_11MotionEventEE7do_copyEPvPKvj
W _ZNK7android6VectorIPNS_11MotionEventEE8do_splatEPvPKvj
W _ZNK7android6VectorIPNS_8KeyEventEE10do_destroyEPvj
W _ZNK7android6VectorIPNS_8KeyEventEE12do_constructEPvj
W _ZNK7android6VectorIPNS_8KeyEventEE15do_move_forwardEPvPKvj
W _ZNK7android6VectorIPNS_8KeyEventEE16do_move_backwardEPvPKvj
W _ZNK7android6VectorIPNS_8KeyEventEE7do_copyEPvPKvj
W _ZNK7android6VectorIPNS_8KeyEventEE8do_splatEPvPKvj
W _ZNK7android6VectorIiE10do_destroyEPvj
W _ZNK7android6VectorIiE12do_constructEPvj
W _ZNK7android6VectorIiE15do_move_forwardEPvPKvj
W _ZNK7android6VectorIiE16do_move_backwardEPvPKvj
W _ZNK7android6VectorIiE7do_copyEPvPKvj
W _ZNK7android6VectorIiE8do_splatEPvPKvj
W _ZNK7android6VectorIjE10do_destroyEPvj
W _ZNK7android6VectorIjE12do_constructEPvj
W _ZNK7android6VectorIjE15do_move_forwardEPvPKvj
W _ZNK7android6VectorIjE16do_move_backwardEPvPKvj
W _ZNK7android6VectorIjE7do_copyEPvPKvj
W _ZNK7android6VectorIjE8do_splatEPvPKvj
W _ZNK7android6VectorIxE10do_destroyEPvj
W _ZNK7android6VectorIxE12do_constructEPvj
W _ZNK7android6VectorIxE15do_move_forwardEPvPKvj
W _ZNK7android6VectorIxE16do_move_backwardEPvPKvj
W _ZNK7android6VectorIxE7do_copyEPvPKvj
W _ZNK7android6VectorIxE8do_splatEPvPKvj
U _ZNK7android7BBinder10findObjectEPKv
U _ZNK7android7BBinder13isBinderAliveEv
U _ZNK7android7BBinder22getInterfaceDescriptorEv
U _ZNK7android7IBinder13checkSubclassEPKv
U _ZNK7android7IMemory4sizeEv
U _ZNK7android7IMemory7pointerEv
U _ZNK7android7RefBase10createWeakEPKv
U _ZNK7android7RefBase9decStrongEPKv
U _ZNK7android7RefBase9incStrongEPKv
U _ZNK7android8KeyEvent11isSystemKeyEv
U _ZNK7android8KeyEvent16hasDefaultActionEv
U _ZNK7android8ResTable11getResourceEjPNS_9Res_valueEbPjPNS_15ResTable_configE
U _ZNK7android8ResTable12getBagLockedEjPPKNS0_9bag_entryEPj
U _ZNK7android8ResTable13getTableCountEv
U _ZNK7android8ResTable14getTableCookieEj
U _ZNK7android8ResTable15getResourceNameEjPNS0_13resource_nameE
U _ZNK7android8ResTable16resolveReferenceEPNS_9Res_valueElPjS3_PNS_15ResTable_configE
U _ZNK7android8ResTable17identifierForNameEPKtjS2_jS2_jPj
U _ZNK7android8ResTable19getTableStringBlockEj
U _ZNK7android8ResTable4lockEv
U _ZNK7android8ResTable5Theme12getAttributeEjPNS_9Res_valueEPj
U _ZNK7android8ResTable5Theme25resolveAttributeReferenceEPNS_9Res_valueElPjS4_PNS_15ResTable_configE
U _ZNK7android8ResTable5Theme9dumpToLogEv
U _ZNK7android8ResTable6unlockEv
U _ZNK7android8ResTable7lockBagEjPPKNS0_9bag_entryE
U _ZNK7android8ResTable9unlockBagEPKNS0_9bag_entryE
U _ZNK8Sk3DView13applyToCanvasEP8SkCanvas
U _ZNK8Sk3DView13dotWithNormalEfff
U _ZNK8Sk3DView9getMatrixEP8SkMatrix
U _ZNK8SkBitmap10lockPixelsEv
U _ZNK8SkBitmap10scrollRectEPK7SkIRectiiP8SkRegion
U _ZNK8SkBitmap12extractAlphaEPS_PK7SkPaintP8SkIPoint
U _ZNK8SkBitmap12unlockPixelsEv
U _ZNK8SkBitmap6copyToEPS_NS_6ConfigEPNS_9AllocatorE
U _ZNK8SkBitmap7getAddrEii
U _ZNK8SkBitmap8isOpaqueEv
U _ZNK8SkBitmap9eraseARGBEjjjj
U _ZNK8SkCanvas11quickRejectERK6SkPathNS_8EdgeTypeE
U _ZNK8SkCanvas11quickRejectERK6SkRectNS_8EdgeTypeE
U _ZNK8SkCanvas12getSaveCountEv
U _ZNK8SkCanvas13getClipBoundsEP6SkRectNS_8EdgeTypeE
U _ZNK8SkCanvas14getTotalMatrixEv
U _ZNK8SkCanvas9getDeviceEv
U _ZNK8SkMatrix10mapVectorsEP7SkPointPKS0_i
U _ZNK8SkMatrix15computeTypeMaskEv
U _ZNK8SkMatrix6invertEPS_
U _ZNK8SkMatrix7mapRectEP6SkRectRKS0_
U _ZNK8SkMatrix9mapPointsEP7SkPointPKS0_i
U _ZNK8SkMatrix9mapRadiusEf
U _ZNK8SkRegion15getBoundaryPathEP6SkPath
U _ZNK8SkRegion7flattenEPv
U _ZNK8SkRegion8containsEii
U _ZNK8SkRegion9translateEiiPS_
U _ZNK8SkShader14getLocalMatrixEP8SkMatrix
U _ZNK9SkPicture9serializeEP9SkWStream
V _ZTC11JavaBBinder0_N7android7BBinderE
V _ZTC11JavaBBinder0_N7android7IBinderE
D _ZTC16JNICameraContext0_N7android14CameraListenerE
V _ZTC18JavaDeathRecipient0_N7android7IBinder14DeathRecipientE
V _ZTT11JavaBBinder
D _ZTT16JNICameraContext
V _ZTT18JavaDeathRecipient
V _ZTTN7android14CameraListenerE
V _ZTTN7android7IBinder14DeathRecipientE
V _ZTV10SkBoundary
V _ZTV11AInputEvent
D _ZTV11AInputQueue
V _ZTV11AssetStream
V _ZTV11JavaBBinder
V _ZTV15AndroidPixelRef
V _ZTV15NinePatchPeeker
U _ZTV15SkCubicBoundary
U _ZTV15SkSumPathEffect
D _ZTV16JNICameraContext
V _ZTV16YuvToJpegEncoder
V _ZTV17JavaBBinderHolder
V _ZTV18JavaDeathRecipient
D _ZTV18JavaPixelAllocator
V _ZTV18SkJavaOutputStream
U _ZTV18SkPixelXorXfermode
U _ZTV19SkComposePathEffect
D _ZTV20Yuv422IToJpegEncoder
U _ZTV21SkBitmapRegionDecoder
D _ZTV21Yuv420SpToJpegEncoder
V _ZTV22JavaInputStreamAdaptor
D _ZTV23JavaMemoryUsageReporter
V _ZTV8SkRefCnt
V _ZTVN14SkImageDecoder6PeekerE
V _ZTVN7android10InputEventE
V _ZTVN7android11MotionEventE
V _ZTVN7android12SortedVectorINS_16key_value_pair_tIiNS_2spINS_16NativeInputQueue10ConnectionEEEEEEE
D _ZTVN7android14AndroidRuntimeE
V _ZTVN7android14CameraListenerE
D _ZTVN7android16NativeInputQueue10ConnectionE
D _ZTVN7android18AssetStreamAdaptorE
D _ZTVN7android18EmojiFactoryCallerE
V _ZTVN7android26InputEventFactoryInterfaceE
V _ZTVN7android29PreallocatedInputEventFactoryE
V _ZTVN7android6VectorI12JavaVMOptionEE
V _ZTVN7android6VectorIN11AInputQueue15in_flight_eventEEE
V _ZTVN7android6VectorIN11AInputQueue19finish_pre_dispatchEEE
V _ZTVN7android6VectorINS_13PointerCoordsEEE
V _ZTVN7android6VectorINS_7String8EEE
V _ZTVN7android6VectorIP11_jbyteArrayEE
V _ZTVN7android6VectorIPNS_11MotionEventEEE
V _ZTVN7android6VectorIPNS_8KeyEventEEE
V _ZTVN7android6VectorIiEE
V _ZTVN7android6VectorIjEE
V _ZTVN7android6VectorIxEE
V _ZTVN7android7IBinder14DeathRecipientE
V _ZTVN7android8KeyEventE
V _ZTVN8SkBitmap9AllocatorE
W _ZTv0_n12_N11JavaBBinderD0Ev
W _ZTv0_n12_N11JavaBBinderD1Ev
W _ZTv0_n12_N16JNICameraContextD0Ev
W _ZTv0_n12_N16JNICameraContextD1Ev
W _ZTv0_n12_N18JavaDeathRecipientD0Ev
W _ZTv0_n12_N18JavaDeathRecipientD1Ev
W _ZTv0_n12_N7android14CameraListenerD0Ev
W _ZTv0_n12_N7android14CameraListenerD1Ev
U _ZTv0_n12_N7android7BBinderD0Ev
U _ZTv0_n12_N7android7BBinderD1Ev
W _ZTv0_n12_N7android7IBinder14DeathRecipientD0Ev
W _ZTv0_n12_N7android7IBinder14DeathRecipientD1Ev
U _ZTv0_n12_N7android7IBinderD0Ev
U _ZTv0_n12_N7android7IBinderD1Ev
V _ZZN15NinePatchPeeker4peekEPKcPKvjE10gNo565Pref
U _ZdaPv
U _ZdlPv
U _ZeqRK8SkRegionS1_
U _Znaj
U _Znwj
T __FINI_ARRAY__
T __INIT_ARRAY__
U __aeabi_atexit
U __aeabi_d2f
U __aeabi_d2lz
U __aeabi_ddiv
U __aeabi_f2iz
U __aeabi_fadd
U __aeabi_fcmpge
U __aeabi_fcmpgt
U __aeabi_fcmple
U __aeabi_fcmplt
U __aeabi_fdiv
U __aeabi_fmul
U __aeabi_fsub
U __aeabi_i2f
U __aeabi_idiv
U __aeabi_idivmod
U __aeabi_l2d
U __aeabi_ldivmod
U __aeabi_lmul
U __aeabi_ul2d
U __aeabi_unwind_cpp_pr0
U __aeabi_unwind_cpp_pr1
U __android_log_btwrite
U __android_log_buf_print
U __android_log_buf_write
U __android_log_bwrite
U __android_log_print
U __android_log_vprint
A __bss_end__
A __bss_start
A __bss_start__
U __cxa_finalize
U __cxa_pure_virtual
D __data_start
B __dso_handle
A __end__
U __errno
A __exidx_end
A __exidx_start
U __progname
U __reboot
U __stack_chk_fail
U __stack_chk_guard
A _bss_end__
A _edata
A _end
A _stack
U accept
U acquire_wake_lock
U androidCreateRawThreadEtc
U androidGetTid
U androidSetCreateThreadFunc
U androidSetThreadPriority
U androidSetThreadSchedulingGroup
U android_atomic_and
U android_atomic_dec
U android_atomic_inc
U ashmem_create_region
U ashmem_get_size_region
U ashmem_pin_region
U ashmem_unpin_region
U atoi
U atoll
U capget
U capset
U ceilf
U chmod
U chown
U clock_gettime
U close
U closedir
U cosf
U dhcp_do_request
U dhcp_do_request_renew
U dhcp_get_errmsg
U dhcp_release_lease
U dhcp_stop
U dlclose
U dlerror
U dlopen
U dlsym
U do_dhcp_request
U dup
U dup2
U eglChooseConfig
U eglCreateContext
U eglCreatePbufferSurface
U eglCreatePixmapSurface
U eglCreateWindowSurface
U eglDestroyContext
U eglDestroySurface
U eglGetConfigAttrib
U eglGetConfigs
U eglGetCurrentContext
U eglGetCurrentDisplay
U eglGetCurrentSurface
U eglGetDisplay
U eglGetError
U eglInitialize
U eglMakeCurrent
U eglQueryContext
U eglQueryString
U eglQuerySurface
U eglSwapBuffers
U eglTerminate
U eglWaitGL
U eglWaitNative
U etc1_decode_block
U etc1_decode_image
U etc1_encode_block
U etc1_encode_image
U etc1_get_encoded_data_size
U etc1_pkm_format_header
U etc1_pkm_get_height
U etc1_pkm_get_width
U etc1_pkm_is_valid
U exit
U fclose
U fcntl
U fgets
U floorf
U fopen
U free
U free_malloc_leak_info
U fstat
U gDitherMatrix_3Bit_16
U gDitherMatrix_4Bit_16
B gOptions_class
B gOptions_configFieldID
B gOptions_ditherFieldID
B gOptions_heightFieldID
B gOptions_justBoundsFieldID
B gOptions_mCancelID
B gOptions_mimeFieldID
B gOptions_nativeAllocFieldID
B gOptions_preferQualityOverSpeedFieldID
B gOptions_purgeableFieldID
B gOptions_sampleSizeFieldID
B gOptions_shareableFieldID
B gOptions_widthFieldID
U get_dhcp_error_string
U get_malloc_leak_info
U getenv
U getgrnam
U getpgid
U getpid
U getpriority
U getpwnam
U getsockopt
U getuid
U glActiveTexture
U glAlphaFunc
U glAlphaFuncx
U glAlphaFuncxOES
U glAttachShader
U glBindAttribLocation
U glBindBuffer
U glBindFramebuffer
U glBindFramebufferOES
U glBindRenderbuffer
U glBindRenderbufferOES
U glBindTexture
U glBlendColor
U glBlendEquationOES
U glBlendEquationSeparateOES
U glBlendFunc
U glBlendFuncSeparateOES
U glBufferData
U glBufferSubData
U glCheckFramebufferStatus
U glCheckFramebufferStatusOES
U glClear
U glClearColor
U glClearColorx
U glClearColorxOES
U glClearDepthf
U glClearDepthfOES
U glClearDepthx
U glClearDepthxOES
U glClearStencil
U glClientActiveTexture
U glClipPlanef
U glClipPlanefOES
U glClipPlanex
U glClipPlanexOES
U glColor4f
U glColor4ub
U glColor4x
U glColor4xOES
U glColorMask
U glColorPointer
U glColorPointerBounds
U glCompileShader
U glCompressedTexImage2D
U glCompressedTexSubImage2D
U glCopyTexImage2D
U glCopyTexSubImage2D
U glCreateProgram
U glCreateShader
U glCullFace
U glCurrentPaletteMatrixOES
U glDeleteBuffers
U glDeleteFramebuffers
U glDeleteFramebuffersOES
U glDeleteProgram
U glDeleteRenderbuffers
U glDeleteRenderbuffersOES
U glDeleteShader
U glDeleteTextures
U glDepthFunc
U glDepthMask
U glDepthRangef
U glDepthRangefOES
U glDepthRangex
U glDepthRangexOES
U glDetachShader
U glDisable
U glDisableClientState
U glDisableVertexAttribArray
U glDrawArrays
U glDrawElements
U glDrawTexfOES
U glDrawTexfvOES
U glDrawTexiOES
U glDrawTexivOES
U glDrawTexsOES
U glDrawTexsvOES
U glDrawTexxOES
U glDrawTexxvOES
U glEGLImageTargetRenderbufferStorageOES
U glEGLImageTargetTexture2DOES
U glEnable
U glEnableClientState
U glEnableVertexAttribArray
U glFinish
U glFlush
U glFogf
U glFogfv
U glFogx
U glFogxOES
U glFogxv
U glFogxvOES
U glFramebufferRenderbuffer
U glFramebufferRenderbufferOES
U glFramebufferTexture2D
U glFramebufferTexture2DOES
U glFrontFace
U glFrustumf
U glFrustumfOES
U glFrustumx
U glFrustumxOES
U glGenBuffers
U glGenFramebuffers
U glGenFramebuffersOES
U glGenRenderbuffers
U glGenRenderbuffersOES
U glGenTextures
U glGenerateMipmap
U glGenerateMipmapOES
U glGetActiveAttrib
U glGetActiveUniform
U glGetAttachedShaders
U glGetAttribLocation
U glGetBooleanv
U glGetClipPlanef
U glGetClipPlanefOES
U glGetClipPlanex
U glGetClipPlanexOES
U glGetError
U glGetFixedv
U glGetFixedvOES
U glGetFloatv
U glGetFramebufferAttachmentParameteriv
U glGetFramebufferAttachmentParameterivOES
U glGetIntegerv
U glGetLightfv
U glGetLightxv
U glGetLightxvOES
U glGetMaterialfv
U glGetMaterialxv
U glGetMaterialxvOES
U glGetProgramInfoLog
U glGetProgramiv
U glGetRenderbufferParameteriv
U glGetRenderbufferParameterivOES
U glGetShaderInfoLog
U glGetShaderPrecisionFormat
U glGetShaderSource
U glGetShaderiv
U glGetString
U glGetTexEnvfv
U glGetTexEnviv
U glGetTexEnvxv
U glGetTexEnvxvOES
U glGetTexGenfvOES
U glGetTexGenivOES
U glGetTexGenxvOES
U glGetTexParameterfv
U glGetTexParameteriv
U glGetTexParameterxv
U glGetTexParameterxvOES
U glGetUniformLocation
U glGetUniformfv
U glGetUniformiv
U glGetVertexAttribfv
U glGetVertexAttribiv
U glHint
U glIsBuffer
U glIsEnabled
U glIsFramebuffer
U glIsFramebufferOES
U glIsProgram
U glIsRenderbuffer
U glIsRenderbufferOES
U glIsShader
U glIsTexture
U glLightModelf
U glLightModelfv
U glLightModelx
U glLightModelxOES
U glLightModelxv
U glLightModelxvOES
U glLightf
U glLightfv
U glLightx
U glLightxOES
U glLightxv
U glLightxvOES
U glLineWidth
U glLineWidthx
U glLineWidthxOES
U glLinkProgram
U glLoadIdentity
U glLoadMatrixf
U glLoadMatrixx
U glLoadMatrixxOES
U glLoadPaletteFromModelViewMatrixOES
U glLogicOp
U glMaterialf
U glMaterialfv
U glMaterialx
U glMaterialxOES
U glMaterialxv
U glMaterialxvOES
U glMatrixIndexPointerOES
U glMatrixIndexPointerOESBounds
U glMatrixMode
U glMultMatrixf
U glMultMatrixx
U glMultMatrixxOES
U glMultiTexCoord4f
U glMultiTexCoord4x
U glMultiTexCoord4xOES
U glNormal3f
U glNormal3x
U glNormal3xOES
U glNormalPointer
U glNormalPointerBounds
U glOrthof
U glOrthofOES
U glOrthox
U glOrthoxOES
U glPixelStorei
U glPointParameterf
U glPointParameterfv
U glPointParameterx
U glPointParameterxOES
U glPointParameterxv
U glPointParameterxvOES
U glPointSize
U glPointSizePointerOESBounds
U glPointSizex
U glPointSizexOES
U glPolygonOffset
U glPolygonOffsetx
U glPolygonOffsetxOES
U glPopMatrix
U glPushMatrix
U glQueryMatrixxOES
U glReadPixels
U glReleaseShaderCompiler
U glRenderbufferStorage
U glRenderbufferStorageOES
U glRotatef
U glRotatex
U glRotatexOES
U glSampleCoverage
U glSampleCoveragex
U glSampleCoveragexOES
U glScalef
U glScalex
U glScalexOES
U glScissor
U glShadeModel
U glShaderBinary
U glShaderSource
U glStencilFunc
U glStencilFuncSeparate
U glStencilMask
U glStencilMaskSeparate
U glStencilOp
U glStencilOpSeparate
U glTexCoordPointer
U glTexCoordPointerBounds
U glTexEnvf
U glTexEnvfv
U glTexEnvi
U glTexEnviv
U glTexEnvx
U glTexEnvxOES
U glTexEnvxv
U glTexEnvxvOES
U glTexGenfOES
U glTexGenfvOES
U glTexGeniOES
U glTexGenivOES
U glTexGenxOES
U glTexGenxvOES
U glTexImage2D
U glTexParameterf
U glTexParameterfv
U glTexParameteri
U glTexParameteriv
U glTexParameterx
U glTexParameterxOES
U glTexParameterxv
U glTexParameterxvOES
U glTexSubImage2D
U glTranslatef
U glTranslatex
U glTranslatexOES
U glUniform1f
U glUniform1fv
U glUniform1i
U glUniform1iv
U glUniform2f
U glUniform2fv
U glUniform2i
U glUniform2iv
U glUniform3f
U glUniform3fv
U glUniform3i
U glUniform3iv
U glUniform4f
U glUniform4fv
U glUniform4i
U glUniform4iv
U glUniformMatrix2fv
U glUniformMatrix3fv
U glUniformMatrix4fv
U glUseProgram
U glValidateProgram
U glVertexAttrib1f
U glVertexAttrib1fv
U glVertexAttrib2f
U glVertexAttrib2fv
U glVertexAttrib3f
U glVertexAttrib3fv
U glVertexAttrib4f
U glVertexAttrib4fv
U glVertexAttribPointer
U glVertexPointer
U glVertexPointerBounds
U glViewport
U glWeightPointerOES
U glWeightPointerOESBounds
U ifc_add_host_route
U ifc_configure
U ifc_disable
U ifc_enable
U ifc_get_default_route
U ifc_remove_default_route
U ifc_remove_host_routes
U ifc_reset_connections
U ifc_set_default_route
U inotify_add_watch
U inotify_init
U inotify_rm_watch
U ioctl
U jniCreateFileDescriptor
U jniGetFDFromFileDescriptor
U jniLogException
U jniRegisterNativeMethods
U jniSetFileDescriptorOfFD
U jniThrowException
U jniThrowIOException
U jniThrowRuntimeException
U jpeg_CreateCompress
U jpeg_finish_compress
U jpeg_set_colorspace
U jpeg_set_defaults
U jpeg_set_quality
U jpeg_start_compress
U jpeg_std_error
U jpeg_write_raw_data
U kill
U listen
U localtime_tz
U lrand48
U lseek
U mallinfo
U malloc
U memcmp
U memcpy
U memmove
U memset
U mktime_tz
U mmap
U munmap
U open
U opendir
U phFriNfc_NdefRecord_Generate
U phFriNfc_NdefRecord_GetRecords
U phFriNfc_NdefRecord_Parse
U pipe
U poll
U property_get
U property_set
U pthread_mutex_destroy
U pthread_mutex_init
U pthread_mutex_lock
U pthread_mutex_unlock
U pthread_once
U qsort
U read
U readdir
U reboot
U recvmsg
U register_android_functions
U register_localized_collators
U release_wake_lock
U roundf
B sLock
U select
U sendmsg
U set_last_user_activity_timeout
U set_screen_state
U setenv
U setgid
U setjmp
U setpgid
U setregid
U setreuid
U setsockopt
U setuid
U shutdown
U sigprocmask
U sinf
U sleep
U snprintf
U socket
U socket_local_client_connect
U socket_local_server_bind
U sprintf
U sqlite3_bind_blob
U sqlite3_bind_double
U sqlite3_bind_int
U sqlite3_bind_int64
U sqlite3_bind_null
U sqlite3_bind_text
U sqlite3_bind_text16
U sqlite3_busy_timeout
U sqlite3_changes
U sqlite3_clear_bindings
U sqlite3_close
U sqlite3_column_blob
U sqlite3_column_bytes
U sqlite3_column_bytes16
U sqlite3_column_count
U sqlite3_column_double
U sqlite3_column_int64
U sqlite3_column_name
U sqlite3_column_text
U sqlite3_column_type
U sqlite3_config
U sqlite3_db_status
U sqlite3_errcode
U sqlite3_errmsg
U sqlite3_exec
U sqlite3_finalize
U sqlite3_free_table
U sqlite3_get_table
U sqlite3_last_insert_rowid
U sqlite3_memory_used
U sqlite3_open_v2
U sqlite3_prepare16_v2
U sqlite3_prepare_v2
U sqlite3_profile
U sqlite3_release_memory
U sqlite3_reset
U sqlite3_soft_heap_limit
U sqlite3_status
U sqlite3_step
U sqlite3_trace
U sqrtf
U sscanf
U stat
U statfs
U strcat
U strcmp
U strcpy
U strdup
U strerror
U strftime_tz
U strlcat
U strlcpy
U strlen
U strncat
U strncmp
U strncpy
U strrchr
U strstr
U strtod
U strtol
U strtoll
U strtoul
U sync
U systemTime
U time
U u_charDirection_44
U u_charMirror_44
U u_getIntPropertyValue_44
U ubidi_close_44
U ubidi_getLevelAt_44
U ubidi_getParaLevel_44
U ubidi_openSized_44
U ubidi_setPara_44
U uevent_init
U uevent_next_event
U usleep
U wifi_close_supplicant_connection
U wifi_command
U wifi_connect_to_supplicant
U wifi_load_driver
U wifi_start_supplicant
U wifi_stop_supplicant
U wifi_unload_driver
U wifi_wait_for_event
U write
