U EffectCreate
U EffectGetDescriptor
U EffectIsNullUuid
U EffectLoadLibrary
U EffectQueryEffect
U EffectQueryNumberEffects
U EffectRelease
U EffectUnloadLibrary
T _ZN7android10AudioMixer10track__nopEPNS0_7track_tEPijS3_S3_
T _ZN7android10AudioMixer12getTrackNameEv
T _ZN7android10AudioMixer12process__nopEPNS0_7state_tE
T _ZN7android10AudioMixer12setParameterEiiPv
T _ZN7android10AudioMixer12volumeStereoEPNS0_7track_tEPijS3_S3_
T _ZN7android10AudioMixer14ditherAndClampEPiPKij
T _ZN7android10AudioMixer14setActiveTrackEi
T _ZN7android10AudioMixer15deleteTrackNameEi
T _ZN7android10AudioMixer15invalidateStateEj
T _ZN7android10AudioMixer16volumeRampStereoEPNS0_7track_tEPijS3_S3_
T _ZN7android10AudioMixer17process__validateEPNS0_7state_tE
T _ZN7android10AudioMixer17setBufferProviderEPNS_19AudioBufferProviderE
T _ZN7android10AudioMixer17track__16BitsMonoEPNS0_7track_tEPijS3_S3_
T _ZN7android10AudioMixer19track__16BitsStereoEPNS0_7track_tEPijS3_S3_
T _ZN7android10AudioMixer22track__genericResampleEPNS0_7track_tEPijS3_S3_
T _ZN7android10AudioMixer26process__genericResamplingEPNS0_7state_tE
T _ZN7android10AudioMixer28process__genericNoResamplingEPNS0_7state_tE
T _ZN7android10AudioMixer41process__OneTrack16BitsStereoNoResamplingEPNS0_7state_tE
T _ZN7android10AudioMixer42process__TwoTracks16BitsStereoNoResamplingEPNS0_7state_tE
T _ZN7android10AudioMixer6enableEi
T _ZN7android10AudioMixer7disableEi
T _ZN7android10AudioMixer7processEv
T _ZN7android10AudioMixer7track_t12setResamplerEjj
T _ZN7android10AudioMixerC1Ejj
T _ZN7android10AudioMixerC2Ejj
T _ZN7android10AudioMixerD1Ev
T _ZN7android10AudioMixerD2Ev
U _ZN7android10IInterface8asBinderEv
U _ZN7android10IInterfaceD0Ev
U _ZN7android10IInterfaceD1Ev
U _ZN7android10VectorImpl13finish_vectorEv
U _ZN7android10VectorImpl13removeItemsAtEjj
U _ZN7android10VectorImpl19reservedVectorImpl1Ev
U _ZN7android10VectorImpl19reservedVectorImpl2Ev
U _ZN7android10VectorImpl19reservedVectorImpl3Ev
U _ZN7android10VectorImpl19reservedVectorImpl4Ev
U _ZN7android10VectorImpl19reservedVectorImpl5Ev
U _ZN7android10VectorImpl19reservedVectorImpl6Ev
U _ZN7android10VectorImpl19reservedVectorImpl7Ev
U _ZN7android10VectorImpl19reservedVectorImpl8Ev
U _ZN7android10VectorImpl3addEPKv
U _ZN7android10VectorImpl5clearEv
U _ZN7android10VectorImpl8insertAtEPKvjj
U _ZN7android10VectorImplC2ERKS0_
U _ZN7android10VectorImplC2Ejj
U _ZN7android10VectorImplD2Ev
U _ZN7android10VectorImplaSERKS0_
U _ZN7android11AudioSystem10startInputEi
U _ZN7android11AudioSystem10stopOutputEiNS0_11stream_typeEi
U _ZN7android11AudioSystem11isLinearPCMEj
U _ZN7android11AudioSystem11linearToLogEi
U _ZN7android11AudioSystem11startOutputEiNS0_11stream_typeEi
U _ZN7android11AudioSystem12isA2dpDeviceENS0_13audio_devicesE
U _ZN7android11AudioSystem12releaseInputEi
U _ZN7android11AudioSystem13getParametersEiRKNS_7String8E
U _ZN7android11AudioSystem13isInputDeviceENS0_13audio_devicesE
U _ZN7android11AudioSystem13releaseOutputEi
U _ZN7android11AudioSystem13setParametersEiRKNS_7String8E
U _ZN7android11AudioSystem14isOutputDeviceENS0_13audio_devicesE
U _ZN7android11AudioSystem14registerEffectEP19effect_descriptor_sijii
U _ZN7android11AudioSystem14setVoiceVolumeEf
U _ZN7android11AudioSystem15isLowVisibilityENS0_11stream_typeE
U _ZN7android11AudioSystem15setStreamVolumeEifi
U _ZN7android11AudioSystem16unregisterEffectEi
U _ZN7android11AudioSystem17get_audio_flingerEv
U _ZN7android11AudioSystem18getOutputForEffectEP19effect_descriptor_s
U _ZN7android11AudioSystem20getStrategyForStreamENS0_11stream_typeE
U _ZN7android11AudioSystem20isBluetoothScoDeviceENS0_13audio_devicesE
U _ZN7android11AudioSystem7setModeEi
U _ZN7android11AudioSystem8popCountEj
U _ZN7android11AudioSystem9stopInputEi
W _ZN7android11BnInterfaceINS_11IAudioTrackEE10onAsBinderEv
W _ZN7android11BnInterfaceINS_12IAudioRecordEE10onAsBinderEv
W _ZN7android11BnInterfaceINS_13IAudioFlingerEE10onAsBinderEv
W _ZN7android11BnInterfaceINS_19IAudioPolicyServiceEE10onAsBinderEv
W _ZN7android11BnInterfaceINS_7IEffectEE10onAsBinderEv
U _ZN7android11IAudioTrack10descriptorE
U _ZN7android11IAudioTrackC2Ev
U _ZN7android11IAudioTrackD0Ev
U _ZN7android11IAudioTrackD1Ev
U _ZN7android11IAudioTrackD2Ev
T _ZN7android12AudioFlinger10ThreadBase13setParametersERKNS_7String8E
T _ZN7android12AudioFlinger10ThreadBase15sendConfigEventEii
T _ZN7android12AudioFlinger10ThreadBase17sendConfigEvent_lEii
T _ZN7android12AudioFlinger10ThreadBase19processConfigEventsEv
T _ZN7android12AudioFlinger10ThreadBase4exitEv
T _ZN7android12AudioFlinger10ThreadBase8dumpBaseEiRKNS_6VectorINS_8String16EEE
T _ZN7android12AudioFlinger10ThreadBase9TrackBase13releaseBufferEPNS_19AudioBufferProvider6BufferE
T _ZN7android12AudioFlinger10ThreadBase9TrackBase4stepEv
T _ZN7android12AudioFlinger10ThreadBase9TrackBase5resetEv
T _ZN7android12AudioFlinger10ThreadBase9TrackBaseC1ERKNS_2wpIS1_EERKNS_2spINS0_6ClientEEEjiiijRKNS7_INS_7IMemoryEEEi
T _ZN7android12AudioFlinger10ThreadBase9TrackBaseC2ERKNS_2wpIS1_EERKNS_2spINS0_6ClientEEEjiiijRKNS7_INS_7IMemoryEEEi
T _ZN7android12AudioFlinger10ThreadBase9TrackBaseD0Ev
T _ZN7android12AudioFlinger10ThreadBase9TrackBaseD1Ev
T _ZN7android12AudioFlinger10ThreadBase9TrackBaseD2Ev
T _ZN7android12AudioFlinger10ThreadBaseC1ERKNS_2spIS0_EEi
T _ZN7android12AudioFlinger10ThreadBaseC2ERKNS_2spIS0_EEi
T _ZN7android12AudioFlinger10ThreadBaseD0Ev
T _ZN7android12AudioFlinger10ThreadBaseD1Ev
T _ZN7android12AudioFlinger10ThreadBaseD2Ev
T _ZN7android12AudioFlinger10closeInputEi
T _ZN7android12AudioFlinger10onTransactEjRKNS_6ParcelEPS1_j
T _ZN7android12AudioFlinger10openOutputEPjS1_S1_S1_S1_j
T _ZN7android12AudioFlinger10openRecordEiijiiijPiS1_
T _ZN7android12AudioFlinger10setMicMuteEb
T _ZN7android12AudioFlinger11EffectChain11addEffect_lERKNS_2spINS0_12EffectModuleEEE
T _ZN7android12AudioFlinger11EffectChain11setDevice_lEj
T _ZN7android12AudioFlinger11EffectChain11setVolume_lEPjS2_
T _ZN7android12AudioFlinger11EffectChain14removeEffect_lERKNS_2spINS0_12EffectModuleEEE
T _ZN7android12AudioFlinger11EffectChain17getEffectFromId_lEi
T _ZN7android12AudioFlinger11EffectChain19getEffectFromDesc_lEP19effect_descriptor_s
T _ZN7android12AudioFlinger11EffectChain4dumpEiRKNS_6VectorINS_8String16EEE
T _ZN7android12AudioFlinger11EffectChain9process_lEv
T _ZN7android12AudioFlinger11EffectChain9setMode_lEj
T _ZN7android12AudioFlinger11EffectChainC1ERKNS_2wpINS0_10ThreadBaseEEEi
T _ZN7android12AudioFlinger11EffectChainC2ERKNS_2wpINS0_10ThreadBaseEEEi
T _ZN7android12AudioFlinger11EffectChainD0Ev
T _ZN7android12AudioFlinger11EffectChainD1Ev
T _ZN7android12AudioFlinger11EffectChainD2Ev
T _ZN7android12AudioFlinger11MixerThread10threadLoopEv
T _ZN7android12AudioFlinger11MixerThread13dumpInternalsEiRKNS_6VectorINS_8String16EEE
T _ZN7android12AudioFlinger11MixerThread14getTrackName_lEv
T _ZN7android12AudioFlinger11MixerThread15idleSleepTimeUsEv
T _ZN7android12AudioFlinger11MixerThread15prepareTracks_lERKNS_12SortedVectorINS_2wpINS0_14PlaybackThread5TrackEEEEEPNS_6VectorINS_2spIS5_EEEE
T _ZN7android12AudioFlinger11MixerThread16invalidateTracksEi
T _ZN7android12AudioFlinger11MixerThread17activeSleepTimeUsEv
T _ZN7android12AudioFlinger11MixerThread17deleteTrackName_lEi
T _ZN7android12AudioFlinger11MixerThread18suspendSleepTimeUsEv
T _ZN7android12AudioFlinger11MixerThread23checkForNewParameters_lEv
T _ZN7android12AudioFlinger11MixerThreadC1ERKNS_2spIS0_EEPNS_14AudioStreamOutEij
T _ZN7android12AudioFlinger11MixerThreadC2ERKNS_2spIS0_EEPNS_14AudioStreamOutEij
T _ZN7android12AudioFlinger11MixerThreadD0Ev
T _ZN7android12AudioFlinger11MixerThreadD1Ev
T _ZN7android12AudioFlinger11MixerThreadD2Ev
T _ZN7android12AudioFlinger11TrackHandle10onTransactEjRKNS_6ParcelEPS2_j
T _ZN7android12AudioFlinger11TrackHandle15attachAuxEffectEi
T _ZN7android12AudioFlinger11TrackHandle4muteEb
T _ZN7android12AudioFlinger11TrackHandle4stopEv
T _ZN7android12AudioFlinger11TrackHandle5flushEv
T _ZN7android12AudioFlinger11TrackHandle5pauseEv
T _ZN7android12AudioFlinger11TrackHandle5startEv
T _ZN7android12AudioFlinger11TrackHandle9setVolumeEff
T _ZN7android12AudioFlinger11TrackHandleC1ERKNS_2spINS0_14PlaybackThread5TrackEEE
T _ZN7android12AudioFlinger11TrackHandleC2ERKNS_2spINS0_14PlaybackThread5TrackEEE
T _ZN7android12AudioFlinger11TrackHandleD0Ev
T _ZN7android12AudioFlinger11TrackHandleD1Ev
T _ZN7android12AudioFlinger11TrackHandleD2Ev
T _ZN7android12AudioFlinger11closeOutputEi
T _ZN7android12AudioFlinger11createTrackEiijiiijRKNS_2spINS_7IMemoryEEEiPiS6_
T _ZN7android12AudioFlinger11dumpClientsEiRKNS_6VectorINS_8String16EEE
T _ZN7android12AudioFlinger11moveEffectsEiii
T _ZN7android12AudioFlinger11queryEffectEjP19effect_descriptor_s
T _ZN7android12AudioFlinger12EffectHandle10disconnectEv
T _ZN7android12AudioFlinger12EffectHandle10onTransactEjRKNS_6ParcelEPS2_j
T _ZN7android12AudioFlinger12EffectHandle10setControlEbb
T _ZN7android12AudioFlinger12EffectHandle10setEnabledEb
T _ZN7android12AudioFlinger12EffectHandle15commandExecutedEjjPvjS2_
T _ZN7android12AudioFlinger12EffectHandle4dumpEPcj
T _ZN7android12AudioFlinger12EffectHandle6enableEv
T _ZN7android12AudioFlinger12EffectHandle7commandEjjPvPjS2_
T _ZN7android12AudioFlinger12EffectHandle7disableEv
T _ZN7android12AudioFlinger12EffectHandleC1ERKNS_2spINS0_12EffectModuleEEERKNS2_INS0_6ClientEEERKNS2_INS_13IEffectClientEEEi
T _ZN7android12AudioFlinger12EffectHandleC2ERKNS_2spINS0_12EffectModuleEEERKNS2_INS0_6ClientEEERKNS2_INS_13IEffectClientEEEi
T _ZN7android12AudioFlinger12EffectHandleD0Ev
T _ZN7android12AudioFlinger12EffectHandleD1Ev
T _ZN7android12AudioFlinger12EffectHandleD2Ev
T _ZN7android12AudioFlinger12EffectModule10disconnectERKNS_2wpINS0_12EffectHandleEEE
T _ZN7android12AudioFlinger12EffectModule10setEnabledEb
T _ZN7android12AudioFlinger12EffectModule11updateStateEv
T _ZN7android12AudioFlinger12EffectModule12removeHandleERKNS_2wpINS0_12EffectHandleEEE
R _ZN7android12AudioFlinger12EffectModule14sModeConvTableE
T _ZN7android12AudioFlinger12EffectModule16isProcessEnabledEv
R _ZN7android12AudioFlinger12EffectModule16sDeviceConvTableE
T _ZN7android12AudioFlinger12EffectModule26modeAudioSystemToEffectApiEj
T _ZN7android12AudioFlinger12EffectModule28deviceAudioSystemToEffectApiEj
T _ZN7android12AudioFlinger12EffectModule4dumpEiRKNS_6VectorINS_8String16EEE
T _ZN7android12AudioFlinger12EffectModule4initEv
T _ZN7android12AudioFlinger12EffectModule6stop_lEv
T _ZN7android12AudioFlinger12EffectModule7commandEjjPvPjS2_
T _ZN7android12AudioFlinger12EffectModule7processEv
T _ZN7android12AudioFlinger12EffectModule7reset_lEv
T _ZN7android12AudioFlinger12EffectModule7setModeEj
T _ZN7android12AudioFlinger12EffectModule7start_lEv
T _ZN7android12AudioFlinger12EffectModule9addHandleERNS_2spINS0_12EffectHandleEEE
T _ZN7android12AudioFlinger12EffectModule9configureEv
T _ZN7android12AudioFlinger12EffectModule9isEnabledEv
T _ZN7android12AudioFlinger12EffectModule9setDeviceEj
T _ZN7android12AudioFlinger12EffectModule9setVolumeEPjS2_b
T _ZN7android12AudioFlinger12EffectModuleC1ERKNS_2wpINS0_10ThreadBaseEEERKNS2_INS0_11EffectChainEEEP19effect_descriptor_sii
T _ZN7android12AudioFlinger12EffectModuleC2ERKNS_2wpINS0_10ThreadBaseEEERKNS2_INS0_11EffectChainEEEP19effect_descriptor_sii
T _ZN7android12AudioFlinger12EffectModuleD0Ev
T _ZN7android12AudioFlinger12EffectModuleD1Ev
T _ZN7android12AudioFlinger12EffectModuleD2Ev
T _ZN7android12AudioFlinger12RecordHandle10onTransactEjRKNS_6ParcelEPS2_j
T _ZN7android12AudioFlinger12RecordHandle4stopEv
T _ZN7android12AudioFlinger12RecordHandle5startEv
T _ZN7android12AudioFlinger12RecordHandleC1ERKNS_2spINS0_12RecordThread11RecordTrackEEE
T _ZN7android12AudioFlinger12RecordHandleC2ERKNS_2spINS0_12RecordThread11RecordTrackEEE
T _ZN7android12AudioFlinger12RecordHandleD0Ev
T _ZN7android12AudioFlinger12RecordHandleD1Ev
T _ZN7android12AudioFlinger12RecordHandleD2Ev
T _ZN7android12AudioFlinger12RecordThread10onFirstRefEv
T _ZN7android12AudioFlinger12RecordThread10threadLoopEv
T _ZN7android12AudioFlinger12RecordThread11RecordTrack13getNextBufferEPNS_19AudioBufferProvider6BufferE
T _ZN7android12AudioFlinger12RecordThread11RecordTrack4dumpEPcj
T _ZN7android12AudioFlinger12RecordThread11RecordTrack4stopEv
T _ZN7android12AudioFlinger12RecordThread11RecordTrack5startEv
T _ZN7android12AudioFlinger12RecordThread11RecordTrackC1ERKNS_2wpINS0_10ThreadBaseEEERKNS_2spINS0_6ClientEEEjiiiji
T _ZN7android12AudioFlinger12RecordThread11RecordTrackC2ERKNS_2wpINS0_10ThreadBaseEEERKNS_2spINS0_6ClientEEEjiiiji
T _ZN7android12AudioFlinger12RecordThread11RecordTrackD0Ev
T _ZN7android12AudioFlinger12RecordThread11RecordTrackD1Ev
T _ZN7android12AudioFlinger12RecordThread11RecordTrackD2Ev
T _ZN7android12AudioFlinger12RecordThread13getNextBufferEPNS_19AudioBufferProvider6BufferE
T _ZN7android12AudioFlinger12RecordThread13getParametersERKNS_7String8E
T _ZN7android12AudioFlinger12RecordThread13releaseBufferEPNS_19AudioBufferProvider6BufferE
T _ZN7android12AudioFlinger12RecordThread18getInputFramesLostEv
T _ZN7android12AudioFlinger12RecordThread19readInputParametersEv
T _ZN7android12AudioFlinger12RecordThread20audioConfigChanged_lEii
T _ZN7android12AudioFlinger12RecordThread23checkForNewParameters_lEv
T _ZN7android12AudioFlinger12RecordThread4dumpEiRKNS_6VectorINS_8String16EEE
T _ZN7android12AudioFlinger12RecordThread4stopEPNS1_11RecordTrackE
T _ZN7android12AudioFlinger12RecordThread5startEPNS1_11RecordTrackE
T _ZN7android12AudioFlinger12RecordThreadC1ERKNS_2spIS0_EEPNS_13AudioStreamInEjji
T _ZN7android12AudioFlinger12RecordThreadC2ERKNS_2spIS0_EEPNS_13AudioStreamInEjji
T _ZN7android12AudioFlinger12RecordThreadD0Ev
T _ZN7android12AudioFlinger12RecordThreadD1Ev
T _ZN7android12AudioFlinger12RecordThreadD2Ev
T _ZN7android12AudioFlinger12createEffectEiP19effect_descriptor_sRKNS_2spINS_13IEffectClientEEEiiiPiS8_S8_
T _ZN7android12AudioFlinger12nextUniqueIdEv
T _ZN7android12AudioFlinger13dumpInternalsEiRKNS_6VectorINS_8String16EEE
T _ZN7android12AudioFlinger13getParametersEiRKNS_7String8E
T _ZN7android12AudioFlinger13restoreOutputEi
T _ZN7android12AudioFlinger13setMasterMuteEb
T _ZN7android12AudioFlinger13setParametersEiRKNS_7String8E
T _ZN7android12AudioFlinger13setStreamMuteEib
T _ZN7android12AudioFlinger13suspendOutputEi
T _ZN7android12AudioFlinger14PlaybackThread10addTrack_lERKNS_2spINS1_5TrackEEE
T _ZN7android12AudioFlinger14PlaybackThread10dumpTracksEiRKNS_6VectorINS_8String16EEE
T _ZN7android12AudioFlinger14PlaybackThread10onFirstRefEv
T _ZN7android12AudioFlinger14PlaybackThread10readyToRunEv
T _ZN7android12AudioFlinger14PlaybackThread11OutputTrack12obtainBufferEPNS_19AudioBufferProvider6BufferEj
T _ZN7android12AudioFlinger14PlaybackThread11OutputTrack16clearBufferQueueEv
T _ZN7android12AudioFlinger14PlaybackThread11OutputTrack4stopEv
T _ZN7android12AudioFlinger14PlaybackThread11OutputTrack5startEv
T _ZN7android12AudioFlinger14PlaybackThread11OutputTrack5writeEPsj
T _ZN7android12AudioFlinger14PlaybackThread11OutputTrackC1ERKNS_2wpINS0_10ThreadBaseEEEPNS0_17DuplicatingThreadEjiii
T _ZN7android12AudioFlinger14PlaybackThread11OutputTrackC2ERKNS_2wpINS0_10ThreadBaseEEEPNS0_17DuplicatingThreadEjiii
T _ZN7android12AudioFlinger14PlaybackThread11OutputTrackD0Ev
T _ZN7android12AudioFlinger14PlaybackThread11OutputTrackD1Ev
T _ZN7android12AudioFlinger14PlaybackThread11OutputTrackD2Ev
T _ZN7android12AudioFlinger14PlaybackThread11addEffect_lERKNS_2spINS0_12EffectModuleEEE
T _ZN7android12AudioFlinger14PlaybackThread11getEffect_lEii
T _ZN7android12AudioFlinger14PlaybackThread13createTrack_lERKNS_2spINS0_6ClientEEEijiiiRKNS2_INS_7IMemoryEEEiPi
T _ZN7android12AudioFlinger14PlaybackThread13dumpInternalsEiRKNS_6VectorINS_8String16EEE
T _ZN7android12AudioFlinger14PlaybackThread13getParametersERKNS_7String8E
T _ZN7android12AudioFlinger14PlaybackThread13setMasterMuteEb
T _ZN7android12AudioFlinger14PlaybackThread13setStreamMuteEib
T _ZN7android12AudioFlinger14PlaybackThread14createEffect_lERKNS_2spINS0_6ClientEEERKNS2_INS_13IEffectClientEEEiiP19effect_descriptor_sPiSD_
T _ZN7android12AudioFlinger14PlaybackThread14destroyTrack_lERKNS_2spINS1_5TrackEEE
T _ZN7android12AudioFlinger14PlaybackThread14getEffectChainEi
T _ZN7android12AudioFlinger14PlaybackThread14removeEffect_lERKNS_2spINS0_12EffectModuleEEE
T _ZN7android12AudioFlinger14PlaybackThread15attachAuxEffectENS_2spINS1_5TrackEEEi
T _ZN7android12AudioFlinger14PlaybackThread15hasAudioSessionEi
T _ZN7android12AudioFlinger14PlaybackThread15setMasterVolumeEf
T _ZN7android12AudioFlinger14PlaybackThread15setStreamVolumeEif
T _ZN7android12AudioFlinger14PlaybackThread16addEffectChain_lERKNS_2spINS0_11EffectChainEEE
T _ZN7android12AudioFlinger14PlaybackThread16disconnectEffectERKNS_2spINS0_12EffectModuleEEERKNS_2wpINS0_12EffectHandleEEE
T _ZN7android12AudioFlinger14PlaybackThread16dumpEffectChainsEiRKNS_6VectorINS_8String16EEE
T _ZN7android12AudioFlinger14PlaybackThread16getEffectChain_lEi
T _ZN7android12AudioFlinger14PlaybackThread17attachAuxEffect_lENS_2spINS1_5TrackEEEi
T _ZN7android12AudioFlinger14PlaybackThread17detachAuxEffect_lEi
T _ZN7android12AudioFlinger14PlaybackThread17getRenderPositionEPjS2_
T _ZN7android12AudioFlinger14PlaybackThread18lockEffectChains_lERNS_6VectorINS_2spINS0_11EffectChainEEEEE
T _ZN7android12AudioFlinger14PlaybackThread18unlockEffectChainsERNS_6VectorINS_2spINS0_11EffectChainEEEEE
T _ZN7android12AudioFlinger14PlaybackThread19removeEffectChain_lERKNS_2spINS0_11EffectChainEEE
T _ZN7android12AudioFlinger14PlaybackThread20audioConfigChanged_lEii
T _ZN7android12AudioFlinger14PlaybackThread20readOutputParametersEv
T _ZN7android12AudioFlinger14PlaybackThread23getStrategyForSession_lEi
T _ZN7android12AudioFlinger14PlaybackThread4dumpEiRKNS_6VectorINS_8String16EEE
T _ZN7android12AudioFlinger14PlaybackThread5Track12setAuxBufferEiPi
T _ZN7android12AudioFlinger14PlaybackThread5Track13getNextBufferEPNS_19AudioBufferProvider6BufferE
T _ZN7android12AudioFlinger14PlaybackThread5Track15attachAuxEffectEi
T _ZN7android12AudioFlinger14PlaybackThread5Track4dumpEPcj
T _ZN7android12AudioFlinger14PlaybackThread5Track4muteEb
T _ZN7android12AudioFlinger14PlaybackThread5Track4stopEv
T _ZN7android12AudioFlinger14PlaybackThread5Track5flushEv
T _ZN7android12AudioFlinger14PlaybackThread5Track5pauseEv
T _ZN7android12AudioFlinger14PlaybackThread5Track5resetEv
T _ZN7android12AudioFlinger14PlaybackThread5Track5startEv
T _ZN7android12AudioFlinger14PlaybackThread5Track7destroyEv
T _ZN7android12AudioFlinger14PlaybackThread5Track9setVolumeEff
T _ZN7android12AudioFlinger14PlaybackThread5TrackC1ERKNS_2wpINS0_10ThreadBaseEEERKNS_2spINS0_6ClientEEEijiiiRKNS8_INS_7IMemoryEEEi
T _ZN7android12AudioFlinger14PlaybackThread5TrackC2ERKNS_2wpINS0_10ThreadBaseEEERKNS_2spINS0_6ClientEEEijiiiRKNS8_INS_7IMemoryEEEi
T _ZN7android12AudioFlinger14PlaybackThread5TrackD0Ev
T _ZN7android12AudioFlinger14PlaybackThread5TrackD1Ev
T _ZN7android12AudioFlinger14PlaybackThread5TrackD2Ev
T _ZN7android12AudioFlinger14PlaybackThread7setModeEj
T _ZN7android12AudioFlinger14PlaybackThreadC1ERKNS_2spIS0_EEPNS_14AudioStreamOutEij
T _ZN7android12AudioFlinger14PlaybackThreadC2ERKNS_2spIS0_EEPNS_14AudioStreamOutEij
T _ZN7android12AudioFlinger14PlaybackThreadD0Ev
T _ZN7android12AudioFlinger14PlaybackThreadD1Ev
T _ZN7android12AudioFlinger14PlaybackThreadD2Ev
T _ZN7android12AudioFlinger14registerClientERKNS_2spINS_19IAudioFlingerClientEEE
T _ZN7android12AudioFlinger14removeClient_lEi
T _ZN7android12AudioFlinger14setVoiceVolumeEf
T _ZN7android12AudioFlinger15setMasterVolumeEf
T _ZN7android12AudioFlinger15setStreamOutputEji
T _ZN7android12AudioFlinger15setStreamVolumeEifi
T _ZN7android12AudioFlinger17DuplicatingThread10threadLoopEv
T _ZN7android12AudioFlinger17DuplicatingThread12outputsReadyERNS_12SortedVectorINS_2spINS0_14PlaybackThread11OutputTrackEEEEE
T _ZN7android12AudioFlinger17DuplicatingThread14addOutputTrackEPNS0_11MixerThreadE
T _ZN7android12AudioFlinger17DuplicatingThread14updateWaitTimeEv
T _ZN7android12AudioFlinger17DuplicatingThread17activeSleepTimeUsEv
T _ZN7android12AudioFlinger17DuplicatingThread17removeOutputTrackEPNS0_11MixerThreadE
T _ZN7android12AudioFlinger17DuplicatingThreadC1ERKNS_2spIS0_EEPNS0_11MixerThreadEi
T _ZN7android12AudioFlinger17DuplicatingThreadC2ERKNS_2spIS0_EEPNS0_11MixerThreadEi
T _ZN7android12AudioFlinger17DuplicatingThreadD0Ev
T _ZN7android12AudioFlinger17DuplicatingThreadD1Ev
T _ZN7android12AudioFlinger17DuplicatingThreadD2Ev
T _ZN7android12AudioFlinger17getRenderPositionEPjS1_i
T _ZN7android12AudioFlinger17loadEffectLibraryEPKcPi
T _ZN7android12AudioFlinger17moveEffectChain_lEiPNS0_14PlaybackThreadES2_b
T _ZN7android12AudioFlinger17newAudioSessionIdEv
T _ZN7android12AudioFlinger18DirectOutputThread10threadLoopEv
T _ZN7android12AudioFlinger18DirectOutputThread11applyVolumeEttb
T _ZN7android12AudioFlinger18DirectOutputThread14getTrackName_lEv
T _ZN7android12AudioFlinger18DirectOutputThread15idleSleepTimeUsEv
T _ZN7android12AudioFlinger18DirectOutputThread17activeSleepTimeUsEv
T _ZN7android12AudioFlinger18DirectOutputThread17deleteTrackName_lEi
T _ZN7android12AudioFlinger18DirectOutputThread18suspendSleepTimeUsEv
T _ZN7android12AudioFlinger18DirectOutputThread23checkForNewParameters_lEv
T _ZN7android12AudioFlinger18DirectOutputThreadC1ERKNS_2spIS0_EEPNS_14AudioStreamOutEij
T _ZN7android12AudioFlinger18DirectOutputThreadC2ERKNS_2spIS0_EEPNS_14AudioStreamOutEij
T _ZN7android12AudioFlinger18DirectOutputThreadD0Ev
T _ZN7android12AudioFlinger18DirectOutputThreadD1Ev
T _ZN7android12AudioFlinger18DirectOutputThreadD2Ev
T _ZN7android12AudioFlinger18NotificationClient10binderDiedERKNS_2wpINS_7IBinderEEE
T _ZN7android12AudioFlinger18NotificationClientC1ERKNS_2spIS0_EERKNS2_INS_19IAudioFlingerClientEEEi
T _ZN7android12AudioFlinger18NotificationClientC2ERKNS_2spIS0_EERKNS2_INS_19IAudioFlingerClientEEEi
T _ZN7android12AudioFlinger18NotificationClientD0Ev
T _ZN7android12AudioFlinger18NotificationClientD1Ev
T _ZN7android12AudioFlinger18NotificationClientD2Ev
T _ZN7android12AudioFlinger18getInputBufferSizeEjii
T _ZN7android12AudioFlinger18getInputFramesLostEi
T _ZN7android12AudioFlinger18queryNumberEffectsEPj
T _ZN7android12AudioFlinger19getEffectDescriptorEP13effect_uuid_sP19effect_descriptor_s
T _ZN7android12AudioFlinger19openDuplicateOutputEii
T _ZN7android12AudioFlinger19unloadEffectLibraryEi
T _ZN7android12AudioFlinger20audioConfigChanged_lEiiPv
T _ZN7android12AudioFlinger20dumpPermissionDenialEiRKNS_6VectorINS_8String16EEE
T _ZN7android12AudioFlinger24removeNotificationClientEi
T _ZN7android12AudioFlinger4dumpEiRKNS_6VectorINS_8String16EEE
T _ZN7android12AudioFlinger6ClientC1ERKNS_2spIS0_EEi
T _ZN7android12AudioFlinger6ClientC2ERKNS_2spIS0_EEi
T _ZN7android12AudioFlinger6ClientD0Ev
T _ZN7android12AudioFlinger6ClientD1Ev
T _ZN7android12AudioFlinger6ClientD2Ev
T _ZN7android12AudioFlinger7setModeEi
T _ZN7android12AudioFlinger9openInputEPjS1_S1_S1_j
T _ZN7android12AudioFlingerC1Ev
T _ZN7android12AudioFlingerC2Ev
T _ZN7android12AudioFlingerD0Ev
T _ZN7android12AudioFlingerD1Ev
T _ZN7android12AudioFlingerD2Ev
U _ZN7android12BnAudioTrack10onTransactEjRKNS_6ParcelEPS1_j
U _ZN7android12IAudioRecord10descriptorE
U _ZN7android12IAudioRecordC2Ev
U _ZN7android12IAudioRecordD0Ev
U _ZN7android12IAudioRecordD1Ev
U _ZN7android12IAudioRecordD2Ev
U _ZN7android12MemoryDealerC1EjPKc
W _ZN7android12compare_typeINS_16key_value_pair_tINS_7String8ES2_EEEEiRKT_S6_
T _ZN7android13AudioStreamInD0Ev
T _ZN7android13AudioStreamInD1Ev
T _ZN7android13AudioStreamInD2Ev
U _ZN7android13BnAudioRecord10onTransactEjRKNS_6ParcelEPS1_j
U _ZN7android13IAudioFlinger10descriptorE
U _ZN7android13IAudioFlingerC2Ev
U _ZN7android13IAudioFlingerD0Ev
U _ZN7android13IAudioFlingerD1Ev
U _ZN7android13IAudioFlingerD2Ev
U _ZN7android13ToneGenerator8stopToneEv
U _ZN7android13ToneGenerator9startToneEii
U _ZN7android13ToneGeneratorC1Eifb
U _ZN7android13ToneGeneratorD1Ev
U _ZN7android14AudioParameter10keyRoutingE
U _ZN7android14AudioParameter11keyChannelsE
U _ZN7android14AudioParameter13keyFrameCountE
U _ZN7android14AudioParameter14keyInputSourceE
U _ZN7android14AudioParameter15keySamplingRateE
U _ZN7android14AudioParameter3getERKNS_7String8ERS1_
U _ZN7android14AudioParameter5getAtEjRNS_7String8ES2_
U _ZN7android14AudioParameter6addIntERKNS_7String8Ei
U _ZN7android14AudioParameter6getIntERKNS_7String8ERi
U _ZN7android14AudioParameter6removeERKNS_7String8E
U _ZN7android14AudioParameter8toStringEv
U _ZN7android14AudioParameter9keyFormatE
U _ZN7android14AudioParameterC1ERKNS_7String8E
U _ZN7android14AudioParameterD1Ev
T _ZN7android14AudioResampler13setSampleRateEi
T _ZN7android14AudioResampler6createEiiii
T _ZN7android14AudioResampler9setVolumeEss
T _ZN7android14AudioResamplerC1Eiii
T _ZN7android14AudioResamplerC2Eiii
T _ZN7android14AudioResamplerD0Ev
T _ZN7android14AudioResamplerD1Ev
T _ZN7android14AudioResamplerD2Ev
T _ZN7android14AudioStreamOutD0Ev
T _ZN7android14AudioStreamOutD1Ev
T _ZN7android14AudioStreamOutD2Ev
U _ZN7android14BnAudioFlinger10onTransactEjRKNS_6ParcelEPS1_j
U _ZN7android14IPCThreadState13flushCommandsEv
U _ZN7android14IPCThreadState13getCallingPidEv
U _ZN7android14IPCThreadState13getCallingUidEv
U _ZN7android14IPCThreadState4selfEv
U _ZN7android16SortedVectorImpl25reservedSortedVectorImpl1Ev
U _ZN7android16SortedVectorImpl25reservedSortedVectorImpl2Ev
U _ZN7android16SortedVectorImpl25reservedSortedVectorImpl3Ev
U _ZN7android16SortedVectorImpl25reservedSortedVectorImpl4Ev
U _ZN7android16SortedVectorImpl25reservedSortedVectorImpl5Ev
U _ZN7android16SortedVectorImpl25reservedSortedVectorImpl6Ev
U _ZN7android16SortedVectorImpl25reservedSortedVectorImpl7Ev
U _ZN7android16SortedVectorImpl25reservedSortedVectorImpl8Ev
U _ZN7android16SortedVectorImpl3addEPKv
U _ZN7android16SortedVectorImpl6removeEPKv
U _ZN7android16SortedVectorImplC2Ejj
U _ZN7android16SortedVectorImplD2Ev
T _ZN7android17AudioHardwareBase13getParametersERKNS_7String8E
T _ZN7android17AudioHardwareBase13setParametersERKNS_7String8E
T _ZN7android17AudioHardwareBase18getInputBufferSizeEjii
T _ZN7android17AudioHardwareBase7setModeEi
T _ZN7android17AudioHardwareBase9dumpStateEiRKNS_6VectorINS_8String16EEE
T _ZN7android17AudioHardwareBaseC1Ev
T _ZN7android17AudioHardwareBaseC2Ev
T _ZN7android17AudioHardwareStub13dumpInternalsEiRKNS_6VectorINS_8String16EEE
T _ZN7android17AudioHardwareStub14setVoiceVolumeEf
T _ZN7android17AudioHardwareStub15openInputStreamEjPiPjS2_S1_NS_11AudioSystem18audio_in_acousticsE
T _ZN7android17AudioHardwareStub15setMasterVolumeEf
T _ZN7android17AudioHardwareStub16closeInputStreamEPNS_13AudioStreamInE
T _ZN7android17AudioHardwareStub16openOutputStreamEjPiPjS2_S1_
T _ZN7android17AudioHardwareStub17closeOutputStreamEPNS_14AudioStreamOutE
T _ZN7android17AudioHardwareStub4dumpEiRKNS_6VectorINS_8String16EEE
T _ZN7android17AudioHardwareStub9initCheckEv
T _ZN7android17AudioHardwareStubC1Ev
T _ZN7android17AudioHardwareStubC2Ev
T _ZN7android17AudioHardwareStubD0Ev
T _ZN7android17AudioHardwareStubD1Ev
T _ZN7android17AudioHardwareStubD2Ev
T _ZN7android17AudioStreamInStub13getParametersERKNS_7String8E
T _ZN7android17AudioStreamInStub3setEPiPjS2_NS_11AudioSystem18audio_in_acousticsE
T _ZN7android17AudioStreamInStub4dumpEiRKNS_6VectorINS_8String16EEE
T _ZN7android17AudioStreamInStub4readEPvl
W _ZN7android17move_forward_typeINS_16key_value_pair_tINS_7String8ES2_EEEEvPT_PKS4_j
W _ZN7android17move_forward_typeINS_7String8EEEvPT_PKS2_j
T _ZN7android18AudioPolicyService10binderDiedERKNS_2wpINS_7IBinderEEE
T _ZN7android18AudioPolicyService10closeInputEi
T _ZN7android18AudioPolicyService10onTransactEjRKNS_6ParcelEPS1_j
T _ZN7android18AudioPolicyService10openOutputEPjS1_S1_S1_S1_NS_11AudioSystem12output_flagsE
T _ZN7android18AudioPolicyService10startInputEi
T _ZN7android18AudioPolicyService10stopOutputEiNS_11AudioSystem11stream_typeEi
T _ZN7android18AudioPolicyService11closeOutputEi
T _ZN7android18AudioPolicyService11getForceUseENS_11AudioSystem9force_useE
T _ZN7android18AudioPolicyService11instantiateEv
T _ZN7android18AudioPolicyService11moveEffectsEiii
T _ZN7android18AudioPolicyService11setForceUseENS_11AudioSystem9force_useENS1_13forced_configE
T _ZN7android18AudioPolicyService11startOutputEiNS_11AudioSystem11stream_typeEi
T _ZN7android18AudioPolicyService12releaseInputEi
T _ZN7android18AudioPolicyService13dumpInternalsEi
T _ZN7android18AudioPolicyService13getParametersEiRKNS_7String8E
T _ZN7android18AudioPolicyService13releaseOutputEi
T _ZN7android18AudioPolicyService13restoreOutputEi
T _ZN7android18AudioPolicyService13setParametersEiRKNS_7String8Ei
T _ZN7android18AudioPolicyService13setPhoneStateEi
T _ZN7android18AudioPolicyService13setRingerModeEjj
T _ZN7android18AudioPolicyService13suspendOutputEi
T _ZN7android18AudioPolicyService14registerEffectEP19effect_descriptor_sijii
T _ZN7android18AudioPolicyService14setVoiceVolumeEfi
T _ZN7android18AudioPolicyService15setStreamOutputENS_11AudioSystem11stream_typeEi
T _ZN7android18AudioPolicyService15setStreamVolumeENS_11AudioSystem11stream_typeEfii
T _ZN7android18AudioPolicyService16initStreamVolumeENS_11AudioSystem11stream_typeEii
T _ZN7android18AudioPolicyService16unregisterEffectEi
T _ZN7android18AudioPolicyService18AudioCommandThread10onFirstRefEv
T _ZN7android18AudioPolicyService18AudioCommandThread10threadLoopEv
T _ZN7android18AudioPolicyService18AudioCommandThread12AudioCommand4dumpEPcj
T _ZN7android18AudioPolicyService18AudioCommandThread13volumeCommandEifii
T _ZN7android18AudioPolicyService18AudioCommandThread15insertCommand_lEPNS1_12AudioCommandEi
T _ZN7android18AudioPolicyService18AudioCommandThread15stopToneCommandEv
T _ZN7android18AudioPolicyService18AudioCommandThread16startToneCommandEii
T _ZN7android18AudioPolicyService18AudioCommandThread17parametersCommandEiRKNS_7String8Ei
T _ZN7android18AudioPolicyService18AudioCommandThread18voiceVolumeCommandEfi
T _ZN7android18AudioPolicyService18AudioCommandThread4dumpEi
T _ZN7android18AudioPolicyService18AudioCommandThread4exitEv
T _ZN7android18AudioPolicyService18AudioCommandThreadC1ENS_7String8E
T _ZN7android18AudioPolicyService18AudioCommandThreadC2ENS_7String8E
T _ZN7android18AudioPolicyService18AudioCommandThreadD0Ev
T _ZN7android18AudioPolicyService18AudioCommandThreadD1Ev
T _ZN7android18AudioPolicyService18AudioCommandThreadD2Ev
T _ZN7android18AudioPolicyService18getOutputForEffectEP19effect_descriptor_s
T _ZN7android18AudioPolicyService19openDuplicateOutputEii
T _ZN7android18AudioPolicyService20dumpPermissionDenialEi
T _ZN7android18AudioPolicyService20getStrategyForStreamENS_11AudioSystem11stream_typeE
T _ZN7android18AudioPolicyService20getStreamVolumeIndexENS_11AudioSystem11stream_typeEPi
T _ZN7android18AudioPolicyService20setStreamVolumeIndexENS_11AudioSystem11stream_typeEi
T _ZN7android18AudioPolicyService24getDeviceConnectionStateENS_11AudioSystem13audio_devicesEPKc
T _ZN7android18AudioPolicyService24setDeviceConnectionStateENS_11AudioSystem13audio_devicesENS1_23device_connection_stateEPKc
T _ZN7android18AudioPolicyService4dumpEiRKNS_6VectorINS_8String16EEE
T _ZN7android18AudioPolicyService8getInputEijjjNS_11AudioSystem18audio_in_acousticsE
T _ZN7android18AudioPolicyService8stopToneEv
T _ZN7android18AudioPolicyService9getOutputENS_11AudioSystem11stream_typeEjjjNS1_12output_flagsE
T _ZN7android18AudioPolicyService9openInputEPjS1_S1_S1_j
T _ZN7android18AudioPolicyService9startToneENS_13ToneGenerator9tone_typeENS_11AudioSystem11stream_typeE
T _ZN7android18AudioPolicyService9stopInputEi
T _ZN7android18AudioPolicyServiceC1Ev
T _ZN7android18AudioPolicyServiceC2Ev
T _ZN7android18AudioPolicyServiceD0Ev
T _ZN7android18AudioPolicyServiceD1Ev
T _ZN7android18AudioPolicyServiceD2Ev
R _ZN7android18AudioResamplerSinc11mFirCoefsUpE
R _ZN7android18AudioResamplerSinc13mFirCoefsDownE
T _ZN7android18AudioResamplerSinc4initEv
T _ZN7android18AudioResamplerSinc8resampleEPijPNS_19AudioBufferProviderE
W _ZN7android18AudioResamplerSinc8resampleILi1EEEvPijPNS_19AudioBufferProviderE
W _ZN7android18AudioResamplerSinc8resampleILi2EEEvPijPNS_19AudioBufferProviderE
T _ZN7android18AudioResamplerSincC1Eiii
T _ZN7android18AudioResamplerSincC2Eiii
T _ZN7android18AudioResamplerSincD0Ev
T _ZN7android18AudioResamplerSincD1Ev
T _ZN7android18AudioResamplerSincD2Ev
T _ZN7android18AudioStreamOutStub13getParametersERKNS_7String8E
T _ZN7android18AudioStreamOutStub17getRenderPositionEPj
T _ZN7android18AudioStreamOutStub3setEPiPjS2_
T _ZN7android18AudioStreamOutStub4dumpEiRKNS_6VectorINS_8String16EEE
T _ZN7android18AudioStreamOutStub5writeEPKvj
T _ZN7android18AudioStreamOutStub7standbyEv
U _ZN7android18audio_track_cblk_t10stepServerEj
U _ZN7android18audio_track_cblk_t11framesReadyEv
U _ZN7android18audio_track_cblk_t15framesAvailableEv
U _ZN7android18audio_track_cblk_t17framesAvailable_lEv
U _ZN7android18audio_track_cblk_t8stepUserEj
U _ZN7android18audio_track_cblk_tC1Ev
W _ZN7android18move_backward_typeINS_16key_value_pair_tINS_7String8ES2_EEEEvPT_PKS4_j
W _ZN7android18move_backward_typeINS_7String8EEEvPT_PKS2_j
T _ZN7android19AudioResamplerCubic14resampleMono16EPijPNS_19AudioBufferProviderE
T _ZN7android19AudioResamplerCubic16resampleStereo16EPijPNS_19AudioBufferProviderE
T _ZN7android19AudioResamplerCubic4initEv
T _ZN7android19AudioResamplerCubic8resampleEPijPNS_19AudioBufferProviderE
U _ZN7android19IAudioPolicyService10descriptorE
U _ZN7android19IAudioPolicyServiceC2Ev
U _ZN7android19IAudioPolicyServiceD0Ev
U _ZN7android19IAudioPolicyServiceD1Ev
U _ZN7android19IAudioPolicyServiceD2Ev
T _ZN7android20AudioHardwareGeneric10getMicMuteEPb
T _ZN7android20AudioHardwareGeneric10setMicMuteEb
T _ZN7android20AudioHardwareGeneric13dumpInternalsEiRKNS_6VectorINS_8String16EEE
T _ZN7android20AudioHardwareGeneric14setVoiceVolumeEf
T _ZN7android20AudioHardwareGeneric15openInputStreamEjPiPjS2_S1_NS_11AudioSystem18audio_in_acousticsE
T _ZN7android20AudioHardwareGeneric15setMasterVolumeEf
T _ZN7android20AudioHardwareGeneric16closeInputStreamEPNS_13AudioStreamInE
T _ZN7android20AudioHardwareGeneric16openOutputStreamEjPiPjS2_S1_
T _ZN7android20AudioHardwareGeneric17closeOutputStreamEPNS_14AudioStreamOutE
T _ZN7android20AudioHardwareGeneric4dumpEiRKNS_6VectorINS_8String16EEE
T _ZN7android20AudioHardwareGeneric9initCheckEv
T _ZN7android20AudioHardwareGenericC1Ev
T _ZN7android20AudioHardwareGenericC2Ev
T _ZN7android20AudioHardwareGenericD0Ev
T _ZN7android20AudioHardwareGenericD1Ev
T _ZN7android20AudioHardwareGenericD2Ev
T _ZN7android20AudioResamplerOrder113AsmMono16LoopEPsPiiRjS2_S3_iiS3_j
T _ZN7android20AudioResamplerOrder114resampleMono16EPijPNS_19AudioBufferProviderE
T _ZN7android20AudioResamplerOrder115AsmStereo16LoopEPsPiiRjS2_S3_iiS3_j
T _ZN7android20AudioResamplerOrder116resampleStereo16EPijPNS_19AudioBufferProviderE
T _ZN7android20AudioResamplerOrder18resampleEPijPNS_19AudioBufferProviderE
T _ZN7android20AudioStreamInGeneric13getParametersERKNS_7String8E
T _ZN7android20AudioStreamInGeneric13setParametersERKNS_7String8E
T _ZN7android20AudioStreamInGeneric3setEPNS_20AudioHardwareGenericEijPiPjS4_NS_11AudioSystem18audio_in_acousticsE
T _ZN7android20AudioStreamInGeneric4dumpEiRKNS_6VectorINS_8String16EEE
T _ZN7android20AudioStreamInGeneric4readEPvl
T _ZN7android20AudioStreamInGenericD0Ev
T _ZN7android20AudioStreamInGenericD1Ev
T _ZN7android20AudioStreamInGenericD2Ev
U _ZN7android20BnAudioPolicyService10onTransactEjRKNS_6ParcelEPS1_j
T _ZN7android21AudioStreamOutGeneric13getParametersERKNS_7String8E
T _ZN7android21AudioStreamOutGeneric13setParametersERKNS_7String8E
T _ZN7android21AudioStreamOutGeneric17getRenderPositionEPj
T _ZN7android21AudioStreamOutGeneric3setEPNS_20AudioHardwareGenericEijPiPjS4_
T _ZN7android21AudioStreamOutGeneric4dumpEiRKNS_6VectorINS_8String16EEE
T _ZN7android21AudioStreamOutGeneric5writeEPKvj
T _ZN7android21AudioStreamOutGeneric7standbyEv
T _ZN7android21AudioStreamOutGenericD0Ev
T _ZN7android21AudioStreamOutGenericD1Ev
T _ZN7android21AudioStreamOutGenericD2Ev
U _ZN7android21defaultServiceManagerEv
T _ZN7android22AudioHardwareInterface6createEv
T _ZN7android22AudioPolicyManagerBase10startInputEi
T _ZN7android22AudioPolicyManagerBase10stopOutputEiNS_11AudioSystem11stream_typeEi
T _ZN7android22AudioPolicyManagerBase11getForceUseENS_11AudioSystem9force_useE
T _ZN7android22AudioPolicyManagerBase11getStrategyENS_11AudioSystem11stream_typeE
T _ZN7android22AudioPolicyManagerBase11setForceUseENS_11AudioSystem9force_useENS1_13forced_configE
T _ZN7android22AudioPolicyManagerBase11startOutputEiNS_11AudioSystem11stream_typeEi
T _ZN7android22AudioPolicyManagerBase12getNewDeviceEib
T _ZN7android22AudioPolicyManagerBase12releaseInputEi
T _ZN7android22AudioPolicyManagerBase13computeVolumeEiiij
T _ZN7android22AudioPolicyManagerBase13isStateInCallEi
T _ZN7android22AudioPolicyManagerBase13releaseOutputEi
T _ZN7android22AudioPolicyManagerBase13setPhoneStateEi
T _ZN7android22AudioPolicyManagerBase13setRingerModeEjj
T _ZN7android22AudioPolicyManagerBase13setStreamMuteEibii
T _ZN7android22AudioPolicyManagerBase14getActiveInputEv
T _ZN7android22AudioPolicyManagerBase14registerEffectEP19effect_descriptor_sijii
T _ZN7android22AudioPolicyManagerBase15setOutputDeviceEijbi
T _ZN7android22AudioPolicyManagerBase15setStrategyMuteENS0_16routing_strategyEbii
T _ZN7android22AudioPolicyManagerBase16EffectDescriptor4dumpEi
T _ZN7android22AudioPolicyManagerBase16StreamDescriptor4dumpEPcj
T _ZN7android22AudioPolicyManagerBase16initStreamVolumeENS_11AudioSystem11stream_typeEii
T _ZN7android22AudioPolicyManagerBase16needsDirectOuputENS_11AudioSystem11stream_typeEjjjNS1_12output_flagsEj
T _ZN7android22AudioPolicyManagerBase16unregisterEffectEi
T _ZN7android22AudioPolicyManagerBase17checkAndSetVolumeEiiijib
T _ZN7android22AudioPolicyManagerBase17setSystemPropertyEPKcS2_
T _ZN7android22AudioPolicyManagerBase18applyStreamVolumesEiji
T _ZN7android22AudioPolicyManagerBase18getOutputForEffectEP19effect_descriptor_s
T _ZN7android22AudioPolicyManagerBase19getMaxEffectsMemoryEv
T _ZN7android22AudioPolicyManagerBase20AudioInputDescriptor4dumpEi
T _ZN7android22AudioPolicyManagerBase20AudioInputDescriptorC1Ev
T _ZN7android22AudioPolicyManagerBase20AudioInputDescriptorC2Ev
T _ZN7android22AudioPolicyManagerBase20getDeviceForStrategyENS0_16routing_strategyEb
T _ZN7android22AudioPolicyManagerBase20getMaxEffectsCpuLoadEv
T _ZN7android22AudioPolicyManagerBase20getStrategyForStreamENS_11AudioSystem11stream_typeE
T _ZN7android22AudioPolicyManagerBase20getStreamVolumeIndexENS_11AudioSystem11stream_typeEPi
T _ZN7android22AudioPolicyManagerBase20setStreamVolumeIndexENS_11AudioSystem11stream_typeEi
T _ZN7android22AudioPolicyManagerBase21AudioOutputDescriptor14changeRefCountENS_11AudioSystem11stream_typeEi
T _ZN7android22AudioPolicyManagerBase21AudioOutputDescriptor16strategyRefCountENS0_16routing_strategyE
T _ZN7android22AudioPolicyManagerBase21AudioOutputDescriptor4dumpEi
T _ZN7android22AudioPolicyManagerBase21AudioOutputDescriptor6deviceEv
T _ZN7android22AudioPolicyManagerBase21AudioOutputDescriptor8refCountEv
T _ZN7android22AudioPolicyManagerBase21AudioOutputDescriptorC1Ev
T _ZN7android22AudioPolicyManagerBase21AudioOutputDescriptorC2Ev
T _ZN7android22AudioPolicyManagerBase23getDeviceForInputSourceEi
T _ZN7android22AudioPolicyManagerBase23updateDeviceForStrategyEv
T _ZN7android22AudioPolicyManagerBase24getDeviceConnectionStateENS_11AudioSystem13audio_devicesEPKc
T _ZN7android22AudioPolicyManagerBase24handleIncallSonificationEibb
T _ZN7android22AudioPolicyManagerBase24setDeviceConnectionStateENS_11AudioSystem13audio_devicesENS1_23device_connection_stateEPKc
T _ZN7android22AudioPolicyManagerBase4dumpEi
T _ZN7android22AudioPolicyManagerBase8getInputEijjjNS_11AudioSystem18audio_in_acousticsE
T _ZN7android22AudioPolicyManagerBase8isInCallEv
T _ZN7android22AudioPolicyManagerBase9addOutputEiPNS0_21AudioOutputDescriptorE
T _ZN7android22AudioPolicyManagerBase9getOutputENS_11AudioSystem11stream_typeEjjjNS1_12output_flagsE
T _ZN7android22AudioPolicyManagerBase9stopInputEi
T _ZN7android22AudioPolicyManagerBaseC1EPNS_26AudioPolicyClientInterfaceE
T _ZN7android22AudioPolicyManagerBaseC2EPNS_26AudioPolicyClientInterfaceE
T _ZN7android22AudioPolicyManagerBaseD0Ev
T _ZN7android22AudioPolicyManagerBaseD1Ev
T _ZN7android22AudioPolicyManagerBaseD2Ev
U _ZN7android22checkCallingPermissionERKNS_8String16E
W _ZN7android2spINS_12AudioFlinger10ThreadBaseEED1Ev
W _ZN7android2spINS_12AudioFlinger10ThreadBaseEEaSINS1_12RecordThreadEEERS3_PT_
W _ZN7android2spINS_12AudioFlinger10ThreadBaseEEaSINS1_14PlaybackThreadEEERS3_PT_
W _ZN7android2spINS_12AudioFlinger11EffectChainEED1Ev
W _ZN7android2spINS_12AudioFlinger11EffectChainEEaSEPS2_
W _ZN7android2spINS_12AudioFlinger11EffectChainEEaSERKS3_
W _ZN7android2spINS_12AudioFlinger11TrackHandleEEaSEPS2_
W _ZN7android2spINS_12AudioFlinger12EffectHandleEED1Ev
W _ZN7android2spINS_12AudioFlinger12EffectHandleEEaSEPS2_
W _ZN7android2spINS_12AudioFlinger12EffectHandleEEaSERKS3_
W _ZN7android2spINS_12AudioFlinger12EffectModuleEED1Ev
W _ZN7android2spINS_12AudioFlinger12EffectModuleEEaSEPS2_
W _ZN7android2spINS_12AudioFlinger12EffectModuleEEaSERKS3_
W _ZN7android2spINS_12AudioFlinger12RecordHandleEEaSEPS2_
W _ZN7android2spINS_12AudioFlinger12RecordThread11RecordTrackEE5clearEv
W _ZN7android2spINS_12AudioFlinger12RecordThread11RecordTrackEED1Ev
W _ZN7android2spINS_12AudioFlinger12RecordThread11RecordTrackEEaSEPS3_
W _ZN7android2spINS_12AudioFlinger12RecordThreadEED1Ev
W _ZN7android2spINS_12AudioFlinger12RecordThreadEEaSEPS2_
W _ZN7android2spINS_12AudioFlinger14PlaybackThread5TrackEEC1EPS3_
W _ZN7android2spINS_12AudioFlinger14PlaybackThread5TrackEEC1ERKS4_
W _ZN7android2spINS_12AudioFlinger14PlaybackThread5TrackEED1Ev
W _ZN7android2spINS_12AudioFlinger14PlaybackThread5TrackEEaSEPS3_
W _ZN7android2spINS_12AudioFlinger14PlaybackThread5TrackEEaSERKS4_
W _ZN7android2spINS_12AudioFlinger14PlaybackThreadEEC1ERKS3_
W _ZN7android2spINS_12AudioFlinger14PlaybackThreadEED1Ev
W _ZN7android2spINS_12AudioFlinger14PlaybackThreadEEaSEPS2_
W _ZN7android2spINS_12AudioFlinger18NotificationClientEEC1ERKS3_
W _ZN7android2spINS_12AudioFlinger18NotificationClientEED1Ev
W _ZN7android2spINS_12AudioFlinger6ClientEE5clearEv
W _ZN7android2spINS_12AudioFlinger6ClientEED1Ev
W _ZN7android2spINS_12AudioFlinger6ClientEEaSEPS2_
W _ZN7android2spINS_12AudioFlinger6ClientEEaSERKS3_
W _ZN7android2spINS_12AudioFlingerEEC1EPS1_
W _ZN7android2spINS_12AudioFlingerEEC1ERKS2_
W _ZN7android2spINS_12AudioFlingerEED1Ev
W _ZN7android2spINS_13IAudioFlingerEEC1ERKS2_
W _ZN7android2spINS_13IAudioFlingerEED1Ev
W _ZN7android2spINS_18AudioPolicyService18AudioCommandThreadEE5clearEv
W _ZN7android2spINS_18AudioPolicyService18AudioCommandThreadEED1Ev
W _ZN7android2spINS_18AudioPolicyService18AudioCommandThreadEEaSEPS2_
W _ZN7android2spINS_7IMemoryEEC1ERKS2_
W _ZN7android2spINS_7IMemoryEED1Ev
W _ZN7android2spINS_7IMemoryEEaSERKS2_
W _ZN7android2wpINS_12AudioFlinger10ThreadBaseEEC1ERKS3_
W _ZN7android2wpINS_12AudioFlinger10ThreadBaseEEC1INS1_14PlaybackThreadEEEPT_
W _ZN7android2wpINS_12AudioFlinger10ThreadBaseEED1Ev
W _ZN7android2wpINS_12AudioFlinger10ThreadBaseEEaSERKS3_
W _ZN7android2wpINS_12AudioFlinger11EffectChainEEaSERKS3_
W _ZN7android2wpINS_12AudioFlinger14PlaybackThread5TrackEEC1ERKNS_2spIS3_EE
W _ZN7android2wpINS_12AudioFlinger14PlaybackThread5TrackEED1Ev
W _ZN7android2wpINS_12AudioFlinger6ClientEED1Ev
W _ZN7android2wpINS_12AudioFlinger6ClientEEaSERKS3_
U _ZN7android6Thread10readyToRunEv
U _ZN7android6Thread11requestExitEv
U _ZN7android6Thread18requestExitAndWaitEv
U _ZN7android6Thread3runEPKcij
U _ZN7android6ThreadC2Eb
U _ZN7android6ThreadD0Ev
U _ZN7android6ThreadD1Ev
U _ZN7android6ThreadD2Ev
U _ZN7android7BBinder10onTransactEjRKNS_6ParcelEPS1_j
U _ZN7android7BBinder10pingBinderEv
U _ZN7android7BBinder11linkToDeathERKNS_2spINS_7IBinder14DeathRecipientEEEPvj
U _ZN7android7BBinder11localBinderEv
U _ZN7android7BBinder12attachObjectEPKvPvS3_PFvS2_S3_S3_E
U _ZN7android7BBinder12detachObjectEPKv
U _ZN7android7BBinder13unlinkToDeathERKNS_2wpINS_7IBinder14DeathRecipientEEEPvjPS4_
U _ZN7android7BBinder4dumpEiRKNS_6VectorINS_8String16EEE
U _ZN7android7BBinder8transactEjRKNS_6ParcelEPS1_j
U _ZN7android7BBinderC2Ev
U _ZN7android7BBinderD0Ev
U _ZN7android7BBinderD1Ev
U _ZN7android7BBinderD2Ev
U _ZN7android7IBinder11localBinderEv
U _ZN7android7IBinder12remoteBinderEv
U _ZN7android7IBinder19queryLocalInterfaceERKNS_8String16E
U _ZN7android7IBinderD0Ev
U _ZN7android7IBinderD1Ev
U _ZN7android7IEffect10descriptorE
U _ZN7android7IEffectC2Ev
U _ZN7android7IEffectD0Ev
U _ZN7android7IEffectD1Ev
U _ZN7android7IEffectD2Ev
U _ZN7android7RefBase10onFirstRefEv
U _ZN7android7RefBase12weakref_type16attemptIncStrongEPKv
U _ZN7android7RefBase12weakref_type7decWeakEPKv
U _ZN7android7RefBase12weakref_type7incWeakEPKv
U _ZN7android7RefBase13onLastWeakRefEPKv
U _ZN7android7RefBase15onLastStrongRefEPKv
U _ZN7android7RefBase20onIncStrongAttemptedEjPKv
U _ZN7android7RefBaseC2Ev
U _ZN7android7RefBaseD2Ev
U _ZN7android7String85setToEPKc
U _ZN7android7String85setToERKS0_
U _ZN7android7String86appendEPKc
U _ZN7android7String86appendERKS0_
U _ZN7android7String8C1EPKc
U _ZN7android7String8C1EPKcj
U _ZN7android7String8C1ERKS0_
U _ZN7android7String8C1Ev
U _ZN7android7String8D1Ev
U _ZN7android8BnEffect10onTransactEjRKNS_6ParcelEPS1_j
U _ZN7android8String16C1EPKc
U _ZN7android8String16D1Ev
T _ZNK7android10AudioMixer7track_t12doesResampleEv
U _ZNK7android11IAudioTrack22getInterfaceDescriptorEv
T _ZNK7android12AudioFlinger10ThreadBase10frameCountEv
T _ZNK7android12AudioFlinger10ThreadBase10sampleRateEv
T _ZNK7android12AudioFlinger10ThreadBase12channelCountEv
T _ZNK7android12AudioFlinger10ThreadBase6formatEv
T _ZNK7android12AudioFlinger10ThreadBase9TrackBase10sampleRateEv
T _ZNK7android12AudioFlinger10ThreadBase9TrackBase12channelCountEv
T _ZNK7android12AudioFlinger10ThreadBase9TrackBase7getCblkEv
T _ZNK7android12AudioFlinger10ThreadBase9TrackBase9getBufferEjj
T _ZNK7android12AudioFlinger10frameCountEi
T _ZNK7android12AudioFlinger10getMicMuteEv
T _ZNK7android12AudioFlinger10masterMuteEv
T _ZNK7android12AudioFlinger10sampleRateEi
T _ZNK7android12AudioFlinger10streamMuteEi
T _ZNK7android12AudioFlinger11TrackHandle7getCblkEv
T _ZNK7android12AudioFlinger12EffectHandle7getCblkEv
T _ZNK7android12AudioFlinger12RecordHandle7getCblkEv
T _ZNK7android12AudioFlinger12channelCountEi
T _ZNK7android12AudioFlinger12masterVolumeEv
T _ZNK7android12AudioFlinger12streamVolumeEii
T _ZNK7android12AudioFlinger14PlaybackThread10masterMuteEv
T _ZNK7android12AudioFlinger14PlaybackThread10streamMuteEi
T _ZNK7android12AudioFlinger14PlaybackThread12masterVolumeEv
T _ZNK7android12AudioFlinger14PlaybackThread12streamVolumeEi
T _ZNK7android12AudioFlinger14PlaybackThread14isStreamActiveEi
T _ZNK7android12AudioFlinger14PlaybackThread5Track7isReadyEv
T _ZNK7android12AudioFlinger14PlaybackThread7latencyEv
T _ZNK7android12AudioFlinger14isStreamActiveEi
T _ZNK7android12AudioFlinger18checkMixerThread_lEi
T _ZNK7android12AudioFlinger19checkRecordThread_lEi
T _ZNK7android12AudioFlinger21checkPlaybackThread_lEi
T _ZNK7android12AudioFlinger6Client4heapEv
T _ZNK7android12AudioFlinger6formatEi
T _ZNK7android12AudioFlinger7latencyEi
U _ZNK7android12IAudioRecord22getInterfaceDescriptorEv
W _ZNK7android12SortedVectorINS_16key_value_pair_tINS_7String8ES2_EEE10do_compareEPKvS6_
W _ZNK7android12SortedVectorINS_16key_value_pair_tINS_7String8ES2_EEE10do_destroyEPvj
W _ZNK7android12SortedVectorINS_16key_value_pair_tINS_7String8ES2_EEE12do_constructEPvj
W _ZNK7android12SortedVectorINS_16key_value_pair_tINS_7String8ES2_EEE15do_move_forwardEPvPKvj
W _ZNK7android12SortedVectorINS_16key_value_pair_tINS_7String8ES2_EEE16do_move_backwardEPvPKvj
W _ZNK7android12SortedVectorINS_16key_value_pair_tINS_7String8ES2_EEE7do_copyEPvPKvj
W _ZNK7android12SortedVectorINS_16key_value_pair_tINS_7String8ES2_EEE8do_splatEPvPKvj
W _ZNK7android12SortedVectorINS_16key_value_pair_tIiNS_2spINS_12AudioFlinger12RecordThreadEEEEEE10do_compareEPKvS9_
W _ZNK7android12SortedVectorINS_16key_value_pair_tIiNS_2spINS_12AudioFlinger12RecordThreadEEEEEE10do_destroyEPvj
W _ZNK7android12SortedVectorINS_16key_value_pair_tIiNS_2spINS_12AudioFlinger12RecordThreadEEEEEE12do_constructEPvj
W _ZNK7android12SortedVectorINS_16key_value_pair_tIiNS_2spINS_12AudioFlinger12RecordThreadEEEEEE15do_move_forwardEPvPKvj
W _ZNK7android12SortedVectorINS_16key_value_pair_tIiNS_2spINS_12AudioFlinger12RecordThreadEEEEEE16do_move_backwardEPvPKvj
W _ZNK7android12SortedVectorINS_16key_value_pair_tIiNS_2spINS_12AudioFlinger12RecordThreadEEEEEE7do_copyEPvPKvj
W _ZNK7android12SortedVectorINS_16key_value_pair_tIiNS_2spINS_12AudioFlinger12RecordThreadEEEEEE8do_splatEPvPKvj
W _ZNK7android12SortedVectorINS_16key_value_pair_tIiNS_2spINS_12AudioFlinger14PlaybackThreadEEEEEE10do_compareEPKvS9_
W _ZNK7android12SortedVectorINS_16key_value_pair_tIiNS_2spINS_12AudioFlinger14PlaybackThreadEEEEEE10do_destroyEPvj
W _ZNK7android12SortedVectorINS_16key_value_pair_tIiNS_2spINS_12AudioFlinger14PlaybackThreadEEEEEE12do_constructEPvj
W _ZNK7android12SortedVectorINS_16key_value_pair_tIiNS_2spINS_12AudioFlinger14PlaybackThreadEEEEEE15do_move_forwardEPvPKvj
W _ZNK7android12SortedVectorINS_16key_value_pair_tIiNS_2spINS_12AudioFlinger14PlaybackThreadEEEEEE16do_move_backwardEPvPKvj
W _ZNK7android12SortedVectorINS_16key_value_pair_tIiNS_2spINS_12AudioFlinger14PlaybackThreadEEEEEE7do_copyEPvPKvj
W _ZNK7android12SortedVectorINS_16key_value_pair_tIiNS_2spINS_12AudioFlinger14PlaybackThreadEEEEEE8do_splatEPvPKvj
W _ZNK7android12SortedVectorINS_16key_value_pair_tIiNS_2spINS_12AudioFlinger18NotificationClientEEEEEE10do_compareEPKvS9_
W _ZNK7android12SortedVectorINS_16key_value_pair_tIiNS_2spINS_12AudioFlinger18NotificationClientEEEEEE10do_destroyEPvj
W _ZNK7android12SortedVectorINS_16key_value_pair_tIiNS_2spINS_12AudioFlinger18NotificationClientEEEEEE12do_constructEPvj
W _ZNK7android12SortedVectorINS_16key_value_pair_tIiNS_2spINS_12AudioFlinger18NotificationClientEEEEEE15do_move_forwardEPvPKvj
W _ZNK7android12SortedVectorINS_16key_value_pair_tIiNS_2spINS_12AudioFlinger18NotificationClientEEEEEE16do_move_backwardEPvPKvj
W _ZNK7android12SortedVectorINS_16key_value_pair_tIiNS_2spINS_12AudioFlinger18NotificationClientEEEEEE7do_copyEPvPKvj
W _ZNK7android12SortedVectorINS_16key_value_pair_tIiNS_2spINS_12AudioFlinger18NotificationClientEEEEEE8do_splatEPvPKvj
W _ZNK7android12SortedVectorINS_16key_value_pair_tIiNS_2wpINS_12AudioFlinger6ClientEEEEEE10do_compareEPKvS9_
W _ZNK7android12SortedVectorINS_16key_value_pair_tIiNS_2wpINS_12AudioFlinger6ClientEEEEEE10do_destroyEPvj
W _ZNK7android12SortedVectorINS_16key_value_pair_tIiNS_2wpINS_12AudioFlinger6ClientEEEEEE12do_constructEPvj
W _ZNK7android12SortedVectorINS_16key_value_pair_tIiNS_2wpINS_12AudioFlinger6ClientEEEEEE15do_move_forwardEPvPKvj
W _ZNK7android12SortedVectorINS_16key_value_pair_tIiNS_2wpINS_12AudioFlinger6ClientEEEEEE16do_move_backwardEPvPKvj
W _ZNK7android12SortedVectorINS_16key_value_pair_tIiNS_2wpINS_12AudioFlinger6ClientEEEEEE7do_copyEPvPKvj
W _ZNK7android12SortedVectorINS_16key_value_pair_tIiNS_2wpINS_12AudioFlinger6ClientEEEEEE8do_splatEPvPKvj
W _ZNK7android12SortedVectorINS_16key_value_pair_tIiPNS_22AudioPolicyManagerBase16EffectDescriptorEEEE10do_compareEPKvS8_
W _ZNK7android12SortedVectorINS_16key_value_pair_tIiPNS_22AudioPolicyManagerBase16EffectDescriptorEEEE10do_destroyEPvj
W _ZNK7android12SortedVectorINS_16key_value_pair_tIiPNS_22AudioPolicyManagerBase16EffectDescriptorEEEE12do_constructEPvj
W _ZNK7android12SortedVectorINS_16key_value_pair_tIiPNS_22AudioPolicyManagerBase16EffectDescriptorEEEE15do_move_forwardEPvPKvj
W _ZNK7android12SortedVectorINS_16key_value_pair_tIiPNS_22AudioPolicyManagerBase16EffectDescriptorEEEE16do_move_backwardEPvPKvj
W _ZNK7android12SortedVectorINS_16key_value_pair_tIiPNS_22AudioPolicyManagerBase16EffectDescriptorEEEE7do_copyEPvPKvj
W _ZNK7android12SortedVectorINS_16key_value_pair_tIiPNS_22AudioPolicyManagerBase16EffectDescriptorEEEE8do_splatEPvPKvj
W _ZNK7android12SortedVectorINS_16key_value_pair_tIiPNS_22AudioPolicyManagerBase20AudioInputDescriptorEEEE10do_compareEPKvS8_
W _ZNK7android12SortedVectorINS_16key_value_pair_tIiPNS_22AudioPolicyManagerBase20AudioInputDescriptorEEEE10do_destroyEPvj
W _ZNK7android12SortedVectorINS_16key_value_pair_tIiPNS_22AudioPolicyManagerBase20AudioInputDescriptorEEEE12do_constructEPvj
W _ZNK7android12SortedVectorINS_16key_value_pair_tIiPNS_22AudioPolicyManagerBase20AudioInputDescriptorEEEE15do_move_forwardEPvPKvj
W _ZNK7android12SortedVectorINS_16key_value_pair_tIiPNS_22AudioPolicyManagerBase20AudioInputDescriptorEEEE16do_move_backwardEPvPKvj
W _ZNK7android12SortedVectorINS_16key_value_pair_tIiPNS_22AudioPolicyManagerBase20AudioInputDescriptorEEEE7do_copyEPvPKvj
W _ZNK7android12SortedVectorINS_16key_value_pair_tIiPNS_22AudioPolicyManagerBase20AudioInputDescriptorEEEE8do_splatEPvPKvj
W _ZNK7android12SortedVectorINS_16key_value_pair_tIiPNS_22AudioPolicyManagerBase21AudioOutputDescriptorEEEE10do_compareEPKvS8_
W _ZNK7android12SortedVectorINS_16key_value_pair_tIiPNS_22AudioPolicyManagerBase21AudioOutputDescriptorEEEE10do_destroyEPvj
W _ZNK7android12SortedVectorINS_16key_value_pair_tIiPNS_22AudioPolicyManagerBase21AudioOutputDescriptorEEEE12do_constructEPvj
W _ZNK7android12SortedVectorINS_16key_value_pair_tIiPNS_22AudioPolicyManagerBase21AudioOutputDescriptorEEEE15do_move_forwardEPvPKvj
W _ZNK7android12SortedVectorINS_16key_value_pair_tIiPNS_22AudioPolicyManagerBase21AudioOutputDescriptorEEEE16do_move_backwardEPvPKvj
W _ZNK7android12SortedVectorINS_16key_value_pair_tIiPNS_22AudioPolicyManagerBase21AudioOutputDescriptorEEEE7do_copyEPvPKvj
W _ZNK7android12SortedVectorINS_16key_value_pair_tIiPNS_22AudioPolicyManagerBase21AudioOutputDescriptorEEEE8do_splatEPvPKvj
W _ZNK7android12SortedVectorINS_2spINS_12AudioFlinger14PlaybackThread11OutputTrackEEEE10do_compareEPKvS8_
W _ZNK7android12SortedVectorINS_2spINS_12AudioFlinger14PlaybackThread11OutputTrackEEEE10do_destroyEPvj
W _ZNK7android12SortedVectorINS_2spINS_12AudioFlinger14PlaybackThread11OutputTrackEEEE12do_constructEPvj
W _ZNK7android12SortedVectorINS_2spINS_12AudioFlinger14PlaybackThread11OutputTrackEEEE15do_move_forwardEPvPKvj
W _ZNK7android12SortedVectorINS_2spINS_12AudioFlinger14PlaybackThread11OutputTrackEEEE16do_move_backwardEPvPKvj
W _ZNK7android12SortedVectorINS_2spINS_12AudioFlinger14PlaybackThread11OutputTrackEEEE7do_copyEPvPKvj
W _ZNK7android12SortedVectorINS_2spINS_12AudioFlinger14PlaybackThread11OutputTrackEEEE8do_splatEPvPKvj
W _ZNK7android12SortedVectorINS_2spINS_12AudioFlinger14PlaybackThread5TrackEEEE10do_compareEPKvS8_
W _ZNK7android12SortedVectorINS_2spINS_12AudioFlinger14PlaybackThread5TrackEEEE10do_destroyEPvj
W _ZNK7android12SortedVectorINS_2spINS_12AudioFlinger14PlaybackThread5TrackEEEE12do_constructEPvj
W _ZNK7android12SortedVectorINS_2spINS_12AudioFlinger14PlaybackThread5TrackEEEE15do_move_forwardEPvPKvj
W _ZNK7android12SortedVectorINS_2spINS_12AudioFlinger14PlaybackThread5TrackEEEE16do_move_backwardEPvPKvj
W _ZNK7android12SortedVectorINS_2spINS_12AudioFlinger14PlaybackThread5TrackEEEE7do_copyEPvPKvj
W _ZNK7android12SortedVectorINS_2spINS_12AudioFlinger14PlaybackThread5TrackEEEE8do_splatEPvPKvj
W _ZNK7android12SortedVectorINS_2wpINS_12AudioFlinger14PlaybackThread5TrackEEEE10do_compareEPKvS8_
W _ZNK7android12SortedVectorINS_2wpINS_12AudioFlinger14PlaybackThread5TrackEEEE10do_destroyEPvj
W _ZNK7android12SortedVectorINS_2wpINS_12AudioFlinger14PlaybackThread5TrackEEEE12do_constructEPvj
W _ZNK7android12SortedVectorINS_2wpINS_12AudioFlinger14PlaybackThread5TrackEEEE15do_move_forwardEPvPKvj
W _ZNK7android12SortedVectorINS_2wpINS_12AudioFlinger14PlaybackThread5TrackEEEE16do_move_backwardEPvPKvj
W _ZNK7android12SortedVectorINS_2wpINS_12AudioFlinger14PlaybackThread5TrackEEEE7do_copyEPvPKvj
W _ZNK7android12SortedVectorINS_2wpINS_12AudioFlinger14PlaybackThread5TrackEEEE8do_splatEPvPKvj
U _ZNK7android13IAudioFlinger22getInterfaceDescriptorEv
U _ZNK7android16SortedVectorImpl7indexOfEPKv
U _ZNK7android18audio_track_cblk_t6bufferEj
U _ZNK7android19IAudioPolicyService22getInterfaceDescriptorEv
W _ZNK7android2wpINS_12AudioFlinger10ThreadBaseEE7promoteEv
W _ZNK7android2wpINS_12AudioFlinger12EffectHandleEE7promoteEv
W _ZNK7android2wpINS_12AudioFlinger14PlaybackThread5TrackEE7promoteEv
W _ZNK7android2wpINS_12AudioFlinger6ClientEE7promoteEv
U _ZNK7android6Thread11exitPendingEv
W _ZNK7android6VectorINS_2spINS_12AudioFlinger11EffectChainEEEE10do_destroyEPvj
W _ZNK7android6VectorINS_2spINS_12AudioFlinger11EffectChainEEEE12do_constructEPvj
W _ZNK7android6VectorINS_2spINS_12AudioFlinger11EffectChainEEEE15do_move_forwardEPvPKvj
W _ZNK7android6VectorINS_2spINS_12AudioFlinger11EffectChainEEEE16do_move_backwardEPvPKvj
W _ZNK7android6VectorINS_2spINS_12AudioFlinger11EffectChainEEEE7do_copyEPvPKvj
W _ZNK7android6VectorINS_2spINS_12AudioFlinger11EffectChainEEEE8do_splatEPvPKvj
W _ZNK7android6VectorINS_2spINS_12AudioFlinger12EffectModuleEEEE10do_destroyEPvj
W _ZNK7android6VectorINS_2spINS_12AudioFlinger12EffectModuleEEEE12do_constructEPvj
W _ZNK7android6VectorINS_2spINS_12AudioFlinger12EffectModuleEEEE15do_move_forwardEPvPKvj
W _ZNK7android6VectorINS_2spINS_12AudioFlinger12EffectModuleEEEE16do_move_backwardEPvPKvj
W _ZNK7android6VectorINS_2spINS_12AudioFlinger12EffectModuleEEEE7do_copyEPvPKvj
W _ZNK7android6VectorINS_2spINS_12AudioFlinger12EffectModuleEEEE8do_splatEPvPKvj
W _ZNK7android6VectorINS_2spINS_12AudioFlinger14PlaybackThread5TrackEEEE10do_destroyEPvj
W _ZNK7android6VectorINS_2spINS_12AudioFlinger14PlaybackThread5TrackEEEE12do_constructEPvj
W _ZNK7android6VectorINS_2spINS_12AudioFlinger14PlaybackThread5TrackEEEE15do_move_forwardEPvPKvj
W _ZNK7android6VectorINS_2spINS_12AudioFlinger14PlaybackThread5TrackEEEE16do_move_backwardEPvPKvj
W _ZNK7android6VectorINS_2spINS_12AudioFlinger14PlaybackThread5TrackEEEE7do_copyEPvPKvj
W _ZNK7android6VectorINS_2spINS_12AudioFlinger14PlaybackThread5TrackEEEE8do_splatEPvPKvj
W _ZNK7android6VectorINS_2wpINS_12AudioFlinger12EffectHandleEEEE10do_destroyEPvj
W _ZNK7android6VectorINS_2wpINS_12AudioFlinger12EffectHandleEEEE12do_constructEPvj
W _ZNK7android6VectorINS_2wpINS_12AudioFlinger12EffectHandleEEEE15do_move_forwardEPvPKvj
W _ZNK7android6VectorINS_2wpINS_12AudioFlinger12EffectHandleEEEE16do_move_backwardEPvPKvj
W _ZNK7android6VectorINS_2wpINS_12AudioFlinger12EffectHandleEEEE7do_copyEPvPKvj
W _ZNK7android6VectorINS_2wpINS_12AudioFlinger12EffectHandleEEEE8do_splatEPvPKvj
W _ZNK7android6VectorINS_7String8EE10do_destroyEPvj
W _ZNK7android6VectorINS_7String8EE12do_constructEPvj
W _ZNK7android6VectorINS_7String8EE15do_move_forwardEPvPKvj
W _ZNK7android6VectorINS_7String8EE16do_move_backwardEPvPKvj
W _ZNK7android6VectorINS_7String8EE7do_copyEPvPKvj
W _ZNK7android6VectorINS_7String8EE8do_splatEPvPKvj
W _ZNK7android6VectorIPNS_12AudioFlinger10ThreadBase11ConfigEventEE10do_destroyEPvj
W _ZNK7android6VectorIPNS_12AudioFlinger10ThreadBase11ConfigEventEE12do_constructEPvj
W _ZNK7android6VectorIPNS_12AudioFlinger10ThreadBase11ConfigEventEE15do_move_forwardEPvPKvj
W _ZNK7android6VectorIPNS_12AudioFlinger10ThreadBase11ConfigEventEE16do_move_backwardEPvPKvj
W _ZNK7android6VectorIPNS_12AudioFlinger10ThreadBase11ConfigEventEE7do_copyEPvPKvj
W _ZNK7android6VectorIPNS_12AudioFlinger10ThreadBase11ConfigEventEE8do_splatEPvPKvj
W _ZNK7android6VectorIPNS_12AudioFlinger14PlaybackThread11OutputTrack6BufferEE10do_destroyEPvj
W _ZNK7android6VectorIPNS_12AudioFlinger14PlaybackThread11OutputTrack6BufferEE12do_constructEPvj
W _ZNK7android6VectorIPNS_12AudioFlinger14PlaybackThread11OutputTrack6BufferEE15do_move_forwardEPvPKvj
W _ZNK7android6VectorIPNS_12AudioFlinger14PlaybackThread11OutputTrack6BufferEE16do_move_backwardEPvPKvj
W _ZNK7android6VectorIPNS_12AudioFlinger14PlaybackThread11OutputTrack6BufferEE7do_copyEPvPKvj
W _ZNK7android6VectorIPNS_12AudioFlinger14PlaybackThread11OutputTrack6BufferEE8do_splatEPvPKvj
W _ZNK7android6VectorIPNS_18AudioPolicyService18AudioCommandThread12AudioCommandEE10do_destroyEPvj
W _ZNK7android6VectorIPNS_18AudioPolicyService18AudioCommandThread12AudioCommandEE12do_constructEPvj
W _ZNK7android6VectorIPNS_18AudioPolicyService18AudioCommandThread12AudioCommandEE15do_move_forwardEPvPKvj
W _ZNK7android6VectorIPNS_18AudioPolicyService18AudioCommandThread12AudioCommandEE16do_move_backwardEPvPKvj
W _ZNK7android6VectorIPNS_18AudioPolicyService18AudioCommandThread12AudioCommandEE7do_copyEPvPKvj
W _ZNK7android6VectorIPNS_18AudioPolicyService18AudioCommandThread12AudioCommandEE8do_splatEPvPKvj
U _ZNK7android7BBinder10findObjectEPKv
U _ZNK7android7BBinder13isBinderAliveEv
U _ZNK7android7BBinder22getInterfaceDescriptorEv
U _ZNK7android7IBinder13checkSubclassEPKv
U _ZNK7android7IEffect22getInterfaceDescriptorEv
U _ZNK7android7IMemory7pointerEv
U _ZNK7android7RefBase10createWeakEPKv
U _ZNK7android7RefBase9decStrongEPKv
U _ZNK7android7RefBase9incStrongEPKv
V _ZTCN7android11BnInterfaceINS_11IAudioTrackEEE0_NS_10IInterfaceE
V _ZTCN7android11BnInterfaceINS_11IAudioTrackEEE0_S1_
V _ZTCN7android11BnInterfaceINS_11IAudioTrackEEE4_NS_7BBinderE
V _ZTCN7android11BnInterfaceINS_11IAudioTrackEEE4_NS_7IBinderE
V _ZTCN7android11BnInterfaceINS_12IAudioRecordEEE0_NS_10IInterfaceE
V _ZTCN7android11BnInterfaceINS_12IAudioRecordEEE0_S1_
V _ZTCN7android11BnInterfaceINS_12IAudioRecordEEE4_NS_7BBinderE
V _ZTCN7android11BnInterfaceINS_12IAudioRecordEEE4_NS_7IBinderE
V _ZTCN7android11BnInterfaceINS_13IAudioFlingerEEE0_NS_10IInterfaceE
V _ZTCN7android11BnInterfaceINS_13IAudioFlingerEEE0_S1_
V _ZTCN7android11BnInterfaceINS_13IAudioFlingerEEE4_NS_7BBinderE
V _ZTCN7android11BnInterfaceINS_13IAudioFlingerEEE4_NS_7IBinderE
V _ZTCN7android11BnInterfaceINS_19IAudioPolicyServiceEEE0_NS_10IInterfaceE
V _ZTCN7android11BnInterfaceINS_19IAudioPolicyServiceEEE0_S1_
V _ZTCN7android11BnInterfaceINS_19IAudioPolicyServiceEEE4_NS_7BBinderE
V _ZTCN7android11BnInterfaceINS_19IAudioPolicyServiceEEE4_NS_7IBinderE
V _ZTCN7android11BnInterfaceINS_7IEffectEEE0_NS_10IInterfaceE
V _ZTCN7android11BnInterfaceINS_7IEffectEEE0_S1_
V _ZTCN7android11BnInterfaceINS_7IEffectEEE4_NS_7BBinderE
V _ZTCN7android11BnInterfaceINS_7IEffectEEE4_NS_7IBinderE
D _ZTCN7android12AudioFlinger10ThreadBaseE0_NS_6ThreadE
D _ZTCN7android12AudioFlinger11MixerThreadE0_NS0_10ThreadBaseE
D _ZTCN7android12AudioFlinger11MixerThreadE0_NS0_14PlaybackThreadE
D _ZTCN7android12AudioFlinger11MixerThreadE0_NS_6ThreadE
D _ZTCN7android12AudioFlinger11TrackHandleE0_NS_10IInterfaceE
D _ZTCN7android12AudioFlinger11TrackHandleE0_NS_11BnInterfaceINS_11IAudioTrackEEE
D _ZTCN7android12AudioFlinger11TrackHandleE0_NS_11IAudioTrackE
D _ZTCN7android12AudioFlinger11TrackHandleE0_NS_12BnAudioTrackE
D _ZTCN7android12AudioFlinger11TrackHandleE4_NS_7BBinderE
D _ZTCN7android12AudioFlinger11TrackHandleE4_NS_7IBinderE
D _ZTCN7android12AudioFlinger12EffectHandleE0_NS_10IInterfaceE
D _ZTCN7android12AudioFlinger12EffectHandleE0_NS_11BnInterfaceINS_7IEffectEEE
D _ZTCN7android12AudioFlinger12EffectHandleE0_NS_7IEffectE
D _ZTCN7android12AudioFlinger12EffectHandleE0_NS_8BnEffectE
D _ZTCN7android12AudioFlinger12EffectHandleE4_NS_7BBinderE
D _ZTCN7android12AudioFlinger12EffectHandleE4_NS_7IBinderE
D _ZTCN7android12AudioFlinger12RecordHandleE0_NS_10IInterfaceE
D _ZTCN7android12AudioFlinger12RecordHandleE0_NS_11BnInterfaceINS_12IAudioRecordEEE
D _ZTCN7android12AudioFlinger12RecordHandleE0_NS_12IAudioRecordE
D _ZTCN7android12AudioFlinger12RecordHandleE0_NS_13BnAudioRecordE
D _ZTCN7android12AudioFlinger12RecordHandleE4_NS_7BBinderE
D _ZTCN7android12AudioFlinger12RecordHandleE4_NS_7IBinderE
D _ZTCN7android12AudioFlinger12RecordThreadE0_NS0_10ThreadBaseE
D _ZTCN7android12AudioFlinger12RecordThreadE0_NS_6ThreadE
D _ZTCN7android12AudioFlinger14PlaybackThreadE0_NS0_10ThreadBaseE
D _ZTCN7android12AudioFlinger14PlaybackThreadE0_NS_6ThreadE
D _ZTCN7android12AudioFlinger17DuplicatingThreadE0_NS0_10ThreadBaseE
D _ZTCN7android12AudioFlinger17DuplicatingThreadE0_NS0_11MixerThreadE
D _ZTCN7android12AudioFlinger17DuplicatingThreadE0_NS0_14PlaybackThreadE
D _ZTCN7android12AudioFlinger17DuplicatingThreadE0_NS_6ThreadE
D _ZTCN7android12AudioFlinger18DirectOutputThreadE0_NS0_10ThreadBaseE
D _ZTCN7android12AudioFlinger18DirectOutputThreadE0_NS0_14PlaybackThreadE
D _ZTCN7android12AudioFlinger18DirectOutputThreadE0_NS_6ThreadE
D _ZTCN7android12AudioFlinger18NotificationClientE0_NS_7IBinder14DeathRecipientE
D _ZTCN7android12AudioFlingerE0_NS_10IInterfaceE
D _ZTCN7android12AudioFlingerE0_NS_11BnInterfaceINS_13IAudioFlingerEEE
D _ZTCN7android12AudioFlingerE0_NS_13IAudioFlingerE
D _ZTCN7android12AudioFlingerE0_NS_14BnAudioFlingerE
D _ZTCN7android12AudioFlingerE4_NS_7BBinderE
D _ZTCN7android12AudioFlingerE4_NS_7IBinderE
D _ZTCN7android18AudioPolicyService18AudioCommandThreadE0_NS_6ThreadE
D _ZTCN7android18AudioPolicyServiceE0_NS_10IInterfaceE
D _ZTCN7android18AudioPolicyServiceE0_NS_11BnInterfaceINS_19IAudioPolicyServiceEEE
D _ZTCN7android18AudioPolicyServiceE0_NS_19IAudioPolicyServiceE
D _ZTCN7android18AudioPolicyServiceE0_NS_20BnAudioPolicyServiceE
D _ZTCN7android18AudioPolicyServiceE20_NS_7IBinder14DeathRecipientE
D _ZTCN7android18AudioPolicyServiceE4_NS_7BBinderE
D _ZTCN7android18AudioPolicyServiceE4_NS_7IBinderE
V _ZTTN7android11BnInterfaceINS_11IAudioTrackEEE
V _ZTTN7android11BnInterfaceINS_12IAudioRecordEEE
V _ZTTN7android11BnInterfaceINS_13IAudioFlingerEEE
V _ZTTN7android11BnInterfaceINS_19IAudioPolicyServiceEEE
V _ZTTN7android11BnInterfaceINS_7IEffectEEE
D _ZTTN7android12AudioFlinger10ThreadBaseE
D _ZTTN7android12AudioFlinger11MixerThreadE
D _ZTTN7android12AudioFlinger11TrackHandleE
D _ZTTN7android12AudioFlinger12EffectHandleE
D _ZTTN7android12AudioFlinger12RecordHandleE
D _ZTTN7android12AudioFlinger12RecordThreadE
D _ZTTN7android12AudioFlinger14PlaybackThreadE
D _ZTTN7android12AudioFlinger17DuplicatingThreadE
D _ZTTN7android12AudioFlinger18DirectOutputThreadE
D _ZTTN7android12AudioFlinger18NotificationClientE
D _ZTTN7android12AudioFlingerE
U _ZTTN7android12BnAudioTrackE
U _ZTTN7android13BnAudioRecordE
U _ZTTN7android14BnAudioFlingerE
D _ZTTN7android18AudioPolicyService18AudioCommandThreadE
D _ZTTN7android18AudioPolicyServiceE
U _ZTTN7android20BnAudioPolicyServiceE
V _ZTTN7android7IBinder14DeathRecipientE
U _ZTTN7android8BnEffectE
V _ZTVN7android11BnInterfaceINS_11IAudioTrackEEE
V _ZTVN7android11BnInterfaceINS_12IAudioRecordEEE
V _ZTVN7android11BnInterfaceINS_13IAudioFlingerEEE
V _ZTVN7android11BnInterfaceINS_19IAudioPolicyServiceEEE
V _ZTVN7android11BnInterfaceINS_7IEffectEEE
D _ZTVN7android12AudioFlinger10ThreadBase9TrackBaseE
D _ZTVN7android12AudioFlinger10ThreadBaseE
D _ZTVN7android12AudioFlinger11EffectChainE
D _ZTVN7android12AudioFlinger11MixerThreadE
D _ZTVN7android12AudioFlinger11TrackHandleE
D _ZTVN7android12AudioFlinger12EffectHandleE
D _ZTVN7android12AudioFlinger12EffectModuleE
D _ZTVN7android12AudioFlinger12RecordHandleE
D _ZTVN7android12AudioFlinger12RecordThread11RecordTrackE
D _ZTVN7android12AudioFlinger12RecordThreadE
D _ZTVN7android12AudioFlinger14PlaybackThread11OutputTrackE
D _ZTVN7android12AudioFlinger14PlaybackThread5TrackE
D _ZTVN7android12AudioFlinger14PlaybackThreadE
D _ZTVN7android12AudioFlinger17DuplicatingThreadE
D _ZTVN7android12AudioFlinger18DirectOutputThreadE
D _ZTVN7android12AudioFlinger18NotificationClientE
D _ZTVN7android12AudioFlinger6ClientE
D _ZTVN7android12AudioFlingerE
U _ZTVN7android12BnAudioTrackE
V _ZTVN7android12SortedVectorINS_16key_value_pair_tINS_7String8ES2_EEEE
V _ZTVN7android12SortedVectorINS_16key_value_pair_tIiNS_2spINS_12AudioFlinger12RecordThreadEEEEEEE
V _ZTVN7android12SortedVectorINS_16key_value_pair_tIiNS_2spINS_12AudioFlinger14PlaybackThreadEEEEEEE
V _ZTVN7android12SortedVectorINS_16key_value_pair_tIiNS_2spINS_12AudioFlinger18NotificationClientEEEEEEE
V _ZTVN7android12SortedVectorINS_16key_value_pair_tIiNS_2wpINS_12AudioFlinger6ClientEEEEEEE
V _ZTVN7android12SortedVectorINS_16key_value_pair_tIiPNS_22AudioPolicyManagerBase16EffectDescriptorEEEEE
V _ZTVN7android12SortedVectorINS_16key_value_pair_tIiPNS_22AudioPolicyManagerBase20AudioInputDescriptorEEEEE
V _ZTVN7android12SortedVectorINS_16key_value_pair_tIiPNS_22AudioPolicyManagerBase21AudioOutputDescriptorEEEEE
V _ZTVN7android12SortedVectorINS_2spINS_12AudioFlinger14PlaybackThread11OutputTrackEEEEE
V _ZTVN7android12SortedVectorINS_2spINS_12AudioFlinger14PlaybackThread5TrackEEEEE
V _ZTVN7android12SortedVectorINS_2wpINS_12AudioFlinger14PlaybackThread5TrackEEEEE
V _ZTVN7android13AudioStreamInE
U _ZTVN7android13BnAudioRecordE
U _ZTVN7android14AudioParameterE
D _ZTVN7android14AudioResamplerE
V _ZTVN7android14AudioStreamOutE
U _ZTVN7android14BnAudioFlingerE
D _ZTVN7android17AudioHardwareBaseE
D _ZTVN7android17AudioHardwareStubE
D _ZTVN7android17AudioStreamInStubE
D _ZTVN7android18AudioPolicyService18AudioCommandThreadE
D _ZTVN7android18AudioPolicyServiceE
D _ZTVN7android18AudioResamplerSincE
D _ZTVN7android18AudioStreamOutStubE
V _ZTVN7android19AudioBufferProviderE
D _ZTVN7android19AudioResamplerCubicE
D _ZTVN7android20AudioHardwareGenericE
V _ZTVN7android20AudioPolicyInterfaceE
D _ZTVN7android20AudioResamplerOrder1E
D _ZTVN7android20AudioStreamInGenericE
U _ZTVN7android20BnAudioPolicyServiceE
D _ZTVN7android21AudioStreamOutGenericE
V _ZTVN7android22AudioHardwareInterfaceE
D _ZTVN7android22AudioPolicyManagerBaseE
V _ZTVN7android26AudioPolicyClientInterfaceE
V _ZTVN7android6VectorINS_2spINS_12AudioFlinger11EffectChainEEEEE
V _ZTVN7android6VectorINS_2spINS_12AudioFlinger12EffectModuleEEEEE
V _ZTVN7android6VectorINS_2spINS_12AudioFlinger14PlaybackThread5TrackEEEEE
V _ZTVN7android6VectorINS_2wpINS_12AudioFlinger12EffectHandleEEEEE
V _ZTVN7android6VectorINS_7String8EEE
V _ZTVN7android6VectorIPNS_12AudioFlinger10ThreadBase11ConfigEventEEE
V _ZTVN7android6VectorIPNS_12AudioFlinger14PlaybackThread11OutputTrack6BufferEEE
V _ZTVN7android6VectorIPNS_18AudioPolicyService18AudioCommandThread12AudioCommandEEE
V _ZTVN7android7IBinder14DeathRecipientE
U _ZTVN7android8BnEffectE
T _ZThn128_N7android12AudioFlinger12RecordThread13getNextBufferEPNS_19AudioBufferProvider6BufferE
T _ZThn128_N7android12AudioFlinger12RecordThread13releaseBufferEPNS_19AudioBufferProvider6BufferE
T _ZThn128_N7android12AudioFlinger12RecordThreadD0Ev
T _ZThn128_N7android12AudioFlinger12RecordThreadD1Ev
T _ZThn16_N7android18AudioPolicyService10closeInputEi
T _ZThn16_N7android18AudioPolicyService10openOutputEPjS1_S1_S1_S1_NS_11AudioSystem12output_flagsE
T _ZThn16_N7android18AudioPolicyService11closeOutputEi
T _ZThn16_N7android18AudioPolicyService11moveEffectsEiii
T _ZThn16_N7android18AudioPolicyService13getParametersEiRKNS_7String8E
T _ZThn16_N7android18AudioPolicyService13restoreOutputEi
T _ZThn16_N7android18AudioPolicyService13setParametersEiRKNS_7String8Ei
T _ZThn16_N7android18AudioPolicyService13suspendOutputEi
T _ZThn16_N7android18AudioPolicyService14setVoiceVolumeEfi
T _ZThn16_N7android18AudioPolicyService15setStreamOutputENS_11AudioSystem11stream_typeEi
T _ZThn16_N7android18AudioPolicyService15setStreamVolumeENS_11AudioSystem11stream_typeEfii
T _ZThn16_N7android18AudioPolicyService19openDuplicateOutputEii
T _ZThn16_N7android18AudioPolicyService8stopToneEv
T _ZThn16_N7android18AudioPolicyService9openInputEPjS1_S1_S1_j
T _ZThn16_N7android18AudioPolicyService9startToneENS_13ToneGenerator9tone_typeENS_11AudioSystem11stream_typeE
T _ZThn16_N7android18AudioPolicyServiceD0Ev
T _ZThn16_N7android18AudioPolicyServiceD1Ev
T _ZThn20_N7android18AudioPolicyService10binderDiedERKNS_2wpINS_7IBinderEEE
T _ZThn20_N7android18AudioPolicyServiceD0Ev
T _ZThn20_N7android18AudioPolicyServiceD1Ev
T _ZThn4_N7android12AudioFlinger10ThreadBase9TrackBaseD0Ev
T _ZThn4_N7android12AudioFlinger10ThreadBase9TrackBaseD1Ev
T _ZThn4_N7android12AudioFlinger10onTransactEjRKNS_6ParcelEPS1_j
T _ZThn4_N7android12AudioFlinger11TrackHandle10onTransactEjRKNS_6ParcelEPS2_j
T _ZThn4_N7android12AudioFlinger11TrackHandleD0Ev
T _ZThn4_N7android12AudioFlinger11TrackHandleD1Ev
T _ZThn4_N7android12AudioFlinger12EffectHandle10onTransactEjRKNS_6ParcelEPS2_j
T _ZThn4_N7android12AudioFlinger12EffectHandleD0Ev
T _ZThn4_N7android12AudioFlinger12EffectHandleD1Ev
T _ZThn4_N7android12AudioFlinger12RecordHandle10onTransactEjRKNS_6ParcelEPS2_j
T _ZThn4_N7android12AudioFlinger12RecordHandleD0Ev
T _ZThn4_N7android12AudioFlinger12RecordHandleD1Ev
T _ZThn4_N7android12AudioFlinger12RecordThread11RecordTrackD0Ev
T _ZThn4_N7android12AudioFlinger12RecordThread11RecordTrackD1Ev
T _ZThn4_N7android12AudioFlinger14PlaybackThread11OutputTrackD0Ev
T _ZThn4_N7android12AudioFlinger14PlaybackThread11OutputTrackD1Ev
T _ZThn4_N7android12AudioFlinger14PlaybackThread5TrackD0Ev
T _ZThn4_N7android12AudioFlinger14PlaybackThread5TrackD1Ev
T _ZThn4_N7android12AudioFlinger4dumpEiRKNS_6VectorINS_8String16EEE
T _ZThn4_N7android12AudioFlingerD0Ev
T _ZThn4_N7android12AudioFlingerD1Ev
U _ZThn4_N7android12BnAudioTrack10onTransactEjRKNS_6ParcelEPS1_j
U _ZThn4_N7android13BnAudioRecord10onTransactEjRKNS_6ParcelEPS1_j
U _ZThn4_N7android14BnAudioFlinger10onTransactEjRKNS_6ParcelEPS1_j
T _ZThn4_N7android18AudioPolicyService10onTransactEjRKNS_6ParcelEPS1_j
T _ZThn4_N7android18AudioPolicyService4dumpEiRKNS_6VectorINS_8String16EEE
T _ZThn4_N7android18AudioPolicyServiceD0Ev
T _ZThn4_N7android18AudioPolicyServiceD1Ev
U _ZThn4_N7android20BnAudioPolicyService10onTransactEjRKNS_6ParcelEPS1_j
U _ZThn4_N7android8BnEffect10onTransactEjRKNS_6ParcelEPS1_j
U _ZTv0_n12_N7android10IInterfaceD0Ev
U _ZTv0_n12_N7android10IInterfaceD1Ev
W _ZTv0_n12_N7android11BnInterfaceINS_11IAudioTrackEED0Ev
W _ZTv0_n12_N7android11BnInterfaceINS_11IAudioTrackEED1Ev
W _ZTv0_n12_N7android11BnInterfaceINS_12IAudioRecordEED0Ev
W _ZTv0_n12_N7android11BnInterfaceINS_12IAudioRecordEED1Ev
W _ZTv0_n12_N7android11BnInterfaceINS_13IAudioFlingerEED0Ev
W _ZTv0_n12_N7android11BnInterfaceINS_13IAudioFlingerEED1Ev
W _ZTv0_n12_N7android11BnInterfaceINS_19IAudioPolicyServiceEED0Ev
W _ZTv0_n12_N7android11BnInterfaceINS_19IAudioPolicyServiceEED1Ev
W _ZTv0_n12_N7android11BnInterfaceINS_7IEffectEED0Ev
W _ZTv0_n12_N7android11BnInterfaceINS_7IEffectEED1Ev
U _ZTv0_n12_N7android11IAudioTrackD0Ev
U _ZTv0_n12_N7android11IAudioTrackD1Ev
T _ZTv0_n12_N7android12AudioFlinger10ThreadBaseD0Ev
T _ZTv0_n12_N7android12AudioFlinger10ThreadBaseD1Ev
T _ZTv0_n12_N7android12AudioFlinger11MixerThreadD0Ev
T _ZTv0_n12_N7android12AudioFlinger11MixerThreadD1Ev
T _ZTv0_n12_N7android12AudioFlinger11TrackHandleD0Ev
T _ZTv0_n12_N7android12AudioFlinger11TrackHandleD1Ev
T _ZTv0_n12_N7android12AudioFlinger12EffectHandleD0Ev
T _ZTv0_n12_N7android12AudioFlinger12EffectHandleD1Ev
T _ZTv0_n12_N7android12AudioFlinger12RecordHandleD0Ev
T _ZTv0_n12_N7android12AudioFlinger12RecordHandleD1Ev
T _ZTv0_n12_N7android12AudioFlinger12RecordThreadD0Ev
T _ZTv0_n12_N7android12AudioFlinger12RecordThreadD1Ev
T _ZTv0_n12_N7android12AudioFlinger14PlaybackThreadD0Ev
T _ZTv0_n12_N7android12AudioFlinger14PlaybackThreadD1Ev
T _ZTv0_n12_N7android12AudioFlinger17DuplicatingThreadD0Ev
T _ZTv0_n12_N7android12AudioFlinger17DuplicatingThreadD1Ev
T _ZTv0_n12_N7android12AudioFlinger18DirectOutputThreadD0Ev
T _ZTv0_n12_N7android12AudioFlinger18DirectOutputThreadD1Ev
T _ZTv0_n12_N7android12AudioFlinger18NotificationClientD0Ev
T _ZTv0_n12_N7android12AudioFlinger18NotificationClientD1Ev
T _ZTv0_n12_N7android12AudioFlingerD0Ev
T _ZTv0_n12_N7android12AudioFlingerD1Ev
W _ZTv0_n12_N7android12BnAudioTrackD0Ev
W _ZTv0_n12_N7android12BnAudioTrackD1Ev
U _ZTv0_n12_N7android12IAudioRecordD0Ev
U _ZTv0_n12_N7android12IAudioRecordD1Ev
W _ZTv0_n12_N7android13BnAudioRecordD0Ev
W _ZTv0_n12_N7android13BnAudioRecordD1Ev
U _ZTv0_n12_N7android13IAudioFlingerD0Ev
U _ZTv0_n12_N7android13IAudioFlingerD1Ev
W _ZTv0_n12_N7android14BnAudioFlingerD0Ev
W _ZTv0_n12_N7android14BnAudioFlingerD1Ev
T _ZTv0_n12_N7android18AudioPolicyService18AudioCommandThreadD0Ev
T _ZTv0_n12_N7android18AudioPolicyService18AudioCommandThreadD1Ev
T _ZTv0_n12_N7android18AudioPolicyServiceD0Ev
T _ZTv0_n12_N7android18AudioPolicyServiceD1Ev
U _ZTv0_n12_N7android19IAudioPolicyServiceD0Ev
U _ZTv0_n12_N7android19IAudioPolicyServiceD1Ev
W _ZTv0_n12_N7android20BnAudioPolicyServiceD0Ev
W _ZTv0_n12_N7android20BnAudioPolicyServiceD1Ev
U _ZTv0_n12_N7android6ThreadD0Ev
U _ZTv0_n12_N7android6ThreadD1Ev
U _ZTv0_n12_N7android7BBinderD0Ev
U _ZTv0_n12_N7android7BBinderD1Ev
W _ZTv0_n12_N7android7IBinder14DeathRecipientD0Ev
W _ZTv0_n12_N7android7IBinder14DeathRecipientD1Ev
U _ZTv0_n12_N7android7IBinderD0Ev
U _ZTv0_n12_N7android7IBinderD1Ev
U _ZTv0_n12_N7android7IEffectD0Ev
U _ZTv0_n12_N7android7IEffectD1Ev
W _ZTv0_n12_N7android8BnEffectD0Ev
W _ZTv0_n12_N7android8BnEffectD1Ev
T _ZTv0_n16_N7android12AudioFlinger12RecordThread10onFirstRefEv
T _ZTv0_n16_N7android12AudioFlinger14PlaybackThread10onFirstRefEv
T _ZTv0_n16_N7android18AudioPolicyService18AudioCommandThread10onFirstRefEv
U _ZdaPv
U _ZdlPv
U _Znaj
U _Znwj
T __FINI_ARRAY__
T __INIT_ARRAY__
U __aeabi_d2f
U __aeabi_d2uiz
U __aeabi_dadd
U __aeabi_dcmpgt
U __aeabi_ddiv
U __aeabi_dmul
U __aeabi_f2d
U __aeabi_f2uiz
U __aeabi_fcmpeq
U __aeabi_fcmpgt
U __aeabi_fdiv
U __aeabi_fmul
U __aeabi_i2d
U __aeabi_i2f
U __aeabi_idiv
U __aeabi_idivmod
U __aeabi_ldivmod
U __aeabi_lmul
U __aeabi_ui2f
U __aeabi_uidiv
U __aeabi_unwind_cpp_pr0
U __android_log_print
A __bss_end__
A __bss_start
A __bss_start__
T __clzsi2
U __cxa_finalize
U __cxa_pure_virtual
A __data_start
B __dso_handle
A __end__
A __exidx_end
A __exidx_start
U __stack_chk_fail
U __stack_chk_guard
A _bss_end__
A _edata
A _end
A _stack
U access
U acquire_wake_lock
U android_atomic_inc
U atoi
U close
U gEffectLibPath
U getpid
U gettid
U memcmp
U memcpy
U memmove
U memset
U open
U property_get
U pthread_cond_broadcast
U pthread_cond_destroy
U pthread_cond_init
U pthread_cond_signal
U pthread_cond_timedwait_relative_np
U pthread_cond_wait
U pthread_mutex_destroy
U pthread_mutex_init
U pthread_mutex_lock
U pthread_mutex_trylock
U pthread_mutex_unlock
U pthread_mutexattr_destroy
U pthread_mutexattr_init
U pthread_mutexattr_setpshared
U read
U release_wake_lock
U snprintf
U strcmp
U strlen
U strncmp
U strzcmp16
U systemTime
U usleep
U write
