T JNI_OnLoad
U _ZN7android10VectorImpl13finish_vectorEv
U _ZN7android10VectorImpl13removeItemsAtEjj
U _ZN7android10VectorImpl16editItemLocationEj
U _ZN7android10VectorImpl19reservedVectorImpl1Ev
U _ZN7android10VectorImpl19reservedVectorImpl2Ev
U _ZN7android10VectorImpl19reservedVectorImpl3Ev
U _ZN7android10VectorImpl19reservedVectorImpl4Ev
U _ZN7android10VectorImpl19reservedVectorImpl5Ev
U _ZN7android10VectorImpl19reservedVectorImpl6Ev
U _ZN7android10VectorImpl19reservedVectorImpl7Ev
U _ZN7android10VectorImpl19reservedVectorImpl8Ev
U _ZN7android10VectorImpl3addEPKv
U _ZN7android10VectorImpl3addEv
U _ZN7android10VectorImpl3popEv
U _ZN7android10VectorImpl4pushEv
U _ZN7android10VectorImpl5clearEv
U _ZN7android10VectorImplC2ERKS0_
U _ZN7android10VectorImplC2Ejj
U _ZN7android10VectorImplD2Ev
U _ZN7android12InputManagerC1ERKNS_2spINS_17EventHubInterfaceEEERKNS1_INS_26InputReaderPolicyInterfaceEEERKNS1_INS_30InputDispatcherPolicyInterfaceEEE
D _ZN7android13sGpsCallbacksE
U _ZN7android14AndroidRuntime16createJavaThreadEPKcPFvPvES3_
U _ZN7android14AndroidRuntime9getJNIEnvEv
D _ZN7android14sAGpsCallbacksE
U _ZN7android15ComposerService18getComposerServiceEv
U _ZN7android15InputDeviceInfoC1Ev
U _ZN7android15InputDeviceInfoD1Ev
D _ZN7android15sGpsNiCallbacksE
U _ZN7android16SortedVectorImpl25reservedSortedVectorImpl1Ev
U _ZN7android16SortedVectorImpl25reservedSortedVectorImpl2Ev
U _ZN7android16SortedVectorImpl25reservedSortedVectorImpl3Ev
U _ZN7android16SortedVectorImpl25reservedSortedVectorImpl4Ev
U _ZN7android16SortedVectorImpl25reservedSortedVectorImpl5Ev
U _ZN7android16SortedVectorImpl25reservedSortedVectorImpl6Ev
U _ZN7android16SortedVectorImpl25reservedSortedVectorImpl7Ev
U _ZN7android16SortedVectorImpl25reservedSortedVectorImpl8Ev
U _ZN7android16SortedVectorImpl3addEPKv
U _ZN7android16SortedVectorImpl6removeEPKv
U _ZN7android16SortedVectorImplC2Ejj
U _ZN7android16SortedVectorImplD2Ev
W _ZN7android17move_forward_typeINS_11InputWindowEEEvPT_PKS2_j
D _ZN7android17sAGpsRilCallbacksE
D _ZN7android17sGpsXtraCallbacksE
T _ZN7android18NativeInputManager10isScreenOnEv
T _ZN7android18NativeInputManager12notifySwitchExiij
T _ZN7android18NativeInputManager14getDisplayInfoEiPiS1_S1_
T _ZN7android18NativeInputManager14isScreenBrightEv
T _ZN7android18NativeInputManager14populateWindowEP7_JNIEnvP8_jobjectRNS_11InputWindowE
T _ZN7android18NativeInputManager14setDisplaySizeEiii
T _ZN7android18NativeInputManager15setInputWindowsEP7_JNIEnvP13_jobjectArray
T _ZN7android18NativeInputManager16pokeUserActivityExi
T _ZN7android18NativeInputManager17filterTouchEventsEv
T _ZN7android18NativeInputManager17getKeyRepeatDelayEv
T _ZN7android18NativeInputManager19getKeyRepeatTimeoutEv
T _ZN7android18NativeInputManager20registerInputChannelEP7_JNIEnvRKNS_2spINS_12InputChannelEEEP8_jobjectb
T _ZN7android18NativeInputManager20setInputDispatchModeEbb
T _ZN7android18NativeInputManager21getMaxEventsPerSecondEv
T _ZN7android18NativeInputManager21setDisplayOrientationEii
T _ZN7android18NativeInputManager21setFocusedApplicationEP7_JNIEnvP8_jobject
T _ZN7android18NativeInputManager22filterJumpyTouchEventsEv
T _ZN7android18NativeInputManager22getExcludedDeviceNamesERNS_6VectorINS_7String8EEE
T _ZN7android18NativeInputManager22getVirtualKeyQuietTimeEv
T _ZN7android18NativeInputManager22unregisterInputChannelEP7_JNIEnvRKNS_2spINS_12InputChannelEEE
T _ZN7android18NativeInputManager23getInputChannelObjLocalEP7_JNIEnvRKNS_2spINS_12InputChannelEEE
T _ZN7android18NativeInputManager24getVirtualKeyDefinitionsERKNS_7String8ERNS_6VectorINS_20VirtualKeyDefinitionEEE
T _ZN7android18NativeInputManager24notifyInputChannelBrokenERKNS_2spINS_12InputChannelEEE
T _ZN7android18NativeInputManager25getInputDeviceCalibrationERKNS_7String8ERNS_22InputDeviceCalibrationE
T _ZN7android18NativeInputManager26interceptKeyBeforeQueueingExiiRiiiRj
T _ZN7android18NativeInputManager26notifyConfigurationChangedEx
T _ZN7android18NativeInputManager29interceptKeyBeforeDispatchingERKNS_2spINS_12InputChannelEEEPKNS_8KeyEventEj
T _ZN7android18NativeInputManager30interceptGenericBeforeQueueingExRj
T _ZN7android18NativeInputManager34checkAndClearExceptionFromCallbackEP7_JNIEnvPKc
T _ZN7android18NativeInputManager39checkInjectEventsPermissionNonReentrantEii
T _ZN7android18NativeInputManager4dumpERNS_7String8E
T _ZN7android18NativeInputManager9notifyANRERKNS_2spINS_22InputApplicationHandleEEERKNS1_INS_12InputChannelEEE
T _ZN7android18NativeInputManagerC1EP8_jobject
T _ZN7android18NativeInputManagerC2EP8_jobject
T _ZN7android18NativeInputManagerD0Ev
T _ZN7android18NativeInputManagerD1Ev
T _ZN7android18NativeInputManagerD2Ev
W _ZN7android18move_backward_typeINS_11InputWindowEEEvPT_PKS2_j
U _ZN7android22InputDeviceCalibration11addPropertyERKNS_7String8ES3_
U _ZN7android22InputDeviceCalibration5clearEv
W _ZN7android2spINS_12InputChannelEED1Ev
W _ZN7android2spINS_12InputChannelEEaSERKS2_
W _ZN7android2spINS_12InputManagerEED1Ev
W _ZN7android2spINS_12InputManagerEEaSEPS1_
W _ZN7android2spINS_18NativeInputManagerEED1Ev
W _ZN7android2spINS_20InputReaderInterfaceEED1Ev
W _ZN7android2spINS_22InputApplicationHandleEEaSINS_18NativeInputManager16ApplicationTokenEEERS2_PT_
W _ZN7android2spINS_24InputDispatcherInterfaceEED1Ev
U _ZN7android30android_view_KeyEvent_toNativeEP7_JNIEnvP8_jobjectPNS_8KeyEventE
U _ZN7android33android_view_MotionEvent_toNativeEP7_JNIEnvP8_jobjectPNS_11MotionEventE
T _ZN7android34register_android_server_UsbServiceEP7_JNIEnv
T _ZN7android36register_android_server_InputManagerEP7_JNIEnv
T _ZN7android36register_android_server_SystemServerEP7_JNIEnv
T _ZN7android37register_android_server_LightsServiceEP7_JNIEnv
T _ZN7android38register_android_server_BatteryServiceEP7_JNIEnv
T _ZN7android39register_android_server_VibratorServiceEP7_JNIEnv
U _ZN7android41android_view_InputChannel_getInputChannelEP7_JNIEnvP8_jobject
T _ZN7android43register_android_server_AlarmManagerServiceEP7_JNIEnv
T _ZN7android43register_android_server_PowerManagerServiceEP7_JNIEnv
T _ZN7android44android_server_PowerManagerService_goToSleepEx
U _ZN7android44android_view_InputChannel_setDisposeCallbackEP7_JNIEnvP8_jobjectPFvS1_S3_RKNS_2spINS_12InputChannelEEEPvES9_
T _ZN7android45android_server_PowerManagerService_isScreenOnEv
T _ZN7android47android_server_PowerManagerService_userActivityExi
T _ZN7android49android_server_PowerManagerService_isScreenBrightEv
T _ZN7android52register_android_server_location_GpsLocationProviderEP7_JNIEnv
U _ZN7android7RefBase10onFirstRefEv
U _ZN7android7RefBase13onLastWeakRefEPKv
U _ZN7android7RefBase15onLastStrongRefEPKv
U _ZN7android7RefBase20onIncStrongAttemptedEjPKv
U _ZN7android7RefBaseC2Ev
U _ZN7android7RefBaseD2Ev
U _ZN7android7String85setToEPKc
U _ZN7android7String85setToERKS0_
U _ZN7android7String86appendEPKc
U _ZN7android7String8C1EPKc
U _ZN7android7String8C1ERKS0_
U _ZN7android7String8C1Ev
U _ZN7android7String8D1Ev
U _ZN7android8EventHubC1Ev
W _ZNK7android12SortedVectorINS_16key_value_pair_tIPNS_12InputChannelEP8_jobjectEEE10do_compareEPKvS9_
W _ZNK7android12SortedVectorINS_16key_value_pair_tIPNS_12InputChannelEP8_jobjectEEE10do_destroyEPvj
W _ZNK7android12SortedVectorINS_16key_value_pair_tIPNS_12InputChannelEP8_jobjectEEE12do_constructEPvj
W _ZNK7android12SortedVectorINS_16key_value_pair_tIPNS_12InputChannelEP8_jobjectEEE15do_move_forwardEPvPKvj
W _ZNK7android12SortedVectorINS_16key_value_pair_tIPNS_12InputChannelEP8_jobjectEEE16do_move_backwardEPvPKvj
W _ZNK7android12SortedVectorINS_16key_value_pair_tIPNS_12InputChannelEP8_jobjectEEE7do_copyEPvPKvj
W _ZNK7android12SortedVectorINS_16key_value_pair_tIPNS_12InputChannelEP8_jobjectEEE8do_splatEPvPKvj
W _ZNK7android12SortedVectorINS_16key_value_pair_tIiNS_15InputDeviceInfo11MotionRangeEEEE10do_compareEPKvS7_
W _ZNK7android12SortedVectorINS_16key_value_pair_tIiNS_15InputDeviceInfo11MotionRangeEEEE10do_destroyEPvj
W _ZNK7android12SortedVectorINS_16key_value_pair_tIiNS_15InputDeviceInfo11MotionRangeEEEE12do_constructEPvj
W _ZNK7android12SortedVectorINS_16key_value_pair_tIiNS_15InputDeviceInfo11MotionRangeEEEE15do_move_forwardEPvPKvj
W _ZNK7android12SortedVectorINS_16key_value_pair_tIiNS_15InputDeviceInfo11MotionRangeEEEE16do_move_backwardEPvPKvj
W _ZNK7android12SortedVectorINS_16key_value_pair_tIiNS_15InputDeviceInfo11MotionRangeEEEE7do_copyEPvPKvj
W _ZNK7android12SortedVectorINS_16key_value_pair_tIiNS_15InputDeviceInfo11MotionRangeEEEE8do_splatEPvPKvj
U _ZNK7android16SortedVectorImpl7indexOfEPKv
W _ZNK7android6VectorINS_11InputWindowEE10do_destroyEPvj
W _ZNK7android6VectorINS_11InputWindowEE12do_constructEPvj
W _ZNK7android6VectorINS_11InputWindowEE15do_move_forwardEPvPKvj
W _ZNK7android6VectorINS_11InputWindowEE16do_move_backwardEPvPKvj
W _ZNK7android6VectorINS_11InputWindowEE7do_copyEPvPKvj
W _ZNK7android6VectorINS_11InputWindowEE8do_splatEPvPKvj
W _ZNK7android6VectorINS_13PointerCoordsEE10do_destroyEPvj
W _ZNK7android6VectorINS_13PointerCoordsEE12do_constructEPvj
W _ZNK7android6VectorINS_13PointerCoordsEE15do_move_forwardEPvPKvj
W _ZNK7android6VectorINS_13PointerCoordsEE16do_move_backwardEPvPKvj
W _ZNK7android6VectorINS_13PointerCoordsEE7do_copyEPvPKvj
W _ZNK7android6VectorINS_13PointerCoordsEE8do_splatEPvPKvj
W _ZNK7android6VectorIiE10do_destroyEPvj
W _ZNK7android6VectorIiE12do_constructEPvj
W _ZNK7android6VectorIiE15do_move_forwardEPvPKvj
W _ZNK7android6VectorIiE16do_move_backwardEPvPKvj
W _ZNK7android6VectorIiE7do_copyEPvPKvj
W _ZNK7android6VectorIiE8do_splatEPvPKvj
W _ZNK7android6VectorIxE10do_destroyEPvj
W _ZNK7android6VectorIxE12do_constructEPvj
W _ZNK7android6VectorIxE15do_move_forwardEPvPKvj
W _ZNK7android6VectorIxE16do_move_backwardEPvPKvj
W _ZNK7android6VectorIxE7do_copyEPvPKvj
W _ZNK7android6VectorIxE8do_splatEPvPKvj
U _ZNK7android7RefBase9decStrongEPKv
U _ZNK7android7RefBase9incStrongEPKv
D _ZTCN7android18NativeInputManagerE0_NS_26InputReaderPolicyInterfaceE
D _ZTCN7android18NativeInputManagerE84_NS_30InputDispatcherPolicyInterfaceE
D _ZTTN7android18NativeInputManagerE
V _ZTTN7android26InputReaderPolicyInterfaceE
V _ZTTN7android30InputDispatcherPolicyInterfaceE
V _ZTV11AInputEvent
V _ZTVN7android10InputEventE
V _ZTVN7android11MotionEventE
V _ZTVN7android12SortedVectorINS_16key_value_pair_tIPNS_12InputChannelEP8_jobjectEEEE
V _ZTVN7android12SortedVectorINS_16key_value_pair_tIiNS_15InputDeviceInfo11MotionRangeEEEEE
V _ZTVN7android18NativeInputManager16ApplicationTokenE
D _ZTVN7android18NativeInputManagerE
V _ZTVN7android22InputApplicationHandleE
V _ZTVN7android26InputReaderPolicyInterfaceE
V _ZTVN7android30InputDispatcherPolicyInterfaceE
V _ZTVN7android6VectorINS_11InputWindowEEE
V _ZTVN7android6VectorINS_13PointerCoordsEEE
V _ZTVN7android6VectorIiEE
V _ZTVN7android6VectorIxEE
V _ZTVN7android8KeyEventE
T _ZTv0_n12_N7android18NativeInputManagerD0Ev
T _ZTv0_n12_N7android18NativeInputManagerD1Ev
W _ZTv0_n12_N7android26InputReaderPolicyInterfaceD0Ev
W _ZTv0_n12_N7android26InputReaderPolicyInterfaceD1Ev
W _ZTv0_n12_N7android30InputDispatcherPolicyInterfaceD0Ev
W _ZTv0_n12_N7android30InputDispatcherPolicyInterfaceD1Ev
T _ZTv0_n16_N7android18NativeInputManagerD0Ev
T _ZTv0_n16_N7android18NativeInputManagerD1Ev
T _ZTv0_n20_N7android18NativeInputManager14getDisplayInfoEiPiS1_S1_
T _ZTv0_n20_N7android18NativeInputManager26notifyConfigurationChangedEx
T _ZTv0_n24_N7android18NativeInputManager17filterTouchEventsEv
T _ZTv0_n24_N7android18NativeInputManager9notifyANRERKNS_2spINS_22InputApplicationHandleEEERKNS1_INS_12InputChannelEEE
T _ZTv0_n28_N7android18NativeInputManager22filterJumpyTouchEventsEv
T _ZTv0_n28_N7android18NativeInputManager24notifyInputChannelBrokenERKNS_2spINS_12InputChannelEEE
T _ZTv0_n32_N7android18NativeInputManager19getKeyRepeatTimeoutEv
T _ZTv0_n32_N7android18NativeInputManager22getVirtualKeyQuietTimeEv
T _ZTv0_n36_N7android18NativeInputManager17getKeyRepeatDelayEv
T _ZTv0_n36_N7android18NativeInputManager24getVirtualKeyDefinitionsERKNS_7String8ERNS_6VectorINS_20VirtualKeyDefinitionEEE
T _ZTv0_n40_N7android18NativeInputManager21getMaxEventsPerSecondEv
T _ZTv0_n40_N7android18NativeInputManager25getInputDeviceCalibrationERKNS_7String8ERNS_22InputDeviceCalibrationE
T _ZTv0_n44_N7android18NativeInputManager22getExcludedDeviceNamesERNS_6VectorINS_7String8EEE
T _ZTv0_n44_N7android18NativeInputManager26interceptKeyBeforeQueueingExiiRiiiRj
T _ZTv0_n48_N7android18NativeInputManager30interceptGenericBeforeQueueingExRj
T _ZTv0_n52_N7android18NativeInputManager29interceptKeyBeforeDispatchingERKNS_2spINS_12InputChannelEEEPKNS_8KeyEventEj
T _ZTv0_n56_N7android18NativeInputManager12notifySwitchExiij
T _ZTv0_n60_N7android18NativeInputManager16pokeUserActivityExi
T _ZTv0_n64_N7android18NativeInputManager39checkInjectEventsPermissionNonReentrantEii
U _ZdlPv
U _Znwj
T __FINI_ARRAY__
T __INIT_ARRAY__
U __aeabi_atexit
U __aeabi_f2d
U __aeabi_idiv
U __aeabi_ldivmod
T __aeabi_llsl
U __aeabi_lmul
U __aeabi_unwind_cpp_pr0
U __aeabi_unwind_cpp_pr1
U __android_log_print
T __ashldi3
A __bss_end__
A __bss_start
A __bss_start__
U __cxa_finalize
U __cxa_pure_virtual
D __data_start
B __dso_handle
A __end__
U __errno
A __exidx_end
A __exidx_start
U __stack_chk_fail
U __stack_chk_guard
A _bss_end__
A _edata
A _end
A _stack
U access
U acquire_wake_lock
U atoi
U close
U closedir
U free
U hw_get_module
U ioctl
U jniLogException
U jniRegisterNativeMethods
U jniThrowException
U jniThrowRuntimeException
U malloc
U memcpy
U memmove
U memset
U open
U opendir
U pthread_mutex_destroy
U pthread_mutex_init
U pthread_mutex_lock
U pthread_mutex_unlock
U read
U readdir
U release_wake_lock
U settimeofday
U snprintf
U strcmp
U strdup
U strerror
U systemTime
U system_init
U vibrator_off
U vibrator_on
