T _ZN7android10AllocationC1ERKNS_2spINS_12MemoryDealerEEERKNS1_INS_11IMemoryHeapEEElj
T _ZN7android10AllocationC2ERKNS_2spINS_12MemoryDealerEEERKNS1_INS_11IMemoryHeapEEElj
T _ZN7android10AllocationD0Ev
T _ZN7android10AllocationD1Ev
T _ZN7android10AllocationD2Ev
T _ZN7android10IInterface8asBinderEv
T _ZN7android10IInterfaceC1Ev
T _ZN7android10IInterfaceC2Ev
T _ZN7android10IInterfaceD0Ev
T _ZN7android10IInterfaceD1Ev
T _ZN7android10IInterfaceD2Ev
T _ZN7android10MemoryBaseC1ERKNS_2spINS_11IMemoryHeapEEElj
T _ZN7android10MemoryBaseC2ERKNS_2spINS_11IMemoryHeapEEElj
T _ZN7android10MemoryBaseD0Ev
T _ZN7android10MemoryBaseD1Ev
T _ZN7android10MemoryBaseD2Ev
T _ZN7android10PermissionC1EPKc
T _ZN7android10PermissionC1ERKNS_8String16E
T _ZN7android10PermissionC1ERKS0_
T _ZN7android10PermissionC2EPKc
T _ZN7android10PermissionC2ERKNS_8String16E
T _ZN7android10PermissionC2ERKS0_
T _ZN7android10PermissionD0Ev
T _ZN7android10PermissionD1Ev
T _ZN7android10PermissionD2Ev
U _ZN7android10VectorImpl13finish_vectorEv
U _ZN7android10VectorImpl13removeItemsAtEjj
U _ZN7android10VectorImpl16editItemLocationEj
U _ZN7android10VectorImpl19reservedVectorImpl1Ev
U _ZN7android10VectorImpl19reservedVectorImpl2Ev
U _ZN7android10VectorImpl19reservedVectorImpl3Ev
U _ZN7android10VectorImpl19reservedVectorImpl4Ev
U _ZN7android10VectorImpl19reservedVectorImpl5Ev
U _ZN7android10VectorImpl19reservedVectorImpl6Ev
U _ZN7android10VectorImpl19reservedVectorImpl7Ev
U _ZN7android10VectorImpl19reservedVectorImpl8Ev
U _ZN7android10VectorImpl3addEPKv
U _ZN7android10VectorImpl4pushEPKv
U _ZN7android10VectorImpl5clearEv
U _ZN7android10VectorImpl8insertAtEPKvjj
U _ZN7android10VectorImplC2ERKS0_
U _ZN7android10VectorImplC2Ejj
U _ZN7android10VectorImplD2Ev
W _ZN7android11BnInterfaceINS_11IMemoryHeapEE10onAsBinderEv
W _ZN7android11BnInterfaceINS_15IServiceManagerEE10onAsBinderEv
W _ZN7android11BnInterfaceINS_21IPermissionControllerEE10onAsBinderEv
W _ZN7android11BnInterfaceINS_7IMemoryEE10onAsBinderEv
B _ZN7android11IMemoryHeap10descriptorE
T _ZN7android11IMemoryHeap11asInterfaceERKNS_2spINS_7IBinderEEE
T _ZN7android11IMemoryHeapC1Ev
T _ZN7android11IMemoryHeapC2Ev
T _ZN7android11IMemoryHeapD0Ev
T _ZN7android11IMemoryHeapD1Ev
T _ZN7android11IMemoryHeapD2Ev
T _ZN7android12BnMemoryHeap10onTransactEjRKNS_6ParcelEPS1_j
T _ZN7android12BnMemoryHeapC1Ev
T _ZN7android12BnMemoryHeapC2Ev
T _ZN7android12BnMemoryHeapD0Ev
T _ZN7android12BnMemoryHeapD1Ev
T _ZN7android12BnMemoryHeapD2Ev
T _ZN7android12BpMemoryHeapC1ERKNS_2spINS_7IBinderEEE
T _ZN7android12BpMemoryHeapC2ERKNS_2spINS_7IBinderEEE
T _ZN7android12BpMemoryHeapD0Ev
T _ZN7android12BpMemoryHeapD1Ev
T _ZN7android12BpMemoryHeapD2Ev
T _ZN7android12MemoryDealer10deallocateEj
T _ZN7android12MemoryDealer8allocateEj
T _ZN7android12MemoryDealerC1EjPKc
T _ZN7android12MemoryDealerC2EjPKc
T _ZN7android12MemoryDealerD0Ev
T _ZN7android12MemoryDealerD1Ev
T _ZN7android12MemoryDealerD2Ev
T _ZN7android12ProcessState13expungeHandleEiPNS_7IBinderE
T _ZN7android12ProcessState15startThreadPoolEv
T _ZN7android12ProcessState16getContextObjectERKNS_2spINS_7IBinderEEE
T _ZN7android12ProcessState16getContextObjectERKNS_8String16ERKNS_2spINS_7IBinderEEE
T _ZN7android12ProcessState16setContextObjectERKNS_2spINS_7IBinderEEE
T _ZN7android12ProcessState16setContextObjectERKNS_2spINS_7IBinderEEERKNS_8String16E
T _ZN7android12ProcessState16setSingleProcessEb
T _ZN7android12ProcessState17spawnPooledThreadEb
T _ZN7android12ProcessState18lookupHandleLockedEi
T _ZN7android12ProcessState20becomeContextManagerEPFbRKNS_8String16ERKNS_2spINS_7IBinderEEEPvES9_
T _ZN7android12ProcessState21getWeakProxyForHandleEi
T _ZN7android12ProcessState23getStrongProxyForHandleEi
T _ZN7android12ProcessState4selfEv
T _ZN7android12ProcessState7setArgsEiPKPKc
T _ZN7android12ProcessState8setArgV0EPKc
T _ZN7android12ProcessStateC1Ev
T _ZN7android12ProcessStateC2Ev
T _ZN7android12ProcessStateD0Ev
T _ZN7android12ProcessStateD1Ev
T _ZN7android12ProcessStateD2Ev
W _ZN7android12compare_typeINS_16key_value_pair_tINS_8String16ENS_2spINS_7IBinderEEEEEEEiRKT_S9_
U _ZN7android12uptimeMillisEv
B _ZN7android13gProcessMutexE
T _ZN7android14IPCThreadState10freeBufferEPNS_6ParcelEPKhjPKjjPv
T _ZN7android14IPCThreadState11clearCallerEv
T _ZN7android14IPCThreadState11stopProcessEb
T _ZN7android14IPCThreadState13decWeakHandleEi
T _ZN7android14IPCThreadState13expungeHandleEiPNS_7IBinderE
T _ZN7android14IPCThreadState13flushCommandsEv
T _ZN7android14IPCThreadState13getCallingPidEv
T _ZN7android14IPCThreadState13getCallingUidEv
T _ZN7android14IPCThreadState13incWeakHandleEi
T _ZN7android14IPCThreadState14clearLastErrorEv
T _ZN7android14IPCThreadState14executeCommandEi
T _ZN7android14IPCThreadState14joinThreadPoolEb
T _ZN7android14IPCThreadState14talkWithDriverEb
T _ZN7android14IPCThreadState15decStrongHandleEi
T _ZN7android14IPCThreadState15incStrongHandleEi
T _ZN7android14IPCThreadState15waitForResponseEPNS_6ParcelEPi
T _ZN7android14IPCThreadState16threadDestructorEPv
T _ZN7android14IPCThreadState19setStrictModePolicyEi
T _ZN7android14IPCThreadState20clearCallingIdentityEv
T _ZN7android14IPCThreadState20writeTransactionDataEijijRKNS_6ParcelEPi
T _ZN7android14IPCThreadState22attemptIncStrongHandleEi
T _ZN7android14IPCThreadState22clearDeathNotificationEiPNS_8BpBinderE
T _ZN7android14IPCThreadState22restoreCallingIdentityEx
T _ZN7android14IPCThreadState24requestDeathNotificationEiPNS_8BpBinderE
T _ZN7android14IPCThreadState27disableBackgroundSchedulingEb
T _ZN7android14IPCThreadState29setLastTransactionBinderFlagsEi
T _ZN7android14IPCThreadState4selfEv
T _ZN7android14IPCThreadState7processEv
T _ZN7android14IPCThreadState8shutdownEv
T _ZN7android14IPCThreadState8transactEijRKNS_6ParcelEPS1_j
T _ZN7android14IPCThreadState9sendReplyERKNS_6ParcelEj
T _ZN7android14IPCThreadStateC1Ev
T _ZN7android14IPCThreadStateC2Ev
T _ZN7android14IPCThreadStateD1Ev
T _ZN7android14IPCThreadStateD2Ev
T _ZN7android14MemoryHeapBase4initEiPviiPKc
T _ZN7android14MemoryHeapBase5mapfdEijj
T _ZN7android14MemoryHeapBase7disposeEv
T _ZN7android14MemoryHeapBaseC1EPKcjj
T _ZN7android14MemoryHeapBaseC1Eijjj
T _ZN7android14MemoryHeapBaseC1EjjPKc
T _ZN7android14MemoryHeapBaseC1Ev
T _ZN7android14MemoryHeapBaseC2EPKcjj
T _ZN7android14MemoryHeapBaseC2Eijjj
T _ZN7android14MemoryHeapBaseC2EjjPKc
T _ZN7android14MemoryHeapBaseC2Ev
T _ZN7android14MemoryHeapBaseD0Ev
T _ZN7android14MemoryHeapBaseD1Ev
T _ZN7android14MemoryHeapBaseD2Ev
T _ZN7android14MemoryHeapPmem10MemoryPmemC1ERKNS_2spIS0_EE
T _ZN7android14MemoryHeapPmem10MemoryPmemC2ERKNS_2spIS0_EE
T _ZN7android14MemoryHeapPmem10MemoryPmemD0Ev
T _ZN7android14MemoryHeapPmem10MemoryPmemD1Ev
T _ZN7android14MemoryHeapPmem10MemoryPmemD2Ev
T _ZN7android14MemoryHeapPmem12createMemoryEjj
T _ZN7android14MemoryHeapPmem4slapEv
T _ZN7android14MemoryHeapPmem6removeERKNS_2wpINS0_10MemoryPmemEEE
T _ZN7android14MemoryHeapPmem6revokeEv
T _ZN7android14MemoryHeapPmem6unslapEv
T _ZN7android14MemoryHeapPmem9mapMemoryEjj
T _ZN7android14MemoryHeapPmemC1ERKNS_2spINS_14MemoryHeapBaseEEEj
T _ZN7android14MemoryHeapPmemC2ERKNS_2spINS_14MemoryHeapBaseEEEj
T _ZN7android14MemoryHeapPmemD0Ev
T _ZN7android14MemoryHeapPmemD1Ev
T _ZN7android14MemoryHeapPmemD2Ev
T _ZN7android14acquire_objectERKNS_2spINS_12ProcessStateEEERKNS_18flat_binder_objectEPKv
T _ZN7android14flatten_binderERKNS_2spINS_12ProcessStateEEERKNS0_INS_7IBinderEEEPNS_6ParcelE
T _ZN7android14flatten_binderERKNS_2spINS_12ProcessStateEEERKNS_2wpINS_7IBinderEEEPNS_6ParcelE
T _ZN7android14release_objectERKNS_2spINS_12ProcessStateEEERKNS_18flat_binder_objectEPKv
B _ZN7android15IServiceManager10descriptorE
T _ZN7android15IServiceManager11asInterfaceERKNS_2spINS_7IBinderEEE
T _ZN7android15IServiceManagerC1Ev
T _ZN7android15IServiceManagerC2Ev
T _ZN7android15IServiceManagerD0Ev
T _ZN7android15IServiceManagerD1Ev
T _ZN7android15IServiceManagerD2Ev
T _ZN7android15SubRegionMemory6revokeEv
T _ZN7android15SubRegionMemoryC1ERKNS_2spINS_14MemoryHeapPmemEEElj
T _ZN7android15SubRegionMemoryC2ERKNS_2spINS_14MemoryHeapPmemEEElj
T _ZN7android15SubRegionMemoryD0Ev
T _ZN7android15SubRegionMemoryD1Ev
T _ZN7android15SubRegionMemoryD2Ev
T _ZN7android15checkPermissionERKNS_8String16Eij
T _ZN7android16BnServiceManager10onTransactEjRKNS_6ParcelEPS1_j
U _ZN7android16SortedVectorImpl25reservedSortedVectorImpl1Ev
U _ZN7android16SortedVectorImpl25reservedSortedVectorImpl2Ev
U _ZN7android16SortedVectorImpl25reservedSortedVectorImpl3Ev
U _ZN7android16SortedVectorImpl25reservedSortedVectorImpl4Ev
U _ZN7android16SortedVectorImpl25reservedSortedVectorImpl5Ev
U _ZN7android16SortedVectorImpl25reservedSortedVectorImpl6Ev
U _ZN7android16SortedVectorImpl25reservedSortedVectorImpl7Ev
U _ZN7android16SortedVectorImpl25reservedSortedVectorImpl8Ev
U _ZN7android16SortedVectorImpl3addEPKv
U _ZN7android16SortedVectorImpl6removeEPKv
U _ZN7android16SortedVectorImplC2Ejj
U _ZN7android16SortedVectorImplD2Ev
U _ZN7android16SortedVectorImplaSERKS0_
T _ZN7android16unflatten_binderERKNS_2spINS_12ProcessStateEEERKNS_6ParcelEPNS0_INS_7IBinderEEE
T _ZN7android16unflatten_binderERKNS_2spINS_12ProcessStateEEERKNS_6ParcelEPNS_2wpINS_7IBinderEEE
W _ZN7android17move_forward_typeINS_16key_value_pair_tINS_2wpINS_7IBinderEEENS_9HeapCache11heap_info_tEEEEEvPT_PKS8_j
W _ZN7android17move_forward_typeINS_16key_value_pair_tINS_8String16ENS_2spINS_7IBinderEEEEEEEvPT_PKS7_j
W _ZN7android17move_forward_typeINS_8BpBinder8ObituaryEEEvPT_PKS3_j
W _ZN7android17move_forward_typeINS_8String16EEEvPT_PKS2_j
W _ZN7android18move_backward_typeINS_16key_value_pair_tINS_2wpINS_7IBinderEEENS_9HeapCache11heap_info_tEEEEEvPT_PKS8_j
W _ZN7android18move_backward_typeINS_16key_value_pair_tINS_8String16ENS_2spINS_7IBinderEEEEEEEvPT_PKS7_j
W _ZN7android18move_backward_typeINS_8BpBinder8ObituaryEEEvPT_PKS3_j
W _ZN7android18move_backward_typeINS_8String16EEEvPT_PKS2_j
B _ZN7android18the_context_objectE
T _ZN7android19setTheContextObjectENS_2spINS_7BBinderEEE
B _ZN7android21IPermissionController10descriptorE
T _ZN7android21IPermissionController11asInterfaceERKNS_2spINS_7IBinderEEE
T _ZN7android21IPermissionControllerC1Ev
T _ZN7android21IPermissionControllerC2Ev
T _ZN7android21IPermissionControllerD0Ev
T _ZN7android21IPermissionControllerD1Ev
T _ZN7android21IPermissionControllerD2Ev
T _ZN7android21defaultServiceManagerEv
B _ZN7android21gPermissionControllerE
T _ZN7android22BnPermissionController10onTransactEjRKNS_6ParcelEPS1_j
T _ZN7android22SimpleBestFitAllocator10deallocateEj
R _ZN7android22SimpleBestFitAllocator12kMemoryAlignE
T _ZN7android22SimpleBestFitAllocator5allocEjj
T _ZN7android22SimpleBestFitAllocator7deallocEj
T _ZN7android22SimpleBestFitAllocator8allocateEjj
T _ZN7android22SimpleBestFitAllocatorC1Ej
T _ZN7android22SimpleBestFitAllocatorC2Ej
T _ZN7android22SimpleBestFitAllocatorD1Ev
T _ZN7android22SimpleBestFitAllocatorD2Ev
T _ZN7android22checkCallingPermissionERKNS_8String16E
T _ZN7android22checkCallingPermissionERKNS_8String16EPiS3_
B _ZN7android22gDefaultServiceManagerE
B _ZN7android26gDefaultServiceManagerLockE
W _ZN7android2spINS_11IMemoryHeapEEC1ERKS2_
W _ZN7android2spINS_11IMemoryHeapEED1Ev
W _ZN7android2spINS_11IMemoryHeapEEaSEPS1_
W _ZN7android2spINS_11IMemoryHeapEEaSERKS2_
W _ZN7android2spINS_11IMemoryHeapEEaSINS_12BpMemoryHeapEEERS2_PT_
W _ZN7android2spINS_12ProcessStateEED1Ev
W _ZN7android2spINS_14MemoryHeapBaseEEaSERKS2_
W _ZN7android2spINS_15IServiceManagerEED1Ev
W _ZN7android2spINS_15IServiceManagerEEaSEPS1_
W _ZN7android2spINS_15IServiceManagerEEaSINS_16BpServiceManagerEEERS2_PT_
W _ZN7android2spINS_15SubRegionMemoryEEaSEPS1_
W _ZN7android2spINS_21IPermissionControllerEED1Ev
W _ZN7android2spINS_21IPermissionControllerEEaSEPS1_
W _ZN7android2spINS_21IPermissionControllerEEaSERKS2_
W _ZN7android2spINS_21IPermissionControllerEEaSINS_22BpPermissionControllerEEERS2_PT_
W _ZN7android2spINS_7BBinderEED1Ev
W _ZN7android2spINS_7IBinderEEC1ERKS2_
W _ZN7android2spINS_7IBinderEED1Ev
W _ZN7android2spINS_7IBinderEEaSEPS1_
W _ZN7android2spINS_7IBinderEEaSERKS2_
W _ZN7android2spINS_7IMemoryEEaSEPS1_
W _ZN7android2spINS_7IMemoryEEaSINS_10AllocationEEERS2_PT_
W _ZN7android2spINS_7IMemoryEEaSINS_8BpMemoryEEERS2_PT_
W _ZN7android2spINS_9HeapCacheEED1Ev
W _ZN7android2wpINS_7IBinder14DeathRecipientEEaSERKNS_2spIS2_EE
W _ZN7android2wpINS_7IBinder14DeathRecipientEEaSERKS3_
W _ZN7android2wpINS_7IBinderEE19set_object_and_refsEPS1_PNS_7RefBase12weakref_typeE
W _ZN7android2wpINS_7IBinderEEC1ERKNS_2spIS1_EE
W _ZN7android2wpINS_7IBinderEEaSEPS1_
W _ZN7android2wpINS_7IBinderEEaSERKS2_
W _ZN7android4endlERNS_10TextOutputE
B _ZN7android5mArgCE
B _ZN7android5mArgVE
T _ZN7android6Parcel10appendFromEPS0_jj
T _ZN7android6Parcel10writeFloatEf
T _ZN7android6Parcel10writeInt32Ei
T _ZN7android6Parcel10writeInt64Ex
T _ZN7android6Parcel11finishWriteEj
T _ZN7android6Parcel11setDataSizeEj
T _ZN7android6Parcel11writeDoubleEd
T _ZN7android6Parcel11writeIntPtrEi
T _ZN7android6Parcel11writeObjectERKNS_18flat_binder_objectEb
T _ZN7android6Parcel12restartWriteEj
W _ZN7android6Parcel12writeAlignedIdEEiT_
W _ZN7android6Parcel12writeAlignedIfEEiT_
W _ZN7android6Parcel12writeAlignedIiEEiT_
W _ZN7android6Parcel12writeAlignedIxEEiT_
T _ZN7android6Parcel12writeCStringEPKc
T _ZN7android6Parcel12writeInplaceEj
T _ZN7android6Parcel12writeString8ERKNS_7String8E
T _ZN7android6Parcel13continueWriteEj
T _ZN7android6Parcel13writeString16EPKtj
T _ZN7android6Parcel13writeString16ERKNS_8String16E
T _ZN7android6Parcel13writeUnpaddedEPKvj
T _ZN7android6Parcel14acquireObjectsEv
T _ZN7android6Parcel14freeDataNoInitEv
T _ZN7android6Parcel14releaseObjectsEv
T _ZN7android6Parcel15setDataCapacityEj
T _ZN7android6Parcel15writeWeakBinderERKNS_2wpINS_7IBinderEEE
T _ZN7android6Parcel16writeNoExceptionEv
T _ZN7android6Parcel17writeNativeHandleEPK15native_handle_t
T _ZN7android6Parcel17writeStrongBinderERKNS_2spINS_7IBinderEEE
T _ZN7android6Parcel19ipcSetDataReferenceEPKhjPKjjPFvPS0_S2_jS4_jPvES6_
T _ZN7android6Parcel19writeFileDescriptorEi
T _ZN7android6Parcel19writeInterfaceTokenERKNS_8String16E
T _ZN7android6Parcel20closeFileDescriptorsEv
T _ZN7android6Parcel22writeDupFileDescriptorEi
T _ZN7android6Parcel5writeEPKvj
T _ZN7android6Parcel5writeERKNS_11FlattenableE
T _ZN7android6Parcel6removeEjj
T _ZN7android6Parcel7setDataEPKhj
T _ZN7android6Parcel8freeDataEv
T _ZN7android6Parcel8growDataEj
T _ZN7android6Parcel8setErrorEi
T _ZN7android6Parcel9initStateEv
T _ZN7android6ParcelC1Ev
T _ZN7android6ParcelC2Ev
T _ZN7android6ParcelD1Ev
T _ZN7android6ParcelD2Ev
U _ZN7android6Thread10readyToRunEv
U _ZN7android6Thread11requestExitEv
U _ZN7android6Thread3runEPKcij
U _ZN7android6ThreadC2Eb
U _ZN7android6ThreadD0Ev
U _ZN7android6ThreadD1Ev
U _ZN7android6ThreadD2Ev
W _ZN7android6dedentERNS_10TextOutputE
W _ZN7android6indentERNS_10TextOutputE
T _ZN7android7BBinder10onTransactEjRKNS_6ParcelEPS1_j
T _ZN7android7BBinder10pingBinderEv
T _ZN7android7BBinder11linkToDeathERKNS_2spINS_7IBinder14DeathRecipientEEEPvj
T _ZN7android7BBinder11localBinderEv
T _ZN7android7BBinder12attachObjectEPKvPvS3_PFvS2_S3_S3_E
T _ZN7android7BBinder12detachObjectEPKv
T _ZN7android7BBinder13unlinkToDeathERKNS_2wpINS_7IBinder14DeathRecipientEEEPvjPS4_
T _ZN7android7BBinder4dumpEiRKNS_6VectorINS_8String16EEE
T _ZN7android7BBinder8transactEjRKNS_6ParcelEPS1_j
T _ZN7android7BBinderC1Ev
T _ZN7android7BBinderC2Ev
T _ZN7android7BBinderD0Ev
T _ZN7android7BBinderD1Ev
T _ZN7android7BBinderD2Ev
U _ZN7android7HexDumpC1EPKvjj
T _ZN7android7IBinder11localBinderEv
T _ZN7android7IBinder12remoteBinderEv
T _ZN7android7IBinder19queryLocalInterfaceERKNS_8String16E
T _ZN7android7IBinderC1Ev
T _ZN7android7IBinderC2Ev
T _ZN7android7IBinderD0Ev
T _ZN7android7IBinderD1Ev
T _ZN7android7IBinderD2Ev
B _ZN7android7IMemory10descriptorE
T _ZN7android7IMemory11asInterfaceERKNS_2spINS_7IBinderEEE
T _ZN7android7IMemoryC1Ev
T _ZN7android7IMemoryC2Ev
T _ZN7android7IMemoryD0Ev
T _ZN7android7IMemoryD1Ev
T _ZN7android7IMemoryD2Ev
U _ZN7android7RefBase10onFirstRefEv
U _ZN7android7RefBase12weakref_type14attemptIncWeakEPKv
U _ZN7android7RefBase12weakref_type16attemptIncStrongEPKv
U _ZN7android7RefBase12weakref_type7decWeakEPKv
U _ZN7android7RefBase12weakref_type7incWeakEPKv
U _ZN7android7RefBase13onLastWeakRefEPKv
U _ZN7android7RefBase15onLastStrongRefEPKv
U _ZN7android7RefBase20extendObjectLifetimeEi
U _ZN7android7RefBase20onIncStrongAttemptedEjPKv
U _ZN7android7RefBaseC2Ev
U _ZN7android7RefBaseD2Ev
U _ZN7android7String86appendEPKc
U _ZN7android7String8C1EPKcj
U _ZN7android7String8C1ERKNS_8String16E
U _ZN7android7String8C1Ev
U _ZN7android7String8D1Ev
B _ZN7android7mArgLenE
T _ZN7android8BnMemory10onTransactEjRKNS_6ParcelEPS1_j
T _ZN7android8BnMemoryC1Ev
T _ZN7android8BnMemoryC2Ev
T _ZN7android8BnMemoryD0Ev
T _ZN7android8BnMemoryD1Ev
T _ZN7android8BnMemoryD2Ev
T _ZN7android8BpBinder10onFirstRefEv
T _ZN7android8BpBinder10pingBinderEv
T _ZN7android8BpBinder11linkToDeathERKNS_2spINS_7IBinder14DeathRecipientEEEPvj
T _ZN7android8BpBinder12attachObjectEPKvPvS3_PFvS2_S3_S3_E
T _ZN7android8BpBinder12detachObjectEPKv
T _ZN7android8BpBinder12remoteBinderEv
T _ZN7android8BpBinder12sendObituaryEv
T _ZN7android8BpBinder13ObjectManager4killEv
T _ZN7android8BpBinder13ObjectManager6attachEPKvPvS4_PFvS3_S4_S4_E
T _ZN7android8BpBinder13ObjectManager6detachEPKv
T _ZN7android8BpBinder13ObjectManagerC1Ev
T _ZN7android8BpBinder13ObjectManagerC2Ev
T _ZN7android8BpBinder13ObjectManagerD1Ev
T _ZN7android8BpBinder13ObjectManagerD2Ev
T _ZN7android8BpBinder13unlinkToDeathERKNS_2wpINS_7IBinder14DeathRecipientEEEPvjPS4_
T _ZN7android8BpBinder14reportOneDeathERKNS0_8ObituaryE
T _ZN7android8BpBinder15onLastStrongRefEPKv
T _ZN7android8BpBinder20onIncStrongAttemptedEjPKv
T _ZN7android8BpBinder4dumpEiRKNS_6VectorINS_8String16EEE
T _ZN7android8BpBinder8transactEjRKNS_6ParcelEPS1_j
T _ZN7android8BpBinderC1Ei
T _ZN7android8BpBinderC2Ei
T _ZN7android8BpBinderD0Ev
T _ZN7android8BpBinderD1Ev
T _ZN7android8BpBinderD2Ev
T _ZN7android8BpMemoryC1ERKNS_2spINS_7IBinderEEE
T _ZN7android8BpMemoryC2ERKNS_2spINS_7IBinderEEE
T _ZN7android8BpMemoryD0Ev
T _ZN7android8BpMemoryD1Ev
T _ZN7android8BpMemoryD2Ev
U _ZN7android8String165setToERKS0_
U _ZN7android8String16C1EPKc
U _ZN7android8String16C1EPKtj
U _ZN7android8String16C1ERKS0_
U _ZN7android8String16C1Ev
U _ZN7android8String16D1Ev
B _ZN7android8gProcessE
T _ZN7android9BpRefBase10onFirstRefEv
T _ZN7android9BpRefBase15onLastStrongRefEPKv
T _ZN7android9BpRefBase20onIncStrongAttemptedEjPKv
T _ZN7android9BpRefBaseC1ERKNS_2spINS_7IBinderEEE
T _ZN7android9BpRefBaseC2ERKNS_2spINS_7IBinderEEE
T _ZN7android9BpRefBaseD0Ev
T _ZN7android9BpRefBaseD1Ev
T _ZN7android9BpRefBaseD2Ev
T _ZN7android9HeapCache10binderDiedERKNS_2wpINS_7IBinderEEE
T _ZN7android9HeapCache10dump_heapsEv
T _ZN7android9HeapCache8get_heapERKNS_2spINS_7IBinderEEE
T _ZN7android9HeapCache9find_heapERKNS_2spINS_7IBinderEEE
T _ZN7android9HeapCache9free_heapERKNS_2spINS_7IBinderEEE
T _ZN7android9HeapCache9free_heapERKNS_2wpINS_7IBinderEEE
T _ZN7android9HeapCacheC1Ev
T _ZN7android9HeapCacheC2Ev
T _ZN7android9HeapCacheD0Ev
T _ZN7android9HeapCacheD1Ev
T _ZN7android9HeapCacheD2Ev
W _ZN7androidlsERNS_10TextOutputEPKc
U _ZN7androidlsERNS_10TextOutputEPKv
U _ZN7androidlsERNS_10TextOutputERKNS_7HexDumpE
U _ZN7androidlsERNS_10TextOutputERKNS_8TypeCodeE
U _ZN7androidlsERNS_10TextOutputEj
T _ZNK7android10IInterface8asBinderEv
T _ZNK7android10MemoryBase9getMemoryEPlPj
T _ZNK7android10Permission12checkCallingEv
T _ZNK7android10Permission17doCheckPermissionEij
T _ZNK7android10Permission5checkEij
T _ZNK7android10PermissionltERKS0_
T _ZNK7android11IMemoryHeap22getInterfaceDescriptorEv
T _ZNK7android12BpMemoryHeap12assertMappedEv
T _ZNK7android12BpMemoryHeap18assertReallyMappedEv
T _ZNK7android12BpMemoryHeap7getBaseEv
T _ZNK7android12BpMemoryHeap7getSizeEv
T _ZNK7android12BpMemoryHeap8getFlagsEv
T _ZNK7android12BpMemoryHeap9getHeapIDEv
T _ZNK7android12MemoryDealer4dumpEPKc
T _ZNK7android12MemoryDealer4heapEv
T _ZNK7android12MemoryDealer9allocatorEv
T _ZNK7android12ProcessState16isContextManagerEv
T _ZNK7android12ProcessState17supportsProcessesEv
T _ZNK7android12ProcessState7getArgCEv
T _ZNK7android12ProcessState7getArgVEv
W _ZNK7android12SortedVectorINS_16key_value_pair_tINS_2wpINS_7IBinderEEENS_9HeapCache11heap_info_tEEEE10do_compareEPKvSA_
W _ZNK7android12SortedVectorINS_16key_value_pair_tINS_2wpINS_7IBinderEEENS_9HeapCache11heap_info_tEEEE10do_destroyEPvj
W _ZNK7android12SortedVectorINS_16key_value_pair_tINS_2wpINS_7IBinderEEENS_9HeapCache11heap_info_tEEEE12do_constructEPvj
W _ZNK7android12SortedVectorINS_16key_value_pair_tINS_2wpINS_7IBinderEEENS_9HeapCache11heap_info_tEEEE15do_move_forwardEPvPKvj
W _ZNK7android12SortedVectorINS_16key_value_pair_tINS_2wpINS_7IBinderEEENS_9HeapCache11heap_info_tEEEE16do_move_backwardEPvPKvj
W _ZNK7android12SortedVectorINS_16key_value_pair_tINS_2wpINS_7IBinderEEENS_9HeapCache11heap_info_tEEEE7do_copyEPvPKvj
W _ZNK7android12SortedVectorINS_16key_value_pair_tINS_2wpINS_7IBinderEEENS_9HeapCache11heap_info_tEEEE8do_splatEPvPKvj
W _ZNK7android12SortedVectorINS_16key_value_pair_tINS_8String16ENS_2spINS_7IBinderEEEEEE10do_compareEPKvS9_
W _ZNK7android12SortedVectorINS_16key_value_pair_tINS_8String16ENS_2spINS_7IBinderEEEEEE10do_destroyEPvj
W _ZNK7android12SortedVectorINS_16key_value_pair_tINS_8String16ENS_2spINS_7IBinderEEEEEE12do_constructEPvj
W _ZNK7android12SortedVectorINS_16key_value_pair_tINS_8String16ENS_2spINS_7IBinderEEEEEE15do_move_forwardEPvPKvj
W _ZNK7android12SortedVectorINS_16key_value_pair_tINS_8String16ENS_2spINS_7IBinderEEEEEE16do_move_backwardEPvPKvj
W _ZNK7android12SortedVectorINS_16key_value_pair_tINS_8String16ENS_2spINS_7IBinderEEEEEE7do_copyEPvPKvj
W _ZNK7android12SortedVectorINS_16key_value_pair_tINS_8String16ENS_2spINS_7IBinderEEEEEE8do_splatEPvPKvj
W _ZNK7android12SortedVectorINS_16key_value_pair_tIPKvNS_8BpBinder13ObjectManager7entry_tEEEE10do_compareES3_S3_
W _ZNK7android12SortedVectorINS_16key_value_pair_tIPKvNS_8BpBinder13ObjectManager7entry_tEEEE10do_destroyEPvj
W _ZNK7android12SortedVectorINS_16key_value_pair_tIPKvNS_8BpBinder13ObjectManager7entry_tEEEE12do_constructEPvj
W _ZNK7android12SortedVectorINS_16key_value_pair_tIPKvNS_8BpBinder13ObjectManager7entry_tEEEE15do_move_forwardEPvS3_j
W _ZNK7android12SortedVectorINS_16key_value_pair_tIPKvNS_8BpBinder13ObjectManager7entry_tEEEE16do_move_backwardEPvS3_j
W _ZNK7android12SortedVectorINS_16key_value_pair_tIPKvNS_8BpBinder13ObjectManager7entry_tEEEE7do_copyEPvS3_j
W _ZNK7android12SortedVectorINS_16key_value_pair_tIPKvNS_8BpBinder13ObjectManager7entry_tEEEE8do_splatEPvS3_j
W _ZNK7android12SortedVectorINS_2wpINS_14MemoryHeapPmem10MemoryPmemEEEE10do_compareEPKvS7_
W _ZNK7android12SortedVectorINS_2wpINS_14MemoryHeapPmem10MemoryPmemEEEE10do_destroyEPvj
W _ZNK7android12SortedVectorINS_2wpINS_14MemoryHeapPmem10MemoryPmemEEEE12do_constructEPvj
W _ZNK7android12SortedVectorINS_2wpINS_14MemoryHeapPmem10MemoryPmemEEEE15do_move_forwardEPvPKvj
W _ZNK7android12SortedVectorINS_2wpINS_14MemoryHeapPmem10MemoryPmemEEEE16do_move_backwardEPvPKvj
W _ZNK7android12SortedVectorINS_2wpINS_14MemoryHeapPmem10MemoryPmemEEEE7do_copyEPvPKvj
W _ZNK7android12SortedVectorINS_2wpINS_14MemoryHeapPmem10MemoryPmemEEEE8do_splatEPvPKvj
W _ZNK7android12SortedVectorIjE10do_compareEPKvS3_
W _ZNK7android12SortedVectorIjE10do_destroyEPvj
W _ZNK7android12SortedVectorIjE12do_constructEPvj
W _ZNK7android12SortedVectorIjE15do_move_forwardEPvPKvj
W _ZNK7android12SortedVectorIjE16do_move_backwardEPvPKvj
W _ZNK7android12SortedVectorIjE7do_copyEPvPKvj
W _ZNK7android12SortedVectorIjE8do_splatEPvPKvj
T _ZNK7android14IPCThreadState19getStrictModePolicyEv
T _ZNK7android14IPCThreadState29getLastTransactionBinderFlagsEv
T _ZNK7android14MemoryHeapBase7getBaseEv
T _ZNK7android14MemoryHeapBase7getSizeEv
T _ZNK7android14MemoryHeapBase8getFlagsEv
T _ZNK7android14MemoryHeapBase9getDeviceEv
T _ZNK7android14MemoryHeapBase9getHeapIDEv
T _ZNK7android15IServiceManager22getInterfaceDescriptorEv
T _ZNK7android15SubRegionMemory9getMemoryEPlPj
U _ZNK7android16SortedVectorImpl7indexOfEPKv
T _ZNK7android21IPermissionController22getInterfaceDescriptorEv
T _ZNK7android22SimpleBestFitAllocator4dumpEPKc
T _ZNK7android22SimpleBestFitAllocator4dumpERNS_7String8EPKc
T _ZNK7android22SimpleBestFitAllocator4sizeEv
T _ZNK7android22SimpleBestFitAllocator6dump_lEPKc
T _ZNK7android22SimpleBestFitAllocator6dump_lERNS_7String8EPKc
T _ZNK7android6Parcel10errorCheckEv
T _ZNK7android6Parcel10ipcObjectsEv
T _ZNK7android6Parcel10readDoubleEPd
T _ZNK7android6Parcel10readDoubleEv
T _ZNK7android6Parcel10readIntPtrEPi
T _ZNK7android6Parcel10readIntPtrEv
T _ZNK7android6Parcel10readObjectEb
T _ZNK7android6Parcel10scanForFdsEv
T _ZNK7android6Parcel11ipcDataSizeEv
T _ZNK7android6Parcel11readCStringEv
T _ZNK7android6Parcel11readInplaceEj
T _ZNK7android6Parcel11readString8Ev
T _ZNK7android6Parcel12dataCapacityEv
T _ZNK7android6Parcel12dataPositionEv
T _ZNK7android6Parcel12objectsCountEv
T _ZNK7android6Parcel12readString16Ev
T _ZNK7android6Parcel14checkInterfaceEPNS_7IBinderE
T _ZNK7android6Parcel14readWeakBinderEv
T _ZNK7android6Parcel15ipcObjectsCountEv
T _ZNK7android6Parcel15setDataPositionEj
T _ZNK7android6Parcel16enforceInterfaceERKNS_8String16EPNS_14IPCThreadStateE
T _ZNK7android6Parcel16readNativeHandleEv
T _ZNK7android6Parcel16readStrongBinderEv
T _ZNK7android6Parcel17readExceptionCodeEv
T _ZNK7android6Parcel18hasFileDescriptorsEv
T _ZNK7android6Parcel18readFileDescriptorEv
T _ZNK7android6Parcel19readString16InplaceEPj
T _ZNK7android6Parcel4dataEv
T _ZNK7android6Parcel4readEPvj
T _ZNK7android6Parcel4readERNS_11FlattenableE
T _ZNK7android6Parcel5printERNS_10TextOutputEj
T _ZNK7android6Parcel7ipcDataEv
T _ZNK7android6Parcel7objectsEv
T _ZNK7android6Parcel8dataSizeEv
T _ZNK7android6Parcel9dataAvailEv
T _ZNK7android6Parcel9readFloatEPf
T _ZNK7android6Parcel9readFloatEv
T _ZNK7android6Parcel9readInt32EPi
T _ZNK7android6Parcel9readInt32Ev
T _ZNK7android6Parcel9readInt64EPx
T _ZNK7android6Parcel9readInt64Ev
W _ZNK7android6VectorINS_12ProcessState12handle_entryEE10do_destroyEPvj
W _ZNK7android6VectorINS_12ProcessState12handle_entryEE12do_constructEPvj
W _ZNK7android6VectorINS_12ProcessState12handle_entryEE15do_move_forwardEPvPKvj
W _ZNK7android6VectorINS_12ProcessState12handle_entryEE16do_move_backwardEPvPKvj
W _ZNK7android6VectorINS_12ProcessState12handle_entryEE7do_copyEPvPKvj
W _ZNK7android6VectorINS_12ProcessState12handle_entryEE8do_splatEPvPKvj
W _ZNK7android6VectorINS_8BpBinder8ObituaryEE10do_destroyEPvj
W _ZNK7android6VectorINS_8BpBinder8ObituaryEE12do_constructEPvj
W _ZNK7android6VectorINS_8BpBinder8ObituaryEE15do_move_forwardEPvPKvj
W _ZNK7android6VectorINS_8BpBinder8ObituaryEE16do_move_backwardEPvPKvj
W _ZNK7android6VectorINS_8BpBinder8ObituaryEE7do_copyEPvPKvj
W _ZNK7android6VectorINS_8BpBinder8ObituaryEE8do_splatEPvPKvj
W _ZNK7android6VectorINS_8String16EE10do_destroyEPvj
W _ZNK7android6VectorINS_8String16EE12do_constructEPvj
W _ZNK7android6VectorINS_8String16EE15do_move_forwardEPvPKvj
W _ZNK7android6VectorINS_8String16EE16do_move_backwardEPvPKvj
W _ZNK7android6VectorINS_8String16EE7do_copyEPvPKvj
W _ZNK7android6VectorINS_8String16EE8do_splatEPvPKvj
W _ZNK7android6VectorIPNS_7BBinderEE10do_destroyEPvj
W _ZNK7android6VectorIPNS_7BBinderEE12do_constructEPvj
W _ZNK7android6VectorIPNS_7BBinderEE15do_move_forwardEPvPKvj
W _ZNK7android6VectorIPNS_7BBinderEE16do_move_backwardEPvPKvj
W _ZNK7android6VectorIPNS_7BBinderEE7do_copyEPvPKvj
W _ZNK7android6VectorIPNS_7BBinderEE8do_splatEPvPKvj
W _ZNK7android6VectorIPNS_7RefBase12weakref_typeEE10do_destroyEPvj
W _ZNK7android6VectorIPNS_7RefBase12weakref_typeEE12do_constructEPvj
W _ZNK7android6VectorIPNS_7RefBase12weakref_typeEE15do_move_forwardEPvPKvj
W _ZNK7android6VectorIPNS_7RefBase12weakref_typeEE16do_move_backwardEPvPKvj
W _ZNK7android6VectorIPNS_7RefBase12weakref_typeEE7do_copyEPvPKvj
W _ZNK7android6VectorIPNS_7RefBase12weakref_typeEE8do_splatEPvPKvj
T _ZNK7android7BBinder10findObjectEPKv
T _ZNK7android7BBinder13isBinderAliveEv
T _ZNK7android7BBinder22getInterfaceDescriptorEv
T _ZNK7android7IBinder13checkSubclassEPKv
T _ZNK7android7IMemory11fastPointerERKNS_2spINS_7IBinderEEEl
T _ZNK7android7IMemory22getInterfaceDescriptorEv
T _ZNK7android7IMemory4sizeEv
T _ZNK7android7IMemory6offsetEv
T _ZNK7android7IMemory7pointerEv
U _ZNK7android7RefBase10createWeakEPKv
U _ZNK7android7RefBase11getWeakRefsEv
U _ZNK7android7RefBase14forceIncStrongEPKv
U _ZNK7android7RefBase9decStrongEPKv
U _ZNK7android7RefBase9incStrongEPKv
T _ZNK7android8BpBinder10findObjectEPKv
T _ZNK7android8BpBinder13ObjectManager4findEPKv
T _ZNK7android8BpBinder13isBinderAliveEv
T _ZNK7android8BpBinder18isDescriptorCachedEv
T _ZNK7android8BpBinder22getInterfaceDescriptorEv
T _ZNK7android8BpMemory9getMemoryEPlPj
D _ZTCN7android10AllocationE0_NS_10IInterfaceE
D _ZTCN7android10AllocationE0_NS_10MemoryBaseE
D _ZTCN7android10AllocationE0_NS_11BnInterfaceINS_7IMemoryEEE
D _ZTCN7android10AllocationE0_NS_7IMemoryE
D _ZTCN7android10AllocationE0_NS_8BnMemoryE
D _ZTCN7android10AllocationE4_NS_7BBinderE
D _ZTCN7android10AllocationE4_NS_7IBinderE
D _ZTCN7android10MemoryBaseE0_NS_10IInterfaceE
D _ZTCN7android10MemoryBaseE0_NS_11BnInterfaceINS_7IMemoryEEE
D _ZTCN7android10MemoryBaseE0_NS_7IMemoryE
D _ZTCN7android10MemoryBaseE0_NS_8BnMemoryE
D _ZTCN7android10MemoryBaseE4_NS_7BBinderE
D _ZTCN7android10MemoryBaseE4_NS_7IBinderE
V _ZTCN7android10PoolThreadE0_NS_6ThreadE
V _ZTCN7android11BnInterfaceINS_11IMemoryHeapEEE0_NS_10IInterfaceE
V _ZTCN7android11BnInterfaceINS_11IMemoryHeapEEE0_S1_
V _ZTCN7android11BnInterfaceINS_11IMemoryHeapEEE4_NS_7BBinderE
V _ZTCN7android11BnInterfaceINS_11IMemoryHeapEEE4_NS_7IBinderE
V _ZTCN7android11BnInterfaceINS_15IServiceManagerEEE0_NS_10IInterfaceE
V _ZTCN7android11BnInterfaceINS_15IServiceManagerEEE0_S1_
V _ZTCN7android11BnInterfaceINS_15IServiceManagerEEE4_NS_7BBinderE
V _ZTCN7android11BnInterfaceINS_15IServiceManagerEEE4_NS_7IBinderE
V _ZTCN7android11BnInterfaceINS_21IPermissionControllerEEE0_NS_10IInterfaceE
V _ZTCN7android11BnInterfaceINS_21IPermissionControllerEEE0_S1_
V _ZTCN7android11BnInterfaceINS_21IPermissionControllerEEE4_NS_7BBinderE
V _ZTCN7android11BnInterfaceINS_21IPermissionControllerEEE4_NS_7IBinderE
V _ZTCN7android11BnInterfaceINS_7IMemoryEEE0_NS_10IInterfaceE
V _ZTCN7android11BnInterfaceINS_7IMemoryEEE0_S1_
V _ZTCN7android11BnInterfaceINS_7IMemoryEEE4_NS_7BBinderE
V _ZTCN7android11BnInterfaceINS_7IMemoryEEE4_NS_7IBinderE
V _ZTCN7android11BpInterfaceINS_11IMemoryHeapEEE0_NS_10IInterfaceE
V _ZTCN7android11BpInterfaceINS_11IMemoryHeapEEE0_S1_
V _ZTCN7android11BpInterfaceINS_11IMemoryHeapEEE4_NS_9BpRefBaseE
V _ZTCN7android11BpInterfaceINS_15IServiceManagerEEE0_NS_10IInterfaceE
V _ZTCN7android11BpInterfaceINS_15IServiceManagerEEE0_S1_
V _ZTCN7android11BpInterfaceINS_15IServiceManagerEEE4_NS_9BpRefBaseE
V _ZTCN7android11BpInterfaceINS_21IPermissionControllerEEE0_NS_10IInterfaceE
V _ZTCN7android11BpInterfaceINS_21IPermissionControllerEEE0_S1_
V _ZTCN7android11BpInterfaceINS_21IPermissionControllerEEE4_NS_9BpRefBaseE
V _ZTCN7android11BpInterfaceINS_7IMemoryEEE0_NS_10IInterfaceE
V _ZTCN7android11BpInterfaceINS_7IMemoryEEE0_S1_
V _ZTCN7android11BpInterfaceINS_7IMemoryEEE4_NS_9BpRefBaseE
D _ZTCN7android11IMemoryHeapE0_NS_10IInterfaceE
D _ZTCN7android12BnMemoryHeapE0_NS_10IInterfaceE
D _ZTCN7android12BnMemoryHeapE0_NS_11BnInterfaceINS_11IMemoryHeapEEE
D _ZTCN7android12BnMemoryHeapE0_NS_11IMemoryHeapE
D _ZTCN7android12BnMemoryHeapE4_NS_7BBinderE
D _ZTCN7android12BnMemoryHeapE4_NS_7IBinderE
D _ZTCN7android12BpMemoryHeapE0_NS_10IInterfaceE
D _ZTCN7android12BpMemoryHeapE0_NS_11BpInterfaceINS_11IMemoryHeapEEE
D _ZTCN7android12BpMemoryHeapE0_NS_11IMemoryHeapE
D _ZTCN7android12BpMemoryHeapE4_NS_9BpRefBaseE
D _ZTCN7android14MemoryHeapBaseE28_NS_10IInterfaceE
D _ZTCN7android14MemoryHeapBaseE28_NS_11BnInterfaceINS_11IMemoryHeapEEE
D _ZTCN7android14MemoryHeapBaseE28_NS_11IMemoryHeapE
D _ZTCN7android14MemoryHeapBaseE28_NS_12BnMemoryHeapE
D _ZTCN7android14MemoryHeapBaseE32_NS_7BBinderE
D _ZTCN7android14MemoryHeapBaseE32_NS_7IBinderE
D _ZTCN7android14MemoryHeapPmem10MemoryPmemE0_NS_10IInterfaceE
D _ZTCN7android14MemoryHeapPmem10MemoryPmemE0_NS_11BnInterfaceINS_7IMemoryEEE
D _ZTCN7android14MemoryHeapPmem10MemoryPmemE0_NS_7IMemoryE
D _ZTCN7android14MemoryHeapPmem10MemoryPmemE0_NS_8BnMemoryE
D _ZTCN7android14MemoryHeapPmem10MemoryPmemE4_NS_7BBinderE
D _ZTCN7android14MemoryHeapPmem10MemoryPmemE4_NS_7IBinderE
D _ZTCN7android14MemoryHeapPmemE0_NS_14MemoryHeapBaseE
D _ZTCN7android14MemoryHeapPmemE56_NS_10IInterfaceE
D _ZTCN7android14MemoryHeapPmemE56_NS_11BnInterfaceINS_11IMemoryHeapEEE
D _ZTCN7android14MemoryHeapPmemE56_NS_11IMemoryHeapE
D _ZTCN7android14MemoryHeapPmemE56_NS_12BnMemoryHeapE
D _ZTCN7android14MemoryHeapPmemE60_NS_7BBinderE
D _ZTCN7android14MemoryHeapPmemE60_NS_7IBinderE
D _ZTCN7android15IServiceManagerE0_NS_10IInterfaceE
D _ZTCN7android15SubRegionMemoryE0_NS_10IInterfaceE
D _ZTCN7android15SubRegionMemoryE0_NS_11BnInterfaceINS_7IMemoryEEE
D _ZTCN7android15SubRegionMemoryE0_NS_14MemoryHeapPmem10MemoryPmemE
D _ZTCN7android15SubRegionMemoryE0_NS_7IMemoryE
D _ZTCN7android15SubRegionMemoryE0_NS_8BnMemoryE
D _ZTCN7android15SubRegionMemoryE4_NS_7BBinderE
D _ZTCN7android15SubRegionMemoryE4_NS_7IBinderE
D _ZTCN7android16BnServiceManagerE0_NS_10IInterfaceE
D _ZTCN7android16BnServiceManagerE0_NS_11BnInterfaceINS_15IServiceManagerEEE
D _ZTCN7android16BnServiceManagerE0_NS_15IServiceManagerE
D _ZTCN7android16BnServiceManagerE4_NS_7BBinderE
D _ZTCN7android16BnServiceManagerE4_NS_7IBinderE
V _ZTCN7android16BpServiceManagerE0_NS_10IInterfaceE
V _ZTCN7android16BpServiceManagerE0_NS_11BpInterfaceINS_15IServiceManagerEEE
V _ZTCN7android16BpServiceManagerE0_NS_15IServiceManagerE
V _ZTCN7android16BpServiceManagerE4_NS_9BpRefBaseE
D _ZTCN7android21IPermissionControllerE0_NS_10IInterfaceE
D _ZTCN7android22BnPermissionControllerE0_NS_10IInterfaceE
D _ZTCN7android22BnPermissionControllerE0_NS_11BnInterfaceINS_21IPermissionControllerEEE
D _ZTCN7android22BnPermissionControllerE0_NS_21IPermissionControllerE
D _ZTCN7android22BnPermissionControllerE4_NS_7BBinderE
D _ZTCN7android22BnPermissionControllerE4_NS_7IBinderE
V _ZTCN7android22BpPermissionControllerE0_NS_10IInterfaceE
V _ZTCN7android22BpPermissionControllerE0_NS_11BpInterfaceINS_21IPermissionControllerEEE
V _ZTCN7android22BpPermissionControllerE0_NS_21IPermissionControllerE
V _ZTCN7android22BpPermissionControllerE4_NS_9BpRefBaseE
D _ZTCN7android7BBinderE0_NS_7IBinderE
D _ZTCN7android7IMemoryE0_NS_10IInterfaceE
D _ZTCN7android8BnMemoryE0_NS_10IInterfaceE
D _ZTCN7android8BnMemoryE0_NS_11BnInterfaceINS_7IMemoryEEE
D _ZTCN7android8BnMemoryE0_NS_7IMemoryE
D _ZTCN7android8BnMemoryE4_NS_7BBinderE
D _ZTCN7android8BnMemoryE4_NS_7IBinderE
D _ZTCN7android8BpBinderE0_NS_7IBinderE
D _ZTCN7android8BpMemoryE0_NS_10IInterfaceE
D _ZTCN7android8BpMemoryE0_NS_11BpInterfaceINS_7IMemoryEEE
D _ZTCN7android8BpMemoryE0_NS_7IMemoryE
D _ZTCN7android8BpMemoryE4_NS_9BpRefBaseE
D _ZTCN7android9HeapCacheE0_NS_7IBinder14DeathRecipientE
D _ZTTN7android10AllocationE
D _ZTTN7android10IInterfaceE
D _ZTTN7android10MemoryBaseE
V _ZTTN7android10PoolThreadE
V _ZTTN7android11BnInterfaceINS_11IMemoryHeapEEE
V _ZTTN7android11BnInterfaceINS_15IServiceManagerEEE
V _ZTTN7android11BnInterfaceINS_21IPermissionControllerEEE
V _ZTTN7android11BnInterfaceINS_7IMemoryEEE
V _ZTTN7android11BpInterfaceINS_11IMemoryHeapEEE
V _ZTTN7android11BpInterfaceINS_15IServiceManagerEEE
V _ZTTN7android11BpInterfaceINS_21IPermissionControllerEEE
V _ZTTN7android11BpInterfaceINS_7IMemoryEEE
D _ZTTN7android11IMemoryHeapE
D _ZTTN7android12BnMemoryHeapE
D _ZTTN7android12BpMemoryHeapE
D _ZTTN7android12ProcessStateE
D _ZTTN7android14MemoryHeapBaseE
D _ZTTN7android14MemoryHeapPmem10MemoryPmemE
D _ZTTN7android14MemoryHeapPmemE
D _ZTTN7android15IServiceManagerE
D _ZTTN7android15SubRegionMemoryE
D _ZTTN7android16BnServiceManagerE
V _ZTTN7android16BpServiceManagerE
D _ZTTN7android21IPermissionControllerE
D _ZTTN7android22BnPermissionControllerE
V _ZTTN7android22BpPermissionControllerE
D _ZTTN7android7BBinderE
V _ZTTN7android7IBinder14DeathRecipientE
D _ZTTN7android7IBinderE
D _ZTTN7android7IMemoryE
D _ZTTN7android8BnMemoryE
D _ZTTN7android8BpBinderE
D _ZTTN7android8BpMemoryE
D _ZTTN7android9BpRefBaseE
D _ZTTN7android9HeapCacheE
D _ZTVN7android10AllocationE
D _ZTVN7android10IInterfaceE
D _ZTVN7android10MemoryBaseE
D _ZTVN7android10PermissionE
V _ZTVN7android10PoolThreadE
V _ZTVN7android11BnInterfaceINS_11IMemoryHeapEEE
V _ZTVN7android11BnInterfaceINS_15IServiceManagerEEE
V _ZTVN7android11BnInterfaceINS_21IPermissionControllerEEE
V _ZTVN7android11BnInterfaceINS_7IMemoryEEE
V _ZTVN7android11BpInterfaceINS_11IMemoryHeapEEE
V _ZTVN7android11BpInterfaceINS_15IServiceManagerEEE
V _ZTVN7android11BpInterfaceINS_21IPermissionControllerEEE
V _ZTVN7android11BpInterfaceINS_7IMemoryEEE
D _ZTVN7android11IMemoryHeapE
D _ZTVN7android12BnMemoryHeapE
D _ZTVN7android12BpMemoryHeapE
D _ZTVN7android12MemoryDealerE
D _ZTVN7android12ProcessStateE
V _ZTVN7android12SortedVectorINS_16key_value_pair_tINS_2wpINS_7IBinderEEENS_9HeapCache11heap_info_tEEEEE
V _ZTVN7android12SortedVectorINS_16key_value_pair_tINS_8String16ENS_2spINS_7IBinderEEEEEEE
V _ZTVN7android12SortedVectorINS_16key_value_pair_tIPKvNS_8BpBinder13ObjectManager7entry_tEEEEE
V _ZTVN7android12SortedVectorINS_2wpINS_14MemoryHeapPmem10MemoryPmemEEEEE
V _ZTVN7android12SortedVectorIjEE
D _ZTVN7android14MemoryHeapBaseE
D _ZTVN7android14MemoryHeapPmem10MemoryPmemE
D _ZTVN7android14MemoryHeapPmemE
D _ZTVN7android15IServiceManagerE
D _ZTVN7android15SubRegionMemoryE
D _ZTVN7android16BnServiceManagerE
V _ZTVN7android16BpServiceManagerE
D _ZTVN7android21IPermissionControllerE
D _ZTVN7android22BnPermissionControllerE
V _ZTVN7android22BpPermissionControllerE
V _ZTVN7android6VectorINS_12ProcessState12handle_entryEEE
V _ZTVN7android6VectorINS_8BpBinder8ObituaryEEE
V _ZTVN7android6VectorINS_8String16EEE
V _ZTVN7android6VectorIPNS_7BBinderEEE
V _ZTVN7android6VectorIPNS_7RefBase12weakref_typeEEE
D _ZTVN7android7BBinderE
V _ZTVN7android7IBinder14DeathRecipientE
D _ZTVN7android7IBinderE
D _ZTVN7android7IMemoryE
D _ZTVN7android8BnMemoryE
D _ZTVN7android8BpBinderE
D _ZTVN7android8BpMemoryE
D _ZTVN7android9BpRefBaseE
D _ZTVN7android9HeapCacheE
T _ZThn4_N7android10AllocationD0Ev
T _ZThn4_N7android10AllocationD1Ev
T _ZThn4_N7android10MemoryBaseD0Ev
T _ZThn4_N7android10MemoryBaseD1Ev
T _ZThn4_N7android12BnMemoryHeap10onTransactEjRKNS_6ParcelEPS1_j
T _ZThn4_N7android12BnMemoryHeapD0Ev
T _ZThn4_N7android12BnMemoryHeapD1Ev
T _ZThn4_N7android12BpMemoryHeapD0Ev
T _ZThn4_N7android12BpMemoryHeapD1Ev
T _ZThn4_N7android14MemoryHeapPmem10MemoryPmemD0Ev
T _ZThn4_N7android14MemoryHeapPmem10MemoryPmemD1Ev
T _ZThn4_N7android15SubRegionMemoryD0Ev
T _ZThn4_N7android15SubRegionMemoryD1Ev
T _ZThn4_N7android16BnServiceManager10onTransactEjRKNS_6ParcelEPS1_j
T _ZThn4_N7android22BnPermissionController10onTransactEjRKNS_6ParcelEPS1_j
T _ZThn4_N7android8BnMemory10onTransactEjRKNS_6ParcelEPS1_j
T _ZThn4_N7android8BnMemoryD0Ev
T _ZThn4_N7android8BnMemoryD1Ev
T _ZThn4_N7android8BpMemoryD0Ev
T _ZThn4_N7android8BpMemoryD1Ev
T _ZTv0_n12_N7android10AllocationD0Ev
T _ZTv0_n12_N7android10AllocationD1Ev
T _ZTv0_n12_N7android10IInterfaceD0Ev
T _ZTv0_n12_N7android10IInterfaceD1Ev
T _ZTv0_n12_N7android10MemoryBaseD0Ev
T _ZTv0_n12_N7android10MemoryBaseD1Ev
W _ZTv0_n12_N7android10PoolThreadD0Ev
W _ZTv0_n12_N7android10PoolThreadD1Ev
W _ZTv0_n12_N7android11BnInterfaceINS_11IMemoryHeapEED0Ev
W _ZTv0_n12_N7android11BnInterfaceINS_11IMemoryHeapEED1Ev
W _ZTv0_n12_N7android11BnInterfaceINS_15IServiceManagerEED0Ev
W _ZTv0_n12_N7android11BnInterfaceINS_15IServiceManagerEED1Ev
W _ZTv0_n12_N7android11BnInterfaceINS_21IPermissionControllerEED0Ev
W _ZTv0_n12_N7android11BnInterfaceINS_21IPermissionControllerEED1Ev
W _ZTv0_n12_N7android11BnInterfaceINS_7IMemoryEED0Ev
W _ZTv0_n12_N7android11BnInterfaceINS_7IMemoryEED1Ev
W _ZTv0_n12_N7android11BpInterfaceINS_11IMemoryHeapEED0Ev
W _ZTv0_n12_N7android11BpInterfaceINS_11IMemoryHeapEED1Ev
W _ZTv0_n12_N7android11BpInterfaceINS_15IServiceManagerEED0Ev
W _ZTv0_n12_N7android11BpInterfaceINS_15IServiceManagerEED1Ev
W _ZTv0_n12_N7android11BpInterfaceINS_21IPermissionControllerEED0Ev
W _ZTv0_n12_N7android11BpInterfaceINS_21IPermissionControllerEED1Ev
W _ZTv0_n12_N7android11BpInterfaceINS_7IMemoryEED0Ev
W _ZTv0_n12_N7android11BpInterfaceINS_7IMemoryEED1Ev
T _ZTv0_n12_N7android11IMemoryHeapD0Ev
T _ZTv0_n12_N7android11IMemoryHeapD1Ev
T _ZTv0_n12_N7android12BnMemoryHeapD0Ev
T _ZTv0_n12_N7android12BnMemoryHeapD1Ev
T _ZTv0_n12_N7android12BpMemoryHeapD0Ev
T _ZTv0_n12_N7android12BpMemoryHeapD1Ev
T _ZTv0_n12_N7android12ProcessStateD0Ev
T _ZTv0_n12_N7android12ProcessStateD1Ev
T _ZTv0_n12_N7android14MemoryHeapBaseD0Ev
T _ZTv0_n12_N7android14MemoryHeapBaseD1Ev
T _ZTv0_n12_N7android14MemoryHeapPmem10MemoryPmemD0Ev
T _ZTv0_n12_N7android14MemoryHeapPmem10MemoryPmemD1Ev
T _ZTv0_n12_N7android14MemoryHeapPmemD0Ev
T _ZTv0_n12_N7android14MemoryHeapPmemD1Ev
T _ZTv0_n12_N7android15IServiceManagerD0Ev
T _ZTv0_n12_N7android15IServiceManagerD1Ev
T _ZTv0_n12_N7android15SubRegionMemoryD0Ev
T _ZTv0_n12_N7android15SubRegionMemoryD1Ev
W _ZTv0_n12_N7android16BnServiceManagerD0Ev
W _ZTv0_n12_N7android16BnServiceManagerD1Ev
W _ZTv0_n12_N7android16BpServiceManagerD0Ev
W _ZTv0_n12_N7android16BpServiceManagerD1Ev
T _ZTv0_n12_N7android21IPermissionControllerD0Ev
T _ZTv0_n12_N7android21IPermissionControllerD1Ev
W _ZTv0_n12_N7android22BnPermissionControllerD0Ev
W _ZTv0_n12_N7android22BnPermissionControllerD1Ev
W _ZTv0_n12_N7android22BpPermissionControllerD0Ev
W _ZTv0_n12_N7android22BpPermissionControllerD1Ev
U _ZTv0_n12_N7android6ThreadD0Ev
U _ZTv0_n12_N7android6ThreadD1Ev
T _ZTv0_n12_N7android7BBinderD0Ev
T _ZTv0_n12_N7android7BBinderD1Ev
W _ZTv0_n12_N7android7IBinder14DeathRecipientD0Ev
W _ZTv0_n12_N7android7IBinder14DeathRecipientD1Ev
T _ZTv0_n12_N7android7IBinderD0Ev
T _ZTv0_n12_N7android7IBinderD1Ev
T _ZTv0_n12_N7android7IMemoryD0Ev
T _ZTv0_n12_N7android7IMemoryD1Ev
T _ZTv0_n12_N7android8BnMemoryD0Ev
T _ZTv0_n12_N7android8BnMemoryD1Ev
T _ZTv0_n12_N7android8BpBinderD0Ev
T _ZTv0_n12_N7android8BpBinderD1Ev
T _ZTv0_n12_N7android8BpMemoryD0Ev
T _ZTv0_n12_N7android8BpMemoryD1Ev
T _ZTv0_n12_N7android9BpRefBaseD0Ev
T _ZTv0_n12_N7android9BpRefBaseD1Ev
T _ZTv0_n12_N7android9HeapCacheD0Ev
T _ZTv0_n12_N7android9HeapCacheD1Ev
T _ZTv0_n16_N7android14MemoryHeapBaseD0Ev
T _ZTv0_n16_N7android14MemoryHeapBaseD1Ev
T _ZTv0_n16_N7android14MemoryHeapPmemD0Ev
T _ZTv0_n16_N7android14MemoryHeapPmemD1Ev
T _ZTv0_n16_N7android8BpBinder10onFirstRefEv
T _ZTv0_n16_N7android9BpRefBase10onFirstRefEv
T _ZTv0_n20_N7android8BpBinder15onLastStrongRefEPKv
T _ZTv0_n20_N7android9BpRefBase15onLastStrongRefEPKv
T _ZTv0_n24_N7android8BpBinder20onIncStrongAttemptedEjPKv
T _ZTv0_n24_N7android9BpRefBase20onIncStrongAttemptedEjPKv
T _ZTv0_n28_NK7android14MemoryHeapBase9getHeapIDEv
T _ZTv0_n32_NK7android14MemoryHeapBase7getBaseEv
T _ZTv0_n36_NK7android14MemoryHeapBase7getSizeEv
T _ZTv0_n40_NK7android14MemoryHeapBase8getFlagsEv
T _ZTvn4_n16_N7android14MemoryHeapBaseD0Ev
T _ZTvn4_n16_N7android14MemoryHeapBaseD1Ev
T _ZTvn4_n16_N7android14MemoryHeapPmemD0Ev
T _ZTvn4_n16_N7android14MemoryHeapPmemD1Ev
U _ZdaPv
U _ZdlPv
U _Znaj
U _Znwj
T __FINI_ARRAY__
T __INIT_ARRAY__
U __aeabi_atexit
U __aeabi_ldivmod
U __aeabi_unwind_cpp_pr0
U __android_log_assert
U __android_log_print
A __bss_end__
A __bss_start
A __bss_start__
U __cxa_finalize
U __cxa_guard_acquire
U __cxa_guard_release
U __cxa_pure_virtual
A __data_start
B __dso_handle
A __end__
U __errno
A __exidx_end
A __exidx_start
U __page_size
U __stack_chk_fail
U __stack_chk_guard
A _bss_end__
A _edata
A _end
A _stack
U androidGetTid
U androidSetThreadSchedulingGroup
U android_atomic_add
U android_atomic_dec
U android_atomic_inc
U android_atomic_or
U android_atomic_release_cas
U android_atomic_release_store
U ashmem_create_region
U ashmem_set_prot_region
U close
U dup
U fcntl
U free
U fstat
U getpid
U getpriority
U getuid
U ioctl
U madvise
U malloc
U memchr
U memcpy
U memmove
U mmap
U munmap
U native_handle_close
U native_handle_create
U native_handle_delete
U open
U printf
U pthread_getspecific
U pthread_key_create
U pthread_mutex_destroy
U pthread_mutex_init
U pthread_mutex_lock
U pthread_mutex_unlock
U pthread_setspecific
U realloc
U set_process_name
U setpriority
U sleep
U snprintf
U sprintf
U strerror
U strlen
U strncpy
U strzcmp16
