U _ZN7android10IInterface8asBinderEv
U _ZN7android10IInterfaceC2Ev
U _ZN7android10IInterfaceD0Ev
U _ZN7android10IInterfaceD1Ev
U _ZN7android10IInterfaceD2Ev
U _ZN7android10VectorImpl13finish_vectorEv
U _ZN7android10VectorImpl19reservedVectorImpl1Ev
U _ZN7android10VectorImpl19reservedVectorImpl2Ev
U _ZN7android10VectorImpl19reservedVectorImpl3Ev
U _ZN7android10VectorImpl19reservedVectorImpl4Ev
U _ZN7android10VectorImpl19reservedVectorImpl5Ev
U _ZN7android10VectorImpl19reservedVectorImpl6Ev
U _ZN7android10VectorImpl19reservedVectorImpl7Ev
U _ZN7android10VectorImpl19reservedVectorImpl8Ev
U _ZN7android10VectorImpl4pushEPKv
U _ZN7android10VectorImpl5clearEv
W _ZN7android11BnInterfaceINS_13ICameraClientEE10onAsBinderEv
W _ZN7android11BnInterfaceINS_14ICameraServiceEE10onAsBinderEv
W _ZN7android11BnInterfaceINS_7ICameraEE10onAsBinderEv
W _ZN7android12compare_typeINS_16key_value_pair_tINS_7String8ES2_EEEEiRKT_S6_
B _ZN7android13ICameraClient10descriptorE
T _ZN7android13ICameraClient11asInterfaceERKNS_2spINS_7IBinderEEE
T _ZN7android13ICameraClientC1Ev
T _ZN7android13ICameraClientC2Ev
T _ZN7android13ICameraClientD0Ev
T _ZN7android13ICameraClientD1Ev
T _ZN7android13ICameraClientD2Ev
T _ZN7android14BnCameraClient10onTransactEjRKNS_6ParcelEPS1_j
B _ZN7android14ICameraService10descriptorE
T _ZN7android14ICameraService11asInterfaceERKNS_2spINS_7IBinderEEE
T _ZN7android14ICameraServiceC1Ev
T _ZN7android14ICameraServiceC2Ev
T _ZN7android14ICameraServiceD0Ev
T _ZN7android14ICameraServiceD1Ev
T _ZN7android14ICameraServiceD2Ev
T _ZN7android15BnCameraService10onTransactEjRKNS_6ParcelEPS1_j
R _ZN7android16CameraParameters10KEY_EFFECTE
R _ZN7android16CameraParameters11EFFECT_AQUAE
R _ZN7android16CameraParameters11EFFECT_MONOE
R _ZN7android16CameraParameters11EFFECT_NONEE
R _ZN7android16CameraParameters12EFFECT_SEPIAE
R _ZN7android16CameraParameters12KEY_MAX_ZOOME
R _ZN7android16CameraParameters12KEY_ROTATIONE
R _ZN7android16CameraParameters13FLASH_MODE_ONE
R _ZN7android16CameraParameters14FLASH_MODE_OFFE
R _ZN7android16CameraParameters14KEY_FLASH_MODEE
R _ZN7android16CameraParameters14KEY_FOCUS_MODEE
R _ZN7android16CameraParameters14KEY_SCENE_MODEE
T _ZN7android16CameraParameters14setPictureSizeEii
T _ZN7android16CameraParameters14setPreviewSizeEii
R _ZN7android16CameraParameters15ANTIBANDING_OFFE
R _ZN7android16CameraParameters15EFFECT_NEGATIVEE
R _ZN7android16CameraParameters15EFFECT_SOLARIZEE
R _ZN7android16CameraParameters15FLASH_MODE_AUTOE
R _ZN7android16CameraParameters15FOCUS_MODE_AUTOE
R _ZN7android16CameraParameters15FOCUS_MODE_EDOFE
R _ZN7android16CameraParameters15KEY_ANTIBANDINGE
R _ZN7android16CameraParameters15KEY_ZOOM_RATIOSE
R _ZN7android16CameraParameters15SCENE_MODE_AUTOE
R _ZN7android16CameraParameters15SCENE_MODE_SNOWE
R _ZN7android16CameraParameters16ANTIBANDING_50HZE
R _ZN7android16CameraParameters16ANTIBANDING_60HZE
R _ZN7android16CameraParameters16ANTIBANDING_AUTOE
R _ZN7android16CameraParameters16EFFECT_POSTERIZEE
R _ZN7android16CameraParameters16FLASH_MODE_TORCHE
R _ZN7android16CameraParameters16FOCUS_MODE_FIXEDE
R _ZN7android16CameraParameters16FOCUS_MODE_MACROE
R _ZN7android16CameraParameters16KEY_FOCAL_LENGTHE
R _ZN7android16CameraParameters16KEY_GPS_ALTITUDEE
R _ZN7android16CameraParameters16KEY_GPS_LATITUDEE
R _ZN7android16CameraParameters16KEY_JPEG_QUALITYE
R _ZN7android16CameraParameters16KEY_PICTURE_SIZEE
R _ZN7android16CameraParameters16KEY_PREVIEW_SIZEE
R _ZN7android16CameraParameters16SCENE_MODE_BEACHE
R _ZN7android16CameraParameters16SCENE_MODE_NIGHTE
R _ZN7android16CameraParameters16SCENE_MODE_PARTYE
T _ZN7android16CameraParameters16setPictureFormatEPKc
T _ZN7android16CameraParameters16setPreviewFormatEPKc
R _ZN7android16CameraParameters17EFFECT_BLACKBOARDE
R _ZN7android16CameraParameters17EFFECT_WHITEBOARDE
R _ZN7android16CameraParameters17KEY_GPS_LONGITUDEE
R _ZN7android16CameraParameters17KEY_GPS_TIMESTAMPE
R _ZN7android16CameraParameters17KEY_WHITE_BALANCEE
R _ZN7android16CameraParameters17PIXEL_FORMAT_JPEGE
R _ZN7android16CameraParameters17SCENE_MODE_ACTIONE
R _ZN7android16CameraParameters17SCENE_MODE_SPORTSE
R _ZN7android16CameraParameters17SCENE_MODE_SUNSETE
R _ZN7android16CameraParameters18FLASH_MODE_RED_EYEE
R _ZN7android16CameraParameters18KEY_PICTURE_FORMATE
R _ZN7android16CameraParameters18KEY_PREVIEW_FORMATE
R _ZN7android16CameraParameters18KEY_ZOOM_SUPPORTEDE
R _ZN7android16CameraParameters18SCENE_MODE_BARCODEE
R _ZN7android16CameraParameters18SCENE_MODE_THEATREE
R _ZN7android16CameraParameters18WHITE_BALANCE_AUTOE
R _ZN7android16CameraParameters19FOCUS_MODE_INFINITYE
R _ZN7android16CameraParameters19KEY_FOCUS_DISTANCESE
R _ZN7android16CameraParameters19PIXEL_FORMAT_RGB565E
R _ZN7android16CameraParameters19SCENE_MODE_PORTRAITE
R _ZN7android16CameraParameters19WHITE_BALANCE_SHADEE
T _ZN7android16CameraParameters19setPreviewFrameRateEi
R _ZN7android16CameraParameters20PIXEL_FORMAT_YUV422IE
R _ZN7android16CameraParameters20SCENE_MODE_FIREWORKSE
R _ZN7android16CameraParameters20SCENE_MODE_LANDSCAPEE
R _ZN7android16CameraParameters21KEY_PREVIEW_FPS_RANGEE
R _ZN7android16CameraParameters21KEY_SUPPORTED_EFFECTSE
R _ZN7android16CameraParameters21PIXEL_FORMAT_YUV420SPE
R _ZN7android16CameraParameters21PIXEL_FORMAT_YUV422SPE
R _ZN7android16CameraParameters22KEY_PREVIEW_FRAME_RATEE
R _ZN7android16CameraParameters22KEY_VIDEO_FRAME_FORMATE
R _ZN7android16CameraParameters22SCENE_MODE_CANDLELIGHTE
R _ZN7android16CameraParameters22SCENE_MODE_STEADYPHOTOE
R _ZN7android16CameraParameters22WHITE_BALANCE_DAYLIGHTE
R _ZN7android16CameraParameters22WHITE_BALANCE_TWILIGHTE
R _ZN7android16CameraParameters23FOCUS_DISTANCE_INFINITYE
R _ZN7android16CameraParameters23KEY_VERTICAL_VIEW_ANGLEE
R _ZN7android16CameraParameters24KEY_JPEG_THUMBNAIL_WIDTHE
R _ZN7android16CameraParameters25KEY_EXPOSURE_COMPENSATIONE
R _ZN7android16CameraParameters25KEY_GPS_PROCESSING_METHODE
R _ZN7android16CameraParameters25KEY_HORIZONTAL_VIEW_ANGLEE
R _ZN7android16CameraParameters25KEY_JPEG_THUMBNAIL_HEIGHTE
R _ZN7android16CameraParameters25KEY_SMOOTH_ZOOM_SUPPORTEDE
R _ZN7android16CameraParameters25KEY_SUPPORTED_ANTIBANDINGE
R _ZN7android16CameraParameters25KEY_SUPPORTED_FLASH_MODESE
R _ZN7android16CameraParameters25KEY_SUPPORTED_FOCUS_MODESE
R _ZN7android16CameraParameters25KEY_SUPPORTED_SCENE_MODESE
R _ZN7android16CameraParameters25SCENE_MODE_NIGHT_PORTRAITE
R _ZN7android16CameraParameters25WHITE_BALANCE_FLUORESCENTE
R _ZN7android16CameraParameters26KEY_JPEG_THUMBNAIL_QUALITYE
R _ZN7android16CameraParameters26WHITE_BALANCE_INCANDESCENTE
R _ZN7android16CameraParameters27FOCUS_MODE_CONTINUOUS_VIDEOE
R _ZN7android16CameraParameters27KEY_SUPPORTED_PICTURE_SIZESE
R _ZN7android16CameraParameters27KEY_SUPPORTED_PREVIEW_SIZESE
R _ZN7android16CameraParameters27KEY_SUPPORTED_WHITE_BALANCEE
R _ZN7android16CameraParameters29KEY_MAX_EXPOSURE_COMPENSATIONE
R _ZN7android16CameraParameters29KEY_MIN_EXPOSURE_COMPENSATIONE
R _ZN7android16CameraParameters29KEY_SUPPORTED_PICTURE_FORMATSE
R _ZN7android16CameraParameters29KEY_SUPPORTED_PREVIEW_FORMATSE
R _ZN7android16CameraParameters29WHITE_BALANCE_CLOUDY_DAYLIGHTE
R _ZN7android16CameraParameters30KEY_EXPOSURE_COMPENSATION_STEPE
R _ZN7android16CameraParameters30WHITE_BALANCE_WARM_FLUORESCENTE
R _ZN7android16CameraParameters31KEY_SUPPORTED_PREVIEW_FPS_RANGEE
R _ZN7android16CameraParameters33KEY_SUPPORTED_PREVIEW_FRAME_RATESE
R _ZN7android16CameraParameters34KEY_SUPPORTED_JPEG_THUMBNAIL_SIZESE
T _ZN7android16CameraParameters3setEPKcS2_
T _ZN7android16CameraParameters3setEPKci
R _ZN7android16CameraParameters4TRUEE
T _ZN7android16CameraParameters6removeEPKc
R _ZN7android16CameraParameters8KEY_ZOOME
T _ZN7android16CameraParameters8setFloatEPKcf
T _ZN7android16CameraParameters9unflattenERKNS_7String8E
T _ZN7android16CameraParametersC1Ev
T _ZN7android16CameraParametersC2Ev
T _ZN7android16CameraParametersD1Ev
T _ZN7android16CameraParametersD2Ev
U _ZN7android16SortedVectorImpl25reservedSortedVectorImpl1Ev
U _ZN7android16SortedVectorImpl25reservedSortedVectorImpl2Ev
U _ZN7android16SortedVectorImpl25reservedSortedVectorImpl3Ev
U _ZN7android16SortedVectorImpl25reservedSortedVectorImpl4Ev
U _ZN7android16SortedVectorImpl25reservedSortedVectorImpl5Ev
U _ZN7android16SortedVectorImpl25reservedSortedVectorImpl6Ev
U _ZN7android16SortedVectorImpl25reservedSortedVectorImpl7Ev
U _ZN7android16SortedVectorImpl25reservedSortedVectorImpl8Ev
U _ZN7android16SortedVectorImpl3addEPKv
U _ZN7android16SortedVectorImpl6removeEPKv
U _ZN7android16SortedVectorImplC2Ejj
U _ZN7android16SortedVectorImplD2Ev
W _ZN7android17move_forward_typeINS_16key_value_pair_tINS_7String8ES2_EEEEvPT_PKS4_j
W _ZN7android18move_backward_typeINS_16key_value_pair_tINS_7String8ES2_EEEEvPT_PKS4_j
U _ZN7android21defaultServiceManagerEv
W _ZN7android2spINS_13ICameraClientEEaSEPS1_
W _ZN7android2spINS_13ICameraClientEEaSINS_14BpCameraClientEEERS2_PT_
W _ZN7android2spINS_14CameraListenerEED1Ev
W _ZN7android2spINS_14CameraListenerEEaSERKS2_
W _ZN7android2spINS_14ICameraServiceEED1Ev
W _ZN7android2spINS_14ICameraServiceEEaSEPS1_
W _ZN7android2spINS_14ICameraServiceEEaSINS_15BpCameraServiceEEERS2_PT_
W _ZN7android2spINS_6Camera13DeathNotifierEED1Ev
W _ZN7android2spINS_7IBinderEED1Ev
W _ZN7android2spINS_7IBinderEEaSERKS2_
W _ZN7android2spINS_7ICameraEEC1ERKS2_
W _ZN7android2spINS_7ICameraEED1Ev
W _ZN7android2spINS_7ICameraEEaSEPS1_
W _ZN7android2spINS_7ICameraEEaSERKS2_
W _ZN7android2spINS_7ICameraEEaSINS_8BpCameraEEERS2_PT_
T _ZN7android6Camera10binderDiedERKNS_2wpINS_7IBinderEEE
T _ZN7android6Camera10disconnectEv
T _ZN7android6Camera11sendCommandEiii
T _ZN7android6Camera11setListenerERKNS_2spINS_14CameraListenerEEE
T _ZN7android6Camera11stopPreviewEv
T _ZN7android6Camera11takePictureEv
T _ZN7android6Camera12dataCallbackEiRKNS_2spINS_7IMemoryEEE
T _ZN7android6Camera12startPreviewEv
T _ZN7android6Camera13DeathNotifier10binderDiedERKNS_2wpINS_7IBinderEEE
T _ZN7android6Camera13getCameraInfoEiPNS_10CameraInfoE
T _ZN7android6Camera13setParametersERKNS_7String8E
T _ZN7android6Camera13stopRecordingEv
B _ZN7android6Camera14mCameraServiceE
B _ZN7android6Camera14mDeathNotifierE
T _ZN7android6Camera14notifyCallbackEiii
T _ZN7android6Camera14previewEnabledEv
T _ZN7android6Camera14startRecordingEv
T _ZN7android6Camera15cancelAutoFocusEv
T _ZN7android6Camera16getCameraServiceEv
T _ZN7android6Camera16recordingEnabledEv
T _ZN7android6Camera17setPreviewDisplayERKNS_2spINS_7SurfaceEEE
T _ZN7android6Camera17setPreviewDisplayERKNS_2spINS_8ISurfaceEEE
T _ZN7android6Camera18getNumberOfCamerasEv
T _ZN7android6Camera21dataCallbackTimestampExiRKNS_2spINS_7IMemoryEEE
T _ZN7android6Camera21releaseRecordingFrameERKNS_2spINS_7IMemoryEEE
T _ZN7android6Camera23setPreviewCallbackFlagsEi
T _ZN7android6Camera4initEv
T _ZN7android6Camera4lockEv
B _ZN7android6Camera5mLockE
T _ZN7android6Camera6createERKNS_2spINS_7ICameraEEE
T _ZN7android6Camera6remoteEv
T _ZN7android6Camera6unlockEv
T _ZN7android6Camera7connectEi
T _ZN7android6Camera9autoFocusEv
T _ZN7android6Camera9reconnectEv
T _ZN7android6CameraC1Ev
T _ZN7android6CameraC2Ev
T _ZN7android6CameraD0Ev
T _ZN7android6CameraD1Ev
T _ZN7android6CameraD2Ev
U _ZN7android6Parcel10writeInt32Ei
U _ZN7android6Parcel10writeInt64Ex
U _ZN7android6Parcel12writeString8ERKNS_7String8E
U _ZN7android6Parcel17writeStrongBinderERKNS_2spINS_7IBinderEEE
U _ZN7android6Parcel19writeInterfaceTokenERKNS_8String16E
U _ZN7android6ParcelC1Ev
U _ZN7android6ParcelD1Ev
U _ZN7android7BBinder10onTransactEjRKNS_6ParcelEPS1_j
U _ZN7android7BBinder10pingBinderEv
U _ZN7android7BBinder11linkToDeathERKNS_2spINS_7IBinder14DeathRecipientEEEPvj
U _ZN7android7BBinder11localBinderEv
U _ZN7android7BBinder12attachObjectEPKvPvS3_PFvS2_S3_S3_E
U _ZN7android7BBinder12detachObjectEPKv
U _ZN7android7BBinder13unlinkToDeathERKNS_2wpINS_7IBinder14DeathRecipientEEEPvjPS4_
U _ZN7android7BBinder4dumpEiRKNS_6VectorINS_8String16EEE
U _ZN7android7BBinder8transactEjRKNS_6ParcelEPS1_j
U _ZN7android7BBinderC2Ev
U _ZN7android7BBinderD0Ev
U _ZN7android7BBinderD1Ev
U _ZN7android7BBinderD2Ev
U _ZN7android7IBinder11localBinderEv
U _ZN7android7IBinder12remoteBinderEv
U _ZN7android7IBinder19queryLocalInterfaceERKNS_8String16E
U _ZN7android7IBinderD0Ev
U _ZN7android7IBinderD1Ev
B _ZN7android7ICamera10descriptorE
T _ZN7android7ICamera11asInterfaceERKNS_2spINS_7IBinderEEE
T _ZN7android7ICameraC1Ev
T _ZN7android7ICameraC2Ev
T _ZN7android7ICameraD0Ev
T _ZN7android7ICameraD1Ev
T _ZN7android7ICameraD2Ev
U _ZN7android7IMemory11asInterfaceERKNS_2spINS_7IBinderEEE
U _ZN7android7RefBase10onFirstRefEv
U _ZN7android7RefBase12weakref_type7decWeakEPKv
U _ZN7android7RefBase13onLastWeakRefEPKv
U _ZN7android7RefBase15onLastStrongRefEPKv
U _ZN7android7RefBase20onIncStrongAttemptedEjPKv
U _ZN7android7RefBaseC2Ev
U _ZN7android7RefBaseD2Ev
U _ZN7android7String85setToERKS0_
U _ZN7android7String86appendEPKc
U _ZN7android7String86appendERKS0_
U _ZN7android7String8C1EPKc
U _ZN7android7String8C1EPKcj
U _ZN7android7String8C1ERKS0_
U _ZN7android7String8C1Ev
U _ZN7android7String8D1Ev
T _ZN7android8BnCamera10onTransactEjRKNS_6ParcelEPS1_j
U _ZN7android8ISurface11asInterfaceERKNS_2spINS_7IBinderEEE
U _ZN7android8String16C1EPKc
U _ZN7android8String16D1Ev
U _ZN7android9BpRefBase10onFirstRefEv
U _ZN7android9BpRefBase15onLastStrongRefEPKv
U _ZN7android9BpRefBase20onIncStrongAttemptedEjPKv
U _ZN7android9BpRefBaseC2ERKNS_2spINS_7IBinderEEE
U _ZN7android9BpRefBaseD0Ev
U _ZN7android9BpRefBaseD1Ev
U _ZN7android9BpRefBaseD2Ev
W _ZNK7android12SortedVectorINS_16key_value_pair_tINS_7String8ES2_EEE10do_compareEPKvS6_
W _ZNK7android12SortedVectorINS_16key_value_pair_tINS_7String8ES2_EEE10do_destroyEPvj
W _ZNK7android12SortedVectorINS_16key_value_pair_tINS_7String8ES2_EEE12do_constructEPvj
W _ZNK7android12SortedVectorINS_16key_value_pair_tINS_7String8ES2_EEE15do_move_forwardEPvPKvj
W _ZNK7android12SortedVectorINS_16key_value_pair_tINS_7String8ES2_EEE16do_move_backwardEPvPKvj
W _ZNK7android12SortedVectorINS_16key_value_pair_tINS_7String8ES2_EEE7do_copyEPvPKvj
W _ZNK7android12SortedVectorINS_16key_value_pair_tINS_7String8ES2_EEE8do_splatEPvPKvj
T _ZNK7android13ICameraClient22getInterfaceDescriptorEv
T _ZNK7android14ICameraService22getInterfaceDescriptorEv
T _ZNK7android16CameraParameters14getPictureSizeEPiS1_
T _ZNK7android16CameraParameters14getPreviewSizeEPiS1_
T _ZNK7android16CameraParameters16getPictureFormatEv
T _ZNK7android16CameraParameters16getPreviewFormatEv
T _ZNK7android16CameraParameters18getPreviewFpsRangeEPiS1_
T _ZNK7android16CameraParameters19getPreviewFrameRateEv
T _ZNK7android16CameraParameters24getSupportedPictureSizesERNS_6VectorINS_4SizeEEE
T _ZNK7android16CameraParameters24getSupportedPreviewSizesERNS_6VectorINS_4SizeEEE
T _ZNK7android16CameraParameters3getEPKc
T _ZNK7android16CameraParameters4dumpEiRKNS_6VectorINS_8String16EEE
T _ZNK7android16CameraParameters4dumpEv
T _ZNK7android16CameraParameters6getIntEPKc
T _ZNK7android16CameraParameters7flattenEv
T _ZNK7android16CameraParameters8getFloatEPKc
U _ZNK7android16SortedVectorImpl7indexOfEPKv
T _ZNK7android6Camera13getParametersEv
U _ZNK7android6Parcel11readString8Ev
U _ZNK7android6Parcel14checkInterfaceEPNS_7IBinderE
U _ZNK7android6Parcel16readStrongBinderEv
U _ZNK7android6Parcel9readInt32Ev
U _ZNK7android6Parcel9readInt64Ev
U _ZNK7android7BBinder10findObjectEPKv
U _ZNK7android7BBinder13isBinderAliveEv
U _ZNK7android7BBinder22getInterfaceDescriptorEv
U _ZNK7android7IBinder13checkSubclassEPKv
T _ZNK7android7ICamera22getInterfaceDescriptorEv
U _ZNK7android7RefBase10createWeakEPKv
U _ZNK7android7RefBase9decStrongEPKv
U _ZNK7android7RefBase9incStrongEPKv
U _ZNK7android7Surface11getISurfaceEv
V _ZTCN7android11BnInterfaceINS_13ICameraClientEEE0_NS_10IInterfaceE
V _ZTCN7android11BnInterfaceINS_13ICameraClientEEE0_S1_
V _ZTCN7android11BnInterfaceINS_13ICameraClientEEE4_NS_7BBinderE
V _ZTCN7android11BnInterfaceINS_13ICameraClientEEE4_NS_7IBinderE
V _ZTCN7android11BnInterfaceINS_14ICameraServiceEEE0_NS_10IInterfaceE
V _ZTCN7android11BnInterfaceINS_14ICameraServiceEEE0_S1_
V _ZTCN7android11BnInterfaceINS_14ICameraServiceEEE4_NS_7BBinderE
V _ZTCN7android11BnInterfaceINS_14ICameraServiceEEE4_NS_7IBinderE
V _ZTCN7android11BnInterfaceINS_7ICameraEEE0_NS_10IInterfaceE
V _ZTCN7android11BnInterfaceINS_7ICameraEEE0_S1_
V _ZTCN7android11BnInterfaceINS_7ICameraEEE4_NS_7BBinderE
V _ZTCN7android11BnInterfaceINS_7ICameraEEE4_NS_7IBinderE
V _ZTCN7android11BpInterfaceINS_13ICameraClientEEE0_NS_10IInterfaceE
V _ZTCN7android11BpInterfaceINS_13ICameraClientEEE0_S1_
V _ZTCN7android11BpInterfaceINS_13ICameraClientEEE4_NS_9BpRefBaseE
V _ZTCN7android11BpInterfaceINS_14ICameraServiceEEE0_NS_10IInterfaceE
V _ZTCN7android11BpInterfaceINS_14ICameraServiceEEE0_S1_
V _ZTCN7android11BpInterfaceINS_14ICameraServiceEEE4_NS_9BpRefBaseE
V _ZTCN7android11BpInterfaceINS_7ICameraEEE0_NS_10IInterfaceE
V _ZTCN7android11BpInterfaceINS_7ICameraEEE0_S1_
V _ZTCN7android11BpInterfaceINS_7ICameraEEE4_NS_9BpRefBaseE
D _ZTCN7android13ICameraClientE0_NS_10IInterfaceE
D _ZTCN7android14BnCameraClientE0_NS_10IInterfaceE
D _ZTCN7android14BnCameraClientE0_NS_11BnInterfaceINS_13ICameraClientEEE
D _ZTCN7android14BnCameraClientE0_NS_13ICameraClientE
D _ZTCN7android14BnCameraClientE4_NS_7BBinderE
D _ZTCN7android14BnCameraClientE4_NS_7IBinderE
V _ZTCN7android14BpCameraClientE0_NS_10IInterfaceE
V _ZTCN7android14BpCameraClientE0_NS_11BpInterfaceINS_13ICameraClientEEE
V _ZTCN7android14BpCameraClientE0_NS_13ICameraClientE
V _ZTCN7android14BpCameraClientE4_NS_9BpRefBaseE
D _ZTCN7android14ICameraServiceE0_NS_10IInterfaceE
D _ZTCN7android15BnCameraServiceE0_NS_10IInterfaceE
D _ZTCN7android15BnCameraServiceE0_NS_11BnInterfaceINS_14ICameraServiceEEE
D _ZTCN7android15BnCameraServiceE0_NS_14ICameraServiceE
D _ZTCN7android15BnCameraServiceE4_NS_7BBinderE
D _ZTCN7android15BnCameraServiceE4_NS_7IBinderE
V _ZTCN7android15BpCameraServiceE0_NS_10IInterfaceE
V _ZTCN7android15BpCameraServiceE0_NS_11BpInterfaceINS_14ICameraServiceEEE
V _ZTCN7android15BpCameraServiceE0_NS_14ICameraServiceE
V _ZTCN7android15BpCameraServiceE4_NS_9BpRefBaseE
D _ZTCN7android6Camera13DeathNotifierE0_NS_7IBinder14DeathRecipientE
D _ZTCN7android6CameraE0_NS_10IInterfaceE
D _ZTCN7android6CameraE0_NS_11BnInterfaceINS_13ICameraClientEEE
D _ZTCN7android6CameraE0_NS_13ICameraClientE
D _ZTCN7android6CameraE0_NS_14BnCameraClientE
D _ZTCN7android6CameraE16_NS_7IBinder14DeathRecipientE
D _ZTCN7android6CameraE4_NS_7BBinderE
D _ZTCN7android6CameraE4_NS_7IBinderE
D _ZTCN7android7ICameraE0_NS_10IInterfaceE
D _ZTCN7android8BnCameraE0_NS_10IInterfaceE
D _ZTCN7android8BnCameraE0_NS_11BnInterfaceINS_7ICameraEEE
D _ZTCN7android8BnCameraE0_NS_7ICameraE
D _ZTCN7android8BnCameraE4_NS_7BBinderE
D _ZTCN7android8BnCameraE4_NS_7IBinderE
V _ZTCN7android8BpCameraE0_NS_10IInterfaceE
V _ZTCN7android8BpCameraE0_NS_11BpInterfaceINS_7ICameraEEE
V _ZTCN7android8BpCameraE0_NS_7ICameraE
V _ZTCN7android8BpCameraE4_NS_9BpRefBaseE
V _ZTTN7android11BnInterfaceINS_13ICameraClientEEE
V _ZTTN7android11BnInterfaceINS_14ICameraServiceEEE
V _ZTTN7android11BnInterfaceINS_7ICameraEEE
V _ZTTN7android11BpInterfaceINS_13ICameraClientEEE
V _ZTTN7android11BpInterfaceINS_14ICameraServiceEEE
V _ZTTN7android11BpInterfaceINS_7ICameraEEE
D _ZTTN7android13ICameraClientE
D _ZTTN7android14BnCameraClientE
V _ZTTN7android14BpCameraClientE
D _ZTTN7android14ICameraServiceE
D _ZTTN7android15BnCameraServiceE
V _ZTTN7android15BpCameraServiceE
D _ZTTN7android6Camera13DeathNotifierE
D _ZTTN7android6CameraE
V _ZTTN7android7IBinder14DeathRecipientE
D _ZTTN7android7ICameraE
D _ZTTN7android8BnCameraE
V _ZTTN7android8BpCameraE
V _ZTVN7android11BnInterfaceINS_13ICameraClientEEE
V _ZTVN7android11BnInterfaceINS_14ICameraServiceEEE
V _ZTVN7android11BnInterfaceINS_7ICameraEEE
V _ZTVN7android11BpInterfaceINS_13ICameraClientEEE
V _ZTVN7android11BpInterfaceINS_14ICameraServiceEEE
V _ZTVN7android11BpInterfaceINS_7ICameraEEE
V _ZTVN7android12SortedVectorINS_16key_value_pair_tINS_7String8ES2_EEEE
D _ZTVN7android13ICameraClientE
D _ZTVN7android14BnCameraClientE
V _ZTVN7android14BpCameraClientE
D _ZTVN7android14ICameraServiceE
D _ZTVN7android15BnCameraServiceE
V _ZTVN7android15BpCameraServiceE
D _ZTVN7android6Camera13DeathNotifierE
D _ZTVN7android6CameraE
V _ZTVN7android7IBinder14DeathRecipientE
D _ZTVN7android7ICameraE
D _ZTVN7android8BnCameraE
V _ZTVN7android8BpCameraE
T _ZThn16_N7android6Camera10binderDiedERKNS_2wpINS_7IBinderEEE
T _ZThn16_N7android6CameraD0Ev
T _ZThn16_N7android6CameraD1Ev
T _ZThn4_N7android14BnCameraClient10onTransactEjRKNS_6ParcelEPS1_j
T _ZThn4_N7android15BnCameraService10onTransactEjRKNS_6ParcelEPS1_j
T _ZThn4_N7android6CameraD0Ev
T _ZThn4_N7android6CameraD1Ev
T _ZThn4_N7android8BnCamera10onTransactEjRKNS_6ParcelEPS1_j
U _ZTv0_n12_N7android10IInterfaceD0Ev
U _ZTv0_n12_N7android10IInterfaceD1Ev
W _ZTv0_n12_N7android11BnInterfaceINS_13ICameraClientEED0Ev
W _ZTv0_n12_N7android11BnInterfaceINS_13ICameraClientEED1Ev
W _ZTv0_n12_N7android11BnInterfaceINS_14ICameraServiceEED0Ev
W _ZTv0_n12_N7android11BnInterfaceINS_14ICameraServiceEED1Ev
W _ZTv0_n12_N7android11BnInterfaceINS_7ICameraEED0Ev
W _ZTv0_n12_N7android11BnInterfaceINS_7ICameraEED1Ev
W _ZTv0_n12_N7android11BpInterfaceINS_13ICameraClientEED0Ev
W _ZTv0_n12_N7android11BpInterfaceINS_13ICameraClientEED1Ev
W _ZTv0_n12_N7android11BpInterfaceINS_14ICameraServiceEED0Ev
W _ZTv0_n12_N7android11BpInterfaceINS_14ICameraServiceEED1Ev
W _ZTv0_n12_N7android11BpInterfaceINS_7ICameraEED0Ev
W _ZTv0_n12_N7android11BpInterfaceINS_7ICameraEED1Ev
T _ZTv0_n12_N7android13ICameraClientD0Ev
T _ZTv0_n12_N7android13ICameraClientD1Ev
W _ZTv0_n12_N7android14BnCameraClientD0Ev
W _ZTv0_n12_N7android14BnCameraClientD1Ev
W _ZTv0_n12_N7android14BpCameraClientD0Ev
W _ZTv0_n12_N7android14BpCameraClientD1Ev
T _ZTv0_n12_N7android14ICameraServiceD0Ev
T _ZTv0_n12_N7android14ICameraServiceD1Ev
W _ZTv0_n12_N7android15BnCameraServiceD0Ev
W _ZTv0_n12_N7android15BnCameraServiceD1Ev
W _ZTv0_n12_N7android15BpCameraServiceD0Ev
W _ZTv0_n12_N7android15BpCameraServiceD1Ev
W _ZTv0_n12_N7android6Camera13DeathNotifierD0Ev
W _ZTv0_n12_N7android6Camera13DeathNotifierD1Ev
T _ZTv0_n12_N7android6CameraD0Ev
T _ZTv0_n12_N7android6CameraD1Ev
U _ZTv0_n12_N7android7BBinderD0Ev
U _ZTv0_n12_N7android7BBinderD1Ev
W _ZTv0_n12_N7android7IBinder14DeathRecipientD0Ev
W _ZTv0_n12_N7android7IBinder14DeathRecipientD1Ev
U _ZTv0_n12_N7android7IBinderD0Ev
U _ZTv0_n12_N7android7IBinderD1Ev
T _ZTv0_n12_N7android7ICameraD0Ev
T _ZTv0_n12_N7android7ICameraD1Ev
W _ZTv0_n12_N7android8BnCameraD0Ev
W _ZTv0_n12_N7android8BnCameraD1Ev
W _ZTv0_n12_N7android8BpCameraD0Ev
W _ZTv0_n12_N7android8BpCameraD1Ev
U _ZTv0_n12_N7android9BpRefBaseD0Ev
U _ZTv0_n12_N7android9BpRefBaseD1Ev
U _ZTv0_n16_N7android9BpRefBase10onFirstRefEv
U _ZTv0_n20_N7android9BpRefBase15onLastStrongRefEPKv
U _ZTv0_n24_N7android9BpRefBase20onIncStrongAttemptedEjPKv
U _ZdlPv
U _Znwj
T __FINI_ARRAY__
T __INIT_ARRAY__
U __aeabi_atexit
U __aeabi_d2f
U __aeabi_f2d
U __aeabi_unwind_cpp_pr0
U __android_log_print
A __bss_end__
A __bss_start
A __bss_start__
U __cxa_finalize
U __cxa_pure_virtual
A __data_start
B __dso_handle
A __end__
A __exidx_end
A __exidx_start
U __stack_chk_fail
U __stack_chk_guard
A _bss_end__
A _edata
A _end
A _stack
U pthread_mutex_destroy
U pthread_mutex_init
U pthread_mutex_lock
U pthread_mutex_unlock
U snprintf
U sprintf
U strchr
U strcmp
U strtod
U strtol
U strzcmp16
U usleep
U write
