T HAL_getCameraInfo
T HAL_getNumberOfCameras
T HAL_openCameraHardware
T _ZN7android10FakeCamera10drawSquareEPtiiiii
T _ZN7android10FakeCamera16drawCheckerboardEPti
T _ZN7android10FakeCamera20getNextFrameAsRgb565EPt
T _ZN7android10FakeCamera20getNextFrameAsYuv420EPh
R _ZN7android10FakeCamera4kRedE
R _ZN7android10FakeCamera5kBlueE
R _ZN7android10FakeCamera6kGreenE
T _ZN7android10FakeCamera7setSizeEii
T _ZN7android10FakeCameraC1Eii
T _ZN7android10FakeCameraC2Eii
T _ZN7android10FakeCameraD1Ev
T _ZN7android10FakeCameraD2Ev
U _ZN7android10IInterface8asBinderEv
U _ZN7android10IInterfaceD0Ev
U _ZN7android10IInterfaceD1Ev
U _ZN7android10MemoryBaseC1ERKNS_2spINS_11IMemoryHeapEEElj
U _ZN7android10VectorImpl13finish_vectorEv
U _ZN7android10VectorImpl19reservedVectorImpl1Ev
U _ZN7android10VectorImpl19reservedVectorImpl2Ev
U _ZN7android10VectorImpl19reservedVectorImpl3Ev
U _ZN7android10VectorImpl19reservedVectorImpl4Ev
U _ZN7android10VectorImpl19reservedVectorImpl5Ev
U _ZN7android10VectorImpl19reservedVectorImpl6Ev
U _ZN7android10VectorImpl19reservedVectorImpl7Ev
U _ZN7android10VectorImpl19reservedVectorImpl8Ev
U _ZN7android10VectorImplC2ERKS0_
U _ZN7android11AudioSystem20getStreamVolumeIndexENS0_11stream_typeEPi
W _ZN7android11BnInterfaceINS_14ICameraServiceEE10onAsBinderEv
W _ZN7android11BnInterfaceINS_7ICameraEE10onAsBinderEv
U _ZN7android11MediaPlayer10disconnectEv
U _ZN7android11MediaPlayer13setDataSourceEPKcPKNS_11KeyedVectorINS_7String8ES4_EE
U _ZN7android11MediaPlayer18setAudioStreamTypeEi
U _ZN7android11MediaPlayer5startEv
U _ZN7android11MediaPlayer6seekToEi
U _ZN7android11MediaPlayer7prepareEv
U _ZN7android11MediaPlayerC1Ev
W _ZN7android12compare_typeINS_16key_value_pair_tINS_7String8ES2_EEEEiRKT_S6_
T _ZN7android13CameraService10onTransactEjRKNS_6ParcelEPS1_j
T _ZN7android13CameraService12releaseSoundEv
T _ZN7android13CameraService12removeClientERKNS_2spINS_13ICameraClientEEE
T _ZN7android13CameraService13getCameraInfoEiPNS_10CameraInfoE
T _ZN7android13CameraService13getClientByIdEi
T _ZN7android13CameraService13setCameraBusyEi
T _ZN7android13CameraService13setCameraFreeEi
T _ZN7android13CameraService18getNumberOfCamerasEv
T _ZN7android13CameraService4dumpEiRKNS_6VectorINS_8String16EEE
T _ZN7android13CameraService6Client10disconnectEv
T _ZN7android13CameraService6Client10setOverlayEv
T _ZN7android13CameraService6Client11sendCommandEiii
T _ZN7android13CameraService6Client11stopPreviewEv
T _ZN7android13CameraService6Client11takePictureEv
T _ZN7android13CameraService6Client12dataCallbackEiRKNS_2spINS_7IMemoryEEEPv
T _ZN7android13CameraService6Client12startPreviewEv
T _ZN7android13CameraService6Client13enableMsgTypeEi
T _ZN7android13CameraService6Client13handleShutterEPNS_17image_rect_structE
T _ZN7android13CameraService6Client13setParametersERKNS_7String8E
T _ZN7android13CameraService6Client13stopRecordingEv
T _ZN7android13CameraService6Client14disableMsgTypeEi
T _ZN7android13CameraService6Client14getOrientationEib
T _ZN7android13CameraService6Client14handlePostviewERKNS_2spINS_7IMemoryEEE
T _ZN7android13CameraService6Client14notifyCallbackEiiiPv
T _ZN7android13CameraService6Client14previewEnabledEv
T _ZN7android13CameraService6Client14startRecordingEv
T _ZN7android13CameraService6Client15cancelAutoFocusEv
T _ZN7android13CameraService6Client15startCameraModeENS1_11camera_modeE
T _ZN7android13CameraService6Client16handleRawPictureERKNS_2spINS_7IMemoryEEE
T _ZN7android13CameraService6Client16recordingEnabledEv
T _ZN7android13CameraService6Client16startPreviewModeEv
T _ZN7android13CameraService6Client17handleGenericDataEiRKNS_2spINS_7IMemoryEEE
T _ZN7android13CameraService6Client17handlePreviewDataERKNS_2spINS_7IMemoryEEE
T _ZN7android13CameraService6Client17setPreviewDisplayERKNS_2spINS_8ISurfaceEEE
T _ZN7android13CameraService6Client18startRecordingModeEv
T _ZN7android13CameraService6Client19getClientFromCookieEPv
T _ZN7android13CameraService6Client19handleGenericNotifyEiii
T _ZN7android13CameraService6Client19lockIfMessageWantedEi
T _ZN7android13CameraService6Client21dataCallbackTimestampExiRKNS_2spINS_7IMemoryEEEPv
T _ZN7android13CameraService6Client21releaseRecordingFrameERKNS_2spINS_7IMemoryEEE
T _ZN7android13CameraService6Client22registerPreviewBuffersEv
T _ZN7android13CameraService6Client22setPreviewCallbackFlagEi
T _ZN7android13CameraService6Client23handleCompressedPictureERKNS_2spINS_7IMemoryEEE
T _ZN7android13CameraService6Client26handleGenericDataTimestampExiRKNS_2spINS_7IMemoryEEE
T _ZN7android13CameraService6Client27copyFrameAndPostCopiedFrameERKNS_2spINS_13ICameraClientEEERKNS2_INS_11IMemoryHeapEEEjj
T _ZN7android13CameraService6Client4lockEv
T _ZN7android13CameraService6Client6unlockEv
T _ZN7android13CameraService6Client7connectERKNS_2spINS_13ICameraClientEEE
T _ZN7android13CameraService6Client9autoFocusEv
T _ZN7android13CameraService6ClientC1ERKNS_2spIS0_EERKNS2_INS_13ICameraClientEEERKNS2_INS_23CameraHardwareInterfaceEEEiii
T _ZN7android13CameraService6ClientC2ERKNS_2spIS0_EERKNS2_INS_13ICameraClientEEERKNS2_INS_23CameraHardwareInterfaceEEEiii
T _ZN7android13CameraService6ClientD0Ev
T _ZN7android13CameraService6ClientD1Ev
T _ZN7android13CameraService6ClientD2Ev
T _ZN7android13CameraService7connectERKNS_2spINS_13ICameraClientEEEi
T _ZN7android13CameraService9loadSoundEv
T _ZN7android13CameraService9playSoundENS0_10sound_kindE
T _ZN7android13CameraServiceC1Ev
T _ZN7android13CameraServiceC2Ev
T _ZN7android13CameraServiceD0Ev
T _ZN7android13CameraServiceD1Ev
T _ZN7android13CameraServiceD2Ev
U _ZN7android14ICameraService10descriptorE
U _ZN7android14ICameraServiceC2Ev
U _ZN7android14ICameraServiceD0Ev
U _ZN7android14ICameraServiceD1Ev
U _ZN7android14ICameraServiceD2Ev
U _ZN7android14IPCThreadState13flushCommandsEv
U _ZN7android14IPCThreadState13getCallingPidEv
U _ZN7android14IPCThreadState13getCallingUidEv
U _ZN7android14IPCThreadState4selfEv
U _ZN7android14MemoryHeapBaseC1EjjPKc
U _ZN7android15BnCameraService10onTransactEjRKNS_6ParcelEPS1_j
U _ZN7android16CameraParameters14setPictureSizeEii
U _ZN7android16CameraParameters14setPreviewSizeEii
U _ZN7android16CameraParameters16setPictureFormatEPKc
U _ZN7android16CameraParameters16setPreviewFormatEPKc
U _ZN7android16CameraParameters17PIXEL_FORMAT_JPEGE
U _ZN7android16CameraParameters19setPreviewFrameRateEi
U _ZN7android16CameraParameters21PIXEL_FORMAT_YUV420SPE
U _ZN7android16CameraParameters27KEY_SUPPORTED_PICTURE_SIZESE
U _ZN7android16CameraParameters27KEY_SUPPORTED_PREVIEW_SIZESE
U _ZN7android16CameraParameters3setEPKcS2_
U _ZN7android16CameraParameters9unflattenERKNS_7String8E
U _ZN7android16CameraParametersC1Ev
U _ZN7android16CameraParametersD1Ev
U _ZN7android16SortedVectorImpl25reservedSortedVectorImpl1Ev
U _ZN7android16SortedVectorImpl25reservedSortedVectorImpl2Ev
U _ZN7android16SortedVectorImpl25reservedSortedVectorImpl3Ev
U _ZN7android16SortedVectorImpl25reservedSortedVectorImpl4Ev
U _ZN7android16SortedVectorImpl25reservedSortedVectorImpl5Ev
U _ZN7android16SortedVectorImpl25reservedSortedVectorImpl6Ev
U _ZN7android16SortedVectorImpl25reservedSortedVectorImpl7Ev
U _ZN7android16SortedVectorImpl25reservedSortedVectorImpl8Ev
U _ZN7android16SortedVectorImplC2Ejj
U _ZN7android16SortedVectorImplD2Ev
U _ZN7android16SortedVectorImplaSERKS0_
W _ZN7android17move_forward_typeINS_16key_value_pair_tINS_7String8ES2_EEEEvPT_PKS4_j
T _ZN7android18CameraHardwareStub11sendCommandEiii
T _ZN7android18CameraHardwareStub11stopPreviewEv
T _ZN7android18CameraHardwareStub11takePictureEv
T _ZN7android18CameraHardwareStub12setCallbacksEPFviiiPvEPFviRKNS_2spINS_7IMemoryEEES1_EPFvxiS8_S1_ES1_
T _ZN7android18CameraHardwareStub12startPreviewEv
T _ZN7android18CameraHardwareStub13cancelPictureEv
T _ZN7android18CameraHardwareStub13enableMsgTypeEi
T _ZN7android18CameraHardwareStub13pictureThreadEv
T _ZN7android18CameraHardwareStub13previewThreadEv
T _ZN7android18CameraHardwareStub13setParametersERKNS_16CameraParametersE
T _ZN7android18CameraHardwareStub13stopRecordingEv
T _ZN7android18CameraHardwareStub14createInstanceEv
T _ZN7android18CameraHardwareStub14disableMsgTypeEi
T _ZN7android18CameraHardwareStub14initHeapLockedEv
T _ZN7android18CameraHardwareStub14msgTypeEnabledEi
T _ZN7android18CameraHardwareStub14previewEnabledEv
T _ZN7android18CameraHardwareStub14startRecordingEv
T _ZN7android18CameraHardwareStub15autoFocusThreadEv
T _ZN7android18CameraHardwareStub15cancelAutoFocusEv
T _ZN7android18CameraHardwareStub16recordingEnabledEv
T _ZN7android18CameraHardwareStub18beginPictureThreadEPv
T _ZN7android18CameraHardwareStub20beginAutoFocusThreadEPv
T _ZN7android18CameraHardwareStub21initDefaultParametersEv
T _ZN7android18CameraHardwareStub21releaseRecordingFrameERKNS_2spINS_7IMemoryEEE
T _ZN7android18CameraHardwareStub7releaseEv
T _ZN7android18CameraHardwareStub9autoFocusEv
T _ZN7android18CameraHardwareStubC1Ev
T _ZN7android18CameraHardwareStubC2Ev
T _ZN7android18CameraHardwareStubD0Ev
T _ZN7android18CameraHardwareStubD1Ev
T _ZN7android18CameraHardwareStubD2Ev
W _ZN7android18move_backward_typeINS_16key_value_pair_tINS_7String8ES2_EEEEvPT_PKS4_j
U _ZN7android22checkCallingPermissionERKNS_8String16E
T _ZN7android24ccrgb16toyuv_wo_colorkeyEPhS0_PjPS0_
W _ZN7android2spINS_10MemoryBaseEED1Ev
W _ZN7android2spINS_10MemoryBaseEEaSEPS1_
W _ZN7android2spINS_10OverlayRefEEaSERKS2_
W _ZN7android2spINS_11IMemoryHeapEEC1INS_14MemoryHeapBaseEEERKNS0_IT_EE
W _ZN7android2spINS_11IMemoryHeapEED1Ev
W _ZN7android2spINS_11MediaPlayerEEaSEPS1_
W _ZN7android2spINS_13CameraService6ClientEED1Ev
W _ZN7android2spINS_13CameraService6ClientEEaSEPS2_
W _ZN7android2spINS_13CameraService6ClientEEaSERKS3_
W _ZN7android2spINS_13CameraServiceEEaSERKS2_
W _ZN7android2spINS_13ICameraClientEEC1ERKS2_
W _ZN7android2spINS_13ICameraClientEED1Ev
W _ZN7android2spINS_13ICameraClientEEaSERKS2_
W _ZN7android2spINS_14MemoryHeapBaseEEC1EPS1_
W _ZN7android2spINS_14MemoryHeapBaseEED1Ev
W _ZN7android2spINS_14MemoryHeapBaseEEaSEPS1_
W _ZN7android2spINS_14MemoryHeapBaseEEaSERKS2_
W _ZN7android2spINS_18CameraHardwareStub13PreviewThreadEEaSEPS2_
W _ZN7android2spINS_18CameraHardwareStub13PreviewThreadEEaSERKS3_
W _ZN7android2spINS_23CameraHardwareInterfaceEEaSERKS2_
W _ZN7android2spINS_7IBinderEED1Ev
W _ZN7android2spINS_7OverlayEED1Ev
W _ZN7android2spINS_8ISurfaceEEaSERKS2_
W _ZN7android2wpINS_13CameraService6ClientEEaSERKNS_2spIS2_EE
U _ZN7android6Thread10readyToRunEv
U _ZN7android6Thread11requestExitEv
U _ZN7android6Thread18requestExitAndWaitEv
U _ZN7android6Thread3runEPKcij
U _ZN7android6ThreadC2Eb
U _ZN7android6ThreadD0Ev
U _ZN7android6ThreadD1Ev
U _ZN7android6ThreadD2Ev
U _ZN7android7BBinder10onTransactEjRKNS_6ParcelEPS1_j
U _ZN7android7BBinder10pingBinderEv
U _ZN7android7BBinder11linkToDeathERKNS_2spINS_7IBinder14DeathRecipientEEEPvj
U _ZN7android7BBinder11localBinderEv
U _ZN7android7BBinder12attachObjectEPKvPvS3_PFvS2_S3_S3_E
U _ZN7android7BBinder12detachObjectEPKv
U _ZN7android7BBinder13unlinkToDeathERKNS_2wpINS_7IBinder14DeathRecipientEEEPvjPS4_
U _ZN7android7BBinder4dumpEiRKNS_6VectorINS_8String16EEE
U _ZN7android7BBinder8transactEjRKNS_6ParcelEPS1_j
U _ZN7android7BBinderC2Ev
U _ZN7android7BBinderD0Ev
U _ZN7android7BBinderD1Ev
U _ZN7android7BBinderD2Ev
U _ZN7android7IBinder11localBinderEv
U _ZN7android7IBinder12remoteBinderEv
U _ZN7android7IBinder19queryLocalInterfaceERKNS_8String16E
U _ZN7android7IBinderD0Ev
U _ZN7android7IBinderD1Ev
U _ZN7android7ICamera10descriptorE
U _ZN7android7ICameraC2Ev
U _ZN7android7ICameraD0Ev
U _ZN7android7ICameraD1Ev
U _ZN7android7ICameraD2Ev
U _ZN7android7OverlayC1ERKNS_2spINS_10OverlayRefEEE
U _ZN7android7RefBase10onFirstRefEv
U _ZN7android7RefBase12weakref_type16attemptIncStrongEPKv
U _ZN7android7RefBase12weakref_type7decWeakEPKv
U _ZN7android7RefBase13onLastWeakRefEPKv
U _ZN7android7RefBase15onLastStrongRefEPKv
U _ZN7android7RefBase20onIncStrongAttemptedEjPKv
U _ZN7android7RefBaseC2Ev
U _ZN7android7RefBaseD2Ev
U _ZN7android7String85setToERKS0_
U _ZN7android7String86appendEPKc
U _ZN7android7String8C1EPKc
U _ZN7android7String8C1ERKNS_8String16E
U _ZN7android7String8C1ERKS0_
U _ZN7android7String8C1Ev
U _ZN7android7String8D1Ev
B _ZN7android7gYTableE
U _ZN7android8BnCamera10onTransactEjRKNS_6ParcelEPS1_j
U _ZN7android8ISurface10BufferHeapC1EjjiiijjRKNS_2spINS_11IMemoryHeapEEE
U _ZN7android8ISurface10BufferHeapD1Ev
U _ZN7android8String16C1EPKc
U _ZN7android8String16D1Ev
B _ZN7android8gCbTableE
B _ZN7android8gCrTableE
T _ZNK7android10FakeCamera4dumpEi
W _ZNK7android12SortedVectorINS_16key_value_pair_tINS_7String8ES2_EEE10do_compareEPKvS6_
W _ZNK7android12SortedVectorINS_16key_value_pair_tINS_7String8ES2_EEE10do_destroyEPvj
W _ZNK7android12SortedVectorINS_16key_value_pair_tINS_7String8ES2_EEE12do_constructEPvj
W _ZNK7android12SortedVectorINS_16key_value_pair_tINS_7String8ES2_EEE15do_move_forwardEPvPKvj
W _ZNK7android12SortedVectorINS_16key_value_pair_tINS_7String8ES2_EEE16do_move_backwardEPvPKvj
W _ZNK7android12SortedVectorINS_16key_value_pair_tINS_7String8ES2_EEE7do_copyEPvPKvj
W _ZNK7android12SortedVectorINS_16key_value_pair_tINS_7String8ES2_EEE8do_splatEPvPKvj
T _ZNK7android13CameraService6Client13getParametersEv
T _ZNK7android13CameraService6Client19checkPidAndHardwareEv
T _ZNK7android13CameraService6Client8checkPidEv
U _ZNK7android14ICameraService22getInterfaceDescriptorEv
U _ZNK7android16CameraParameters14getPictureSizeEPiS1_
U _ZNK7android16CameraParameters14getPreviewSizeEPiS1_
U _ZNK7android16CameraParameters16getPictureFormatEv
U _ZNK7android16CameraParameters16getPreviewFormatEv
U _ZNK7android16CameraParameters19getPreviewFrameRateEv
U _ZNK7android16CameraParameters4dumpEiRKNS_6VectorINS_8String16EEE
U _ZNK7android16CameraParameters7flattenEv
T _ZNK7android18CameraHardwareStub10getRawHeapEv
T _ZNK7android18CameraHardwareStub13getParametersEv
T _ZNK7android18CameraHardwareStub14getPreviewHeapEv
T _ZNK7android18CameraHardwareStub4dumpEiRKNS_6VectorINS_8String16EEE
W _ZNK7android2wpINS_13CameraService6ClientEE7promoteEv
U _ZNK7android7BBinder10findObjectEPKv
U _ZNK7android7BBinder13isBinderAliveEv
U _ZNK7android7BBinder22getInterfaceDescriptorEv
U _ZNK7android7IBinder13checkSubclassEPKv
U _ZNK7android7ICamera22getInterfaceDescriptorEv
U _ZNK7android7RefBase10createWeakEPKv
U _ZNK7android7RefBase9decStrongEPKv
U _ZNK7android7RefBase9incStrongEPKv
V _ZTCN7android11BnInterfaceINS_14ICameraServiceEEE0_NS_10IInterfaceE
V _ZTCN7android11BnInterfaceINS_14ICameraServiceEEE0_S1_
V _ZTCN7android11BnInterfaceINS_14ICameraServiceEEE4_NS_7BBinderE
V _ZTCN7android11BnInterfaceINS_14ICameraServiceEEE4_NS_7IBinderE
V _ZTCN7android11BnInterfaceINS_7ICameraEEE0_NS_10IInterfaceE
V _ZTCN7android11BnInterfaceINS_7ICameraEEE0_S1_
V _ZTCN7android11BnInterfaceINS_7ICameraEEE4_NS_7BBinderE
V _ZTCN7android11BnInterfaceINS_7ICameraEEE4_NS_7IBinderE
D _ZTCN7android13CameraService6ClientE0_NS_10IInterfaceE
D _ZTCN7android13CameraService6ClientE0_NS_11BnInterfaceINS_7ICameraEEE
D _ZTCN7android13CameraService6ClientE0_NS_7ICameraE
D _ZTCN7android13CameraService6ClientE0_NS_8BnCameraE
D _ZTCN7android13CameraService6ClientE4_NS_7BBinderE
D _ZTCN7android13CameraService6ClientE4_NS_7IBinderE
D _ZTCN7android13CameraServiceE0_NS_10IInterfaceE
D _ZTCN7android13CameraServiceE0_NS_11BnInterfaceINS_14ICameraServiceEEE
D _ZTCN7android13CameraServiceE0_NS_14ICameraServiceE
D _ZTCN7android13CameraServiceE0_NS_15BnCameraServiceE
D _ZTCN7android13CameraServiceE4_NS_7BBinderE
D _ZTCN7android13CameraServiceE4_NS_7IBinderE
V _ZTCN7android18CameraHardwareStub13PreviewThreadE0_NS_6ThreadE
D _ZTCN7android18CameraHardwareStubE0_NS_23CameraHardwareInterfaceE
V _ZTTN7android11BnInterfaceINS_14ICameraServiceEEE
V _ZTTN7android11BnInterfaceINS_7ICameraEEE
D _ZTTN7android13CameraService6ClientE
D _ZTTN7android13CameraServiceE
U _ZTTN7android15BnCameraServiceE
V _ZTTN7android18CameraHardwareStub13PreviewThreadE
D _ZTTN7android18CameraHardwareStubE
V _ZTTN7android23CameraHardwareInterfaceE
U _ZTTN7android8BnCameraE
V _ZTVN7android11BnInterfaceINS_14ICameraServiceEEE
V _ZTVN7android11BnInterfaceINS_7ICameraEEE
V _ZTVN7android12SortedVectorINS_16key_value_pair_tINS_7String8ES2_EEEE
D _ZTVN7android13CameraService6ClientE
D _ZTVN7android13CameraServiceE
U _ZTVN7android15BnCameraServiceE
V _ZTVN7android18CameraHardwareStub13PreviewThreadE
D _ZTVN7android18CameraHardwareStubE
V _ZTVN7android23CameraHardwareInterfaceE
U _ZTVN7android8BnCameraE
T _ZThn4_N7android13CameraService10onTransactEjRKNS_6ParcelEPS1_j
T _ZThn4_N7android13CameraService4dumpEiRKNS_6VectorINS_8String16EEE
T _ZThn4_N7android13CameraService6ClientD0Ev
T _ZThn4_N7android13CameraService6ClientD1Ev
T _ZThn4_N7android13CameraServiceD0Ev
T _ZThn4_N7android13CameraServiceD1Ev
U _ZThn4_N7android15BnCameraService10onTransactEjRKNS_6ParcelEPS1_j
U _ZThn4_N7android8BnCamera10onTransactEjRKNS_6ParcelEPS1_j
U _ZTv0_n12_N7android10IInterfaceD0Ev
U _ZTv0_n12_N7android10IInterfaceD1Ev
W _ZTv0_n12_N7android11BnInterfaceINS_14ICameraServiceEED0Ev
W _ZTv0_n12_N7android11BnInterfaceINS_14ICameraServiceEED1Ev
W _ZTv0_n12_N7android11BnInterfaceINS_7ICameraEED0Ev
W _ZTv0_n12_N7android11BnInterfaceINS_7ICameraEED1Ev
T _ZTv0_n12_N7android13CameraService6ClientD0Ev
T _ZTv0_n12_N7android13CameraService6ClientD1Ev
T _ZTv0_n12_N7android13CameraServiceD0Ev
T _ZTv0_n12_N7android13CameraServiceD1Ev
U _ZTv0_n12_N7android14ICameraServiceD0Ev
U _ZTv0_n12_N7android14ICameraServiceD1Ev
W _ZTv0_n12_N7android15BnCameraServiceD0Ev
W _ZTv0_n12_N7android15BnCameraServiceD1Ev
W _ZTv0_n12_N7android18CameraHardwareStub13PreviewThreadD0Ev
W _ZTv0_n12_N7android18CameraHardwareStub13PreviewThreadD1Ev
T _ZTv0_n12_N7android18CameraHardwareStubD0Ev
T _ZTv0_n12_N7android18CameraHardwareStubD1Ev
W _ZTv0_n12_N7android23CameraHardwareInterfaceD0Ev
W _ZTv0_n12_N7android23CameraHardwareInterfaceD1Ev
U _ZTv0_n12_N7android6ThreadD0Ev
U _ZTv0_n12_N7android6ThreadD1Ev
U _ZTv0_n12_N7android7BBinderD0Ev
U _ZTv0_n12_N7android7BBinderD1Ev
U _ZTv0_n12_N7android7IBinderD0Ev
U _ZTv0_n12_N7android7IBinderD1Ev
U _ZTv0_n12_N7android7ICameraD0Ev
U _ZTv0_n12_N7android7ICameraD1Ev
W _ZTv0_n12_N7android8BnCameraD0Ev
W _ZTv0_n12_N7android8BnCameraD1Ev
W _ZTv0_n16_N7android18CameraHardwareStub13PreviewThread10onFirstRefEv
U _ZdaPv
U _ZdlPv
U _Znaj
U _Znwj
T __FINI_ARRAY__
T __INIT_ARRAY__
U __aeabi_d2iz
U __aeabi_dadd
U __aeabi_ddiv
U __aeabi_f2iz
U __aeabi_fdiv
U __aeabi_i2d
U __aeabi_i2f
U __aeabi_idiv
U __aeabi_idivmod
U __aeabi_unwind_cpp_pr0
U __android_log_print
A __bss_end__
A __bss_start
A __bss_start__
U __cxa_finalize
U __cxa_pure_virtual
A __data_start
B __dso_handle
A __end__
A __exidx_end
A __exidx_start
U __stack_chk_fail
U __stack_chk_guard
A _bss_end__
A _edata
A _end
A _stack
U androidCreateThread
U android_atomic_and
U android_atomic_dec
U android_atomic_inc
U android_atomic_or
U android_atomic_release_store
U atoi
U getpid
U malloc
U memcpy
U pthread_create
U pthread_join
U pthread_mutex_destroy
U pthread_mutex_init
U pthread_mutex_lock
U pthread_mutex_trylock
U pthread_mutex_unlock
U snprintf
U sprintf
U strcmp
U strzcmp16
U usleep
U write
