T GetAvailableImplementation
T GetImplementation
U _ZN7android10VectorImpl13finish_vectorEv
U _ZN7android10VectorImpl19reservedVectorImpl1Ev
U _ZN7android10VectorImpl19reservedVectorImpl2Ev
U _ZN7android10VectorImpl19reservedVectorImpl3Ev
U _ZN7android10VectorImpl19reservedVectorImpl4Ev
U _ZN7android10VectorImpl19reservedVectorImpl5Ev
U _ZN7android10VectorImpl19reservedVectorImpl6Ev
U _ZN7android10VectorImpl19reservedVectorImpl7Ev
U _ZN7android10VectorImpl19reservedVectorImpl8Ev
U _ZN7android10VectorImpl4pushEPKv
U _ZN7android10VectorImplC2Ejj
U _ZN7android10VectorImplD2Ev
T _ZN7android12EmojiFactory17GetImplementationEPKc
T _ZN7android12EmojiFactory26GetAvailableImplementationEv
T _ZN7android19EmojiFactoryManager23TryRegisterEmojiFactoryEPKc
T _ZN7android19EmojiFactoryManager4InitEv
T _ZN7android19EmojiFactoryManagerD0Ev
T _ZN7android19EmojiFactoryManagerD1Ev
T _ZN7android19EmojiFactoryManagerD2Ev
W _ZNK7android6VectorIPNS_12EmojiFactoryEE10do_destroyEPvj
W _ZNK7android6VectorIPNS_12EmojiFactoryEE12do_constructEPvj
W _ZNK7android6VectorIPNS_12EmojiFactoryEE15do_move_forwardEPvPKvj
W _ZNK7android6VectorIPNS_12EmojiFactoryEE16do_move_backwardEPvPKvj
W _ZNK7android6VectorIPNS_12EmojiFactoryEE7do_copyEPvPKvj
W _ZNK7android6VectorIPNS_12EmojiFactoryEE8do_splatEPvPKvj
W _ZNK7android6VectorIPvE10do_destroyES1_j
W _ZNK7android6VectorIPvE12do_constructES1_j
W _ZNK7android6VectorIPvE15do_move_forwardES1_PKvj
W _ZNK7android6VectorIPvE16do_move_backwardES1_PKvj
W _ZNK7android6VectorIPvE7do_copyES1_PKvj
W _ZNK7android6VectorIPvE8do_splatES1_PKvj
D _ZTVN7android19EmojiFactoryManagerE
V _ZTVN7android6VectorIPNS_12EmojiFactoryEEE
V _ZTVN7android6VectorIPvEE
U _ZdaPv
U _ZdlPv
U _Znaj
U _Znwj
T __FINI_ARRAY__
T __INIT_ARRAY__
U __aeabi_atexit
U __aeabi_unwind_cpp_pr0
U __android_log_print
A __bss_end__
A __bss_start
A __bss_start__
U __cxa_finalize
A __data_start
B __dso_handle
A __end__
A __exidx_end
A __exidx_start
A _bss_end__
A _edata
A _end
A _stack
U dlclose
U dlerror
U dlopen
U dlsym
U memcpy
U memmove
U property_get
U pthread_once
U strcmp
U strtok_r
