V _ZGVN7android9SingletonINS_13SensorManagerEE5sLockE
U _ZN7android10IInterface8asBinderEv
U _ZN7android10IInterfaceC2Ev
U _ZN7android10IInterfaceD0Ev
U _ZN7android10IInterfaceD1Ev
U _ZN7android10IInterfaceD2Ev
U _ZN7android10VectorImpl11setCapacityEj
U _ZN7android10VectorImpl13finish_vectorEv
U _ZN7android10VectorImpl19reservedVectorImpl1Ev
U _ZN7android10VectorImpl19reservedVectorImpl2Ev
U _ZN7android10VectorImpl19reservedVectorImpl3Ev
U _ZN7android10VectorImpl19reservedVectorImpl4Ev
U _ZN7android10VectorImpl19reservedVectorImpl5Ev
U _ZN7android10VectorImpl19reservedVectorImpl6Ev
U _ZN7android10VectorImpl19reservedVectorImpl7Ev
U _ZN7android10VectorImpl19reservedVectorImpl8Ev
U _ZN7android10VectorImpl3addEPKv
U _ZN7android10VectorImplC2Ejj
U _ZN7android10VectorImplD2Ev
U _ZN7android10VectorImplaSERKS0_
W _ZN7android10getServiceINS_13ISensorServerEEEiRKNS_8String16EPNS_2spIT_EE
W _ZN7android11BnInterfaceINS_13ISensorServerEE10onAsBinderEv
W _ZN7android11BnInterfaceINS_22ISensorEventConnectionEE10onAsBinderEv
U _ZN7android11FlattenableD2Ev
B _ZN7android13ISensorServer10descriptorE
T _ZN7android13ISensorServer11asInterfaceERKNS_2spINS_7IBinderEEE
T _ZN7android13ISensorServerC1Ev
T _ZN7android13ISensorServerC2Ev
T _ZN7android13ISensorServerD0Ev
T _ZN7android13ISensorServerD1Ev
T _ZN7android13ISensorServerD2Ev
T _ZN7android13SensorChannel4readEPvj
T _ZN7android13SensorChannel5writeEPKvj
T _ZN7android13SensorChannelC1ERKNS_6ParcelE
T _ZN7android13SensorChannelC1Ev
T _ZN7android13SensorChannelC2ERKNS_6ParcelE
T _ZN7android13SensorChannelC2Ev
T _ZN7android13SensorChannelD0Ev
T _ZN7android13SensorChannelD1Ev
T _ZN7android13SensorChannelD2Ev
T _ZN7android13SensorManager16createEventQueueEv
T _ZN7android13SensorManager16getDefaultSensorEi
T _ZN7android13SensorManagerC1Ev
T _ZN7android13SensorManagerC2Ev
T _ZN7android13SensorManagerD1Ev
T _ZN7android13SensorManagerD2Ev
T _ZN7android14BnSensorServer10onTransactEjRKNS_6ParcelEPS1_j
T _ZN7android16SensorEventQueue10onFirstRefEv
T _ZN7android16SensorEventQueue4readEP12ASensorEventj
T _ZN7android16SensorEventQueue5writeEPK12ASensorEventj
T _ZN7android16SensorEventQueueC1ERKNS_2spINS_22ISensorEventConnectionEEE
T _ZN7android16SensorEventQueueC2ERKNS_2spINS_22ISensorEventConnectionEEE
T _ZN7android16SensorEventQueueD0Ev
T _ZN7android16SensorEventQueueD1Ev
T _ZN7android16SensorEventQueueD2Ev
W _ZN7android17move_forward_typeINS_6SensorEEEvPT_PKS2_j
W _ZN7android18move_backward_typeINS_6SensorEEEvPT_PKS2_j
U _ZN7android21defaultServiceManagerEv
B _ZN7android22ISensorEventConnection10descriptorE
T _ZN7android22ISensorEventConnection11asInterfaceERKNS_2spINS_7IBinderEEE
T _ZN7android22ISensorEventConnectionC1Ev
T _ZN7android22ISensorEventConnectionC2Ev
T _ZN7android22ISensorEventConnectionD0Ev
T _ZN7android22ISensorEventConnectionD1Ev
T _ZN7android22ISensorEventConnectionD2Ev
T _ZN7android23BnSensorEventConnection10onTransactEjRKNS_6ParcelEPS1_j
W _ZN7android2spINS_13ISensorServerEEaSEPS1_
W _ZN7android2spINS_13ISensorServerEEaSERKS2_
W _ZN7android2spINS_13ISensorServerEEaSINS_14BpSensorServerEEERS2_PT_
W _ZN7android2spINS_13SensorChannelEEaSERKS2_
W _ZN7android2spINS_22ISensorEventConnectionEEaSEPS1_
W _ZN7android2spINS_22ISensorEventConnectionEEaSINS_23BpSensorEventConnectionEEERS2_PT_
W _ZN7android2spINS_6LooperEEaSEPS1_
U _ZN7android6Looper4wakeEv
U _ZN7android6Looper5addFdEiiiPFiiiPvES1_
U _ZN7android6Looper8pollOnceEiPiS1_PPv
U _ZN7android6LooperC1Eb
U _ZN7android6Parcel10writeInt32Ei
U _ZN7android6Parcel10writeInt64Ex
U _ZN7android6Parcel17writeStrongBinderERKNS_2spINS_7IBinderEEE
U _ZN7android6Parcel19writeInterfaceTokenERKNS_8String16E
U _ZN7android6Parcel22writeDupFileDescriptorEi
U _ZN7android6Parcel5writeERKNS_11FlattenableE
U _ZN7android6ParcelC1Ev
U _ZN7android6ParcelD1Ev
T _ZN7android6Sensor9unflattenEPKvjPij
T _ZN7android6SensorC1EPK8sensor_t
T _ZN7android6SensorC1Ev
T _ZN7android6SensorC2EPK8sensor_t
T _ZN7android6SensorC2Ev
T _ZN7android6SensorD0Ev
T _ZN7android6SensorD1Ev
T _ZN7android6SensorD2Ev
U _ZN7android7BBinder10onTransactEjRKNS_6ParcelEPS1_j
U _ZN7android7BBinder10pingBinderEv
U _ZN7android7BBinder11linkToDeathERKNS_2spINS_7IBinder14DeathRecipientEEEPvj
U _ZN7android7BBinder11localBinderEv
U _ZN7android7BBinder12attachObjectEPKvPvS3_PFvS2_S3_S3_E
U _ZN7android7BBinder12detachObjectEPKv
U _ZN7android7BBinder13unlinkToDeathERKNS_2wpINS_7IBinder14DeathRecipientEEEPvjPS4_
U _ZN7android7BBinder4dumpEiRKNS_6VectorINS_8String16EEE
U _ZN7android7BBinder8transactEjRKNS_6ParcelEPS1_j
U _ZN7android7BBinderD0Ev
U _ZN7android7BBinderD1Ev
U _ZN7android7BBinderD2Ev
U _ZN7android7IBinder11localBinderEv
U _ZN7android7IBinder12remoteBinderEv
U _ZN7android7IBinder19queryLocalInterfaceERKNS_8String16E
U _ZN7android7IBinderD0Ev
U _ZN7android7IBinderD1Ev
U _ZN7android7RefBase10onFirstRefEv
U _ZN7android7RefBase13onLastWeakRefEPKv
U _ZN7android7RefBase15onLastStrongRefEPKv
U _ZN7android7RefBase20onIncStrongAttemptedEjPKv
U _ZN7android7RefBaseC2Ev
U _ZN7android7RefBaseD2Ev
U _ZN7android7String85setToEPKc
U _ZN7android7String85setToEPKcj
U _ZN7android7String8C1ERKS0_
U _ZN7android7String8C1Ev
U _ZN7android7String8D1Ev
U _ZN7android8String16C1EPKc
U _ZN7android8String16D1Ev
U _ZN7android9BpRefBase10onFirstRefEv
U _ZN7android9BpRefBase15onLastStrongRefEPKv
U _ZN7android9BpRefBase20onIncStrongAttemptedEjPKv
U _ZN7android9BpRefBaseC2ERKNS_2spINS_7IBinderEEE
U _ZN7android9BpRefBaseD0Ev
U _ZN7android9BpRefBaseD1Ev
U _ZN7android9BpRefBaseD2Ev
W _ZN7android9SingletonINS_13SensorManagerEE11getInstanceEv
V _ZN7android9SingletonINS_13SensorManagerEE5sLockE
V _ZN7android9SingletonINS_13SensorManagerEE9sInstanceE
W _ZN7android9SingletonINS_13SensorManagerEEC1Ev
W _ZN7android9SingletonINS_13SensorManagerEEC2Ev
W _ZN7android9SingletonINS_13SensorManagerEED1Ev
W _ZN7android9SingletonINS_13SensorManagerEED2Ev
T _ZNK7android13ISensorServer22getInterfaceDescriptorEv
T _ZNK7android13SensorChannel13writeToParcelEPNS_6ParcelE
T _ZNK7android13SensorChannel5getFdEv
T _ZNK7android13SensorManager13getSensorListEPPKPKNS_6SensorE
T _ZNK7android16SensorEventQueue12enableSensorEPKNS_6SensorE
T _ZNK7android16SensorEventQueue12enableSensorEii
T _ZNK7android16SensorEventQueue12setEventRateEPKNS_6SensorEx
T _ZNK7android16SensorEventQueue12waitForEventEv
T _ZNK7android16SensorEventQueue13disableSensorEPKNS_6SensorE
T _ZNK7android16SensorEventQueue13disableSensorEi
T _ZNK7android16SensorEventQueue4wakeEv
T _ZNK7android16SensorEventQueue5getFdEv
T _ZNK7android16SensorEventQueue9getLooperEv
T _ZNK7android22ISensorEventConnection22getInterfaceDescriptorEv
U _ZNK7android6Parcel14checkInterfaceEPNS_7IBinderE
U _ZNK7android6Parcel16readStrongBinderEv
U _ZNK7android6Parcel18readFileDescriptorEv
U _ZNK7android6Parcel4readERNS_11FlattenableE
U _ZNK7android6Parcel9readInt32Ev
U _ZNK7android6Parcel9readInt64Ev
T _ZNK7android6Sensor10getFdCountEv
T _ZNK7android6Sensor11getMaxValueEv
T _ZNK7android6Sensor11getMinDelayEv
T _ZNK7android6Sensor11getMinValueEv
T _ZNK7android6Sensor13getPowerUsageEv
T _ZNK7android6Sensor13getResolutionEv
T _ZNK7android6Sensor16getFlattenedSizeEv
T _ZNK7android6Sensor7flattenEPvjPij
T _ZNK7android6Sensor7getNameEv
T _ZNK7android6Sensor7getTypeEv
T _ZNK7android6Sensor9getHandleEv
T _ZNK7android6Sensor9getVendorEv
W _ZNK7android6VectorINS_6SensorEE10do_destroyEPvj
W _ZNK7android6VectorINS_6SensorEE12do_constructEPvj
W _ZNK7android6VectorINS_6SensorEE15do_move_forwardEPvPKvj
W _ZNK7android6VectorINS_6SensorEE16do_move_backwardEPvPKvj
W _ZNK7android6VectorINS_6SensorEE7do_copyEPvPKvj
W _ZNK7android6VectorINS_6SensorEE8do_splatEPvPKvj
U _ZNK7android7BBinder10findObjectEPKv
U _ZNK7android7BBinder13isBinderAliveEv
U _ZNK7android7BBinder22getInterfaceDescriptorEv
U _ZNK7android7IBinder13checkSubclassEPKv
U _ZNK7android7RefBase9decStrongEPKv
U _ZNK7android7RefBase9incStrongEPKv
V _ZTCN7android11BnInterfaceINS_13ISensorServerEEE0_NS_10IInterfaceE
V _ZTCN7android11BnInterfaceINS_13ISensorServerEEE0_S1_
V _ZTCN7android11BnInterfaceINS_13ISensorServerEEE4_NS_7BBinderE
V _ZTCN7android11BnInterfaceINS_13ISensorServerEEE4_NS_7IBinderE
V _ZTCN7android11BnInterfaceINS_22ISensorEventConnectionEEE0_NS_10IInterfaceE
V _ZTCN7android11BnInterfaceINS_22ISensorEventConnectionEEE0_S1_
V _ZTCN7android11BnInterfaceINS_22ISensorEventConnectionEEE4_NS_7BBinderE
V _ZTCN7android11BnInterfaceINS_22ISensorEventConnectionEEE4_NS_7IBinderE
V _ZTCN7android11BpInterfaceINS_13ISensorServerEEE0_NS_10IInterfaceE
V _ZTCN7android11BpInterfaceINS_13ISensorServerEEE0_S1_
V _ZTCN7android11BpInterfaceINS_13ISensorServerEEE4_NS_9BpRefBaseE
V _ZTCN7android11BpInterfaceINS_22ISensorEventConnectionEEE0_NS_10IInterfaceE
V _ZTCN7android11BpInterfaceINS_22ISensorEventConnectionEEE0_S1_
V _ZTCN7android11BpInterfaceINS_22ISensorEventConnectionEEE4_NS_9BpRefBaseE
D _ZTCN7android13ISensorServerE0_NS_10IInterfaceE
D _ZTCN7android14BnSensorServerE0_NS_10IInterfaceE
D _ZTCN7android14BnSensorServerE0_NS_11BnInterfaceINS_13ISensorServerEEE
D _ZTCN7android14BnSensorServerE0_NS_13ISensorServerE
D _ZTCN7android14BnSensorServerE4_NS_7BBinderE
D _ZTCN7android14BnSensorServerE4_NS_7IBinderE
V _ZTCN7android14BpSensorServerE0_NS_10IInterfaceE
V _ZTCN7android14BpSensorServerE0_NS_11BpInterfaceINS_13ISensorServerEEE
V _ZTCN7android14BpSensorServerE0_NS_13ISensorServerE
V _ZTCN7android14BpSensorServerE4_NS_9BpRefBaseE
D _ZTCN7android22ISensorEventConnectionE0_NS_10IInterfaceE
D _ZTCN7android23BnSensorEventConnectionE0_NS_10IInterfaceE
D _ZTCN7android23BnSensorEventConnectionE0_NS_11BnInterfaceINS_22ISensorEventConnectionEEE
D _ZTCN7android23BnSensorEventConnectionE0_NS_22ISensorEventConnectionE
D _ZTCN7android23BnSensorEventConnectionE4_NS_7BBinderE
D _ZTCN7android23BnSensorEventConnectionE4_NS_7IBinderE
V _ZTCN7android23BpSensorEventConnectionE0_NS_10IInterfaceE
V _ZTCN7android23BpSensorEventConnectionE0_NS_11BpInterfaceINS_22ISensorEventConnectionEEE
V _ZTCN7android23BpSensorEventConnectionE0_NS_22ISensorEventConnectionE
V _ZTCN7android23BpSensorEventConnectionE4_NS_9BpRefBaseE
V _ZTTN7android11BnInterfaceINS_13ISensorServerEEE
V _ZTTN7android11BnInterfaceINS_22ISensorEventConnectionEEE
V _ZTTN7android11BpInterfaceINS_13ISensorServerEEE
V _ZTTN7android11BpInterfaceINS_22ISensorEventConnectionEEE
D _ZTTN7android13ISensorServerE
D _ZTTN7android14BnSensorServerE
V _ZTTN7android14BpSensorServerE
D _ZTTN7android22ISensorEventConnectionE
D _ZTTN7android23BnSensorEventConnectionE
V _ZTTN7android23BpSensorEventConnectionE
V _ZTVN7android11BnInterfaceINS_13ISensorServerEEE
V _ZTVN7android11BnInterfaceINS_22ISensorEventConnectionEEE
V _ZTVN7android11BpInterfaceINS_13ISensorServerEEE
V _ZTVN7android11BpInterfaceINS_22ISensorEventConnectionEEE
V _ZTVN7android11FlattenableE
D _ZTVN7android13ISensorServerE
D _ZTVN7android13SensorChannelE
D _ZTVN7android14BnSensorServerE
V _ZTVN7android14BpSensorServerE
D _ZTVN7android16SensorEventQueueE
D _ZTVN7android22ISensorEventConnectionE
D _ZTVN7android23BnSensorEventConnectionE
V _ZTVN7android23BpSensorEventConnectionE
D _ZTVN7android6SensorE
V _ZTVN7android6VectorINS_6SensorEEE
T _ZThn4_N7android14BnSensorServer10onTransactEjRKNS_6ParcelEPS1_j
T _ZThn4_N7android23BnSensorEventConnection10onTransactEjRKNS_6ParcelEPS1_j
U _ZTv0_n12_N7android10IInterfaceD0Ev
U _ZTv0_n12_N7android10IInterfaceD1Ev
W _ZTv0_n12_N7android11BnInterfaceINS_13ISensorServerEED0Ev
W _ZTv0_n12_N7android11BnInterfaceINS_13ISensorServerEED1Ev
W _ZTv0_n12_N7android11BnInterfaceINS_22ISensorEventConnectionEED0Ev
W _ZTv0_n12_N7android11BnInterfaceINS_22ISensorEventConnectionEED1Ev
W _ZTv0_n12_N7android11BpInterfaceINS_13ISensorServerEED0Ev
W _ZTv0_n12_N7android11BpInterfaceINS_13ISensorServerEED1Ev
W _ZTv0_n12_N7android11BpInterfaceINS_22ISensorEventConnectionEED0Ev
W _ZTv0_n12_N7android11BpInterfaceINS_22ISensorEventConnectionEED1Ev
T _ZTv0_n12_N7android13ISensorServerD0Ev
T _ZTv0_n12_N7android13ISensorServerD1Ev
W _ZTv0_n12_N7android14BnSensorServerD0Ev
W _ZTv0_n12_N7android14BnSensorServerD1Ev
W _ZTv0_n12_N7android14BpSensorServerD0Ev
W _ZTv0_n12_N7android14BpSensorServerD1Ev
T _ZTv0_n12_N7android22ISensorEventConnectionD0Ev
T _ZTv0_n12_N7android22ISensorEventConnectionD1Ev
W _ZTv0_n12_N7android23BnSensorEventConnectionD0Ev
W _ZTv0_n12_N7android23BnSensorEventConnectionD1Ev
W _ZTv0_n12_N7android23BpSensorEventConnectionD0Ev
W _ZTv0_n12_N7android23BpSensorEventConnectionD1Ev
U _ZTv0_n12_N7android7BBinderD0Ev
U _ZTv0_n12_N7android7BBinderD1Ev
U _ZTv0_n12_N7android7IBinderD0Ev
U _ZTv0_n12_N7android7IBinderD1Ev
U _ZTv0_n12_N7android9BpRefBaseD0Ev
U _ZTv0_n12_N7android9BpRefBaseD1Ev
U _ZTv0_n16_N7android9BpRefBase10onFirstRefEv
U _ZTv0_n20_N7android9BpRefBase15onLastStrongRefEPKv
U _ZTv0_n24_N7android9BpRefBase20onIncStrongAttemptedEjPKv
U _ZdlPv
U _Znwj
T __FINI_ARRAY__
T __INIT_ARRAY__
U __aeabi_atexit
U __aeabi_lmul
U __aeabi_uidiv
U __aeabi_uidivmod
U __aeabi_unwind_cpp_pr0
U __android_log_print
A __bss_end__
A __bss_start
A __bss_start__
U __cxa_finalize
U __cxa_pure_virtual
A __data_start
B __dso_handle
A __end__
U __errno
A __exidx_end
A __exidx_start
A _bss_end__
A _edata
A _end
A _stack
U close
U dup
U fcntl
U free
U malloc
U memcpy
U pipe
U pthread_mutex_destroy
U pthread_mutex_init
U pthread_mutex_lock
U pthread_mutex_unlock
U read
U strerror
U strzcmp16
U usleep
U write
