R DECPOWERS_44
R DECSTICKYTAB_44
R LNnn_44
U T_CString_integerToString_44
U T_CString_stricmp_44
W _Z17ucol_tok_doSetTopP15UColTokenParserP10UErrorCode
T _Z24buildWSConfusableData_44PN6icu_449SpoofImplEPKciP11UParseErrorR10UErrorCode
T _Z24ucol_freeOffsetBuffer_44P11collIterate
W _Z26ucol_tok_addToExtraCurrentP15UColTokenParserPKtiP10UErrorCode
W _Z9processCEP18UCollationElementsj
T _ZN6icu_4410CECalendar6ceToJDEiiii
T _ZN6icu_4410CECalendar6jdToCEEiiRiS1_S1_
T _ZN6icu_4410CECalendarC1ERKNS_6LocaleER10UErrorCode
T _ZN6icu_4410CECalendarC1ERKS0_
T _ZN6icu_4410CECalendarC2ERKNS_6LocaleER10UErrorCode
T _ZN6icu_4410CECalendarC2ERKS0_
T _ZN6icu_4410CECalendarD0Ev
T _ZN6icu_4410CECalendarD1Ev
T _ZN6icu_4410CECalendarD2Ev
T _ZN6icu_4410CECalendaraSERKS0_
T _ZN6icu_4410DateFormat10setLenientEa
T _ZN6icu_4410DateFormat11setCalendarERKNS_8CalendarE
T _ZN6icu_4410DateFormat11setTimeZoneERKNS_8TimeZoneE
T _ZN6icu_4410DateFormat13adoptCalendarEPNS_8CalendarE
T _ZN6icu_4410DateFormat13adoptTimeZoneEPNS_8TimeZoneE
T _ZN6icu_4410DateFormat14createInstanceEv
T _ZN6icu_4410DateFormat15setNumberFormatERKNS_12NumberFormatE
T _ZN6icu_4410DateFormat17adoptNumberFormatEPNS_12NumberFormatE
T _ZN6icu_4410DateFormat18createDateInstanceENS0_6EStyleERKNS_6LocaleE
T _ZN6icu_4410DateFormat18createTimeInstanceENS0_6EStyleERKNS_6LocaleE
T _ZN6icu_4410DateFormat19getAvailableLocalesERi
T _ZN6icu_4410DateFormat22createDateTimeInstanceENS0_6EStyleES1_RKNS_6LocaleE
T _ZN6icu_4410DateFormat6createENS0_6EStyleES1_RKNS_6LocaleE
T _ZN6icu_4410DateFormatC1ERKS0_
T _ZN6icu_4410DateFormatC1Ev
T _ZN6icu_4410DateFormatC2ERKS0_
T _ZN6icu_4410DateFormatC2Ev
T _ZN6icu_4410DateFormatD0Ev
T _ZN6icu_4410DateFormatD1Ev
T _ZN6icu_4410DateFormatD2Ev
T _ZN6icu_4410DateFormataSERKS0_
T _ZN6icu_4410NFKDBuffer9getBufferEv
T _ZN6icu_4410NFKDBuffer9getLengthEv
T _ZN6icu_4410NFKDBufferC1EPKtiR10UErrorCode
T _ZN6icu_4410NFKDBufferC2EPKtiR10UErrorCode
T _ZN6icu_4410NFKDBufferD1Ev
T _ZN6icu_4410NFKDBufferD2Ev
U _ZN6icu_4410Normalizer10quickCheckERKNS_13UnicodeStringE18UNormalizationModeiR10UErrorCode
T _ZN6icu_4410PatternMap16getDuplicateElemERKNS_13UnicodeStringERKNS_11PtnSkeletonEPNS_7PtnElemE
T _ZN6icu_4410PatternMap22getPatternFromSkeletonERNS_11PtnSkeletonEPPKS1_
T _ZN6icu_4410PatternMap25getPatternFromBasePatternERNS_13UnicodeStringERa
T _ZN6icu_4410PatternMap3addERKNS_13UnicodeStringERKNS_11PtnSkeletonES3_aR10UErrorCode
T _ZN6icu_4410PatternMap6equalsERKS0_
T _ZN6icu_4410PatternMap8copyFromERKS0_R10UErrorCode
T _ZN6icu_4410PatternMap9getHeaderEt
T _ZN6icu_4410PatternMapC1Ev
T _ZN6icu_4410PatternMapC2Ev
T _ZN6icu_4410PatternMapD0Ev
T _ZN6icu_4410PatternMapD1Ev
T _ZN6icu_4410PatternMapD2Ev
T _ZN6icu_4410RuleParser10getKeyTypeERKNS_13UnicodeStringERNS_9tokenTypeER10UErrorCode
T _ZN6icu_4410RuleParser11checkSyntaxENS_9tokenTypeES1_R10UErrorCode
T _ZN6icu_4410RuleParser12getNextTokenERKNS_13UnicodeStringEPiRS1_RNS_9tokenTypeER10UErrorCode
T _ZN6icu_4410RuleParser14isValidKeywordERKNS_13UnicodeStringE
T _ZN6icu_4410RuleParser7inRangeEtRNS_9tokenTypeE
T _ZN6icu_4410RuleParserC1Ev
T _ZN6icu_4410RuleParserC2Ev
T _ZN6icu_4410RuleParserD0Ev
T _ZN6icu_4410RuleParserD1Ev
T _ZN6icu_4410RuleParserD2Ev
T _ZN6icu_4410StringList16getStaticClassIDEv
T _ZN6icu_4410StringList3addEPKNS_13UnicodeStringER10UErrorCode
T _ZN6icu_4410StringList3addEPKtiR10UErrorCode
T _ZN6icu_4410StringListC1ER10UErrorCode
T _ZN6icu_4410StringListC2ER10UErrorCode
T _ZN6icu_4410StringListD0Ev
T _ZN6icu_4410StringListD1Ev
T _ZN6icu_4410StringListD2Ev
U _ZN6icu_4410UnicodeSet10complementEv
U _ZN6icu_4410UnicodeSet21applyIntPropertyValueE9UPropertyiR10UErrorCode
U _ZN6icu_4410UnicodeSet3addERKNS_13UnicodeStringE
U _ZN6icu_4410UnicodeSet3addEi
U _ZN6icu_4410UnicodeSet5clearEv
U _ZN6icu_4410UnicodeSet6addAllERKS0_
U _ZN6icu_4410UnicodeSet6freezeEv
U _ZN6icu_4410UnicodeSet9closeOverEi
U _ZN6icu_4410UnicodeSetC1ERKNS_13UnicodeStringER10UErrorCode
U _ZN6icu_4410UnicodeSetC1ERKNS_13UnicodeStringEjPKNS_11SymbolTableER10UErrorCode
U _ZN6icu_4410UnicodeSetC1ERKS0_
U _ZN6icu_4410UnicodeSetC1Eii
U _ZN6icu_4410UnicodeSetC1Ev
U _ZN6icu_4410UnicodeSetD1Ev
U _ZN6icu_4410UnicodeSetaSERKS0_
T _ZN6icu_4410util64_powEij
T _ZN6icu_4410util64_touExPtjja
T _ZN6icu_4411Formattable10adoptArrayEPS0_i
T _ZN6icu_4411Formattable11adoptObjectEPNS_7UObjectE
T _ZN6icu_4411Formattable11adoptStringEPNS_13UnicodeStringE
T _ZN6icu_4411Formattable14adoptDigitListEPNS_9DigitListE
T _ZN6icu_4411Formattable16getDecimalNumberER10UErrorCode
T _ZN6icu_4411Formattable16getStaticClassIDEv
T _ZN6icu_4411Formattable16setDecimalNumberERKNS_11StringPieceER10UErrorCode
T _ZN6icu_4411Formattable4initEv
T _ZN6icu_4411Formattable7disposeEv
T _ZN6icu_4411Formattable7setDateEd
T _ZN6icu_4411Formattable7setLongEi
T _ZN6icu_4411Formattable8setArrayEPKS0_i
T _ZN6icu_4411Formattable8setInt64Ex
T _ZN6icu_4411Formattable9getStringER10UErrorCode
T _ZN6icu_4411Formattable9setDoubleEd
T _ZN6icu_4411Formattable9setStringERKNS_13UnicodeStringE
T _ZN6icu_4411FormattableC1EPKS0_i
T _ZN6icu_4411FormattableC1EPKc
T _ZN6icu_4411FormattableC1EPNS_13UnicodeStringE
T _ZN6icu_4411FormattableC1EPNS_7UObjectE
T _ZN6icu_4411FormattableC1ERKNS_11StringPieceER10UErrorCode
T _ZN6icu_4411FormattableC1ERKNS_13UnicodeStringE
T _ZN6icu_4411FormattableC1ERKS0_
T _ZN6icu_4411FormattableC1Ed
T _ZN6icu_4411FormattableC1EdNS0_6ISDATEE
T _ZN6icu_4411FormattableC1Ei
T _ZN6icu_4411FormattableC1Ev
T _ZN6icu_4411FormattableC1Ex
T _ZN6icu_4411FormattableC2EPKS0_i
T _ZN6icu_4411FormattableC2EPKc
T _ZN6icu_4411FormattableC2EPNS_13UnicodeStringE
T _ZN6icu_4411FormattableC2EPNS_7UObjectE
T _ZN6icu_4411FormattableC2ERKNS_11StringPieceER10UErrorCode
T _ZN6icu_4411FormattableC2ERKNS_13UnicodeStringE
T _ZN6icu_4411FormattableC2ERKS0_
T _ZN6icu_4411FormattableC2Ed
T _ZN6icu_4411FormattableC2EdNS0_6ISDATEE
T _ZN6icu_4411FormattableC2Ei
T _ZN6icu_4411FormattableC2Ev
T _ZN6icu_4411FormattableC2Ex
T _ZN6icu_4411FormattableD0Ev
T _ZN6icu_4411FormattableD1Ev
T _ZN6icu_4411FormattableD2Ev
T _ZN6icu_4411FormattableaSERKS0_
U _ZN6icu_4411LocaleBased12setLocaleIDsEPKcS2_
T _ZN6icu_4411MeasureUnitC1Ev
T _ZN6icu_4411MeasureUnitC2Ev
T _ZN6icu_4411MeasureUnitD0Ev
T _ZN6icu_4411MeasureUnitD1Ev
T _ZN6icu_4411MeasureUnitD2Ev
T _ZN6icu_4411NGramParser5parseEPNS_9InputTextE
T _ZN6icu_4411NGramParser6lookupEi
T _ZN6icu_4411NGramParser6searchEPKii
T _ZN6icu_4411NGramParser7addByteEi
T _ZN6icu_4411NGramParser8nextByteEPNS_9InputTextE
T _ZN6icu_4411NGramParserC1EPKiPKh
T _ZN6icu_4411NGramParserC2EPKiPKh
T _ZN6icu_4411PluralRules11createRulesERKNS_13UnicodeStringER10UErrorCode
T _ZN6icu_4411PluralRules13getNextLocaleERKNS_13UnicodeStringEPiRS1_
T _ZN6icu_4411PluralRules16getStaticClassIDEv
T _ZN6icu_4411PluralRules16parseDescriptionERNS_13UnicodeStringERNS_9RuleChainER10UErrorCode
T _ZN6icu_4411PluralRules18createDefaultRulesER10UErrorCode
T _ZN6icu_4411PluralRules19getRuleFromResourceERKNS_6LocaleER10UErrorCode
T _ZN6icu_4411PluralRules8addRulesERNS_9RuleChainE
T _ZN6icu_4411PluralRules9forLocaleERKNS_6LocaleER10UErrorCode
T _ZN6icu_4411PluralRulesC1ER10UErrorCode
T _ZN6icu_4411PluralRulesC1ERKS0_
T _ZN6icu_4411PluralRulesC2ER10UErrorCode
T _ZN6icu_4411PluralRulesC2ERKS0_
T _ZN6icu_4411PluralRulesD0Ev
T _ZN6icu_4411PluralRulesD1Ev
T _ZN6icu_4411PluralRulesD2Ev
T _ZN6icu_4411PluralRulesaSERKS0_
T _ZN6icu_4411PtnSkeleton11getSkeletonEv
T _ZN6icu_4411PtnSkeleton15getBaseSkeletonEv
T _ZN6icu_4411PtnSkeleton6equalsERKS0_
T _ZN6icu_4411PtnSkeletonC1ERKS0_
T _ZN6icu_4411PtnSkeletonC1Ev
T _ZN6icu_4411PtnSkeletonC2ERKS0_
T _ZN6icu_4411PtnSkeletonC2Ev
T _ZN6icu_4411PtnSkeletonD0Ev
T _ZN6icu_4411PtnSkeletonD1Ev
T _ZN6icu_4411PtnSkeletonD2Ev
U _ZN6icu_4411StringPieceC1EPKc
T _ZN6icu_4411TextTrieMap12addChildNodeEPNS_13CharacterNodeEtR10UErrorCode
T _ZN6icu_4411TextTrieMap3putERKNS_13UnicodeStringEPvRNS_13ZSFStringPoolER10UErrorCode
T _ZN6icu_4411TextTrieMap7putImplERKNS_13UnicodeStringEPvR10UErrorCode
T _ZN6icu_4411TextTrieMap9buildTrieER10UErrorCode
T _ZN6icu_4411TextTrieMap9growNodesEv
T _ZN6icu_4411TextTrieMapC1Ea
T _ZN6icu_4411TextTrieMapC2Ea
T _ZN6icu_4411TextTrieMapD0Ev
T _ZN6icu_4411TextTrieMapD1Ev
T _ZN6icu_4411TextTrieMapD2Ev
T _ZN6icu_4411ZoneStringsC1EPNS_13UnicodeStringEiaPS2_iiRNS_13ZSFStringPoolER10UErrorCode
T _ZN6icu_4411ZoneStringsC2EPNS_13UnicodeStringEiaPS2_iiRNS_13ZSFStringPoolER10UErrorCode
T _ZN6icu_4411ZoneStringsD0Ev
T _ZN6icu_4411ZoneStringsD1Ev
T _ZN6icu_4411ZoneStringsD2Ev
T _ZN6icu_4412ArgExtractorC1ERKNS_12NumberFormatERKNS_11FormattableER10UErrorCode
T _ZN6icu_4412ArgExtractorC2ERKNS_12NumberFormatERKNS_11FormattableER10UErrorCode
T _ZN6icu_4412ArgExtractorD1Ev
T _ZN6icu_4412ArgExtractorD2Ev
T _ZN6icu_4412CalendarData8getByKeyEPKcR10UErrorCode
T _ZN6icu_4412CalendarData8initDataEPKcS2_R10UErrorCode
T _ZN6icu_4412CalendarData9getByKey2EPKcS2_R10UErrorCode
T _ZN6icu_4412CalendarData9getByKey3EPKcS2_S2_R10UErrorCode
T _ZN6icu_4412CalendarDataC1ERKNS_6LocaleEPKcR10UErrorCode
T _ZN6icu_4412CalendarDataC2ERKNS_6LocaleEPKcR10UErrorCode
T _ZN6icu_4412CalendarDataD1Ev
T _ZN6icu_4412CalendarDataD2Ev
T _ZN6icu_4412CharsetMatch3setEPNS_9InputTextEPNS_17CharsetRecognizerEi
T _ZN6icu_4412CharsetMatchC1Ev
T _ZN6icu_4412CharsetMatchC2Ev
T _ZN6icu_4412ChoiceFormat10setChoicesEPKdPKNS_13UnicodeStringEi
T _ZN6icu_4412ChoiceFormat10setChoicesEPKdPKaPKNS_13UnicodeStringEi
T _ZN6icu_4412ChoiceFormat12applyPatternERKNS_13UnicodeStringER10UErrorCode
T _ZN6icu_4412ChoiceFormat12applyPatternERKNS_13UnicodeStringER11UParseErrorR10UErrorCode
T _ZN6icu_4412ChoiceFormat16getStaticClassIDEv
T _ZN6icu_4412ChoiceFormat4dtosEdRNS_13UnicodeStringE
T _ZN6icu_4412ChoiceFormat4stodERKNS_13UnicodeStringE
T _ZN6icu_4412ChoiceFormatC1EPKdPKNS_13UnicodeStringEi
T _ZN6icu_4412ChoiceFormatC1EPKdPKaPKNS_13UnicodeStringEi
T _ZN6icu_4412ChoiceFormatC1ERKNS_13UnicodeStringER10UErrorCode
T _ZN6icu_4412ChoiceFormatC1ERKNS_13UnicodeStringER11UParseErrorR10UErrorCode
T _ZN6icu_4412ChoiceFormatC1ERKS0_
T _ZN6icu_4412ChoiceFormatC2EPKdPKNS_13UnicodeStringEi
T _ZN6icu_4412ChoiceFormatC2EPKdPKaPKNS_13UnicodeStringEi
T _ZN6icu_4412ChoiceFormatC2ERKNS_13UnicodeStringER10UErrorCode
T _ZN6icu_4412ChoiceFormatC2ERKNS_13UnicodeStringER11UParseErrorR10UErrorCode
T _ZN6icu_4412ChoiceFormatC2ERKS0_
T _ZN6icu_4412ChoiceFormatD0Ev
T _ZN6icu_4412ChoiceFormatD1Ev
T _ZN6icu_4412ChoiceFormatD2Ev
T _ZN6icu_4412ChoiceFormataSERKS0_
T _ZN6icu_4412CollationKey10setToBogusEv
T _ZN6icu_4412CollationKey14ensureCapacityEi
T _ZN6icu_4412CollationKey16getStaticClassIDEv
T _ZN6icu_4412CollationKey5adoptEPhi
T _ZN6icu_4412CollationKey5resetEv
T _ZN6icu_4412CollationKeyC1EPKhi
T _ZN6icu_4412CollationKeyC1ERKS0_
T _ZN6icu_4412CollationKeyC1Ev
T _ZN6icu_4412CollationKeyC2EPKhi
T _ZN6icu_4412CollationKeyC2ERKS0_
T _ZN6icu_4412CollationKeyC2Ev
T _ZN6icu_4412CollationKeyD0Ev
T _ZN6icu_4412CollationKeyD1Ev
T _ZN6icu_4412CollationKeyD2Ev
T _ZN6icu_4412CollationKeyaSERKS0_
T _ZN6icu_4412CurrencyUnit16getStaticClassIDEv
T _ZN6icu_4412CurrencyUnitC1EPKtR10UErrorCode
T _ZN6icu_4412CurrencyUnitC1ERKS0_
T _ZN6icu_4412CurrencyUnitC2EPKtR10UErrorCode
T _ZN6icu_4412CurrencyUnitC2ERKS0_
T _ZN6icu_4412CurrencyUnitD0Ev
T _ZN6icu_4412CurrencyUnitD1Ev
T _ZN6icu_4412CurrencyUnitD2Ev
T _ZN6icu_4412CurrencyUnitaSERKS0_
U _ZN6icu_4412DateInterval16getStaticClassIDEv
T _ZN6icu_4412DateTimeRule16getStaticClassIDEv
T _ZN6icu_4412DateTimeRuleC1ERKS0_
T _ZN6icu_4412DateTimeRuleC1EiiiNS0_12TimeRuleTypeE
T _ZN6icu_4412DateTimeRuleC1EiiiaiNS0_12TimeRuleTypeE
T _ZN6icu_4412DateTimeRuleC1EiiiiNS0_12TimeRuleTypeE
T _ZN6icu_4412DateTimeRuleC2ERKS0_
T _ZN6icu_4412DateTimeRuleC2EiiiNS0_12TimeRuleTypeE
T _ZN6icu_4412DateTimeRuleC2EiiiaiNS0_12TimeRuleTypeE
T _ZN6icu_4412DateTimeRuleC2EiiiiNS0_12TimeRuleTypeE
T _ZN6icu_4412DateTimeRuleD0Ev
T _ZN6icu_4412DateTimeRuleD1Ev
T _ZN6icu_4412DateTimeRuleD2Ev
T _ZN6icu_4412DateTimeRuleaSERKS0_
T _ZN6icu_4412DistanceInfo5setToERS0_
T _ZN6icu_4412FormatParser15getQuoteLiteralERNS_13UnicodeStringEPi
T _ZN6icu_4412FormatParser17getCanonicalIndexERKNS_13UnicodeStringEa
T _ZN6icu_4412FormatParser18isPatternSeparatorERNS_13UnicodeStringE
T _ZN6icu_4412FormatParser3setERKNS_13UnicodeStringE
T _ZN6icu_4412FormatParser9setTokensERKNS_13UnicodeStringEiPi
T _ZN6icu_4412FormatParserC1Ev
T _ZN6icu_4412FormatParserC2Ev
T _ZN6icu_4412FormatParserD0Ev
T _ZN6icu_4412FormatParserD1Ev
T _ZN6icu_4412FormatParserD2Ev
T _ZN6icu_4412ICUDataTable9getLocaleEv
T _ZN6icu_4412ICUDataTableC1EPKcRKNS_6LocaleE
T _ZN6icu_4412ICUDataTableC2EPKcRKNS_6LocaleE
T _ZN6icu_4412ICUDataTableD1Ev
T _ZN6icu_4412ICUDataTableD2Ev
T _ZN6icu_4412IteratedChar8nextByteEPNS_9InputTextE
T _ZN6icu_4412IteratedCharC1Ev
T _ZN6icu_4412IteratedCharC2Ev
T _ZN6icu_4412NumberFormat11setCurrencyEPKtR10UErrorCode
T _ZN6icu_4412NumberFormat12makeInstanceERKNS_6LocaleENS0_7EStylesER10UErrorCode
T _ZN6icu_4412NumberFormat14createInstanceER10UErrorCode
T _ZN6icu_4412NumberFormat14createInstanceERKNS_6LocaleENS0_7EStylesER10UErrorCode
T _ZN6icu_4412NumberFormat14createInstanceERKNS_6LocaleER10UErrorCode
T _ZN6icu_4412NumberFormat15setGroupingUsedEa
T _ZN6icu_4412NumberFormat16getStaticClassIDEv
T _ZN6icu_4412NumberFormat19getAvailableLocalesERi
T _ZN6icu_4412NumberFormat19setParseIntegerOnlyEa
T _ZN6icu_4412NumberFormat21createPercentInstanceER10UErrorCode
T _ZN6icu_4412NumberFormat21createPercentInstanceERKNS_6LocaleER10UErrorCode
T _ZN6icu_4412NumberFormat22createCurrencyInstanceER10UErrorCode
T _ZN6icu_4412NumberFormat22createCurrencyInstanceERKNS_6LocaleER10UErrorCode
T _ZN6icu_4412NumberFormat23setMaximumIntegerDigitsEi
T _ZN6icu_4412NumberFormat23setMinimumIntegerDigitsEi
T _ZN6icu_4412NumberFormat24createScientificInstanceER10UErrorCode
T _ZN6icu_4412NumberFormat24createScientificInstanceERKNS_6LocaleER10UErrorCode
T _ZN6icu_4412NumberFormat24setMaximumFractionDigitsEi
T _ZN6icu_4412NumberFormat24setMinimumFractionDigitsEi
T _ZN6icu_4412NumberFormatC1ERKS0_
T _ZN6icu_4412NumberFormatC1Ev
T _ZN6icu_4412NumberFormatC2ERKS0_
T _ZN6icu_4412NumberFormatC2Ev
T _ZN6icu_4412NumberFormatD0Ev
T _ZN6icu_4412NumberFormatD1Ev
T _ZN6icu_4412NumberFormatD2Ev
T _ZN6icu_4412NumberFormataSERKS0_
T _ZN6icu_4412OrConstraint11isFulfilledEd
T _ZN6icu_4412OrConstraint3addEv
T _ZN6icu_4412OrConstraintC1ERKS0_
T _ZN6icu_4412OrConstraintC1Ev
T _ZN6icu_4412OrConstraintC2ERKS0_
T _ZN6icu_4412OrConstraintC2Ev
T _ZN6icu_4412OrConstraintD0Ev
T _ZN6icu_4412OrConstraintD1Ev
T _ZN6icu_4412OrConstraintD2Ev
T _ZN6icu_4412PluralFormat12applyPatternERKNS_13UnicodeStringER10UErrorCode
T _ZN6icu_4412PluralFormat13copyHashtableEPNS_9HashtableER10UErrorCode
T _ZN6icu_4412PluralFormat15setNumberFormatEPKNS_12NumberFormatER10UErrorCode
T _ZN6icu_4412PluralFormat16getStaticClassIDEv
T _ZN6icu_4412PluralFormat25checkSufficientDefinitionEv
T _ZN6icu_4412PluralFormat4initEPKNS_11PluralRulesERKNS_6LocaleER10UErrorCode
T _ZN6icu_4412PluralFormat7inRangeEtRNS0_8fmtTokenE
T _ZN6icu_4412PluralFormat9setLocaleERKNS_6LocaleER10UErrorCode
T _ZN6icu_4412PluralFormat9toPatternERNS_13UnicodeStringE
T _ZN6icu_4412PluralFormatC1ER10UErrorCode
T _ZN6icu_4412PluralFormatC1ERKNS_11PluralRulesER10UErrorCode
T _ZN6icu_4412PluralFormatC1ERKNS_11PluralRulesERKNS_13UnicodeStringER10UErrorCode
T _ZN6icu_4412PluralFormatC1ERKNS_13UnicodeStringER10UErrorCode
T _ZN6icu_4412PluralFormatC1ERKNS_6LocaleER10UErrorCode
T _ZN6icu_4412PluralFormatC1ERKNS_6LocaleERKNS_11PluralRulesER10UErrorCode
T _ZN6icu_4412PluralFormatC1ERKNS_6LocaleERKNS_11PluralRulesERKNS_13UnicodeStringER10UErrorCode
T _ZN6icu_4412PluralFormatC1ERKNS_6LocaleERKNS_13UnicodeStringER10UErrorCode
T _ZN6icu_4412PluralFormatC1ERKS0_
T _ZN6icu_4412PluralFormatC2ER10UErrorCode
T _ZN6icu_4412PluralFormatC2ERKNS_11PluralRulesER10UErrorCode
T _ZN6icu_4412PluralFormatC2ERKNS_11PluralRulesERKNS_13UnicodeStringER10UErrorCode
T _ZN6icu_4412PluralFormatC2ERKNS_13UnicodeStringER10UErrorCode
T _ZN6icu_4412PluralFormatC2ERKNS_6LocaleER10UErrorCode
T _ZN6icu_4412PluralFormatC2ERKNS_6LocaleERKNS_11PluralRulesER10UErrorCode
T _ZN6icu_4412PluralFormatC2ERKNS_6LocaleERKNS_11PluralRulesERKNS_13UnicodeStringER10UErrorCode
T _ZN6icu_4412PluralFormatC2ERKNS_6LocaleERKNS_13UnicodeStringER10UErrorCode
T _ZN6icu_4412PluralFormatC2ERKS0_
T _ZN6icu_4412PluralFormatD0Ev
T _ZN6icu_4412PluralFormatD1Ev
T _ZN6icu_4412PluralFormatD2Ev
T _ZN6icu_4412PluralFormataSERKS0_
T _ZN6icu_4412RegexCompile10compileSetEPNS_10UnicodeSetE
T _ZN6icu_4412RegexCompile10nextCharLLEv
T _ZN6icu_4412RegexCompile10peekCharLLEv
T _ZN6icu_4412RegexCompile11blockTopLocEa
T _ZN6icu_4412RegexCompile11fixLiteralsEa
T _ZN6icu_4412RegexCompile11literalCharEi
T _ZN6icu_4412RegexCompile12emitONE_CHAREi
T _ZN6icu_4412RegexCompile13scanNamedCharEv
T _ZN6icu_4412RegexCompile13scanPosixPropEv
T _ZN6icu_4412RegexCompile14doParseActionsEi
T _ZN6icu_4412RegexCompile14matchStartTypeEv
T _ZN6icu_4412RegexCompile14maxMatchLengthEii
T _ZN6icu_4412RegexCompile14minMatchLengthEii
T _ZN6icu_4412RegexCompile15compileIntervalEii
T _ZN6icu_4412RegexCompile16handleCloseParenEv
T _ZN6icu_4412RegexCompile20createSetForPropertyERKNS_13UnicodeStringEa
T _ZN6icu_4412RegexCompile21compileInlineIntervalEv
T _ZN6icu_4412RegexCompile5errorE10UErrorCode
T _ZN6icu_4412RegexCompile7compileEP5UTextR11UParseErrorR10UErrorCode
T _ZN6icu_4412RegexCompile7compileERKNS_13UnicodeStringER11UParseErrorR10UErrorCode
T _ZN6icu_4412RegexCompile7setEvalEi
T _ZN6icu_4412RegexCompile8insertOpEi
T _ZN6icu_4412RegexCompile8nextCharERNS0_16RegexPatternCharE
T _ZN6icu_4412RegexCompile8scanPropEv
T _ZN6icu_4412RegexCompile9setPushOpEi
T _ZN6icu_4412RegexCompile9stripNOPsEv
T _ZN6icu_4412RegexCompileC1EPNS_12RegexPatternER10UErrorCode
T _ZN6icu_4412RegexCompileC2EPNS_12RegexPatternER10UErrorCode
T _ZN6icu_4412RegexCompileD0Ev
T _ZN6icu_4412RegexCompileD1Ev
T _ZN6icu_4412RegexCompileD2Ev
T _ZN6icu_4412RegexMatcher10appendTailEP5UText
T _ZN6icu_4412RegexMatcher10appendTailERNS_13UnicodeStringE
T _ZN6icu_4412RegexMatcher10replaceAllEP5UTextS2_R10UErrorCode
T _ZN6icu_4412RegexMatcher10replaceAllERKNS_13UnicodeStringER10UErrorCode
T _ZN6icu_4412RegexMatcher10resetStackEv
T _ZN6icu_4412RegexMatcher12MatchChunkAtEiaR10UErrorCode
T _ZN6icu_4412RegexMatcher12replaceFirstEP5UTextS2_R10UErrorCode
T _ZN6icu_4412RegexMatcher12replaceFirstERKNS_13UnicodeStringER10UErrorCode
T _ZN6icu_4412RegexMatcher12setTimeLimitEiR10UErrorCode
T _ZN6icu_4412RegexMatcher13IncrementTimeER10UErrorCode
T _ZN6icu_4412RegexMatcher13setStackLimitEiR10UErrorCode
T _ZN6icu_4412RegexMatcher14findUsingChunkEv
T _ZN6icu_4412RegexMatcher14isWordBoundaryEx
T _ZN6icu_4412RegexMatcher15isUWordBoundaryEx
T _ZN6icu_4412RegexMatcher16getMatchCallbackERPFaPKviERS2_R10UErrorCode
T _ZN6icu_4412RegexMatcher16getStaticClassIDEv
T _ZN6icu_4412RegexMatcher16refreshInputTextEP5UTextR10UErrorCode
T _ZN6icu_4412RegexMatcher16setMatchCallbackEPFaPKviES2_R10UErrorCode
T _ZN6icu_4412RegexMatcher17appendReplacementEP5UTextS2_R10UErrorCode
T _ZN6icu_4412RegexMatcher17appendReplacementERNS_13UnicodeStringERKS1_R10UErrorCode
T _ZN6icu_4412RegexMatcher18useAnchoringBoundsEa
T _ZN6icu_4412RegexMatcher19isChunkWordBoundaryEi
T _ZN6icu_4412RegexMatcher19resetPreserveRegionEv
T _ZN6icu_4412RegexMatcher20useTransparentBoundsEa
T _ZN6icu_4412RegexMatcher4findEiR10UErrorCode
T _ZN6icu_4412RegexMatcher4findEv
T _ZN6icu_4412RegexMatcher4initER10UErrorCode
T _ZN6icu_4412RegexMatcher5init2EP5UTextR10UErrorCode
T _ZN6icu_4412RegexMatcher5resetEP5UText
T _ZN6icu_4412RegexMatcher5resetERKNS_13UnicodeStringE
T _ZN6icu_4412RegexMatcher5resetEiR10UErrorCode
T _ZN6icu_4412RegexMatcher5resetEv
T _ZN6icu_4412RegexMatcher5splitEP5UTextPS2_iR10UErrorCode
T _ZN6icu_4412RegexMatcher5splitERKNS_13UnicodeStringEPS1_iR10UErrorCode
T _ZN6icu_4412RegexMatcher6regionEiiR10UErrorCode
T _ZN6icu_4412RegexMatcher7MatchAtExaR10UErrorCode
T _ZN6icu_4412RegexMatcher7matchesER10UErrorCode
T _ZN6icu_4412RegexMatcher7matchesEiR10UErrorCode
T _ZN6icu_4412RegexMatcher8setTraceEa
T _ZN6icu_4412RegexMatcher9lookingAtER10UErrorCode
T _ZN6icu_4412RegexMatcher9lookingAtEiR10UErrorCode
T _ZN6icu_4412RegexMatcherC1EP5UTextS2_jR10UErrorCode
T _ZN6icu_4412RegexMatcherC1EP5UTextjR10UErrorCode
T _ZN6icu_4412RegexMatcherC1EPKNS_12RegexPatternE
T _ZN6icu_4412RegexMatcherC1ERKNS_13UnicodeStringES3_jR10UErrorCode
T _ZN6icu_4412RegexMatcherC1ERKNS_13UnicodeStringEjR10UErrorCode
T _ZN6icu_4412RegexMatcherC2EP5UTextS2_jR10UErrorCode
T _ZN6icu_4412RegexMatcherC2EP5UTextjR10UErrorCode
T _ZN6icu_4412RegexMatcherC2EPKNS_12RegexPatternE
T _ZN6icu_4412RegexMatcherC2ERKNS_13UnicodeStringES3_jR10UErrorCode
T _ZN6icu_4412RegexMatcherC2ERKNS_13UnicodeStringEjR10UErrorCode
T _ZN6icu_4412RegexMatcherD0Ev
T _ZN6icu_4412RegexMatcherD1Ev
T _ZN6icu_4412RegexMatcherD2Ev
T _ZN6icu_4412RegexPattern16getStaticClassIDEv
T _ZN6icu_4412RegexPattern3zapEv
T _ZN6icu_4412RegexPattern4initEv
T _ZN6icu_4412RegexPattern7compileEP5UTextR11UParseErrorR10UErrorCode
T _ZN6icu_4412RegexPattern7compileEP5UTextjR10UErrorCode
T _ZN6icu_4412RegexPattern7compileEP5UTextjR11UParseErrorR10UErrorCode
T _ZN6icu_4412RegexPattern7compileERKNS_13UnicodeStringER11UParseErrorR10UErrorCode
T _ZN6icu_4412RegexPattern7compileERKNS_13UnicodeStringEjR10UErrorCode
T _ZN6icu_4412RegexPattern7compileERKNS_13UnicodeStringEjR11UParseErrorR10UErrorCode
T _ZN6icu_4412RegexPattern7matchesEP5UTextS2_R11UParseErrorR10UErrorCode
T _ZN6icu_4412RegexPattern7matchesERKNS_13UnicodeStringES3_R11UParseErrorR10UErrorCode
T _ZN6icu_4412RegexPatternC1ERKS0_
T _ZN6icu_4412RegexPatternC1Ev
T _ZN6icu_4412RegexPatternC2ERKS0_
T _ZN6icu_4412RegexPatternC2Ev
T _ZN6icu_4412RegexPatternD0Ev
T _ZN6icu_4412RegexPatternD1Ev
T _ZN6icu_4412RegexPatternD2Ev
T _ZN6icu_4412RegexPatternaSERKS0_
T _ZN6icu_4412SelectFormat12applyPatternERKNS_13UnicodeStringER10UErrorCode
T _ZN6icu_4412SelectFormat13copyHashtableEPNS_9HashtableER10UErrorCode
T _ZN6icu_4412SelectFormat16getStaticClassIDEv
T _ZN6icu_4412SelectFormat25checkSufficientDefinitionEv
T _ZN6icu_4412SelectFormat4initER10UErrorCode
T _ZN6icu_4412SelectFormat9toPatternERNS_13UnicodeStringE
T _ZN6icu_4412SelectFormatC1ERKNS_13UnicodeStringER10UErrorCode
T _ZN6icu_4412SelectFormatC1ERKS0_
T _ZN6icu_4412SelectFormatC2ERKNS_13UnicodeStringER10UErrorCode
T _ZN6icu_4412SelectFormatC2ERKS0_
T _ZN6icu_4412SelectFormatD0Ev
T _ZN6icu_4412SelectFormatD1Ev
T _ZN6icu_4412SelectFormatD2Ev
T _ZN6icu_4412SelectFormataSERKS0_
T _ZN6icu_4412StringSearch10handleNextEiR10UErrorCode
T _ZN6icu_4412StringSearch10handlePrevEiR10UErrorCode
T _ZN6icu_4412StringSearch10setPatternERKNS_13UnicodeStringER10UErrorCode
T _ZN6icu_4412StringSearch11setCollatorEPNS_17RuleBasedCollatorER10UErrorCode
T _ZN6icu_4412StringSearch16getStaticClassIDEv
T _ZN6icu_4412StringSearch5resetEv
T _ZN6icu_4412StringSearch7setTextERKNS_13UnicodeStringER10UErrorCode
T _ZN6icu_4412StringSearch7setTextERNS_17CharacterIteratorER10UErrorCode
T _ZN6icu_4412StringSearch9setOffsetEiR10UErrorCode
T _ZN6icu_4412StringSearchC1ERKNS_13UnicodeStringERNS_17CharacterIteratorEPNS_17RuleBasedCollatorEPNS_13BreakIteratorER10UErrorCode
T _ZN6icu_4412StringSearchC1ERKNS_13UnicodeStringERNS_17CharacterIteratorERKNS_6LocaleEPNS_13BreakIteratorER10UErrorCode
T _ZN6icu_4412StringSearchC1ERKNS_13UnicodeStringES3_PNS_17RuleBasedCollatorEPNS_13BreakIteratorER10UErrorCode
T _ZN6icu_4412StringSearchC1ERKNS_13UnicodeStringES3_RKNS_6LocaleEPNS_13BreakIteratorER10UErrorCode
T _ZN6icu_4412StringSearchC1ERKS0_
T _ZN6icu_4412StringSearchC2ERKNS_13UnicodeStringERNS_17CharacterIteratorEPNS_17RuleBasedCollatorEPNS_13BreakIteratorER10UErrorCode
T _ZN6icu_4412StringSearchC2ERKNS_13UnicodeStringERNS_17CharacterIteratorERKNS_6LocaleEPNS_13BreakIteratorER10UErrorCode
T _ZN6icu_4412StringSearchC2ERKNS_13UnicodeStringES3_PNS_17RuleBasedCollatorEPNS_13BreakIteratorER10UErrorCode
T _ZN6icu_4412StringSearchC2ERKNS_13UnicodeStringES3_RKNS_6LocaleEPNS_13BreakIteratorER10UErrorCode
T _ZN6icu_4412StringSearchC2ERKS0_
T _ZN6icu_4412StringSearchD0Ev
T _ZN6icu_4412StringSearchD1Ev
T _ZN6icu_4412StringSearchD2Ev
T _ZN6icu_4412StringSearchaSERKS0_
T _ZN6icu_4412TimeZoneRuleC1ERKNS_13UnicodeStringEii
T _ZN6icu_4412TimeZoneRuleC1ERKS0_
T _ZN6icu_4412TimeZoneRuleC2ERKNS_13UnicodeStringEii
T _ZN6icu_4412TimeZoneRuleC2ERKS0_
T _ZN6icu_4412TimeZoneRuleD0Ev
T _ZN6icu_4412TimeZoneRuleD1Ev
T _ZN6icu_4412TimeZoneRuleD2Ev
T _ZN6icu_4412TimeZoneRuleaSERKS0_
T _ZN6icu_4413AndConstraint11isFulfilledEd
T _ZN6icu_4413AndConstraint17updateRepeatLimitEi
T _ZN6icu_4413AndConstraint3addEv
T _ZN6icu_4413AndConstraintC1ERKS0_
T _ZN6icu_4413AndConstraintC1Ev
T _ZN6icu_4413AndConstraintC2ERKS0_
T _ZN6icu_4413AndConstraintC2Ev
T _ZN6icu_4413AndConstraintD0Ev
T _ZN6icu_4413AndConstraintD1Ev
T _ZN6icu_4413AndConstraintD2Ev
T _ZN6icu_4413BasicTimeZone18getOffsetFromLocalEdiiRiS1_R10UErrorCode
T _ZN6icu_4413BasicTimeZone18getSimpleRulesNearEdRPNS_19InitialTimeZoneRuleERPNS_18AnnualTimeZoneRuleES6_R10UErrorCode
T _ZN6icu_4413BasicTimeZone21getTimeZoneRulesAfterEdRPNS_19InitialTimeZoneRuleERPNS_7UVectorER10UErrorCode
T _ZN6icu_4413BasicTimeZone24hasEquivalentTransitionsERS0_ddaR10UErrorCode
T _ZN6icu_4413BasicTimeZoneC1ERKNS_13UnicodeStringE
T _ZN6icu_4413BasicTimeZoneC1ERKS0_
T _ZN6icu_4413BasicTimeZoneC1Ev
T _ZN6icu_4413BasicTimeZoneC2ERKNS_13UnicodeStringE
T _ZN6icu_4413BasicTimeZoneC2ERKS0_
T _ZN6icu_4413BasicTimeZoneC2Ev
T _ZN6icu_4413BasicTimeZoneD0Ev
T _ZN6icu_4413BasicTimeZoneD1Ev
T _ZN6icu_4413BasicTimeZoneD2Ev
U _ZN6icu_4413BreakIterator18createWordInstanceERKNS_6LocaleER10UErrorCode
T _ZN6icu_4413CalendarCache11createCacheEPPS0_R10UErrorCode
T _ZN6icu_4413CalendarCache3getEPPS0_iR10UErrorCode
T _ZN6icu_4413CalendarCache3putEPPS0_iiR10UErrorCode
T _ZN6icu_4413CalendarCacheC1EiR10UErrorCode
T _ZN6icu_4413CalendarCacheC2EiR10UErrorCode
T _ZN6icu_4413CalendarCacheD0Ev
T _ZN6icu_4413CalendarCacheD1Ev
T _ZN6icu_4413CalendarCacheD2Ev
T _ZN6icu_4413CharacterNode12deleteValuesEv
T _ZN6icu_4413CharacterNode5clearEv
T _ZN6icu_4413CharacterNode8addValueEPvR10UErrorCode
T _ZN6icu_4413CollDataCache3getEP9UCollatorR10UErrorCode
T _ZN6icu_4413CollDataCache5flushEv
T _ZN6icu_4413CollDataCache5unrefEPNS_8CollDataE
T _ZN6icu_4413CollDataCache6getKeyEP9UCollatorPcPi
T _ZN6icu_4413CollDataCache9deleteKeyEPc
T _ZN6icu_4413CollDataCacheC1ER10UErrorCode
T _ZN6icu_4413CollDataCacheC2ER10UErrorCode
T _ZN6icu_4413CollDataCacheD1Ev
T _ZN6icu_4413CollDataCacheD2Ev
T _ZN6icu_4413DecimalFormat11setCurrencyEPKt
T _ZN6icu_4413DecimalFormat11setCurrencyEPKtR10UErrorCode
T _ZN6icu_4413DecimalFormat12applyPatternERKNS_13UnicodeStringER10UErrorCode
T _ZN6icu_4413DecimalFormat12applyPatternERKNS_13UnicodeStringER11UParseErrorR10UErrorCode
T _ZN6icu_4413DecimalFormat12applyPatternERKNS_13UnicodeStringEaR11UParseErrorR10UErrorCode
T _ZN6icu_4413DecimalFormat13expandAffixesEPKNS_13UnicodeStringE
T _ZN6icu_4413DecimalFormat13setMultiplierEi
T _ZN6icu_4413DecimalFormat14setFormatWidthEi
T _ZN6icu_4413DecimalFormat14setPadPositionENS0_12EPadPositionE
T _ZN6icu_4413DecimalFormat15setGroupingSizeEi
T _ZN6icu_4413DecimalFormat15setPadCharacterERKNS_13UnicodeStringE
T _ZN6icu_4413DecimalFormat15setRoundingModeENS0_13ERoundingModeE
T _ZN6icu_4413DecimalFormat15skipUWhiteSpaceERKNS_13UnicodeStringEi
T _ZN6icu_4413DecimalFormat16copyHashForAffixEPKNS_9HashtableEPS1_R10UErrorCode
R _ZN6icu_4413DecimalFormat16fgNumberPatternsE
T _ZN6icu_4413DecimalFormat16getStaticClassIDEv
T _ZN6icu_4413DecimalFormat16initHashForAffixER10UErrorCode
T _ZN6icu_4413DecimalFormat17setNegativePrefixERKNS_13UnicodeStringE
T _ZN6icu_4413DecimalFormat17setNegativeSuffixERKNS_13UnicodeStringE
T _ZN6icu_4413DecimalFormat17setPositivePrefixERKNS_13UnicodeStringE
T _ZN6icu_4413DecimalFormat17setPositiveSuffixERKNS_13UnicodeStringE
T _ZN6icu_4413DecimalFormat18compareSimpleAffixERKNS_13UnicodeStringES3_i
T _ZN6icu_4413DecimalFormat18deleteHashForAffixERPNS_9HashtableE
T _ZN6icu_4413DecimalFormat18skipRuleWhiteSpaceERKNS_13UnicodeStringEi
T _ZN6icu_4413DecimalFormat20isScientificNotationEv
R _ZN6icu_4413DecimalFormat20kDoubleIntegerDigitsE
T _ZN6icu_4413DecimalFormat20setRoundingIncrementEd
T _ZN6icu_4413DecimalFormat20setupCurrencyAffixesERKNS_13UnicodeStringEaaR10UErrorCode
T _ZN6icu_4413DecimalFormat21applyLocalizedPatternERKNS_13UnicodeStringER10UErrorCode
T _ZN6icu_4413DecimalFormat21applyLocalizedPatternERKNS_13UnicodeStringER11UParseErrorR10UErrorCode
R _ZN6icu_4413DecimalFormat21kDoubleFractionDigitsE
T _ZN6icu_4413DecimalFormat21setCurrencyForSymbolsEv
T _ZN6icu_4413DecimalFormat21setCurrencyInternallyEPKtR10UErrorCode
T _ZN6icu_4413DecimalFormat21setCurrencyPluralInfoERKNS_18CurrencyPluralInfoE
T _ZN6icu_4413DecimalFormat21setScientificNotationEa
T _ZN6icu_4413DecimalFormat22applyPatternInternallyERKNS_13UnicodeStringES3_aR11UParseErrorR10UErrorCode
T _ZN6icu_4413DecimalFormat22expandAffixAdjustWidthEPKNS_13UnicodeStringE
T _ZN6icu_4413DecimalFormat23adoptCurrencyPluralInfoEPNS_18CurrencyPluralInfoE
T _ZN6icu_4413DecimalFormat23copyHashForAffixPatternEPKNS_9HashtableEPS1_R10UErrorCode
T _ZN6icu_4413DecimalFormat23initHashForAffixPatternER10UErrorCode
T _ZN6icu_4413DecimalFormat23setDecimalFormatSymbolsERKNS_20DecimalFormatSymbolsE
T _ZN6icu_4413DecimalFormat23setMaximumIntegerDigitsEi
T _ZN6icu_4413DecimalFormat23setMinimumIntegerDigitsEi
T _ZN6icu_4413DecimalFormat24setMaximumFractionDigitsEi
T _ZN6icu_4413DecimalFormat24setMinimumExponentDigitsEa
T _ZN6icu_4413DecimalFormat24setMinimumFractionDigitsEi
T _ZN6icu_4413DecimalFormat24setSecondaryGroupingSizeEi
T _ZN6icu_4413DecimalFormat24setSignificantDigitsUsedEa
T _ZN6icu_4413DecimalFormat25adoptDecimalFormatSymbolsEPNS_20DecimalFormatSymbolsE
T _ZN6icu_4413DecimalFormat25deleteHashForAffixPatternEv
T _ZN6icu_4413DecimalFormat25isExponentSignAlwaysShownEv
T _ZN6icu_4413DecimalFormat26setExponentSignAlwaysShownEa
T _ZN6icu_4413DecimalFormat26setupCurrencyAffixPatternsER10UErrorCode
R _ZN6icu_4413DecimalFormat27kMaxScientificIntegerDigitsE
T _ZN6icu_4413DecimalFormat27setMaximumSignificantDigitsEi
T _ZN6icu_4413DecimalFormat27setMinimumSignificantDigitsEi
T _ZN6icu_4413DecimalFormat30applyPatternWithoutExpandAffixERKNS_13UnicodeStringEaR11UParseErrorR10UErrorCode
T _ZN6icu_4413DecimalFormat30setDecimalSeparatorAlwaysShownEa
T _ZN6icu_4413DecimalFormat4initEv
T _ZN6icu_4413DecimalFormat5matchERKNS_13UnicodeStringEiS3_
T _ZN6icu_4413DecimalFormat5matchERKNS_13UnicodeStringEii
T _ZN6icu_4413DecimalFormat9constructER10UErrorCodeR11UParseErrorPKNS_13UnicodeStringEPNS_20DecimalFormatSymbolsE
T _ZN6icu_4413DecimalFormatC1ER10UErrorCode
T _ZN6icu_4413DecimalFormatC1ERKNS_13UnicodeStringEPNS_20DecimalFormatSymbolsENS_12NumberFormat7EStylesER10UErrorCode
T _ZN6icu_4413DecimalFormatC1ERKNS_13UnicodeStringEPNS_20DecimalFormatSymbolsER10UErrorCode
T _ZN6icu_4413DecimalFormatC1ERKNS_13UnicodeStringEPNS_20DecimalFormatSymbolsER11UParseErrorR10UErrorCode
T _ZN6icu_4413DecimalFormatC1ERKNS_13UnicodeStringER10UErrorCode
T _ZN6icu_4413DecimalFormatC1ERKNS_13UnicodeStringERKNS_20DecimalFormatSymbolsER10UErrorCode
T _ZN6icu_4413DecimalFormatC1ERKS0_
T _ZN6icu_4413DecimalFormatC2ER10UErrorCode
T _ZN6icu_4413DecimalFormatC2ERKNS_13UnicodeStringEPNS_20DecimalFormatSymbolsENS_12NumberFormat7EStylesER10UErrorCode
T _ZN6icu_4413DecimalFormatC2ERKNS_13UnicodeStringEPNS_20DecimalFormatSymbolsER10UErrorCode
T _ZN6icu_4413DecimalFormatC2ERKNS_13UnicodeStringEPNS_20DecimalFormatSymbolsER11UParseErrorR10UErrorCode
T _ZN6icu_4413DecimalFormatC2ERKNS_13UnicodeStringER10UErrorCode
T _ZN6icu_4413DecimalFormatC2ERKNS_13UnicodeStringERKNS_20DecimalFormatSymbolsER10UErrorCode
T _ZN6icu_4413DecimalFormatC2ERKS0_
T _ZN6icu_4413DecimalFormatD0Ev
T _ZN6icu_4413DecimalFormatD1Ev
T _ZN6icu_4413DecimalFormatD2Ev
T _ZN6icu_4413DecimalFormataSERKS0_
T _ZN6icu_4413FieldPosition16getStaticClassIDEv
T _ZN6icu_4413FieldPositionD0Ev
T _ZN6icu_4413FieldPositionD1Ev
T _ZN6icu_4413FieldPositionD2Ev
T _ZN6icu_4413LocDataParser10nextStringEv
T _ZN6icu_4413LocDataParser10parseErrorEPKc
T _ZN6icu_4413LocDataParser5parseEPti
T _ZN6icu_4413LocDataParser7doParseEv
T _ZN6icu_4413LocDataParser9nextArrayERi
T _ZN6icu_4413MeasureFormat20createCurrencyFormatER10UErrorCode
T _ZN6icu_4413MeasureFormat20createCurrencyFormatERKNS_6LocaleER10UErrorCode
T _ZN6icu_4413MeasureFormatC1Ev
T _ZN6icu_4413MeasureFormatC2Ev
T _ZN6icu_4413MessageFormat10makeFormatEiPNS_13UnicodeStringER11UParseErrorR10UErrorCode
T _ZN6icu_4413MessageFormat10setFormatsEPPKNS_6FormatEi
T _ZN6icu_4413MessageFormat11adoptFormatERKNS_13UnicodeStringEPNS_6FormatER10UErrorCode
T _ZN6icu_4413MessageFormat11adoptFormatEiPNS_6FormatE
T _ZN6icu_4413MessageFormat11findKeywordERKNS_13UnicodeStringEPKPKt
T _ZN6icu_4413MessageFormat12adoptFormatsEPPNS_6FormatEi
T _ZN6icu_4413MessageFormat12applyPatternERKNS_13UnicodeStringER10UErrorCode
T _ZN6icu_4413MessageFormat12applyPatternERKNS_13UnicodeStringER11UParseErrorR10UErrorCode
T _ZN6icu_4413MessageFormat14getFormatNamesER10UErrorCode
T _ZN6icu_4413MessageFormat16allocateArgTypesEi
T _ZN6icu_4413MessageFormat16copyAndFixQuotesERKNS_13UnicodeStringEiiRS1_
T _ZN6icu_4413MessageFormat16getStaticClassIDEv
T _ZN6icu_4413MessageFormat18allocateSubformatsEi
T _ZN6icu_4413MessageFormat19autoQuoteApostropheERKNS_13UnicodeStringER10UErrorCode
T _ZN6icu_4413MessageFormat6formatERKNS_13UnicodeStringEPKNS_11FormattableEiRS1_R10UErrorCode
T _ZN6icu_4413MessageFormat9getFormatERKNS_13UnicodeStringER10UErrorCode
T _ZN6icu_4413MessageFormat9setFormatERKNS_13UnicodeStringERKNS_6FormatER10UErrorCode
T _ZN6icu_4413MessageFormat9setFormatEiRKNS_6FormatE
T _ZN6icu_4413MessageFormat9setLocaleERKNS_6LocaleE
T _ZN6icu_4413MessageFormatC1ERKNS_13UnicodeStringER10UErrorCode
T _ZN6icu_4413MessageFormatC1ERKNS_13UnicodeStringERKNS_6LocaleER10UErrorCode
T _ZN6icu_4413MessageFormatC1ERKNS_13UnicodeStringERKNS_6LocaleER11UParseErrorR10UErrorCode
T _ZN6icu_4413MessageFormatC1ERKS0_
T _ZN6icu_4413MessageFormatC2ERKNS_13UnicodeStringER10UErrorCode
T _ZN6icu_4413MessageFormatC2ERKNS_13UnicodeStringERKNS_6LocaleER10UErrorCode
T _ZN6icu_4413MessageFormatC2ERKNS_13UnicodeStringERKNS_6LocaleER11UParseErrorR10UErrorCode
T _ZN6icu_4413MessageFormatC2ERKS0_
T _ZN6icu_4413MessageFormatD0Ev
T _ZN6icu_4413MessageFormatD1Ev
T _ZN6icu_4413MessageFormatD2Ev
T _ZN6icu_4413MessageFormataSERKS0_
T _ZN6icu_4413OlsonTimeZone12setRawOffsetEi
T _ZN6icu_4413OlsonTimeZone14constructEmptyEv
T _ZN6icu_4413OlsonTimeZone16getStaticClassIDEv
T _ZN6icu_4413OlsonTimeZone16getTimeZoneRulesERPKNS_19InitialTimeZoneRuleEPPKNS_12TimeZoneRuleERiR10UErrorCode
T _ZN6icu_4413OlsonTimeZone17getNextTransitionEdaRNS_18TimeZoneTransitionE
T _ZN6icu_4413OlsonTimeZone18getOffsetFromLocalEdiiRiS1_R10UErrorCode
T _ZN6icu_4413OlsonTimeZone19initTransitionRulesER10UErrorCode
T _ZN6icu_4413OlsonTimeZone20clearTransitionRulesEv
T _ZN6icu_4413OlsonTimeZone20countTransitionRulesER10UErrorCode
T _ZN6icu_4413OlsonTimeZone21deleteTransitionRulesEv
T _ZN6icu_4413OlsonTimeZone21getPreviousTransitionEdaRNS_18TimeZoneTransitionE
T _ZN6icu_4413OlsonTimeZoneC1EPK15UResourceBundleS3_R10UErrorCode
T _ZN6icu_4413OlsonTimeZoneC1ERKS0_
T _ZN6icu_4413OlsonTimeZoneC2EPK15UResourceBundleS3_R10UErrorCode
T _ZN6icu_4413OlsonTimeZoneC2ERKS0_
T _ZN6icu_4413OlsonTimeZoneD0Ev
T _ZN6icu_4413OlsonTimeZoneD1Ev
T _ZN6icu_4413OlsonTimeZoneD2Ev
T _ZN6icu_4413OlsonTimeZoneaSERKS0_
U _ZN6icu_4413ParsePositionD1Ev
T _ZN6icu_4413SPUStringPool10getByIndexEi
T _ZN6icu_4413SPUStringPool4sizeEv
T _ZN6icu_4413SPUStringPool4sortER10UErrorCode
T _ZN6icu_4413SPUStringPool9addStringEPNS_13UnicodeStringER10UErrorCode
T _ZN6icu_4413SPUStringPoolC1ER10UErrorCode
T _ZN6icu_4413SPUStringPoolC2ER10UErrorCode
T _ZN6icu_4413SPUStringPoolD1Ev
T _ZN6icu_4413SPUStringPoolD2Ev
T _ZN6icu_4413TZEnumeration16getStaticClassIDEv
T _ZN6icu_4413UCollationPCE16getStaticClassIDEv
T _ZN6icu_4413UCollationPCE4initEPK9UCollator
T _ZN6icu_4413UCollationPCEC1EP18UCollationElements
T _ZN6icu_4413UCollationPCEC2EP18UCollationElements
T _ZN6icu_4413UCollationPCED0Ev
T _ZN6icu_4413UCollationPCED1Ev
T _ZN6icu_4413UCollationPCED2Ev
U _ZN6icu_4413UnicodeString10setToBogusEv
U _ZN6icu_4413UnicodeString12fastCopyFromERKS0_
U _ZN6icu_4413UnicodeString13releaseBufferEi
U _ZN6icu_4413UnicodeString14findAndReplaceEiiRKS0_iiS2_ii
U _ZN6icu_4413UnicodeString18cloneArrayIfNeededEiiaPPia
U _ZN6icu_4413UnicodeString4trimEv
U _ZN6icu_4413UnicodeString5setToEPtii
U _ZN6icu_4413UnicodeString5setToEaPKti
U _ZN6icu_4413UnicodeString7toLowerERKNS_6LocaleE
U _ZN6icu_4413UnicodeString7toLowerEv
U _ZN6icu_4413UnicodeString7toUpperEv
U _ZN6icu_4413UnicodeString7unBogusEv
U _ZN6icu_4413UnicodeString8foldCaseEj
U _ZN6icu_4413UnicodeString9doReplaceEiiPKtii
U _ZN6icu_4413UnicodeString9doReplaceEiiRKS0_ii
U _ZN6icu_4413UnicodeString9fromUTF32EPKii
U _ZN6icu_4413UnicodeString9getBufferEi
U _ZN6icu_4413UnicodeString9setCharAtEit
U _ZN6icu_4413UnicodeStringC1EPKc
U _ZN6icu_4413UnicodeStringC1EPKciNS0_10EInvariantE
U _ZN6icu_4413UnicodeStringC1EPKt
U _ZN6icu_4413UnicodeStringC1EPKti
U _ZN6icu_4413UnicodeStringC1EPtii
U _ZN6icu_4413UnicodeStringC1ERKS0_
U _ZN6icu_4413UnicodeStringC1ERKS0_i
U _ZN6icu_4413UnicodeStringC1ERKS0_ii
U _ZN6icu_4413UnicodeStringC1EaPKti
U _ZN6icu_4413UnicodeStringC1Ei
U _ZN6icu_4413UnicodeStringC1Eiii
U _ZN6icu_4413UnicodeStringC1Et
U _ZN6icu_4413UnicodeStringC1Ev
U _ZN6icu_4413UnicodeStringD1Ev
U _ZN6icu_4413UnicodeStringaSERKS0_
T _ZN6icu_4413ZSFCacheEntry19getZoneStringFormatEv
T _ZN6icu_4413ZSFCacheEntry6delRefEv
T _ZN6icu_4413ZSFCacheEntryC1ERKNS_6LocaleEPNS_16ZoneStringFormatEPS0_
T _ZN6icu_4413ZSFCacheEntryC2ERKNS_6LocaleEPNS_16ZoneStringFormatEPS0_
T _ZN6icu_4413ZSFCacheEntryD1Ev
T _ZN6icu_4413ZSFCacheEntryD2Ev
T _ZN6icu_4413ZSFStringPool3getEPKtR10UErrorCode
T _ZN6icu_4413ZSFStringPool3getERKNS_13UnicodeStringER10UErrorCode
T _ZN6icu_4413ZSFStringPool5adoptEPKtR10UErrorCode
T _ZN6icu_4413ZSFStringPool6freezeEv
T _ZN6icu_4413ZSFStringPoolC1ER10UErrorCode
T _ZN6icu_4413ZSFStringPoolC2ER10UErrorCode
T _ZN6icu_4413ZSFStringPoolD1Ev
T _ZN6icu_4413ZSFStringPoolD2Ev
T _ZN6icu_4414CEToStringsMap13putStringListEjPNS_10StringListER10UErrorCode
T _ZN6icu_4414CEToStringsMap3putEjPNS_13UnicodeStringER10UErrorCode
T _ZN6icu_4414CEToStringsMapC1ER10UErrorCode
T _ZN6icu_4414CEToStringsMapC2ER10UErrorCode
T _ZN6icu_4414CEToStringsMapD1Ev
T _ZN6icu_4414CEToStringsMapD2Ev
T _ZN6icu_4414CopticCalendar16getStaticClassIDEv
T _ZN6icu_4414CopticCalendar19handleComputeFieldsEiR10UErrorCode
T _ZN6icu_4414CopticCalendar21handleGetExtendedYearEv
R _ZN6icu_4414CopticCalendar22fgSystemDefaultCenturyE
R _ZN6icu_4414CopticCalendar26fgSystemDefaultCenturyYearE
D _ZN6icu_4414CopticCalendar27fgSystemDefaultCenturyStartE
T _ZN6icu_4414CopticCalendar30initializeSystemDefaultCenturyEv
D _ZN6icu_4414CopticCalendar31fgSystemDefaultCenturyStartYearE
T _ZN6icu_4414CopticCalendarC1ERKNS_6LocaleER10UErrorCode
T _ZN6icu_4414CopticCalendarC1ERKS0_
T _ZN6icu_4414CopticCalendarC2ERKNS_6LocaleER10UErrorCode
T _ZN6icu_4414CopticCalendarC2ERKS0_
T _ZN6icu_4414CopticCalendarD0Ev
T _ZN6icu_4414CopticCalendarD1Ev
T _ZN6icu_4414CopticCalendarD2Ev
T _ZN6icu_4414CurrencyAmount16getStaticClassIDEv
T _ZN6icu_4414CurrencyAmountC1ERKNS_11FormattableEPKtR10UErrorCode
T _ZN6icu_4414CurrencyAmountC1ERKS0_
T _ZN6icu_4414CurrencyAmountC1EdPKtR10UErrorCode
T _ZN6icu_4414CurrencyAmountC2ERKNS_11FormattableEPKtR10UErrorCode
T _ZN6icu_4414CurrencyAmountC2ERKS0_
T _ZN6icu_4414CurrencyAmountC2EdPKtR10UErrorCode
T _ZN6icu_4414CurrencyAmountD0Ev
T _ZN6icu_4414CurrencyAmountD1Ev
T _ZN6icu_4414CurrencyAmountD2Ev
T _ZN6icu_4414CurrencyAmountaSERKS0_
T _ZN6icu_4414CurrencyFormat16getStaticClassIDEv
T _ZN6icu_4414CurrencyFormatC1ERKNS_6LocaleER10UErrorCode
T _ZN6icu_4414CurrencyFormatC1ERKS0_
T _ZN6icu_4414CurrencyFormatC2ERKNS_6LocaleER10UErrorCode
T _ZN6icu_4414CurrencyFormatC2ERKS0_
T _ZN6icu_4414CurrencyFormatD0Ev
T _ZN6icu_4414CurrencyFormatD1Ev
T _ZN6icu_4414CurrencyFormatD2Ev
T _ZN6icu_4414HebrewCalendar10isLeapYearEi
T _ZN6icu_4414HebrewCalendar11startOfYearEiR10UErrorCode
T _ZN6icu_4414HebrewCalendar12monthsInYearEi
T _ZN6icu_4414HebrewCalendar16getStaticClassIDEv
T _ZN6icu_4414HebrewCalendar19handleComputeFieldsEiR10UErrorCode
T _ZN6icu_4414HebrewCalendar21handleGetExtendedYearEv
T _ZN6icu_4414HebrewCalendar22absoluteDayToDayOfWeekEi
R _ZN6icu_4414HebrewCalendar22fgSystemDefaultCenturyE
R _ZN6icu_4414HebrewCalendar26fgSystemDefaultCenturyYearE
D _ZN6icu_4414HebrewCalendar27fgSystemDefaultCenturyStartE
T _ZN6icu_4414HebrewCalendar30initializeSystemDefaultCenturyEv
D _ZN6icu_4414HebrewCalendar31fgSystemDefaultCenturyStartYearE
T _ZN6icu_4414HebrewCalendar3addE19UCalendarDateFieldsiR10UErrorCode
T _ZN6icu_4414HebrewCalendar3addENS_8Calendar11EDateFieldsEiR10UErrorCode
T _ZN6icu_4414HebrewCalendar4rollE19UCalendarDateFieldsiR10UErrorCode
T _ZN6icu_4414HebrewCalendar4rollENS_8Calendar11EDateFieldsEiR10UErrorCode
T _ZN6icu_4414HebrewCalendarC1ERKNS_6LocaleER10UErrorCode
T _ZN6icu_4414HebrewCalendarC1ERKS0_
T _ZN6icu_4414HebrewCalendarC2ERKNS_6LocaleER10UErrorCode
T _ZN6icu_4414HebrewCalendarC2ERKS0_
T _ZN6icu_4414HebrewCalendarD0Ev
T _ZN6icu_4414HebrewCalendarD1Ev
T _ZN6icu_4414HebrewCalendarD2Ev
T _ZN6icu_4414IndianCalendar16getStaticClassIDEv
T _ZN6icu_4414IndianCalendar19handleComputeFieldsEiR10UErrorCode
T _ZN6icu_4414IndianCalendar21handleGetExtendedYearEv
R _ZN6icu_4414IndianCalendar22fgSystemDefaultCenturyE
R _ZN6icu_4414IndianCalendar26fgSystemDefaultCenturyYearE
D _ZN6icu_4414IndianCalendar27fgSystemDefaultCenturyStartE
T _ZN6icu_4414IndianCalendar30initializeSystemDefaultCenturyEv
D _ZN6icu_4414IndianCalendar31fgSystemDefaultCenturyStartYearE
T _ZN6icu_4414IndianCalendarC1ERKNS_6LocaleER10UErrorCode
T _ZN6icu_4414IndianCalendarC1ERKS0_
T _ZN6icu_4414IndianCalendarC2ERKNS_6LocaleER10UErrorCode
T _ZN6icu_4414IndianCalendarC2ERKS0_
T _ZN6icu_4414IndianCalendarD0Ev
T _ZN6icu_4414IndianCalendarD1Ev
T _ZN6icu_4414IndianCalendarD2Ev
T _ZN6icu_4414NFSubstitution10setDivisorEiiR10UErrorCode
T _ZN6icu_4414NFSubstitution16getStaticClassIDEv
T _ZN6icu_4414NFSubstitution16makeSubstitutionEiPKNS_6NFRuleES3_PKNS_9NFRuleSetEPKNS_21RuleBasedNumberFormatERKNS_13UnicodeStringER10UErrorCode
T _ZN6icu_4414NFSubstitutionC1EiPKNS_9NFRuleSetEPKNS_21RuleBasedNumberFormatERKNS_13UnicodeStringER10UErrorCode
T _ZN6icu_4414NFSubstitutionC2EiPKNS_9NFRuleSetEPKNS_21RuleBasedNumberFormatERKNS_13UnicodeStringER10UErrorCode
T _ZN6icu_4414NFSubstitutionD0Ev
T _ZN6icu_4414NFSubstitutionD1Ev
T _ZN6icu_4414NFSubstitutionD2Ev
T _ZN6icu_4414SearchIterator12setAttributeE16USearchAttribute21USearchAttributeValueR10UErrorCode
T _ZN6icu_4414SearchIterator13setMatchStartEi
T _ZN6icu_4414SearchIterator14setMatchLengthEi
T _ZN6icu_4414SearchIterator16setBreakIteratorEPNS_13BreakIteratorER10UErrorCode
T _ZN6icu_4414SearchIterator16setMatchNotFoundEv
T _ZN6icu_4414SearchIterator4lastER10UErrorCode
T _ZN6icu_4414SearchIterator4nextER10UErrorCode
T _ZN6icu_4414SearchIterator5firstER10UErrorCode
T _ZN6icu_4414SearchIterator5resetEv
T _ZN6icu_4414SearchIterator7setTextERKNS_13UnicodeStringER10UErrorCode
T _ZN6icu_4414SearchIterator7setTextERNS_17CharacterIteratorER10UErrorCode
T _ZN6icu_4414SearchIterator8previousER10UErrorCode
T _ZN6icu_4414SearchIterator9followingEiR10UErrorCode
T _ZN6icu_4414SearchIterator9precedingEiR10UErrorCode
T _ZN6icu_4414SearchIteratorC1ERKNS_13UnicodeStringEPNS_13BreakIteratorE
T _ZN6icu_4414SearchIteratorC1ERKS0_
T _ZN6icu_4414SearchIteratorC1ERNS_17CharacterIteratorEPNS_13BreakIteratorE
T _ZN6icu_4414SearchIteratorC1Ev
T _ZN6icu_4414SearchIteratorC2ERKNS_13UnicodeStringEPNS_13BreakIteratorE
T _ZN6icu_4414SearchIteratorC2ERKS0_
T _ZN6icu_4414SearchIteratorC2ERNS_17CharacterIteratorEPNS_13BreakIteratorE
T _ZN6icu_4414SearchIteratorC2Ev
T _ZN6icu_4414SearchIteratorD0Ev
T _ZN6icu_4414SearchIteratorD1Ev
T _ZN6icu_4414SearchIteratorD2Ev
T _ZN6icu_4414SearchIteratoraSERKS0_
T _ZN6icu_4414SimpleTimeZone10setEndRuleEiiiNS0_8TimeModeER10UErrorCode
T _ZN6icu_4414SimpleTimeZone10setEndRuleEiiiiNS0_8TimeModeER10UErrorCode
T _ZN6icu_4414SimpleTimeZone10setEndRuleEiiiiNS0_8TimeModeEaR10UErrorCode
T _ZN6icu_4414SimpleTimeZone11decodeRulesER10UErrorCode
T _ZN6icu_4414SimpleTimeZone12setRawOffsetEi
T _ZN6icu_4414SimpleTimeZone12setStartRuleEiiiNS0_8TimeModeER10UErrorCode
T _ZN6icu_4414SimpleTimeZone12setStartRuleEiiiiNS0_8TimeModeER10UErrorCode
T _ZN6icu_4414SimpleTimeZone12setStartRuleEiiiiNS0_8TimeModeEaR10UErrorCode
T _ZN6icu_4414SimpleTimeZone12setStartYearEi
T _ZN6icu_4414SimpleTimeZone13compareToRuleEaaaaaiiNS0_5EModeEaaai
T _ZN6icu_4414SimpleTimeZone13decodeEndRuleER10UErrorCode
T _ZN6icu_4414SimpleTimeZone13setDSTSavingsEiR10UErrorCode
T _ZN6icu_4414SimpleTimeZone15decodeStartRuleER10UErrorCode
T _ZN6icu_4414SimpleTimeZone16getStaticClassIDEv
T _ZN6icu_4414SimpleTimeZone16getTimeZoneRulesERPKNS_19InitialTimeZoneRuleEPPKNS_12TimeZoneRuleERiR10UErrorCode
R _ZN6icu_4414SimpleTimeZone17STATICMONTHLENGTHE
T _ZN6icu_4414SimpleTimeZone17getNextTransitionEdaRNS_18TimeZoneTransitionE
T _ZN6icu_4414SimpleTimeZone18getOffsetFromLocalEdiiRiS1_R10UErrorCode
T _ZN6icu_4414SimpleTimeZone19initTransitionRulesER10UErrorCode
T _ZN6icu_4414SimpleTimeZone20clearTransitionRulesEv
T _ZN6icu_4414SimpleTimeZone20countTransitionRulesER10UErrorCode
T _ZN6icu_4414SimpleTimeZone21deleteTransitionRulesEv
T _ZN6icu_4414SimpleTimeZone21getPreviousTransitionEdaRNS_18TimeZoneTransitionE
T _ZN6icu_4414SimpleTimeZone9constructEiaaaiNS0_8TimeModeEaaaiS1_iR10UErrorCode
T _ZN6icu_4414SimpleTimeZoneC1ERKS0_
T _ZN6icu_4414SimpleTimeZoneC1EiRKNS_13UnicodeStringE
T _ZN6icu_4414SimpleTimeZoneC1EiRKNS_13UnicodeStringEaaaiNS0_8TimeModeEaaaiS4_iR10UErrorCode
T _ZN6icu_4414SimpleTimeZoneC1EiRKNS_13UnicodeStringEaaaiaaaiR10UErrorCode
T _ZN6icu_4414SimpleTimeZoneC1EiRKNS_13UnicodeStringEaaaiaaaiiR10UErrorCode
T _ZN6icu_4414SimpleTimeZoneC2ERKS0_
T _ZN6icu_4414SimpleTimeZoneC2EiRKNS_13UnicodeStringE
T _ZN6icu_4414SimpleTimeZoneC2EiRKNS_13UnicodeStringEaaaiNS0_8TimeModeEaaaiS4_iR10UErrorCode
T _ZN6icu_4414SimpleTimeZoneC2EiRKNS_13UnicodeStringEaaaiaaaiR10UErrorCode
T _ZN6icu_4414SimpleTimeZoneC2EiRKNS_13UnicodeStringEaaaiaaaiiR10UErrorCode
T _ZN6icu_4414SimpleTimeZoneD0Ev
T _ZN6icu_4414SimpleTimeZoneD1Ev
T _ZN6icu_4414SimpleTimeZoneD2Ev
T _ZN6icu_4414SimpleTimeZoneaSERKS0_
T _ZN6icu_4414StringToCEsMap3getEPKNS_13UnicodeStringE
T _ZN6icu_4414StringToCEsMap3putEPKNS_13UnicodeStringEPKNS_6CEListER10UErrorCode
T _ZN6icu_4414StringToCEsMapC1ER10UErrorCode
T _ZN6icu_4414StringToCEsMapC2ER10UErrorCode
T _ZN6icu_4414StringToCEsMapD1Ev
T _ZN6icu_4414StringToCEsMapD2Ev
T _ZN6icu_4414TaiwanCalendar16getStaticClassIDEv
T _ZN6icu_4414TaiwanCalendar19handleComputeFieldsEiR10UErrorCode
T _ZN6icu_4414TaiwanCalendar21handleGetExtendedYearEv
R _ZN6icu_4414TaiwanCalendar22fgSystemDefaultCenturyE
R _ZN6icu_4414TaiwanCalendar26fgSystemDefaultCenturyYearE
D _ZN6icu_4414TaiwanCalendar27fgSystemDefaultCenturyStartE
T _ZN6icu_4414TaiwanCalendar30initializeSystemDefaultCenturyEv
D _ZN6icu_4414TaiwanCalendar31fgSystemDefaultCenturyStartYearE
T _ZN6icu_4414TaiwanCalendarC1ERKNS_6LocaleER10UErrorCode
T _ZN6icu_4414TaiwanCalendarC1ERKS0_
T _ZN6icu_4414TaiwanCalendarC2ERKNS_6LocaleER10UErrorCode
T _ZN6icu_4414TaiwanCalendarC2ERKS0_
T _ZN6icu_4414TaiwanCalendarD0Ev
T _ZN6icu_4414TaiwanCalendarD1Ev
T _ZN6icu_4414TaiwanCalendarD2Ev
T _ZN6icu_4414TaiwanCalendaraSERKS0_
T _ZN6icu_4414TimeUnitAmount16getStaticClassIDEv
T _ZN6icu_4414TimeUnitAmountC1ERKNS_11FormattableENS_8TimeUnit15UTimeUnitFieldsER10UErrorCode
T _ZN6icu_4414TimeUnitAmountC1ERKS0_
T _ZN6icu_4414TimeUnitAmountC1EdNS_8TimeUnit15UTimeUnitFieldsER10UErrorCode
T _ZN6icu_4414TimeUnitAmountC2ERKNS_11FormattableENS_8TimeUnit15UTimeUnitFieldsER10UErrorCode
T _ZN6icu_4414TimeUnitAmountC2ERKS0_
T _ZN6icu_4414TimeUnitAmountC2EdNS_8TimeUnit15UTimeUnitFieldsER10UErrorCode
T _ZN6icu_4414TimeUnitAmountD0Ev
T _ZN6icu_4414TimeUnitAmountD1Ev
T _ZN6icu_4414TimeUnitAmountD2Ev
T _ZN6icu_4414TimeUnitAmountaSERKS0_
T _ZN6icu_4414TimeUnitFormat10deleteHashEPNS_9HashtableE
T _ZN6icu_4414TimeUnitFormat15getTimeUnitNameENS_8TimeUnit15UTimeUnitFieldsER10UErrorCode
T _ZN6icu_4414TimeUnitFormat15initDataMembersER10UErrorCode
T _ZN6icu_4414TimeUnitFormat15setNumberFormatERKNS_12NumberFormatER10UErrorCode
T _ZN6icu_4414TimeUnitFormat16checkConsistencyENS0_6EStyleEPKcR10UErrorCode
T _ZN6icu_4414TimeUnitFormat16getStaticClassIDEv
T _ZN6icu_4414TimeUnitFormat19searchInLocaleChainENS0_6EStyleEPKcNS_8TimeUnit15UTimeUnitFieldsES3_S3_PNS_9HashtableER10UErrorCode
T _ZN6icu_4414TimeUnitFormat21readFromCurrentLocaleENS0_6EStyleEPKcR10UErrorCode
T _ZN6icu_4414TimeUnitFormat5setupER10UErrorCode
T _ZN6icu_4414TimeUnitFormat6createERKNS_6LocaleENS0_6EStyleER10UErrorCode
T _ZN6icu_4414TimeUnitFormat8copyHashEPKNS_9HashtableEPS1_R10UErrorCode
T _ZN6icu_4414TimeUnitFormat8initHashER10UErrorCode
T _ZN6icu_4414TimeUnitFormat9setLocaleERKNS_6LocaleER10UErrorCode
T _ZN6icu_4414TimeUnitFormatC1ER10UErrorCode
T _ZN6icu_4414TimeUnitFormatC1ERKNS_6LocaleENS0_6EStyleER10UErrorCode
T _ZN6icu_4414TimeUnitFormatC1ERKNS_6LocaleER10UErrorCode
T _ZN6icu_4414TimeUnitFormatC1ERKS0_
T _ZN6icu_4414TimeUnitFormatC2ER10UErrorCode
T _ZN6icu_4414TimeUnitFormatC2ERKNS_6LocaleENS0_6EStyleER10UErrorCode
T _ZN6icu_4414TimeUnitFormatC2ERKNS_6LocaleER10UErrorCode
T _ZN6icu_4414TimeUnitFormatC2ERKS0_
T _ZN6icu_4414TimeUnitFormatD0Ev
T _ZN6icu_4414TimeUnitFormatD1Ev
T _ZN6icu_4414TimeUnitFormatD2Ev
T _ZN6icu_4414TimeUnitFormataSERKS0_
T _ZN6icu_4414ZoneStringInfoC1ERKNS_13UnicodeStringES3_NS_23TimeZoneTranslationTypeERNS_13ZSFStringPoolER10UErrorCode
T _ZN6icu_4414ZoneStringInfoC2ERKNS_13UnicodeStringES3_NS_23TimeZoneTranslationTypeERNS_13ZSFStringPoolER10UErrorCode
T _ZN6icu_4414ZoneStringInfoD0Ev
T _ZN6icu_4414ZoneStringInfoD1Ev
T _ZN6icu_4414ZoneStringInfoD2Ev
T _ZN6icu_4415CharsetDetector14setRecognizersER10UErrorCode
T _ZN6icu_4415CharsetDetector16setStripTagsFlagEa
T _ZN6icu_4415CharsetDetector18getDetectableCountEv
T _ZN6icu_4415CharsetDetector6detectER10UErrorCode
T _ZN6icu_4415CharsetDetector7setTextEPKci
T _ZN6icu_4415CharsetDetector9detectAllERiR10UErrorCode
T _ZN6icu_4415CharsetDetectorC1ER10UErrorCode
T _ZN6icu_4415CharsetDetectorC2ER10UErrorCode
T _ZN6icu_4415CharsetDetectorD1Ev
T _ZN6icu_4415CharsetDetectorD2Ev
T _ZN6icu_4415ChineseCalendar11offsetMonthEiii
T _ZN6icu_4415ChineseCalendar12daysToMillisEd
T _ZN6icu_4415ChineseCalendar12millisToDaysEd
T _ZN6icu_4415ChineseCalendar16getStaticClassIDEv
T _ZN6icu_4415ChineseCalendar19handleComputeFieldsEiR10UErrorCode
T _ZN6icu_4415ChineseCalendar20computeChineseFieldsEiiia
T _ZN6icu_4415ChineseCalendar21handleGetExtendedYearEv
R _ZN6icu_4415ChineseCalendar22fgSystemDefaultCenturyE
R _ZN6icu_4415ChineseCalendar23CHINESE_DATE_PRECEDENCEE
R _ZN6icu_4415ChineseCalendar26fgSystemDefaultCenturyYearE
D _ZN6icu_4415ChineseCalendar27fgSystemDefaultCenturyStartE
T _ZN6icu_4415ChineseCalendar30initializeSystemDefaultCenturyEv
D _ZN6icu_4415ChineseCalendar31fgSystemDefaultCenturyStartYearE
T _ZN6icu_4415ChineseCalendar3addE19UCalendarDateFieldsiR10UErrorCode
T _ZN6icu_4415ChineseCalendar3addENS_8Calendar11EDateFieldsEiR10UErrorCode
T _ZN6icu_4415ChineseCalendar4rollE19UCalendarDateFieldsiR10UErrorCode
T _ZN6icu_4415ChineseCalendar4rollENS_8Calendar11EDateFieldsEiR10UErrorCode
T _ZN6icu_4415ChineseCalendarC1ERKNS_6LocaleER10UErrorCode
T _ZN6icu_4415ChineseCalendarC1ERKS0_
T _ZN6icu_4415ChineseCalendarC2ERKNS_6LocaleER10UErrorCode
T _ZN6icu_4415ChineseCalendarC2ERKS0_
T _ZN6icu_4415ChineseCalendarD0Ev
T _ZN6icu_4415ChineseCalendarD1Ev
T _ZN6icu_4415ChineseCalendarD2Ev
T _ZN6icu_4415DateTimeMatcher10getPatternEv
T _ZN6icu_4415DateTimeMatcher11getDistanceERKS0_iRNS_12DistanceInfoE
T _ZN6icu_4415DateTimeMatcher12getFieldMaskEv
T _ZN6icu_4415DateTimeMatcher14getBasePatternERNS_13UnicodeStringE
T _ZN6icu_4415DateTimeMatcher14getSkeletonPtrEv
T _ZN6icu_4415DateTimeMatcher3setERKNS_13UnicodeStringEPNS_12FormatParserE
T _ZN6icu_4415DateTimeMatcher3setERKNS_13UnicodeStringEPNS_12FormatParserERNS_11PtnSkeletonE
T _ZN6icu_4415DateTimeMatcher8copyFromERKNS_11PtnSkeletonE
T _ZN6icu_4415DateTimeMatcher8copyFromEv
T _ZN6icu_4415DateTimeMatcherC1ERKS0_
T _ZN6icu_4415DateTimeMatcherC1Ev
T _ZN6icu_4415DateTimeMatcherC2ERKS0_
T _ZN6icu_4415DateTimeMatcherC2Ev
T _ZN6icu_4415GoodSuffixTableC1ERNS_6CEListERNS_17BadCharacterTableER10UErrorCode
T _ZN6icu_4415GoodSuffixTableC2ERNS_6CEListERNS_17BadCharacterTableER10UErrorCode
T _ZN6icu_4415GoodSuffixTableD1Ev
T _ZN6icu_4415GoodSuffixTableD2Ev
T _ZN6icu_4415IslamicCalendar13civilLeapYearEi
T _ZN6icu_4415IslamicCalendar16getStaticClassIDEv
T _ZN6icu_4415IslamicCalendar19handleComputeFieldsEiR10UErrorCode
T _ZN6icu_4415IslamicCalendar21handleGetExtendedYearEv
R _ZN6icu_4415IslamicCalendar22fgSystemDefaultCenturyE
R _ZN6icu_4415IslamicCalendar26fgSystemDefaultCenturyYearE
D _ZN6icu_4415IslamicCalendar27fgSystemDefaultCenturyStartE
T _ZN6icu_4415IslamicCalendar30initializeSystemDefaultCenturyEv
D _ZN6icu_4415IslamicCalendar31fgSystemDefaultCenturyStartYearE
T _ZN6icu_4415IslamicCalendar7isCivilEv
T _ZN6icu_4415IslamicCalendar7moonAgeEdR10UErrorCode
T _ZN6icu_4415IslamicCalendar8setCivilENS0_6ECivilER10UErrorCode
T _ZN6icu_4415IslamicCalendar9yearStartEi
T _ZN6icu_4415IslamicCalendarC1ERKNS_6LocaleER10UErrorCodeNS0_6ECivilE
T _ZN6icu_4415IslamicCalendarC1ERKS0_
T _ZN6icu_4415IslamicCalendarC2ERKNS_6LocaleER10UErrorCodeNS0_6ECivilE
T _ZN6icu_4415IslamicCalendarC2ERKS0_
T _ZN6icu_4415IslamicCalendarD0Ev
T _ZN6icu_4415IslamicCalendarD1Ev
T _ZN6icu_4415IslamicCalendarD2Ev
W _ZN6icu_4415MaybeStackArrayIcLi52EE12aliasInsteadEPci
W _ZN6icu_4415MaybeStackArrayIcLi52EE12releaseArrayEv
W _ZN6icu_4415MaybeStackArrayIcLi52EE13orphanOrCloneEiRi
W _ZN6icu_4415MaybeStackArrayIcLi52EE6resizeEii
W _ZN6icu_4415MaybeStackArrayIcLi52EEC1ERKS1_
W _ZN6icu_4415MaybeStackArrayIcLi52EEC1Ev
W _ZN6icu_4415MaybeStackArrayIcLi52EEC2ERKS1_
W _ZN6icu_4415MaybeStackArrayIcLi52EEC2Ev
W _ZN6icu_4415MaybeStackArrayIcLi52EED1Ev
W _ZN6icu_4415MaybeStackArrayIcLi52EED2Ev
W _ZN6icu_4415MaybeStackArrayIcLi52EEaSERKS1_
W _ZN6icu_4415MaybeStackArrayIcLi52EEeqERKS1_
W _ZN6icu_4415MaybeStackArrayIcLi52EEixEi
W _ZN6icu_4415MaybeStackArrayIcLi52EEneERKS1_
T _ZN6icu_4415NumberingSystem14createInstanceER10UErrorCode
T _ZN6icu_4415NumberingSystem14createInstanceERKNS_6LocaleER10UErrorCode
T _ZN6icu_4415NumberingSystem14createInstanceEiaRKNS_13UnicodeStringER10UErrorCode
T _ZN6icu_4415NumberingSystem14getDescriptionEv
T _ZN6icu_4415NumberingSystem14setAlgorithmicEa
T _ZN6icu_4415NumberingSystem16getStaticClassIDEv
T _ZN6icu_4415NumberingSystem18isValidDigitStringERKNS_13UnicodeStringE
T _ZN6icu_4415NumberingSystem20createInstanceByNameEPKcR10UErrorCode
T _ZN6icu_4415NumberingSystem7setDescENS_13UnicodeStringE
T _ZN6icu_4415NumberingSystem8getRadixEv
T _ZN6icu_4415NumberingSystem8setRadixEi
T _ZN6icu_4415NumberingSystemC1ERKS0_
T _ZN6icu_4415NumberingSystemC1Ev
T _ZN6icu_4415NumberingSystemC2ERKS0_
T _ZN6icu_4415NumberingSystemC2Ev
T _ZN6icu_4415NumberingSystemD0Ev
T _ZN6icu_4415NumberingSystemD1Ev
T _ZN6icu_4415NumberingSystemD2Ev
T _ZN6icu_4415PersianCalendar10isLeapYearEi
T _ZN6icu_4415PersianCalendar16getStaticClassIDEv
T _ZN6icu_4415PersianCalendar19handleComputeFieldsEiR10UErrorCode
T _ZN6icu_4415PersianCalendar21handleGetExtendedYearEv
R _ZN6icu_4415PersianCalendar22fgSystemDefaultCenturyE
R _ZN6icu_4415PersianCalendar26fgSystemDefaultCenturyYearE
D _ZN6icu_4415PersianCalendar27fgSystemDefaultCenturyStartE
T _ZN6icu_4415PersianCalendar30initializeSystemDefaultCenturyEv
D _ZN6icu_4415PersianCalendar31fgSystemDefaultCenturyStartYearE
T _ZN6icu_4415PersianCalendar9yearStartEi
T _ZN6icu_4415PersianCalendarC1ERKNS_6LocaleER10UErrorCode
T _ZN6icu_4415PersianCalendarC1ERKS0_
T _ZN6icu_4415PersianCalendarC2ERKNS_6LocaleER10UErrorCode
T _ZN6icu_4415PersianCalendarC2ERKS0_
T _ZN6icu_4415PersianCalendarD0Ev
T _ZN6icu_4415PersianCalendarD1Ev
T _ZN6icu_4415PersianCalendarD2Ev
B _ZN6icu_4415RegexStaticSets11gStaticSetsE
T _ZN6icu_4415RegexStaticSets11initGlobalsEP10UErrorCode
T _ZN6icu_4415RegexStaticSets7cleanupEv
T _ZN6icu_4415RegexStaticSetsC1EP10UErrorCode
T _ZN6icu_4415RegexStaticSetsC2EP10UErrorCode
T _ZN6icu_4415RegexStaticSetsD1Ev
T _ZN6icu_4415RegexStaticSetsD2Ev
T _ZN6icu_4416BoyerMooreSearch13getPatternCEsEv
T _ZN6icu_4416BoyerMooreSearch15setTargetStringEPKNS_13UnicodeStringER10UErrorCode
T _ZN6icu_4416BoyerMooreSearch16getStaticClassIDEv
T _ZN6icu_4416BoyerMooreSearch18getGoodSuffixTableEv
T _ZN6icu_4416BoyerMooreSearch20getBadCharacterTableEv
T _ZN6icu_4416BoyerMooreSearch5emptyEv
T _ZN6icu_4416BoyerMooreSearch6searchEiRiS1_
T _ZN6icu_4416BoyerMooreSearch7getDataEv
T _ZN6icu_4416BoyerMooreSearchC1EPNS_8CollDataERKNS_13UnicodeStringEPS4_R10UErrorCode
T _ZN6icu_4416BoyerMooreSearchC2EPNS_8CollDataERKNS_13UnicodeStringEPS4_R10UErrorCode
T _ZN6icu_4416BoyerMooreSearchD0Ev
T _ZN6icu_4416BoyerMooreSearchD1Ev
T _ZN6icu_4416BoyerMooreSearchD2Ev
T _ZN6icu_4416BuddhistCalendar16getStaticClassIDEv
T _ZN6icu_4416BuddhistCalendar19handleComputeFieldsEiR10UErrorCode
T _ZN6icu_4416BuddhistCalendar21handleGetExtendedYearEv
R _ZN6icu_4416BuddhistCalendar22fgSystemDefaultCenturyE
R _ZN6icu_4416BuddhistCalendar26fgSystemDefaultCenturyYearE
D _ZN6icu_4416BuddhistCalendar27fgSystemDefaultCenturyStartE
T _ZN6icu_4416BuddhistCalendar30initializeSystemDefaultCenturyEv
D _ZN6icu_4416BuddhistCalendar31fgSystemDefaultCenturyStartYearE
T _ZN6icu_4416BuddhistCalendarC1ERKNS_6LocaleER10UErrorCode
T _ZN6icu_4416BuddhistCalendarC1ERKS0_
T _ZN6icu_4416BuddhistCalendarC2ERKNS_6LocaleER10UErrorCode
T _ZN6icu_4416BuddhistCalendarC2ERKS0_
T _ZN6icu_4416BuddhistCalendarD0Ev
T _ZN6icu_4416BuddhistCalendarD1Ev
T _ZN6icu_4416BuddhistCalendarD2Ev
T _ZN6icu_4416BuddhistCalendaraSERKS0_
T _ZN6icu_4416BuilderScriptSetC1Ev
T _ZN6icu_4416BuilderScriptSetC2Ev
T _ZN6icu_4416BuilderScriptSetD1Ev
T _ZN6icu_4416BuilderScriptSetD2Ev
T _ZN6icu_4416CharsetRecog_euc8nextCharEPNS_12IteratedCharEPNS_9InputTextE
T _ZN6icu_4416CharsetRecog_eucD0Ev
T _ZN6icu_4416CharsetRecog_eucD1Ev
T _ZN6icu_4416CharsetRecog_eucD2Ev
T _ZN6icu_4416DateIntervalInfo10deleteHashEPNS_9HashtableE
T _ZN6icu_4416DateIntervalInfo13parseSkeletonERKNS_13UnicodeStringEPi
T _ZN6icu_4416DateIntervalInfo13stringNumericEiic
T _ZN6icu_4416DateIntervalInfo14initializeDataERKNS_6LocaleER10UErrorCode
T _ZN6icu_4416DateIntervalInfo16getStaticClassIDEv
T _ZN6icu_4416DateIntervalInfo18setIntervalPatternERKNS_13UnicodeStringE19UCalendarDateFieldsS3_R10UErrorCode
T _ZN6icu_4416DateIntervalInfo26setFallbackIntervalPatternERKNS_13UnicodeStringER10UErrorCode
T _ZN6icu_4416DateIntervalInfo28calendarFieldToIntervalIndexE19UCalendarDateFieldsR10UErrorCode
T _ZN6icu_4416DateIntervalInfo28setIntervalPatternInternallyERKNS_13UnicodeStringE19UCalendarDateFieldsS3_R10UErrorCode
T _ZN6icu_4416DateIntervalInfo8copyHashEPKNS_9HashtableEPS1_R10UErrorCode
T _ZN6icu_4416DateIntervalInfo8initHashER10UErrorCode
T _ZN6icu_4416DateIntervalInfoC1ER10UErrorCode
T _ZN6icu_4416DateIntervalInfoC1ERKNS_6LocaleER10UErrorCode
T _ZN6icu_4416DateIntervalInfoC1ERKS0_
T _ZN6icu_4416DateIntervalInfoC2ER10UErrorCode
T _ZN6icu_4416DateIntervalInfoC2ERKNS_6LocaleER10UErrorCode
T _ZN6icu_4416DateIntervalInfoC2ERKS0_
T _ZN6icu_4416DateIntervalInfoD0Ev
T _ZN6icu_4416DateIntervalInfoD1Ev
T _ZN6icu_4416DateIntervalInfoD2Ev
T _ZN6icu_4416DateIntervalInfoaSERKS0_
T _ZN6icu_4416EthiopicCalendar15setAmeteAlemEraEa
T _ZN6icu_4416EthiopicCalendar16getStaticClassIDEv
T _ZN6icu_4416EthiopicCalendar19handleComputeFieldsEiR10UErrorCode
T _ZN6icu_4416EthiopicCalendar21handleGetExtendedYearEv
R _ZN6icu_4416EthiopicCalendar22fgSystemDefaultCenturyE
R _ZN6icu_4416EthiopicCalendar26fgSystemDefaultCenturyYearE
D _ZN6icu_4416EthiopicCalendar27fgSystemDefaultCenturyStartE
T _ZN6icu_4416EthiopicCalendar30initializeSystemDefaultCenturyEv
D _ZN6icu_4416EthiopicCalendar31fgSystemDefaultCenturyStartYearE
T _ZN6icu_4416EthiopicCalendarC1ERKNS_6LocaleER10UErrorCodeNS0_8EEraTypeE
T _ZN6icu_4416EthiopicCalendarC1ERKS0_
T _ZN6icu_4416EthiopicCalendarC2ERKNS_6LocaleER10UErrorCodeNS0_8EEraTypeE
T _ZN6icu_4416EthiopicCalendarC2ERKS0_
T _ZN6icu_4416EthiopicCalendarD0Ev
T _ZN6icu_4416EthiopicCalendarD1Ev
T _ZN6icu_4416EthiopicCalendarD2Ev
T _ZN6icu_4416JapaneseCalendar13getCurrentEraEv
T _ZN6icu_4416JapaneseCalendar16getStaticClassIDEv
T _ZN6icu_4416JapaneseCalendar19handleComputeFieldsEiR10UErrorCode
T _ZN6icu_4416JapaneseCalendar20getDefaultDayInMonthEii
T _ZN6icu_4416JapaneseCalendar21getDefaultMonthInYearEi
T _ZN6icu_4416JapaneseCalendar21handleGetExtendedYearEv
T _ZN6icu_4416JapaneseCalendarC1ERKNS_6LocaleER10UErrorCode
T _ZN6icu_4416JapaneseCalendarC1ERKS0_
T _ZN6icu_4416JapaneseCalendarC2ERKNS_6LocaleER10UErrorCode
T _ZN6icu_4416JapaneseCalendarC2ERKS0_
T _ZN6icu_4416JapaneseCalendarD0Ev
T _ZN6icu_4416JapaneseCalendarD1Ev
T _ZN6icu_4416JapaneseCalendarD2Ev
T _ZN6icu_4416JapaneseCalendaraSERKS0_
T _ZN6icu_4416NullSubstitution16getStaticClassIDEv
T _ZN6icu_4416SimpleDateFormat10initializeERKNS_6LocaleER10UErrorCode
T _ZN6icu_4416SimpleDateFormat12applyPatternERKNS_13UnicodeStringE
T _ZN6icu_4416SimpleDateFormat13adoptCalendarEPNS_8CalendarE
T _ZN6icu_4416SimpleDateFormat16getStaticClassIDEv
T _ZN6icu_4416SimpleDateFormat16translatePatternERKNS_13UnicodeStringERS1_S3_S3_R10UErrorCode
T _ZN6icu_4416SimpleDateFormat17initGMTFormattersER10UErrorCode
T _ZN6icu_4416SimpleDateFormat17initializeSymbolsERKNS_6LocaleEPNS_8CalendarER10UErrorCode
T _ZN6icu_4416SimpleDateFormat18initializeCalendarEPNS_8TimeZoneERKNS_6LocaleER10UErrorCode
T _ZN6icu_4416SimpleDateFormat18isFieldUnitIgnoredERKNS_13UnicodeStringE19UCalendarDateFields
T _ZN6icu_4416SimpleDateFormat18set2DigitYearStartEdR10UErrorCode
R _ZN6icu_4416SimpleDateFormat20fgPatternCharToLevelE
T _ZN6icu_4416SimpleDateFormat20initNumberFormattersERKNS_6LocaleER10UErrorCode
T _ZN6icu_4416SimpleDateFormat20setDateFormatSymbolsERKNS_17DateFormatSymbolsE
T _ZN6icu_4416SimpleDateFormat21applyLocalizedPatternERKNS_13UnicodeStringER10UErrorCode
T _ZN6icu_4416SimpleDateFormat21processOverrideStringERKNS_6LocaleERKNS_13UnicodeStringEaR10UErrorCode
T _ZN6icu_4416SimpleDateFormat22adoptDateFormatSymbolsEPNS_17DateFormatSymbolsE
R _ZN6icu_4416SimpleDateFormat22fgCalendarFieldToLevelE
T _ZN6icu_4416SimpleDateFormat24initializeDefaultCenturyEv
T _ZN6icu_4416SimpleDateFormat26parseAmbiguousDatesAsAfterEdR10UErrorCode
R _ZN6icu_4416SimpleDateFormat29fgPatternIndexToCalendarFieldE
R _ZN6icu_4416SimpleDateFormat31fgPatternIndexToDateFormatFieldE
T _ZN6icu_4416SimpleDateFormat9constructENS_10DateFormat6EStyleES2_RKNS_6LocaleER10UErrorCode
T _ZN6icu_4416SimpleDateFormat9isNumericEti
T _ZN6icu_4416SimpleDateFormatC1ENS_10DateFormat6EStyleES2_RKNS_6LocaleER10UErrorCode
T _ZN6icu_4416SimpleDateFormatC1ER10UErrorCode
T _ZN6icu_4416SimpleDateFormatC1ERKNS_13UnicodeStringEPNS_17DateFormatSymbolsER10UErrorCode
T _ZN6icu_4416SimpleDateFormatC1ERKNS_13UnicodeStringER10UErrorCode
T _ZN6icu_4416SimpleDateFormatC1ERKNS_13UnicodeStringERKNS_17DateFormatSymbolsER10UErrorCode
T _ZN6icu_4416SimpleDateFormatC1ERKNS_13UnicodeStringERKNS_6LocaleER10UErrorCode
T _ZN6icu_4416SimpleDateFormatC1ERKNS_13UnicodeStringES3_R10UErrorCode
T _ZN6icu_4416SimpleDateFormatC1ERKNS_13UnicodeStringES3_RKNS_6LocaleER10UErrorCode
T _ZN6icu_4416SimpleDateFormatC1ERKNS_6LocaleER10UErrorCode
T _ZN6icu_4416SimpleDateFormatC1ERKS0_
T _ZN6icu_4416SimpleDateFormatC2ENS_10DateFormat6EStyleES2_RKNS_6LocaleER10UErrorCode
T _ZN6icu_4416SimpleDateFormatC2ER10UErrorCode
T _ZN6icu_4416SimpleDateFormatC2ERKNS_13UnicodeStringEPNS_17DateFormatSymbolsER10UErrorCode
T _ZN6icu_4416SimpleDateFormatC2ERKNS_13UnicodeStringER10UErrorCode
T _ZN6icu_4416SimpleDateFormatC2ERKNS_13UnicodeStringERKNS_17DateFormatSymbolsER10UErrorCode
T _ZN6icu_4416SimpleDateFormatC2ERKNS_13UnicodeStringERKNS_6LocaleER10UErrorCode
T _ZN6icu_4416SimpleDateFormatC2ERKNS_13UnicodeStringES3_R10UErrorCode
T _ZN6icu_4416SimpleDateFormatC2ERKNS_13UnicodeStringES3_RKNS_6LocaleER10UErrorCode
T _ZN6icu_4416SimpleDateFormatC2ERKNS_6LocaleER10UErrorCode
T _ZN6icu_4416SimpleDateFormatC2ERKS0_
T _ZN6icu_4416SimpleDateFormatD0Ev
T _ZN6icu_4416SimpleDateFormatD1Ev
T _ZN6icu_4416SimpleDateFormatD2Ev
T _ZN6icu_4416SimpleDateFormataSERKS0_
T _ZN6icu_4416ZoneStringFormat14isCommonlyUsedEPK15UResourceBundle
T _ZN6icu_4416ZoneStringFormat15getRegionFormatERKNS_6LocaleER10UErrorCode
T _ZN6icu_4416ZoneStringFormat17getFallbackFormatERKNS_6LocaleER10UErrorCode
T _ZN6icu_4416ZoneStringFormat19getLocalizedCountryERKNS_13UnicodeStringERKNS_6LocaleERS1_
T _ZN6icu_4416ZoneStringFormat19getZoneStringFormatERKNS_6LocaleER10UErrorCode
T _ZN6icu_4416ZoneStringFormat23getZoneStringFromBundleEPK15UResourceBundlePKc
T _ZN6icu_4416ZoneStringFormatC1EPKPKNS_13UnicodeStringEiiR10UErrorCode
T _ZN6icu_4416ZoneStringFormatC1ERKNS_6LocaleER10UErrorCode
T _ZN6icu_4416ZoneStringFormatC2EPKPKNS_13UnicodeStringEiiR10UErrorCode
T _ZN6icu_4416ZoneStringFormatC2ERKNS_6LocaleER10UErrorCode
T _ZN6icu_4416ZoneStringFormatD0Ev
T _ZN6icu_4416ZoneStringFormatD1Ev
T _ZN6icu_4416ZoneStringFormatD2Ev
T _ZN6icu_4417BadCharacterTable16minLengthInCharsEi
T _ZN6icu_4417BadCharacterTable4hashEj
T _ZN6icu_4417BadCharacterTableC1ERNS_6CEListEPNS_8CollDataER10UErrorCode
T _ZN6icu_4417BadCharacterTableC2ERNS_6CEListEPNS_8CollDataER10UErrorCode
T _ZN6icu_4417BadCharacterTableD1Ev
T _ZN6icu_4417BadCharacterTableD2Ev
U _ZN6icu_4417CanonicalIterator4nextEv
U _ZN6icu_4417CanonicalIterator9setSourceERKNS_13UnicodeStringER10UErrorCode
U _ZN6icu_4417CanonicalIteratorC1ERKNS_13UnicodeStringER10UErrorCode
U _ZN6icu_4417CanonicalIteratorD1Ev
T _ZN6icu_4417CharsetRecog_202210match_2022EPKhiPA5_S1_i
T _ZN6icu_4417CharsetRecog_2022D0Ev
T _ZN6icu_4417CharsetRecog_2022D1Ev
T _ZN6icu_4417CharsetRecog_2022D2Ev
T _ZN6icu_4417CharsetRecog_UTF85matchEPNS_9InputTextE
T _ZN6icu_4417CharsetRecog_UTF8D0Ev
T _ZN6icu_4417CharsetRecog_UTF8D1Ev
T _ZN6icu_4417CharsetRecog_UTF8D2Ev
T _ZN6icu_4417CharsetRecog_big55matchEPNS_9InputTextE
T _ZN6icu_4417CharsetRecog_big58nextCharEPNS_12IteratedCharEPNS_9InputTextE
T _ZN6icu_4417CharsetRecog_big5D0Ev
T _ZN6icu_4417CharsetRecog_big5D1Ev
T _ZN6icu_4417CharsetRecog_big5D2Ev
T _ZN6icu_4417CharsetRecog_mbcs10match_mbcsEPNS_9InputTextEPKti
T _ZN6icu_4417CharsetRecog_mbcsD0Ev
T _ZN6icu_4417CharsetRecog_mbcsD1Ev
T _ZN6icu_4417CharsetRecog_mbcsD2Ev
T _ZN6icu_4417CharsetRecog_sbcs10match_sbcsEPNS_9InputTextEPKiPKh
T _ZN6icu_4417CharsetRecog_sbcsC1Ev
T _ZN6icu_4417CharsetRecog_sbcsC2Ev
T _ZN6icu_4417CharsetRecog_sbcsD0Ev
T _ZN6icu_4417CharsetRecog_sbcsD1Ev
T _ZN6icu_4417CharsetRecog_sbcsD2Ev
T _ZN6icu_4417CharsetRecog_sjis5matchEPNS_9InputTextE
T _ZN6icu_4417CharsetRecog_sjis8nextCharEPNS_12IteratedCharEPNS_9InputTextE
T _ZN6icu_4417CharsetRecog_sjisD0Ev
T _ZN6icu_4417CharsetRecog_sjisD1Ev
T _ZN6icu_4417CharsetRecog_sjisD2Ev
T _ZN6icu_4417CharsetRecognizerD0Ev
T _ZN6icu_4417CharsetRecognizerD1Ev
T _ZN6icu_4417CharsetRecognizerD2Ev
T _ZN6icu_4417DateFormatSymbols11assignArrayERPNS_13UnicodeStringERiPKS1_i
T _ZN6icu_4417DateFormatSymbols11setEraNamesEPKNS_13UnicodeStringEi
T _ZN6icu_4417DateFormatSymbols11setQuartersEPKNS_13UnicodeStringEiNS0_13DtContextTypeENS0_11DtWidthTypeE
T _ZN6icu_4417DateFormatSymbols11setWeekdaysEPKNS_13UnicodeStringEi
T _ZN6icu_4417DateFormatSymbols11setWeekdaysEPKNS_13UnicodeStringEiNS0_13DtContextTypeENS0_11DtWidthTypeE
T _ZN6icu_4417DateFormatSymbols12arrayCompareEPKNS_13UnicodeStringES3_i
T _ZN6icu_4417DateFormatSymbols13setNarrowErasEPKNS_13UnicodeStringEi
T _ZN6icu_4417DateFormatSymbols14initializeDataERKNS_6LocaleEPKcR10UErrorCodea
T _ZN6icu_4417DateFormatSymbols14setAmPmStringsEPKNS_13UnicodeStringEi
T _ZN6icu_4417DateFormatSymbols14setShortMonthsEPKNS_13UnicodeStringEi
T _ZN6icu_4417DateFormatSymbols14setZoneStringsEPKPKNS_13UnicodeStringEii
T _ZN6icu_4417DateFormatSymbols16getPatternUCharsEv
T _ZN6icu_4417DateFormatSymbols16getStaticClassIDEv
T _ZN6icu_4417DateFormatSymbols16setShortWeekdaysEPKNS_13UnicodeStringEi
T _ZN6icu_4417DateFormatSymbols17createZoneStringsEPKPKNS_13UnicodeStringE
T _ZN6icu_4417DateFormatSymbols18disposeZoneStringsEv
T _ZN6icu_4417DateFormatSymbols20initZoneStringFormatEv
T _ZN6icu_4417DateFormatSymbols20initZoneStringsArrayEv
T _ZN6icu_4417DateFormatSymbols20setLocalPatternCharsERKNS_13UnicodeStringE
T _ZN6icu_4417DateFormatSymbols7disposeEv
T _ZN6icu_4417DateFormatSymbols7setErasEPKNS_13UnicodeStringEi
T _ZN6icu_4417DateFormatSymbols8copyDataERKS0_
T _ZN6icu_4417DateFormatSymbols9setMonthsEPKNS_13UnicodeStringEi
T _ZN6icu_4417DateFormatSymbols9setMonthsEPKNS_13UnicodeStringEiNS0_13DtContextTypeENS0_11DtWidthTypeE
T _ZN6icu_4417DateFormatSymbolsC1EPKcR10UErrorCode
T _ZN6icu_4417DateFormatSymbolsC1ER10UErrorCode
T _ZN6icu_4417DateFormatSymbolsC1ERKNS_6LocaleEPKcR10UErrorCode
T _ZN6icu_4417DateFormatSymbolsC1ERKNS_6LocaleER10UErrorCode
T _ZN6icu_4417DateFormatSymbolsC1ERKS0_
T _ZN6icu_4417DateFormatSymbolsC2EPKcR10UErrorCode
T _ZN6icu_4417DateFormatSymbolsC2ER10UErrorCode
T _ZN6icu_4417DateFormatSymbolsC2ERKNS_6LocaleEPKcR10UErrorCode
T _ZN6icu_4417DateFormatSymbolsC2ERKNS_6LocaleER10UErrorCode
T _ZN6icu_4417DateFormatSymbolsC2ERKS0_
T _ZN6icu_4417DateFormatSymbolsD0Ev
T _ZN6icu_4417DateFormatSymbolsD1Ev
T _ZN6icu_4417DateFormatSymbolsD2Ev
T _ZN6icu_4417DateFormatSymbolsaSERKS0_
T _ZN6icu_4417GregorianCalendar11getEpochDayER10UErrorCode
T _ZN6icu_4417GregorianCalendar13pinDayOfMonthEv
T _ZN6icu_4417GregorianCalendar14aggregateStampEii
T _ZN6icu_4417GregorianCalendar16getStaticClassIDEv
T _ZN6icu_4417GregorianCalendar17julianDayToMillisEd
T _ZN6icu_4417GregorianCalendar17millisToJulianDayEd
T _ZN6icu_4417GregorianCalendar18setGregorianChangeEdR10UErrorCode
T _ZN6icu_4417GregorianCalendar19handleComputeFieldsEiR10UErrorCode
T _ZN6icu_4417GregorianCalendar21handleGetExtendedYearEv
T _ZN6icu_4417GregorianCalendar22computeJulianDayOfYearEaiRa
R _ZN6icu_4417GregorianCalendar22fgSystemDefaultCenturyE
T _ZN6icu_4417GregorianCalendar22handleComputeJulianDayE19UCalendarDateFields
R _ZN6icu_4417GregorianCalendar26fgSystemDefaultCenturyYearE
D _ZN6icu_4417GregorianCalendar27fgSystemDefaultCenturyStartE
T _ZN6icu_4417GregorianCalendar30initializeSystemDefaultCenturyEv
D _ZN6icu_4417GregorianCalendar31fgSystemDefaultCenturyStartYearE
T _ZN6icu_4417GregorianCalendar35handleGetExtendedYearFromWeekFieldsEii
T _ZN6icu_4417GregorianCalendar4rollE19UCalendarDateFieldsiR10UErrorCode
T _ZN6icu_4417GregorianCalendar4rollENS_8Calendar11EDateFieldsEiR10UErrorCode
T _ZN6icu_4417GregorianCalendarC1EPNS_8TimeZoneER10UErrorCode
T _ZN6icu_4417GregorianCalendarC1EPNS_8TimeZoneERKNS_6LocaleER10UErrorCode
T _ZN6icu_4417GregorianCalendarC1ER10UErrorCode
T _ZN6icu_4417GregorianCalendarC1ERKNS_6LocaleER10UErrorCode
T _ZN6icu_4417GregorianCalendarC1ERKNS_8TimeZoneER10UErrorCode
T _ZN6icu_4417GregorianCalendarC1ERKNS_8TimeZoneERKNS_6LocaleER10UErrorCode
T _ZN6icu_4417GregorianCalendarC1ERKS0_
T _ZN6icu_4417GregorianCalendarC1EiiiR10UErrorCode
T _ZN6icu_4417GregorianCalendarC1EiiiiiR10UErrorCode
T _ZN6icu_4417GregorianCalendarC1EiiiiiiR10UErrorCode
T _ZN6icu_4417GregorianCalendarC2EPNS_8TimeZoneER10UErrorCode
T _ZN6icu_4417GregorianCalendarC2EPNS_8TimeZoneERKNS_6LocaleER10UErrorCode
T _ZN6icu_4417GregorianCalendarC2ER10UErrorCode
T _ZN6icu_4417GregorianCalendarC2ERKNS_6LocaleER10UErrorCode
T _ZN6icu_4417GregorianCalendarC2ERKNS_8TimeZoneER10UErrorCode
T _ZN6icu_4417GregorianCalendarC2ERKNS_8TimeZoneERKNS_6LocaleER10UErrorCode
T _ZN6icu_4417GregorianCalendarC2ERKS0_
T _ZN6icu_4417GregorianCalendarC2EiiiR10UErrorCode
T _ZN6icu_4417GregorianCalendarC2EiiiiiR10UErrorCode
T _ZN6icu_4417GregorianCalendarC2EiiiiiiR10UErrorCode
T _ZN6icu_4417GregorianCalendarD0Ev
T _ZN6icu_4417GregorianCalendarD1Ev
T _ZN6icu_4417GregorianCalendarD2Ev
T _ZN6icu_4417GregorianCalendaraSERKS0_
T _ZN6icu_4417RegularExpressionC1Ev
T _ZN6icu_4417RegularExpressionC2Ev
T _ZN6icu_4417RegularExpressionD1Ev
T _ZN6icu_4417RegularExpressionD2Ev
T _ZN6icu_4417RuleBasedCollator10checkOwnedEv
T _ZN6icu_4417RuleBasedCollator10setLocalesERKNS_6LocaleES3_S3_
T _ZN6icu_4417RuleBasedCollator11cloneBinaryEPhiR10UErrorCode
T _ZN6icu_4417RuleBasedCollator11setStrengthENS_8Collator18ECollationStrengthE
T _ZN6icu_4417RuleBasedCollator12getAttributeE13UColAttributeR10UErrorCode
T _ZN6icu_4417RuleBasedCollator12setAttributeE13UColAttribute18UColAttributeValueR10UErrorCode
W _ZN6icu_4417RuleBasedCollator12setUCollatorEP9UCollator
T _ZN6icu_4417RuleBasedCollator12setUCollatorEPKcR10UErrorCode
T _ZN6icu_4417RuleBasedCollator13cloneRuleDataERiR10UErrorCode
T _ZN6icu_4417RuleBasedCollator14setVariableTopENS_13UnicodeStringER10UErrorCode
T _ZN6icu_4417RuleBasedCollator14setVariableTopEPKtiR10UErrorCode
T _ZN6icu_4417RuleBasedCollator14setVariableTopEjR10UErrorCode
T _ZN6icu_4417RuleBasedCollator16getStaticClassIDEv
T _ZN6icu_4417RuleBasedCollator25setRuleStringFromCollatorEv
T _ZN6icu_4417RuleBasedCollator8getRulesE14UColRuleOptionRNS_13UnicodeStringE
T _ZN6icu_4417RuleBasedCollator9constructERKNS_13UnicodeStringE18UColAttributeValueS4_R10UErrorCode
T _ZN6icu_4417RuleBasedCollator9safeCloneEv
T _ZN6icu_4417RuleBasedCollatorC1EPKhiPKS0_R10UErrorCode
T _ZN6icu_4417RuleBasedCollatorC1ERKNS_13UnicodeStringE18UColAttributeValueR10UErrorCode
T _ZN6icu_4417RuleBasedCollatorC1ERKNS_13UnicodeStringENS_8Collator18ECollationStrengthE18UColAttributeValueR10UErrorCode
T _ZN6icu_4417RuleBasedCollatorC1ERKNS_13UnicodeStringENS_8Collator18ECollationStrengthER10UErrorCode
T _ZN6icu_4417RuleBasedCollatorC1ERKNS_13UnicodeStringER10UErrorCode
T _ZN6icu_4417RuleBasedCollatorC1ERKNS_6LocaleER10UErrorCode
T _ZN6icu_4417RuleBasedCollatorC1ERKS0_
T _ZN6icu_4417RuleBasedCollatorC1Ev
T _ZN6icu_4417RuleBasedCollatorC2EPKhiPKS0_R10UErrorCode
T _ZN6icu_4417RuleBasedCollatorC2ERKNS_13UnicodeStringE18UColAttributeValueR10UErrorCode
T _ZN6icu_4417RuleBasedCollatorC2ERKNS_13UnicodeStringENS_8Collator18ECollationStrengthE18UColAttributeValueR10UErrorCode
T _ZN6icu_4417RuleBasedCollatorC2ERKNS_13UnicodeStringENS_8Collator18ECollationStrengthER10UErrorCode
T _ZN6icu_4417RuleBasedCollatorC2ERKNS_13UnicodeStringER10UErrorCode
T _ZN6icu_4417RuleBasedCollatorC2ERKNS_6LocaleER10UErrorCode
T _ZN6icu_4417RuleBasedCollatorC2ERKS0_
T _ZN6icu_4417RuleBasedCollatorC2Ev
T _ZN6icu_4417RuleBasedCollatorD0Ev
T _ZN6icu_4417RuleBasedCollatorD1Ev
T _ZN6icu_4417RuleBasedCollatorD2Ev
T _ZN6icu_4417RuleBasedCollatoraSERKS0_
T _ZN6icu_4417RuleBasedTimeZone11deleteRulesEv
T _ZN6icu_4417RuleBasedTimeZone12setRawOffsetEi
T _ZN6icu_4417RuleBasedTimeZone16getStaticClassIDEv
T _ZN6icu_4417RuleBasedTimeZone16getTimeZoneRulesERPKNS_19InitialTimeZoneRuleEPPKNS_12TimeZoneRuleERiR10UErrorCode
T _ZN6icu_4417RuleBasedTimeZone17addTransitionRuleEPNS_12TimeZoneRuleER10UErrorCode
T _ZN6icu_4417RuleBasedTimeZone17deleteTransitionsEv
T _ZN6icu_4417RuleBasedTimeZone17getNextTransitionEdaRNS_18TimeZoneTransitionE
T _ZN6icu_4417RuleBasedTimeZone18getOffsetFromLocalEdiiRiS1_R10UErrorCode
T _ZN6icu_4417RuleBasedTimeZone20countTransitionRulesER10UErrorCode
T _ZN6icu_4417RuleBasedTimeZone21getPreviousTransitionEdaRNS_18TimeZoneTransitionE
T _ZN6icu_4417RuleBasedTimeZone8completeER10UErrorCode
T _ZN6icu_4417RuleBasedTimeZone9copyRulesEPNS_7UVectorE
T _ZN6icu_4417RuleBasedTimeZoneC1ERKNS_13UnicodeStringEPNS_19InitialTimeZoneRuleE
T _ZN6icu_4417RuleBasedTimeZoneC1ERKS0_
T _ZN6icu_4417RuleBasedTimeZoneC2ERKNS_13UnicodeStringEPNS_19InitialTimeZoneRuleE
T _ZN6icu_4417RuleBasedTimeZoneC2ERKS0_
T _ZN6icu_4417RuleBasedTimeZoneD0Ev
T _ZN6icu_4417RuleBasedTimeZoneD1Ev
T _ZN6icu_4417RuleBasedTimeZoneD2Ev
T _ZN6icu_4417RuleBasedTimeZoneaSERKS0_
U _ZN6icu_4417StringEnumeration4nextEPiR10UErrorCode
U _ZN6icu_4417StringEnumeration5unextEPiR10UErrorCode
U _ZN6icu_4417StringEnumeration8setCharsEPKciR10UErrorCode
U _ZN6icu_4417StringEnumerationC2Ev
U _ZN6icu_4417StringEnumerationD2Ev
T _ZN6icu_4417util64_fromDoubleEd
T _ZN6icu_4418AnnualTimeZoneRule16getStaticClassIDEv
R _ZN6icu_4418AnnualTimeZoneRule8MAX_YEARE
T _ZN6icu_4418AnnualTimeZoneRuleC1ERKNS_13UnicodeStringEiiPNS_12DateTimeRuleEii
T _ZN6icu_4418AnnualTimeZoneRuleC1ERKNS_13UnicodeStringEiiRKNS_12DateTimeRuleEii
T _ZN6icu_4418AnnualTimeZoneRuleC1ERKS0_
T _ZN6icu_4418AnnualTimeZoneRuleC2ERKNS_13UnicodeStringEiiPNS_12DateTimeRuleEii
T _ZN6icu_4418AnnualTimeZoneRuleC2ERKNS_13UnicodeStringEiiRKNS_12DateTimeRuleEii
T _ZN6icu_4418AnnualTimeZoneRuleC2ERKS0_
T _ZN6icu_4418AnnualTimeZoneRuleD0Ev
T _ZN6icu_4418AnnualTimeZoneRuleD1Ev
T _ZN6icu_4418AnnualTimeZoneRuleD2Ev
T _ZN6icu_4418AnnualTimeZoneRuleaSERKS0_
T _ZN6icu_4418CalendarAstronomer10clearCacheEv
T _ZN6icu_4418CalendarAstronomer10getMoonAgeEv
T _ZN6icu_4418CalendarAstronomer10getSunTimeEda
T _ZN6icu_4418CalendarAstronomer11getMoonTimeERKNS0_7MoonAgeEa
T _ZN6icu_4418CalendarAstronomer11getMoonTimeEda
T _ZN6icu_4418CalendarAstronomer11timeOfAngleERNS0_9AngleFuncEddda
T _ZN6icu_4418CalendarAstronomer12getJulianDayEv
T _ZN6icu_4418CalendarAstronomer12getMoonPhaseEv
T _ZN6icu_4418CalendarAstronomer12setJulianDayEd
R _ZN6icu_4418CalendarAstronomer13SYNODIC_MONTHE
T _ZN6icu_4418CalendarAstronomer13getSunRiseSetEa
T _ZN6icu_4418CalendarAstronomer14getMoonRiseSetEa
T _ZN6icu_4418CalendarAstronomer14getSunPositionERNS0_10EquatorialE
T _ZN6icu_4418CalendarAstronomer15SUMMER_SOLSTICEEv
T _ZN6icu_4418CalendarAstronomer15WINTER_SOLSTICEEv
T _ZN6icu_4418CalendarAstronomer15getMoonPositionEv
T _ZN6icu_4418CalendarAstronomer15getSunLongitudeEdRdS1_
T _ZN6icu_4418CalendarAstronomer15getSunLongitudeEv
T _ZN6icu_4418CalendarAstronomer16getJulianCenturyEv
T _ZN6icu_4418CalendarAstronomer16getLocalSiderealEv
T _ZN6icu_4418CalendarAstronomer17eclipticObliquityEv
T _ZN6icu_4418CalendarAstronomer17eclipticToHorizonERNS0_7HorizonEd
T _ZN6icu_4418CalendarAstronomer17getSiderealOffsetEv
T _ZN6icu_4418CalendarAstronomer20eclipticToEquatorialERNS0_10EquatorialERKNS0_8EclipticE
T _ZN6icu_4418CalendarAstronomer20eclipticToEquatorialERNS0_10EquatorialEd
T _ZN6icu_4418CalendarAstronomer20eclipticToEquatorialERNS0_10EquatorialEdd
T _ZN6icu_4418CalendarAstronomer20getGreenwichSiderealEv
R _ZN6icu_4418CalendarAstronomer2PIE
T _ZN6icu_4418CalendarAstronomer7getTimeEv
T _ZN6icu_4418CalendarAstronomer7lstToUTEd
T _ZN6icu_4418CalendarAstronomer7setTimeEd
T _ZN6icu_4418CalendarAstronomer8NEW_MOONEv
T _ZN6icu_4418CalendarAstronomer9AngleFuncD0Ev
T _ZN6icu_4418CalendarAstronomer9AngleFuncD1Ev
T _ZN6icu_4418CalendarAstronomer9AngleFuncD2Ev
T _ZN6icu_4418CalendarAstronomer9CoordFuncD0Ev
T _ZN6icu_4418CalendarAstronomer9CoordFuncD1Ev
T _ZN6icu_4418CalendarAstronomer9CoordFuncD2Ev
T _ZN6icu_4418CalendarAstronomer9FULL_MOONEv
T _ZN6icu_4418CalendarAstronomer9riseOrSetERNS0_9CoordFuncEaddd
T _ZN6icu_4418CalendarAstronomerC1Ed
T _ZN6icu_4418CalendarAstronomerC1Edd
T _ZN6icu_4418CalendarAstronomerC1Ev
T _ZN6icu_4418CalendarAstronomerC2Ed
T _ZN6icu_4418CalendarAstronomerC2Edd
T _ZN6icu_4418CalendarAstronomerC2Ev
T _ZN6icu_4418CalendarAstronomerD1Ev
T _ZN6icu_4418CalendarAstronomerD2Ev
T _ZN6icu_4418CollDataCacheEntryC1EPNS_8CollDataE
T _ZN6icu_4418CollDataCacheEntryC2EPNS_8CollDataE
T _ZN6icu_4418CollDataCacheEntryD1Ev
T _ZN6icu_4418CollDataCacheEntryD2Ev
T _ZN6icu_4418CurrencyPluralInfo10deleteHashEPNS_9HashtableE
T _ZN6icu_4418CurrencyPluralInfo10initializeERKNS_6LocaleER10UErrorCode
T _ZN6icu_4418CurrencyPluralInfo14setPluralRulesERKNS_13UnicodeStringER10UErrorCode
T _ZN6icu_4418CurrencyPluralInfo16getStaticClassIDEv
T _ZN6icu_4418CurrencyPluralInfo24setCurrencyPluralPatternERKNS_13UnicodeStringES3_R10UErrorCode
T _ZN6icu_4418CurrencyPluralInfo26setupCurrencyPluralPatternERKNS_6LocaleER10UErrorCode
T _ZN6icu_4418CurrencyPluralInfo8copyHashEPKNS_9HashtableEPS1_R10UErrorCode
T _ZN6icu_4418CurrencyPluralInfo8initHashER10UErrorCode
T _ZN6icu_4418CurrencyPluralInfo9setLocaleERKNS_6LocaleER10UErrorCode
T _ZN6icu_4418CurrencyPluralInfoC1ER10UErrorCode
T _ZN6icu_4418CurrencyPluralInfoC1ERKNS_6LocaleER10UErrorCode
T _ZN6icu_4418CurrencyPluralInfoC1ERKS0_
T _ZN6icu_4418CurrencyPluralInfoC2ER10UErrorCode
T _ZN6icu_4418CurrencyPluralInfoC2ERKNS_6LocaleER10UErrorCode
T _ZN6icu_4418CurrencyPluralInfoC2ERKS0_
T _ZN6icu_4418CurrencyPluralInfoD0Ev
T _ZN6icu_4418CurrencyPluralInfoD1Ev
T _ZN6icu_4418CurrencyPluralInfoD2Ev
T _ZN6icu_4418CurrencyPluralInfoaSERKS0_
T _ZN6icu_4418DateIntervalFormat14createInstanceERKNS_13UnicodeStringER10UErrorCode
T _ZN6icu_4418DateIntervalFormat14createInstanceERKNS_13UnicodeStringERKNS_16DateIntervalInfoER10UErrorCode
T _ZN6icu_4418DateIntervalFormat14createInstanceERKNS_13UnicodeStringERKNS_6LocaleER10UErrorCode
T _ZN6icu_4418DateIntervalFormat14createInstanceERKNS_13UnicodeStringERKNS_6LocaleERKNS_16DateIntervalInfoER10UErrorCode
T _ZN6icu_4418DateIntervalFormat14setPatternInfoE19UCalendarDateFieldsPKNS_13UnicodeStringES4_a
T _ZN6icu_4418DateIntervalFormat16adjustFieldWidthERKNS_13UnicodeStringES3_S3_aRS1_
T _ZN6icu_4418DateIntervalFormat16getStaticClassIDEv
T _ZN6icu_4418DateIntervalFormat17initializePatternER10UErrorCode
T _ZN6icu_4418DateIntervalFormat18setFallbackPatternE19UCalendarDateFieldsRKNS_13UnicodeStringER10UErrorCode
T _ZN6icu_4418DateIntervalFormat18setIntervalPatternE19UCalendarDateFieldsPKNS_13UnicodeStringES4_aPS2_S5_
T _ZN6icu_4418DateIntervalFormat18setIntervalPatternE19UCalendarDateFieldsRKNS_13UnicodeStringE
T _ZN6icu_4418DateIntervalFormat18setIntervalPatternE19UCalendarDateFieldsRKNS_13UnicodeStringEa
T _ZN6icu_4418DateIntervalFormat19getDateTimeSkeletonERKNS_13UnicodeStringERS1_S4_S4_S4_
T _ZN6icu_4418DateIntervalFormat19setDateIntervalInfoERKNS_16DateIntervalInfoER10UErrorCode
T _ZN6icu_4418DateIntervalFormat21fieldExistsInSkeletonE19UCalendarDateFieldsRKNS_13UnicodeStringE
T _ZN6icu_4418DateIntervalFormat21splitPatternInto2PartERKNS_13UnicodeStringE
T _ZN6icu_4418DateIntervalFormat22setSeparateDateTimePtnERKNS_13UnicodeStringES3_
T _ZN6icu_4418DateIntervalFormat24createSDFPatternInstanceERKNS_13UnicodeStringERKNS_6LocaleEPNS_24DateTimePatternGeneratorER10UErrorCode
T _ZN6icu_4418DateIntervalFormat29concatSingleDate2TimeIntervalEPKtiRKNS_13UnicodeStringE19UCalendarDateFieldsR10UErrorCode
R _ZN6icu_4418DateIntervalFormat30fgCalendarFieldToPatternLetterE
T _ZN6icu_4418DateIntervalFormat6createERKNS_6LocaleEPNS_16DateIntervalInfoEPKNS_13UnicodeStringER10UErrorCode
T _ZN6icu_4418DateIntervalFormatC1ERKNS_6LocaleEPNS_16DateIntervalInfoEPKNS_13UnicodeStringER10UErrorCode
T _ZN6icu_4418DateIntervalFormatC1ERKS0_
T _ZN6icu_4418DateIntervalFormatC1Ev
T _ZN6icu_4418DateIntervalFormatC2ERKNS_6LocaleEPNS_16DateIntervalInfoEPKNS_13UnicodeStringER10UErrorCode
T _ZN6icu_4418DateIntervalFormatC2ERKS0_
T _ZN6icu_4418DateIntervalFormatC2Ev
T _ZN6icu_4418DateIntervalFormatD0Ev
T _ZN6icu_4418DateIntervalFormatD1Ev
T _ZN6icu_4418DateIntervalFormatD2Ev
T _ZN6icu_4418DateIntervalFormataSERKS0_
T _ZN6icu_4418LocaleDisplayNames14createInstanceERKNS_6LocaleE16UDialectHandling
T _ZN6icu_4418LocaleDisplayNames16getStaticClassIDEv
W _ZN6icu_4418LocaleDisplayNamesD0Ev
W _ZN6icu_4418LocaleDisplayNamesD1Ev
U _ZN6icu_4418Normalizer2Factory10getNFCImplER10UErrorCode
U _ZN6icu_4418Normalizer2Factory14getFCDInstanceER10UErrorCode
U _ZN6icu_4418Normalizer2Factory14getNFDInstanceER10UErrorCode
T _ZN6icu_4418PatternMapIterator11getSkeletonEv
T _ZN6icu_4418PatternMapIterator3setERNS_10PatternMapE
T _ZN6icu_4418PatternMapIterator4nextEv
T _ZN6icu_4418PatternMapIterator7hasNextEv
T _ZN6icu_4418PatternMapIteratorC1Ev
T _ZN6icu_4418PatternMapIteratorC2Ev
T _ZN6icu_4418PatternMapIteratorD0Ev
T _ZN6icu_4418PatternMapIteratorD1Ev
T _ZN6icu_4418PatternMapIteratorD2Ev
T _ZN6icu_4418RelativeDateFormat13applyPatternsERKNS_13UnicodeStringES3_R10UErrorCode
T _ZN6icu_4418RelativeDateFormat13dayDifferenceERNS_8CalendarER10UErrorCode
T _ZN6icu_4418RelativeDateFormat16getStaticClassIDEv
T _ZN6icu_4418RelativeDateFormat18initializeCalendarEPNS_8TimeZoneERKNS_6LocaleER10UErrorCode
T _ZN6icu_4418RelativeDateFormat9loadDatesER10UErrorCode
T _ZN6icu_4418RelativeDateFormatC1E16UDateFormatStyleS1_RKNS_6LocaleER10UErrorCode
T _ZN6icu_4418RelativeDateFormatC1ERKS0_
T _ZN6icu_4418RelativeDateFormatC2E16UDateFormatStyleS1_RKNS_6LocaleER10UErrorCode
T _ZN6icu_4418RelativeDateFormatC2ERKS0_
T _ZN6icu_4418RelativeDateFormatD0Ev
T _ZN6icu_4418RelativeDateFormatD1Ev
T _ZN6icu_4418RelativeDateFormatD2Ev
T _ZN6icu_4418TimeZoneTransition16getStaticClassIDEv
T _ZN6icu_4418TimeZoneTransition5setToERKNS_12TimeZoneRuleE
T _ZN6icu_4418TimeZoneTransition7adoptToEPNS_12TimeZoneRuleE
T _ZN6icu_4418TimeZoneTransition7setFromERKNS_12TimeZoneRuleE
T _ZN6icu_4418TimeZoneTransition7setTimeEd
T _ZN6icu_4418TimeZoneTransition9adoptFromEPNS_12TimeZoneRuleE
T _ZN6icu_4418TimeZoneTransitionC1ERKS0_
T _ZN6icu_4418TimeZoneTransitionC1EdRKNS_12TimeZoneRuleES3_
T _ZN6icu_4418TimeZoneTransitionC1Ev
T _ZN6icu_4418TimeZoneTransitionC2ERKS0_
T _ZN6icu_4418TimeZoneTransitionC2EdRKNS_12TimeZoneRuleES3_
T _ZN6icu_4418TimeZoneTransitionC2Ev
T _ZN6icu_4418TimeZoneTransitionD0Ev
T _ZN6icu_4418TimeZoneTransitionD1Ev
T _ZN6icu_4418TimeZoneTransitionD2Ev
T _ZN6icu_4418TimeZoneTransitionaSERKS0_
U _ZN6icu_4418UStringEnumerationC1EP12UEnumeration
T _ZN6icu_4418ZSFStringPoolChunkC1Ev
T _ZN6icu_4418ZSFStringPoolChunkC2Ev
T _ZN6icu_4419CharsetRecog_2022CN5matchEPNS_9InputTextE
T _ZN6icu_4419CharsetRecog_2022JP5matchEPNS_9InputTextE
T _ZN6icu_4419CharsetRecog_2022KR5matchEPNS_9InputTextE
T _ZN6icu_4419CharsetRecog_8859_1D0Ev
T _ZN6icu_4419CharsetRecog_8859_1D1Ev
T _ZN6icu_4419CharsetRecog_8859_1D2Ev
T _ZN6icu_4419CharsetRecog_8859_2D0Ev
T _ZN6icu_4419CharsetRecog_8859_2D1Ev
T _ZN6icu_4419CharsetRecog_8859_2D2Ev
T _ZN6icu_4419CharsetRecog_8859_5D0Ev
T _ZN6icu_4419CharsetRecog_8859_5D1Ev
T _ZN6icu_4419CharsetRecog_8859_5D2Ev
T _ZN6icu_4419CharsetRecog_8859_6D0Ev
T _ZN6icu_4419CharsetRecog_8859_6D1Ev
T _ZN6icu_4419CharsetRecog_8859_6D2Ev
T _ZN6icu_4419CharsetRecog_8859_7D0Ev
T _ZN6icu_4419CharsetRecog_8859_7D1Ev
T _ZN6icu_4419CharsetRecog_8859_7D2Ev
T _ZN6icu_4419CharsetRecog_8859_8D0Ev
T _ZN6icu_4419CharsetRecog_8859_8D1Ev
T _ZN6icu_4419CharsetRecog_8859_8D2Ev
T _ZN6icu_4419CharsetRecog_8859_9D0Ev
T _ZN6icu_4419CharsetRecog_8859_9D1Ev
T _ZN6icu_4419CharsetRecog_8859_9D2Ev
T _ZN6icu_4419CharsetRecog_KOI8_R5matchEPNS_9InputTextE
T _ZN6icu_4419CharsetRecog_KOI8_RD0Ev
T _ZN6icu_4419CharsetRecog_KOI8_RD1Ev
T _ZN6icu_4419CharsetRecog_KOI8_RD2Ev
T _ZN6icu_4419CharsetRecog_UTF_325matchEPNS_9InputTextE
T _ZN6icu_4419CharsetRecog_UTF_32D0Ev
T _ZN6icu_4419CharsetRecog_UTF_32D1Ev
T _ZN6icu_4419CharsetRecog_UTF_32D2Ev
T _ZN6icu_4419CharsetRecog_euc_jp5matchEPNS_9InputTextE
T _ZN6icu_4419CharsetRecog_euc_jpD0Ev
T _ZN6icu_4419CharsetRecog_euc_jpD1Ev
T _ZN6icu_4419CharsetRecog_euc_jpD2Ev
T _ZN6icu_4419CharsetRecog_euc_kr5matchEPNS_9InputTextE
T _ZN6icu_4419CharsetRecog_euc_krD0Ev
T _ZN6icu_4419CharsetRecog_euc_krD1Ev
T _ZN6icu_4419CharsetRecog_euc_krD2Ev
T _ZN6icu_4419DecimalNumberString14ensureCapacityEiR10UErrorCode
T _ZN6icu_4419DecimalNumberString6appendERKNS_11StringPieceER10UErrorCode
T _ZN6icu_4419DecimalNumberString6appendEcR10UErrorCode
T _ZN6icu_4419DecimalNumberString9setLengthEiR10UErrorCode
T _ZN6icu_4419DecimalNumberStringC1ERKNS_11StringPieceER10UErrorCode
T _ZN6icu_4419DecimalNumberStringC1Ev
T _ZN6icu_4419DecimalNumberStringC2ERKNS_11StringPieceER10UErrorCode
T _ZN6icu_4419DecimalNumberStringC2Ev
T _ZN6icu_4419DecimalNumberStringD1Ev
T _ZN6icu_4419DecimalNumberStringD2Ev
T _ZN6icu_4419DecimalNumberStringixEi
T _ZN6icu_4419InitialTimeZoneRule16getStaticClassIDEv
T _ZN6icu_4419InitialTimeZoneRuleC1ERKNS_13UnicodeStringEii
T _ZN6icu_4419InitialTimeZoneRuleC1ERKS0_
T _ZN6icu_4419InitialTimeZoneRuleC2ERKNS_13UnicodeStringEii
T _ZN6icu_4419InitialTimeZoneRuleC2ERKS0_
T _ZN6icu_4419InitialTimeZoneRuleD0Ev
T _ZN6icu_4419InitialTimeZoneRuleD1Ev
T _ZN6icu_4419InitialTimeZoneRuleD2Ev
T _ZN6icu_4419InitialTimeZoneRuleaSERKS0_
T _ZN6icu_4419ModulusSubstitution16getStaticClassIDEv
T _ZN6icu_4419ModulusSubstitutionC1EidPKNS_6NFRuleEPKNS_9NFRuleSetEPKNS_21RuleBasedNumberFormatERKNS_13UnicodeStringER10UErrorCode
T _ZN6icu_4419ModulusSubstitutionC2EidPKNS_6NFRuleEPKNS_9NFRuleSetEPKNS_21RuleBasedNumberFormatERKNS_13UnicodeStringER10UErrorCode
T _ZN6icu_4420CharsetRecog_UnicodeD0Ev
T _ZN6icu_4420CharsetRecog_UnicodeD1Ev
T _ZN6icu_4420CharsetRecog_UnicodeD2Ev
T _ZN6icu_4420DecimalFormatSymbols10initializeEPPKtPii
T _ZN6icu_4420DecimalFormatSymbols10initializeERKNS_6LocaleER10UErrorCodea
T _ZN6icu_4420DecimalFormatSymbols10initializeEv
T _ZN6icu_4420DecimalFormatSymbols16getStaticClassIDEv
T _ZN6icu_4420DecimalFormatSymbols28setPatternForCurrencySpacingENS0_16ECurrencySpacingEaRKNS_13UnicodeStringE
T _ZN6icu_4420DecimalFormatSymbolsC1ER10UErrorCode
T _ZN6icu_4420DecimalFormatSymbolsC1ERKNS_6LocaleER10UErrorCode
T _ZN6icu_4420DecimalFormatSymbolsC1ERKS0_
T _ZN6icu_4420DecimalFormatSymbolsC1Ev
T _ZN6icu_4420DecimalFormatSymbolsC2ER10UErrorCode
T _ZN6icu_4420DecimalFormatSymbolsC2ERKNS_6LocaleER10UErrorCode
T _ZN6icu_4420DecimalFormatSymbolsC2ERKS0_
T _ZN6icu_4420DecimalFormatSymbolsC2Ev
T _ZN6icu_4420DecimalFormatSymbolsD0Ev
T _ZN6icu_4420DecimalFormatSymbolsD1Ev
T _ZN6icu_4420DecimalFormatSymbolsD2Ev
T _ZN6icu_4420DecimalFormatSymbolsaSERKS0_
T _ZN6icu_4420FieldPositionHandler11isRecordingEv
T _ZN6icu_4420FieldPositionHandler12addAttributeEiii
T _ZN6icu_4420FieldPositionHandler9shiftLastEi
T _ZN6icu_4420FieldPositionHandlerD0Ev
T _ZN6icu_4420FieldPositionHandlerD1Ev
T _ZN6icu_4420FieldPositionHandlerD2Ev
T _ZN6icu_4420MessageFormatAdapter14getArgTypeListERKNS_13MessageFormatERi
T _ZN6icu_4421CharsetRecog_gb_180305matchEPNS_9InputTextE
T _ZN6icu_4421CharsetRecog_gb_180308nextCharEPNS_12IteratedCharEPNS_9InputTextE
T _ZN6icu_4421CharsetRecog_gb_18030D0Ev
T _ZN6icu_4421CharsetRecog_gb_18030D1Ev
T _ZN6icu_4421CharsetRecog_gb_18030D2Ev
T _ZN6icu_4421ConfusabledataBuilder10getMappingEi
T _ZN6icu_4421ConfusabledataBuilder10outputDataER10UErrorCode
T _ZN6icu_4421ConfusabledataBuilder11addKeyEntryEiP10UHashtableiR10UErrorCode
T _ZN6icu_4421ConfusabledataBuilder19buildConfusableDataEPNS_9SpoofImplEPKciPiP11UParseErrorR10UErrorCode
T _ZN6icu_4421ConfusabledataBuilder5buildEPKciR10UErrorCode
T _ZN6icu_4421ConfusabledataBuilderC1EPNS_9SpoofImplER10UErrorCode
T _ZN6icu_4421ConfusabledataBuilderC2EPNS_9SpoofImplER10UErrorCode
T _ZN6icu_4421ConfusabledataBuilderD1Ev
T _ZN6icu_4421ConfusabledataBuilderD2Ev
T _ZN6icu_4421DTSkeletonEnumeration15isCanonicalItemERKNS_13UnicodeStringE
T _ZN6icu_4421DTSkeletonEnumeration16getStaticClassIDEv
T _ZN6icu_4421DTSkeletonEnumeration5resetER10UErrorCode
T _ZN6icu_4421DTSkeletonEnumeration5snextER10UErrorCode
T _ZN6icu_4421DTSkeletonEnumerationC1ERNS_10PatternMapENS_9dtStrEnumER10UErrorCode
T _ZN6icu_4421DTSkeletonEnumerationC2ERNS_10PatternMapENS_9dtStrEnumER10UErrorCode
T _ZN6icu_4421DTSkeletonEnumerationD0Ev
T _ZN6icu_4421DTSkeletonEnumerationD1Ev
T _ZN6icu_4421DTSkeletonEnumerationD2Ev
T _ZN6icu_4421FieldPositionIterator16getStaticClassIDEv
T _ZN6icu_4421FieldPositionIterator4nextERNS_13FieldPositionE
T _ZN6icu_4421FieldPositionIterator7setDataEPNS_9UVector32ER10UErrorCode
T _ZN6icu_4421FieldPositionIteratorC1ERKS0_
T _ZN6icu_4421FieldPositionIteratorC1Ev
T _ZN6icu_4421FieldPositionIteratorC2ERKS0_
T _ZN6icu_4421FieldPositionIteratorC2Ev
T _ZN6icu_4421FieldPositionIteratorD0Ev
T _ZN6icu_4421FieldPositionIteratorD1Ev
T _ZN6icu_4421FieldPositionIteratorD2Ev
T _ZN6icu_4421FormatNameEnumeration16getStaticClassIDEv
T _ZN6icu_4421FormatNameEnumeration5resetER10UErrorCode
T _ZN6icu_4421FormatNameEnumeration5snextER10UErrorCode
T _ZN6icu_4421FormatNameEnumerationC1EPNS_7UVectorER10UErrorCode
T _ZN6icu_4421FormatNameEnumerationC2EPNS_7UVectorER10UErrorCode
T _ZN6icu_4421FormatNameEnumerationD0Ev
T _ZN6icu_4421FormatNameEnumerationD1Ev
T _ZN6icu_4421FormatNameEnumerationD2Ev
T _ZN6icu_4421NumeratorSubstitution16getStaticClassIDEv
R _ZN6icu_4421NumeratorSubstitution4LTLTE
T _ZN6icu_4421RuleBasedNumberFormat10setLenientEa
T _ZN6icu_4421RuleBasedNumberFormat15stripWhitespaceERNS_13UnicodeStringE
T _ZN6icu_4421RuleBasedNumberFormat16getStaticClassIDEv
T _ZN6icu_4421RuleBasedNumberFormat17setDefaultRuleSetERKNS_13UnicodeStringER10UErrorCode
T _ZN6icu_4421RuleBasedNumberFormat18initDefaultRuleSetEv
T _ZN6icu_4421RuleBasedNumberFormat21getRuleSetDisplayNameERKNS_13UnicodeStringERKNS_6LocaleE
T _ZN6icu_4421RuleBasedNumberFormat21getRuleSetDisplayNameEiRKNS_6LocaleE
T _ZN6icu_4421RuleBasedNumberFormat4initERKNS_13UnicodeStringEPNS_16LocalizationInfoER11UParseErrorR10UErrorCode
T _ZN6icu_4421RuleBasedNumberFormat7disposeEv
T _ZN6icu_4421RuleBasedNumberFormatC1ENS_15URBNFRuleSetTagERKNS_6LocaleER10UErrorCode
T _ZN6icu_4421RuleBasedNumberFormatC1ERKNS_13UnicodeStringEPNS_16LocalizationInfoERKNS_6LocaleER11UParseErrorR10UErrorCode
T _ZN6icu_4421RuleBasedNumberFormatC1ERKNS_13UnicodeStringER11UParseErrorR10UErrorCode
T _ZN6icu_4421RuleBasedNumberFormatC1ERKNS_13UnicodeStringERKNS_6LocaleER11UParseErrorR10UErrorCode
T _ZN6icu_4421RuleBasedNumberFormatC1ERKNS_13UnicodeStringES3_R11UParseErrorR10UErrorCode
T _ZN6icu_4421RuleBasedNumberFormatC1ERKNS_13UnicodeStringES3_RKNS_6LocaleER11UParseErrorR10UErrorCode
T _ZN6icu_4421RuleBasedNumberFormatC1ERKS0_
T _ZN6icu_4421RuleBasedNumberFormatC2ENS_15URBNFRuleSetTagERKNS_6LocaleER10UErrorCode
T _ZN6icu_4421RuleBasedNumberFormatC2ERKNS_13UnicodeStringEPNS_16LocalizationInfoERKNS_6LocaleER11UParseErrorR10UErrorCode
T _ZN6icu_4421RuleBasedNumberFormatC2ERKNS_13UnicodeStringER11UParseErrorR10UErrorCode
T _ZN6icu_4421RuleBasedNumberFormatC2ERKNS_13UnicodeStringERKNS_6LocaleER11UParseErrorR10UErrorCode
T _ZN6icu_4421RuleBasedNumberFormatC2ERKNS_13UnicodeStringES3_R11UParseErrorR10UErrorCode
T _ZN6icu_4421RuleBasedNumberFormatC2ERKNS_13UnicodeStringES3_RKNS_6LocaleER11UParseErrorR10UErrorCode
T _ZN6icu_4421RuleBasedNumberFormatC2ERKS0_
T _ZN6icu_4421RuleBasedNumberFormatD0Ev
T _ZN6icu_4421RuleBasedNumberFormatD1Ev
T _ZN6icu_4421RuleBasedNumberFormatD2Ev
T _ZN6icu_4421RuleBasedNumberFormataSERKS0_
T _ZN6icu_4421SameValueSubstitution16getStaticClassIDEv
T _ZN6icu_4421SameValueSubstitutionC1EiPKNS_9NFRuleSetEPKNS_21RuleBasedNumberFormatERKNS_13UnicodeStringER10UErrorCode
T _ZN6icu_4421SameValueSubstitutionC2EiPKNS_9NFRuleSetEPKNS_21RuleBasedNumberFormatERKNS_13UnicodeStringER10UErrorCode
T _ZN6icu_4421TimeArrayTimeZoneRule14initStartTimesEPKdiR10UErrorCode
T _ZN6icu_4421TimeArrayTimeZoneRule16getStaticClassIDEv
T _ZN6icu_4421TimeArrayTimeZoneRuleC1ERKNS_13UnicodeStringEiiPKdiNS_12DateTimeRule12TimeRuleTypeE
T _ZN6icu_4421TimeArrayTimeZoneRuleC1ERKS0_
T _ZN6icu_4421TimeArrayTimeZoneRuleC2ERKNS_13UnicodeStringEiiPKdiNS_12DateTimeRule12TimeRuleTypeE
T _ZN6icu_4421TimeArrayTimeZoneRuleC2ERKS0_
T _ZN6icu_4421TimeArrayTimeZoneRuleD0Ev
T _ZN6icu_4421TimeArrayTimeZoneRuleD1Ev
T _ZN6icu_4421TimeArrayTimeZoneRuleD2Ev
T _ZN6icu_4421TimeArrayTimeZoneRuleaSERKS0_
T _ZN6icu_4422CharsetRecog_8859_1_da5matchEPNS_9InputTextE
T _ZN6icu_4422CharsetRecog_8859_1_daD0Ev
T _ZN6icu_4422CharsetRecog_8859_1_daD1Ev
T _ZN6icu_4422CharsetRecog_8859_1_daD2Ev
T _ZN6icu_4422CharsetRecog_8859_1_de5matchEPNS_9InputTextE
T _ZN6icu_4422CharsetRecog_8859_1_deD0Ev
T _ZN6icu_4422CharsetRecog_8859_1_deD1Ev
T _ZN6icu_4422CharsetRecog_8859_1_deD2Ev
T _ZN6icu_4422CharsetRecog_8859_1_en5matchEPNS_9InputTextE
T _ZN6icu_4422CharsetRecog_8859_1_enD0Ev
T _ZN6icu_4422CharsetRecog_8859_1_enD1Ev
T _ZN6icu_4422CharsetRecog_8859_1_enD2Ev
T _ZN6icu_4422CharsetRecog_8859_1_es5matchEPNS_9InputTextE
T _ZN6icu_4422CharsetRecog_8859_1_esD0Ev
T _ZN6icu_4422CharsetRecog_8859_1_esD1Ev
T _ZN6icu_4422CharsetRecog_8859_1_esD2Ev
T _ZN6icu_4422CharsetRecog_8859_1_fr5matchEPNS_9InputTextE
T _ZN6icu_4422CharsetRecog_8859_1_frD0Ev
T _ZN6icu_4422CharsetRecog_8859_1_frD1Ev
T _ZN6icu_4422CharsetRecog_8859_1_frD2Ev
T _ZN6icu_4422CharsetRecog_8859_1_it5matchEPNS_9InputTextE
T _ZN6icu_4422CharsetRecog_8859_1_itD0Ev
T _ZN6icu_4422CharsetRecog_8859_1_itD1Ev
T _ZN6icu_4422CharsetRecog_8859_1_itD2Ev
T _ZN6icu_4422CharsetRecog_8859_1_nl5matchEPNS_9InputTextE
T _ZN6icu_4422CharsetRecog_8859_1_nlD0Ev
T _ZN6icu_4422CharsetRecog_8859_1_nlD1Ev
T _ZN6icu_4422CharsetRecog_8859_1_nlD2Ev
T _ZN6icu_4422CharsetRecog_8859_1_no5matchEPNS_9InputTextE
T _ZN6icu_4422CharsetRecog_8859_1_noD0Ev
T _ZN6icu_4422CharsetRecog_8859_1_noD1Ev
T _ZN6icu_4422CharsetRecog_8859_1_noD2Ev
T _ZN6icu_4422CharsetRecog_8859_1_pt5matchEPNS_9InputTextE
T _ZN6icu_4422CharsetRecog_8859_1_ptD0Ev
T _ZN6icu_4422CharsetRecog_8859_1_ptD1Ev
T _ZN6icu_4422CharsetRecog_8859_1_ptD2Ev
T _ZN6icu_4422CharsetRecog_8859_1_sv5matchEPNS_9InputTextE
T _ZN6icu_4422CharsetRecog_8859_1_svD0Ev
T _ZN6icu_4422CharsetRecog_8859_1_svD1Ev
T _ZN6icu_4422CharsetRecog_8859_1_svD2Ev
T _ZN6icu_4422CharsetRecog_8859_2_cs5matchEPNS_9InputTextE
T _ZN6icu_4422CharsetRecog_8859_2_csD0Ev
T _ZN6icu_4422CharsetRecog_8859_2_csD1Ev
T _ZN6icu_4422CharsetRecog_8859_2_csD2Ev
T _ZN6icu_4422CharsetRecog_8859_2_hu5matchEPNS_9InputTextE
T _ZN6icu_4422CharsetRecog_8859_2_huD0Ev
T _ZN6icu_4422CharsetRecog_8859_2_huD1Ev
T _ZN6icu_4422CharsetRecog_8859_2_huD2Ev
T _ZN6icu_4422CharsetRecog_8859_2_pl5matchEPNS_9InputTextE
T _ZN6icu_4422CharsetRecog_8859_2_plD0Ev
T _ZN6icu_4422CharsetRecog_8859_2_plD1Ev
T _ZN6icu_4422CharsetRecog_8859_2_plD2Ev
T _ZN6icu_4422CharsetRecog_8859_2_ro5matchEPNS_9InputTextE
T _ZN6icu_4422CharsetRecog_8859_2_roD0Ev
T _ZN6icu_4422CharsetRecog_8859_2_roD1Ev
T _ZN6icu_4422CharsetRecog_8859_2_roD2Ev
T _ZN6icu_4422CharsetRecog_8859_5_ru5matchEPNS_9InputTextE
T _ZN6icu_4422CharsetRecog_8859_5_ruD0Ev
T _ZN6icu_4422CharsetRecog_8859_5_ruD1Ev
T _ZN6icu_4422CharsetRecog_8859_5_ruD2Ev
T _ZN6icu_4422CharsetRecog_8859_6_ar5matchEPNS_9InputTextE
T _ZN6icu_4422CharsetRecog_8859_6_arD0Ev
T _ZN6icu_4422CharsetRecog_8859_6_arD1Ev
T _ZN6icu_4422CharsetRecog_8859_6_arD2Ev
T _ZN6icu_4422CharsetRecog_8859_7_el5matchEPNS_9InputTextE
T _ZN6icu_4422CharsetRecog_8859_7_elD0Ev
T _ZN6icu_4422CharsetRecog_8859_7_elD1Ev
T _ZN6icu_4422CharsetRecog_8859_7_elD2Ev
T _ZN6icu_4422CharsetRecog_8859_8_he5matchEPNS_9InputTextE
T _ZN6icu_4422CharsetRecog_8859_8_heD0Ev
T _ZN6icu_4422CharsetRecog_8859_8_heD1Ev
T _ZN6icu_4422CharsetRecog_8859_8_heD2Ev
T _ZN6icu_4422CharsetRecog_8859_9_tr5matchEPNS_9InputTextE
T _ZN6icu_4422CharsetRecog_8859_9_trD0Ev
T _ZN6icu_4422CharsetRecog_8859_9_trD1Ev
T _ZN6icu_4422CharsetRecog_8859_9_trD2Ev
T _ZN6icu_4422CharsetRecog_IBM420_ar11matchFinishEPNS_9InputTextE
T _ZN6icu_4422CharsetRecog_IBM420_ar14unshapeLamAlefEPKhiRi
T _ZN6icu_4422CharsetRecog_IBM420_ar7unshapeEPKhiRi
T _ZN6icu_4422CharsetRecog_IBM420_ar9isLamAlefEh
T _ZN6icu_4422CharsetRecog_IBM420_ar9matchInitEPNS_9InputTextE
T _ZN6icu_4422CharsetRecog_IBM420_arD0Ev
T _ZN6icu_4422CharsetRecog_IBM420_arD1Ev
T _ZN6icu_4422CharsetRecog_IBM420_arD2Ev
T _ZN6icu_4422CharsetRecog_IBM424_heD0Ev
T _ZN6icu_4422CharsetRecog_IBM424_heD1Ev
T _ZN6icu_4422CharsetRecog_IBM424_heD2Ev
T _ZN6icu_4422CharsetRecog_UTF_16_BE5matchEPNS_9InputTextE
T _ZN6icu_4422CharsetRecog_UTF_16_BED0Ev
T _ZN6icu_4422CharsetRecog_UTF_16_BED1Ev
T _ZN6icu_4422CharsetRecog_UTF_16_BED2Ev
T _ZN6icu_4422CharsetRecog_UTF_16_LE5matchEPNS_9InputTextE
T _ZN6icu_4422CharsetRecog_UTF_16_LED0Ev
T _ZN6icu_4422CharsetRecog_UTF_16_LED1Ev
T _ZN6icu_4422CharsetRecog_UTF_16_LED2Ev
T _ZN6icu_4422CharsetRecog_UTF_32_BED0Ev
T _ZN6icu_4422CharsetRecog_UTF_32_BED1Ev
T _ZN6icu_4422CharsetRecog_UTF_32_BED2Ev
T _ZN6icu_4422CharsetRecog_UTF_32_LED0Ev
T _ZN6icu_4422CharsetRecog_UTF_32_LED1Ev
T _ZN6icu_4422CharsetRecog_UTF_32_LED2Ev
T _ZN6icu_4422DTRedundantEnumeration15isCanonicalItemERKNS_13UnicodeStringE
T _ZN6icu_4422DTRedundantEnumeration16getStaticClassIDEv
T _ZN6icu_4422DTRedundantEnumeration3addERKNS_13UnicodeStringER10UErrorCode
T _ZN6icu_4422DTRedundantEnumeration5resetER10UErrorCode
T _ZN6icu_4422DTRedundantEnumeration5snextER10UErrorCode
T _ZN6icu_4422DTRedundantEnumerationC1Ev
T _ZN6icu_4422DTRedundantEnumerationC2Ev
T _ZN6icu_4422DTRedundantEnumerationD0Ev
T _ZN6icu_4422DTRedundantEnumerationD1Ev
T _ZN6icu_4422DTRedundantEnumerationD2Ev
T _ZN6icu_4422LocaleDisplayNamesImpl16getStaticClassIDEv
T _ZN6icu_4422LocaleDisplayNamesImplC1ERKNS_6LocaleE16UDialectHandling
T _ZN6icu_4422LocaleDisplayNamesImplC2ERKNS_6LocaleE16UDialectHandling
T _ZN6icu_4422LocaleDisplayNamesImplD0Ev
T _ZN6icu_4422LocaleDisplayNamesImplD1Ev
T _ZN6icu_4422LocaleDisplayNamesImplD2Ev
T _ZN6icu_4422MultiplierSubstitution16getStaticClassIDEv
T _ZN6icu_4422StringLocalizationInfo6createERKNS_13UnicodeStringER11UParseErrorR10UErrorCode
T _ZN6icu_4422StringLocalizationInfoD0Ev
T _ZN6icu_4422StringLocalizationInfoD1Ev
T _ZN6icu_4422StringLocalizationInfoD2Ev
U _ZN6icu_4422UCharCharacterIterator13next32PostIncEv
U _ZN6icu_4422UCharCharacterIterator7hasNextEv
T _ZN6icu_4423SafeZoneStringFormatPtrC1EPNS_13ZSFCacheEntryE
T _ZN6icu_4423SafeZoneStringFormatPtrC2EPNS_13ZSFCacheEntryE
T _ZN6icu_4423SafeZoneStringFormatPtrD1Ev
T _ZN6icu_4423SafeZoneStringFormatPtrD2Ev
U _ZN6icu_4423StringCharacterIteratorC1ERKNS_13UnicodeStringE
U _ZN6icu_4423StringCharacterIteratorD1Ev
T _ZN6icu_4424CharsetRecog_8859_8_I_he5matchEPNS_9InputTextE
T _ZN6icu_4424CharsetRecog_8859_8_I_heD0Ev
T _ZN6icu_4424CharsetRecog_8859_8_I_heD1Ev
T _ZN6icu_4424CharsetRecog_8859_8_I_heD2Ev
T _ZN6icu_4424CollationElementIterator16getStaticClassIDEv
T _ZN6icu_4424CollationElementIterator4nextER10UErrorCode
T _ZN6icu_4424CollationElementIterator5resetEv
T _ZN6icu_4424CollationElementIterator7setTextERKNS_13UnicodeStringER10UErrorCode
T _ZN6icu_4424CollationElementIterator7setTextERNS_17CharacterIteratorER10UErrorCode
T _ZN6icu_4424CollationElementIterator8previousER10UErrorCode
T _ZN6icu_4424CollationElementIterator9setOffsetEiR10UErrorCode
T _ZN6icu_4424CollationElementIteratorC1ERKNS_13UnicodeStringEPKNS_17RuleBasedCollatorER10UErrorCode
T _ZN6icu_4424CollationElementIteratorC1ERKNS_17CharacterIteratorEPKNS_17RuleBasedCollatorER10UErrorCode
T _ZN6icu_4424CollationElementIteratorC1ERKS0_
T _ZN6icu_4424CollationElementIteratorC2ERKNS_13UnicodeStringEPKNS_17RuleBasedCollatorER10UErrorCode
T _ZN6icu_4424CollationElementIteratorC2ERKNS_17CharacterIteratorEPKNS_17RuleBasedCollatorER10UErrorCode
T _ZN6icu_4424CollationElementIteratorC2ERKS0_
T _ZN6icu_4424CollationElementIteratorD0Ev
T _ZN6icu_4424CollationElementIteratorD1Ev
T _ZN6icu_4424CollationElementIteratorD2Ev
T _ZN6icu_4424CollationElementIteratoraSERKS0_
T _ZN6icu_4424DateTimePatternGenerator10addPatternERKNS_13UnicodeStringEaRS1_R10UErrorCode
T _ZN6icu_4424DateTimePatternGenerator10getBestRawERNS_15DateTimeMatcherEiPNS_12DistanceInfoEPPKNS_11PtnSkeletonE
T _ZN6icu_4424DateTimePatternGenerator10setDecimalERKNS_13UnicodeStringE
T _ZN6icu_4424DateTimePatternGenerator11addCLDRDataERKNS_6LocaleER10UErrorCode
T _ZN6icu_4424DateTimePatternGenerator11getSkeletonERKNS_13UnicodeStringER10UErrorCode
T _ZN6icu_4424DateTimePatternGenerator13copyHashtableEPNS_9HashtableER10UErrorCode
T _ZN6icu_4424DateTimePatternGenerator13getAppendNameE21UDateTimePatternFieldRNS_13UnicodeStringE
T _ZN6icu_4424DateTimePatternGenerator13getRedundantsER10UErrorCode
T _ZN6icu_4424DateTimePatternGenerator13initHashtableER10UErrorCode
T _ZN6icu_4424DateTimePatternGenerator14addICUPatternsERKNS_6LocaleER10UErrorCode
T _ZN6icu_4424DateTimePatternGenerator14createInstanceER10UErrorCode
T _ZN6icu_4424DateTimePatternGenerator14createInstanceERKNS_6LocaleER10UErrorCode
T _ZN6icu_4424DateTimePatternGenerator14getBestPatternERKNS_13UnicodeStringE28UDateTimePatternMatchOptionsR10UErrorCode
T _ZN6icu_4424DateTimePatternGenerator14getBestPatternERKNS_13UnicodeStringER10UErrorCode
T _ZN6icu_4424DateTimePatternGenerator15getBaseSkeletonERKNS_13UnicodeStringER10UErrorCode
T _ZN6icu_4424DateTimePatternGenerator15getTopBitNumberEi
T _ZN6icu_4424DateTimePatternGenerator16adjustFieldTypesERKNS_13UnicodeStringEPKNS_11PtnSkeletonEa28UDateTimePatternMatchOptions
T _ZN6icu_4424DateTimePatternGenerator16getBestAppendingEi28UDateTimePatternMatchOptions
T _ZN6icu_4424DateTimePatternGenerator16getStaticClassIDEv
T _ZN6icu_4424DateTimePatternGenerator17addCanonicalItemsEv
T _ZN6icu_4424DateTimePatternGenerator17replaceFieldTypesERKNS_13UnicodeStringES3_28UDateTimePatternMatchOptionsR10UErrorCode
T _ZN6icu_4424DateTimePatternGenerator17replaceFieldTypesERKNS_13UnicodeStringES3_R10UErrorCode
T _ZN6icu_4424DateTimePatternGenerator17setAppendItemNameE21UDateTimePatternFieldRKNS_13UnicodeStringE
T _ZN6icu_4424DateTimePatternGenerator17setDateTimeFormatERKNS_13UnicodeStringE
T _ZN6icu_4424DateTimePatternGenerator17setDecimalSymbolsERKNS_6LocaleER10UErrorCode
T _ZN6icu_4424DateTimePatternGenerator18setAvailableFormatERKNS_13UnicodeStringER10UErrorCode
T _ZN6icu_4424DateTimePatternGenerator19createEmptyInstanceER10UErrorCode
T _ZN6icu_4424DateTimePatternGenerator19setAppendItemFormatE21UDateTimePatternFieldRKNS_13UnicodeStringE
T _ZN6icu_4424DateTimePatternGenerator22addPatternWithSkeletonERKNS_13UnicodeStringEPS2_aRS1_R10UErrorCode
T _ZN6icu_4424DateTimePatternGenerator23setDateTimeFromCalendarERKNS_6LocaleER10UErrorCode
T _ZN6icu_4424DateTimePatternGenerator8initDataERKNS_6LocaleER10UErrorCode
T _ZN6icu_4424DateTimePatternGenerator9hackTimesERKNS_13UnicodeStringER10UErrorCode
T _ZN6icu_4424DateTimePatternGeneratorC1ER10UErrorCode
T _ZN6icu_4424DateTimePatternGeneratorC1ERKNS_6LocaleER10UErrorCode
T _ZN6icu_4424DateTimePatternGeneratorC1ERKS0_
T _ZN6icu_4424DateTimePatternGeneratorC2ER10UErrorCode
T _ZN6icu_4424DateTimePatternGeneratorC2ERKNS_6LocaleER10UErrorCode
T _ZN6icu_4424DateTimePatternGeneratorC2ERKS0_
T _ZN6icu_4424DateTimePatternGeneratorD0Ev
T _ZN6icu_4424DateTimePatternGeneratorD1Ev
T _ZN6icu_4424DateTimePatternGeneratorD2Ev
T _ZN6icu_4424DateTimePatternGeneratoraSERKS0_
T _ZN6icu_4424FieldPositionOnlyHandler11isRecordingEv
T _ZN6icu_4424FieldPositionOnlyHandler12addAttributeEiii
T _ZN6icu_4424FieldPositionOnlyHandler9shiftLastEi
T _ZN6icu_4424FieldPositionOnlyHandlerC1ERNS_13FieldPositionE
T _ZN6icu_4424FieldPositionOnlyHandlerC2ERNS_13FieldPositionE
T _ZN6icu_4424FieldPositionOnlyHandlerD0Ev
T _ZN6icu_4424FieldPositionOnlyHandlerD1Ev
T _ZN6icu_4424FieldPositionOnlyHandlerD2Ev
T _ZN6icu_4424IntegralPartSubstitution16getStaticClassIDEv
T _ZN6icu_4424PluralKeywordEnumeration16getStaticClassIDEv
T _ZN6icu_4424PluralKeywordEnumeration5resetER10UErrorCode
T _ZN6icu_4424PluralKeywordEnumeration5snextER10UErrorCode
T _ZN6icu_4424PluralKeywordEnumerationC1EPNS_9RuleChainER10UErrorCode
T _ZN6icu_4424PluralKeywordEnumerationC2EPNS_9RuleChainER10UErrorCode
T _ZN6icu_4424PluralKeywordEnumerationD0Ev
T _ZN6icu_4424PluralKeywordEnumerationD1Ev
T _ZN6icu_4424PluralKeywordEnumerationD2Ev
T _ZN6icu_4425AbsoluteValueSubstitution16getStaticClassIDEv
T _ZN6icu_4425CharsetRecog_windows_12515matchEPNS_9InputTextE
T _ZN6icu_4425CharsetRecog_windows_1251D0Ev
T _ZN6icu_4425CharsetRecog_windows_1251D1Ev
T _ZN6icu_4425CharsetRecog_windows_1251D2Ev
T _ZN6icu_4425CharsetRecog_windows_12565matchEPNS_9InputTextE
T _ZN6icu_4425CharsetRecog_windows_1256D0Ev
T _ZN6icu_4425CharsetRecog_windows_1256D1Ev
T _ZN6icu_4425CharsetRecog_windows_1256D2Ev
W _ZN6icu_4425ures_getNextUnicodeStringEP15UResourceBundlePPKcP10UErrorCode
T _ZN6icu_4426CharsetRecog_IBM420_ar_ltr5matchEPNS_9InputTextE
T _ZN6icu_4426CharsetRecog_IBM420_ar_ltrD0Ev
T _ZN6icu_4426CharsetRecog_IBM420_ar_ltrD1Ev
T _ZN6icu_4426CharsetRecog_IBM420_ar_ltrD2Ev
T _ZN6icu_4426CharsetRecog_IBM420_ar_rtl5matchEPNS_9InputTextE
T _ZN6icu_4426CharsetRecog_IBM420_ar_rtlD0Ev
T _ZN6icu_4426CharsetRecog_IBM420_ar_rtlD1Ev
T _ZN6icu_4426CharsetRecog_IBM420_ar_rtlD2Ev
T _ZN6icu_4426CharsetRecog_IBM424_he_ltr5matchEPNS_9InputTextE
T _ZN6icu_4426CharsetRecog_IBM424_he_ltrD0Ev
T _ZN6icu_4426CharsetRecog_IBM424_he_ltrD1Ev
T _ZN6icu_4426CharsetRecog_IBM424_he_ltrD2Ev
T _ZN6icu_4426CharsetRecog_IBM424_he_rtl5matchEPNS_9InputTextE
T _ZN6icu_4426CharsetRecog_IBM424_he_rtlD0Ev
T _ZN6icu_4426CharsetRecog_IBM424_he_rtlD1Ev
T _ZN6icu_4426CharsetRecog_IBM424_he_rtlD2Ev
T _ZN6icu_4426FractionalPartSubstitution16getStaticClassIDEv
T _ZN6icu_4426FractionalPartSubstitutionC1EiPKNS_9NFRuleSetEPKNS_21RuleBasedNumberFormatERKNS_13UnicodeStringER10UErrorCode
T _ZN6icu_4426FractionalPartSubstitutionC2EiPKNS_9NFRuleSetEPKNS_21RuleBasedNumberFormatERKNS_13UnicodeStringER10UErrorCode
T _ZN6icu_4428FieldPositionIteratorHandler11isRecordingEv
T _ZN6icu_4428FieldPositionIteratorHandler12addAttributeEiii
T _ZN6icu_4428FieldPositionIteratorHandler9shiftLastEi
T _ZN6icu_4428FieldPositionIteratorHandlerC1EPNS_21FieldPositionIteratorER10UErrorCode
T _ZN6icu_4428FieldPositionIteratorHandlerC2EPNS_21FieldPositionIteratorER10UErrorCode
T _ZN6icu_4428FieldPositionIteratorHandlerD0Ev
T _ZN6icu_4428FieldPositionIteratorHandlerD1Ev
T _ZN6icu_4428FieldPositionIteratorHandlerD2Ev
T _ZN6icu_4429ZoneStringSearchResultHandler11handleMatchEiPKNS_13CharacterNodeER10UErrorCode
T _ZN6icu_4429ZoneStringSearchResultHandler12countMatchesEv
T _ZN6icu_4429ZoneStringSearchResultHandler5clearEv
T _ZN6icu_4429ZoneStringSearchResultHandler8getMatchEiRi
T _ZN6icu_4429ZoneStringSearchResultHandlerC1ER10UErrorCode
T _ZN6icu_4429ZoneStringSearchResultHandlerC2ER10UErrorCode
T _ZN6icu_4429ZoneStringSearchResultHandlerD0Ev
T _ZN6icu_4429ZoneStringSearchResultHandlerD1Ev
T _ZN6icu_4429ZoneStringSearchResultHandlerD2Ev
T _ZN6icu_4430CollationLocaleListEnumeration16getStaticClassIDEv
T _ZN6icu_4430TextTrieMapSearchResultHandlerD0Ev
T _ZN6icu_4430TextTrieMapSearchResultHandlerD1Ev
T _ZN6icu_4430TextTrieMapSearchResultHandlerD2Ev
R _ZN6icu_445Grego11DAYS_BEFOREE
T _ZN6icu_445Grego11dayToFieldsEdRiS1_S1_S1_S1_
T _ZN6icu_445Grego11fieldsToDayEiii
R _ZN6icu_445Grego12MONTH_LENGTHE
T _ZN6icu_445Grego12timeToFieldsEdRiS1_S1_S1_S1_S1_
T _ZN6icu_445Grego16dayOfWeekInMonthEiii
T _ZN6icu_445Grego9dayOfWeekEd
T _ZN6icu_446CEList16getStaticClassIDEv
T _ZN6icu_446CEList3addEjR10UErrorCode
T _ZN6icu_446CEListC1EP9UCollatorRKNS_13UnicodeStringER10UErrorCode
T _ZN6icu_446CEListC2EP9UCollatorRKNS_13UnicodeStringER10UErrorCode
T _ZN6icu_446CEListD0Ev
T _ZN6icu_446CEListD1Ev
T _ZN6icu_446CEListD2Ev
T _ZN6icu_446Format11syntaxErrorERKNS_13UnicodeStringEiR11UParseError
T _ZN6icu_446Format12setLocaleIDsEPKcS2_
T _ZN6icu_446FormatC1ERKS0_
T _ZN6icu_446FormatC1Ev
T _ZN6icu_446FormatC2ERKS0_
T _ZN6icu_446FormatC2Ev
T _ZN6icu_446FormatD0Ev
T _ZN6icu_446FormatD1Ev
T _ZN6icu_446FormatD2Ev
T _ZN6icu_446FormataSERKS0_
U _ZN6icu_446Locale10getDefaultEv
U _ZN6icu_446Locale10getEnglishEv
U _ZN6icu_446Locale10setToBogusEv
U _ZN6icu_446Locale14createFromNameEPKc
U _ZN6icu_446Locale19getAvailableLocalesERi
U _ZN6icu_446Locale7getRootEv
U _ZN6icu_446LocaleC1EPKcS2_S2_S2_
U _ZN6icu_446LocaleC1ERKS0_
U _ZN6icu_446LocaleC1Ev
U _ZN6icu_446LocaleD1Ev
U _ZN6icu_446LocaleaSERKS0_
T _ZN6icu_446NFRule12setBaseValueExR10UErrorCode
T _ZN6icu_446NFRule19extractSubstitutionEPKNS_9NFRuleSetEPKS0_PKNS_21RuleBasedNumberFormatER10UErrorCode
T _ZN6icu_446NFRule19parseRuleDescriptorERNS_13UnicodeStringER10UErrorCode
T _ZN6icu_446NFRule20extractSubstitutionsEPKNS_9NFRuleSetEPKS0_PKNS_21RuleBasedNumberFormatER10UErrorCode
T _ZN6icu_446NFRule9makeRulesERNS_13UnicodeStringEPKNS_9NFRuleSetEPKS0_PKNS_21RuleBasedNumberFormatERNS_10NFRuleListER10UErrorCode
T _ZN6icu_446NFRuleC1EPKNS_21RuleBasedNumberFormatE
T _ZN6icu_446NFRuleC2EPKNS_21RuleBasedNumberFormatE
T _ZN6icu_446NFRuleD1Ev
T _ZN6icu_446NFRuleD2Ev
T _ZN6icu_446Target11isIdenticalERNS_13UnicodeStringEii
T _ZN6icu_446Target12stringLengthEv
T _ZN6icu_446Target15isBreakBoundaryEi
T _ZN6icu_446Target15setTargetStringEPKNS_13UnicodeStringE
T _ZN6icu_446Target16nextSafeBoundaryEi
T _ZN6icu_446Target17nextBreakBoundaryEi
T _ZN6icu_446Target6charAtEi
T _ZN6icu_446Target6nextCEEi
T _ZN6icu_446Target6prevCEEi
T _ZN6icu_446Target7setLastEi
T _ZN6icu_446Target9getOffsetEv
T _ZN6icu_446Target9setOffsetEi
T _ZN6icu_446TargetC1EP9UCollatorPKNS_13UnicodeStringEiR10UErrorCode
T _ZN6icu_446TargetC2EP9UCollatorPKNS_13UnicodeStringEiR10UErrorCode
T _ZN6icu_446TargetD1Ev
T _ZN6icu_446TargetD2Ev
U _ZN6icu_446UStack3popEv
U _ZN6icu_446UStack4popiEv
U _ZN6icu_446UStackC1ER10UErrorCode
U _ZN6icu_446UStackD1Ev
T _ZN6icu_447MeasureC1ERKNS_11FormattableEPNS_11MeasureUnitER10UErrorCode
T _ZN6icu_447MeasureC1ERKS0_
T _ZN6icu_447MeasureC1Ev
T _ZN6icu_447MeasureC2ERKNS_11FormattableEPNS_11MeasureUnitER10UErrorCode
T _ZN6icu_447MeasureC2ERKS0_
T _ZN6icu_447MeasureC2Ev
T _ZN6icu_447MeasureD0Ev
T _ZN6icu_447MeasureD1Ev
T _ZN6icu_447MeasureD2Ev
T _ZN6icu_447MeasureaSERKS0_
T _ZN6icu_447PtnElemC1ERKNS_13UnicodeStringES3_
T _ZN6icu_447PtnElemC2ERKNS_13UnicodeStringES3_
T _ZN6icu_447PtnElemD0Ev
T _ZN6icu_447PtnElemD1Ev
T _ZN6icu_447PtnElemD2Ev
U _ZN6icu_447UMemorydaEPv
U _ZN6icu_447UMemorydlEPv
U _ZN6icu_447UMemorynaEj
U _ZN6icu_447UMemorynwEj
U _ZN6icu_447UObjectD2Ev
U _ZN6icu_447UVector10addElementEPvR10UErrorCode
U _ZN6icu_447UVector10addElementEiR10UErrorCode
U _ZN6icu_447UVector10setDeleterEPFvPvE
U _ZN6icu_447UVector12setElementAtEPvi
U _ZN6icu_447UVector12setElementAtEii
U _ZN6icu_447UVector15orphanElementAtEi
U _ZN6icu_447UVector15removeElementAtEi
U _ZN6icu_447UVector17removeAllElementsEv
U _ZN6icu_447UVector4sortEPFa8UHashTokS1_ER10UErrorCode
U _ZN6icu_447UVectorC1EPFvPvEPFa8UHashTokS4_ER10UErrorCode
U _ZN6icu_447UVectorC1EPFvPvEPFa8UHashTokS4_EiR10UErrorCode
U _ZN6icu_447UVectorC1ER10UErrorCode
U _ZN6icu_447UVectorC1EiR10UErrorCode
U _ZN6icu_447UVectorD1Ev
T _ZN6icu_448CEBuffer11getPreviousEi
T _ZN6icu_448CEBuffer3getEi
T _ZN6icu_448CEBufferC1EP13UStringSearchP10UErrorCode
T _ZN6icu_448CEBufferC2EP13UStringSearchP10UErrorCode
T _ZN6icu_448CEBufferD1Ev
T _ZN6icu_448CEBufferD2Ev
T _ZN6icu_448Calendar10setLenientEa
T _ZN6icu_448Calendar10updateTimeER10UErrorCode
T _ZN6icu_448Calendar10weekNumberEiii
T _ZN6icu_448Calendar11computeTimeER10UErrorCode
T _ZN6icu_448Calendar11getLocalDOWEv
T _ZN6icu_448Calendar11internalSetENS0_11EDateFieldsEi
T _ZN6icu_448Calendar11setTimeZoneERKNS_8TimeZoneE
T _ZN6icu_448Calendar11setWeekDataERKNS_6LocaleEPKcR10UErrorCode
T _ZN6icu_448Calendar13adoptTimeZoneEPNS_8TimeZoneE
T _ZN6icu_448Calendar13computeFieldsER10UErrorCode
T _ZN6icu_448Calendar13resolveFieldsEPA12_A8_Ki
T _ZN6icu_448Calendar13validateFieldE19UCalendarDateFieldsR10UErrorCode
T _ZN6icu_448Calendar13validateFieldE19UCalendarDateFieldsiiR10UErrorCode
T _ZN6icu_448Calendar14createInstanceEPNS_8TimeZoneERKNS_6LocaleER10UErrorCode
T _ZN6icu_448Calendar14createInstanceER10UErrorCode
T _ZN6icu_448Calendar14createInstanceERKNS_6LocaleER10UErrorCode
T _ZN6icu_448Calendar14createInstanceERKNS_8TimeZoneER10UErrorCode
T _ZN6icu_448Calendar14createInstanceERKNS_8TimeZoneERKNS_6LocaleER10UErrorCode
R _ZN6icu_448Calendar14kDOWPrecedenceE
T _ZN6icu_448Calendar14orphanTimeZoneEv
T _ZN6icu_448Calendar14validateFieldsER10UErrorCode
T _ZN6icu_448Calendar15fieldDifferenceEd19UCalendarDateFieldsR10UErrorCode
T _ZN6icu_448Calendar15fieldDifferenceEdNS0_11EDateFieldsER10UErrorCode
R _ZN6icu_448Calendar15kDatePrecedenceE
R _ZN6icu_448Calendar15kYearPrecedenceE
T _ZN6icu_448Calendar15setTimeInMillisEdR10UErrorCode
T _ZN6icu_448Calendar16computeJulianDayEv
T _ZN6icu_448Calendar16prepareGetActualE19UCalendarDateFieldsaR10UErrorCode
T _ZN6icu_448Calendar17computeWeekFieldsER10UErrorCode
T _ZN6icu_448Calendar17computeZoneOffsetEdiR10UErrorCode
T _ZN6icu_448Calendar17setFirstDayOfWeekE19UCalendarDaysOfWeek
T _ZN6icu_448Calendar18computeMillisInDayEv
T _ZN6icu_448Calendar19getAvailableLocalesERi
T _ZN6icu_448Calendar19handleComputeFieldsEiR10UErrorCode
T _ZN6icu_448Calendar20getDefaultDayInMonthEii
T _ZN6icu_448Calendar20julianDayToDayOfWeekEd
T _ZN6icu_448Calendar21getDefaultMonthInYearEi
T _ZN6icu_448Calendar22computeGregorianFieldsEiR10UErrorCode
T _ZN6icu_448Calendar22handleComputeJulianDayE19UCalendarDateFields
T _ZN6icu_448Calendar25getKeywordValuesForLocaleEPKcRKNS_6LocaleEaR10UErrorCode
T _ZN6icu_448Calendar25setMinimalDaysInFirstWeekEh
T _ZN6icu_448Calendar28computeGregorianAndDOWFieldsEiR10UErrorCode
T _ZN6icu_448Calendar35handleGetExtendedYearFromWeekFieldsEii
T _ZN6icu_448Calendar3addE19UCalendarDateFieldsiR10UErrorCode
T _ZN6icu_448Calendar3addENS0_11EDateFieldsEiR10UErrorCode
T _ZN6icu_448Calendar3setE19UCalendarDateFieldsi
T _ZN6icu_448Calendar3setEiii
T _ZN6icu_448Calendar3setEiiiii
T _ZN6icu_448Calendar3setEiiiiii
T _ZN6icu_448Calendar4rollE19UCalendarDateFieldsiR10UErrorCode
T _ZN6icu_448Calendar4rollENS0_11EDateFieldsEiR10UErrorCode
T _ZN6icu_448Calendar5clearE19UCalendarDateFields
T _ZN6icu_448Calendar5clearEv
T _ZN6icu_448Calendar6getNowEv
T _ZN6icu_448Calendar8completeER10UErrorCode
T _ZN6icu_448Calendar8pinFieldE19UCalendarDateFieldsR10UErrorCode
T _ZN6icu_448CalendarC1EPNS_8TimeZoneERKNS_6LocaleER10UErrorCode
T _ZN6icu_448CalendarC1ER10UErrorCode
T _ZN6icu_448CalendarC1ERKNS_8TimeZoneERKNS_6LocaleER10UErrorCode
T _ZN6icu_448CalendarC1ERKS0_
T _ZN6icu_448CalendarC2EPNS_8TimeZoneERKNS_6LocaleER10UErrorCode
T _ZN6icu_448CalendarC2ER10UErrorCode
T _ZN6icu_448CalendarC2ERKNS_8TimeZoneERKNS_6LocaleER10UErrorCode
T _ZN6icu_448CalendarC2ERKS0_
T _ZN6icu_448CalendarD0Ev
T _ZN6icu_448CalendarD1Ev
T _ZN6icu_448CalendarD2Ev
T _ZN6icu_448CalendaraSERKS0_
T _ZN6icu_448CollData10freeCEListEPKNS_6CEListE
B _ZN6icu_448CollData13collDataCacheE
T _ZN6icu_448CollData16getCollDataCacheEv
T _ZN6icu_448CollData16getStaticClassIDEv
T _ZN6icu_448CollData17freeCollDataCacheEv
T _ZN6icu_448CollData18flushCollDataCacheEv
T _ZN6icu_448CollData4openEP9UCollatorR10UErrorCode
T _ZN6icu_448CollData5closeEPS0_
T _ZN6icu_448CollDataC1EP9UCollatorPciR10UErrorCode
T _ZN6icu_448CollDataC1Ev
T _ZN6icu_448CollDataC2EP9UCollatorPciR10UErrorCode
T _ZN6icu_448CollDataC2Ev
T _ZN6icu_448CollDataD0Ev
T _ZN6icu_448CollDataD1Ev
T _ZN6icu_448CollDataD2Ev
T _ZN6icu_448Collator10setLocalesERKNS_6LocaleES3_S3_
T _ZN6icu_448Collator11getKeywordsER10UErrorCode
T _ZN6icu_448Collator12makeInstanceERKNS_6LocaleER10UErrorCode
T _ZN6icu_448Collator14createInstanceER10UErrorCode
T _ZN6icu_448Collator14createInstanceERKNS_6LocaleER10UErrorCode
T _ZN6icu_448Collator14getDisplayNameERKNS_6LocaleERNS_13UnicodeStringE
T _ZN6icu_448Collator14getDisplayNameERKNS_6LocaleES3_RNS_13UnicodeStringE
T _ZN6icu_448Collator16getKeywordValuesEPKcR10UErrorCode
T _ZN6icu_448Collator19getAvailableLocalesERi
T _ZN6icu_448Collator19getAvailableLocalesEv
T _ZN6icu_448Collator23getFunctionalEquivalentEPKcRKNS_6LocaleERaR10UErrorCode
T _ZN6icu_448Collator25getKeywordValuesForLocaleEPKcRKNS_6LocaleEaR10UErrorCode
T _ZN6icu_448Collator8getBoundEPKhi13UColBoundModejPhiR10UErrorCode
T _ZN6icu_448CollatorC1E18UColAttributeValue18UNormalizationMode
T _ZN6icu_448CollatorC1ERKS0_
T _ZN6icu_448CollatorC1Ev
T _ZN6icu_448CollatorC2E18UColAttributeValue18UNormalizationMode
T _ZN6icu_448CollatorC2ERKS0_
T _ZN6icu_448CollatorC2Ev
T _ZN6icu_448CollatorD0Ev
T _ZN6icu_448CollatorD1Ev
T _ZN6icu_448CollatorD2Ev
T _ZN6icu_448TimeUnit14createInstanceENS0_15UTimeUnitFieldsER10UErrorCode
T _ZN6icu_448TimeUnit16getStaticClassIDEv
T _ZN6icu_448TimeUnitC1ENS0_15UTimeUnitFieldsE
T _ZN6icu_448TimeUnitC1ERKS0_
T _ZN6icu_448TimeUnitC2ENS0_15UTimeUnitFieldsE
T _ZN6icu_448TimeUnitC2ERKS0_
T _ZN6icu_448TimeUnitD0Ev
T _ZN6icu_448TimeUnitD1Ev
T _ZN6icu_448TimeUnitD2Ev
T _ZN6icu_448TimeUnitaSERKS0_
T _ZN6icu_448TimeZone10setDefaultERKS0_
T _ZN6icu_448TimeZone11getCustomIDERKNS_13UnicodeStringERS1_R10UErrorCode
T _ZN6icu_448TimeZone11initDefaultEv
T _ZN6icu_448TimeZone12adoptDefaultEPS0_
T _ZN6icu_448TimeZone13createDefaultEv
T _ZN6icu_448TimeZone13parseCustomIDERKNS_13UnicodeStringERiS4_S4_S4_
T _ZN6icu_448TimeZone14createTimeZoneERKNS_13UnicodeStringE
T _ZN6icu_448TimeZone14formatCustomIDEiiiaRNS_13UnicodeStringE
T _ZN6icu_448TimeZone14getCanonicalIDERKNS_13UnicodeStringERS1_R10UErrorCode
T _ZN6icu_448TimeZone14getCanonicalIDERKNS_13UnicodeStringERS1_RaR10UErrorCode
T _ZN6icu_448TimeZone15getEquivalentIDERKNS_13UnicodeStringEi
T _ZN6icu_448TimeZone16dereferOlsonLinkERKNS_13UnicodeStringE
T _ZN6icu_448TimeZone16getStaticClassIDEv
T _ZN6icu_448TimeZone16getTZDataVersionER10UErrorCode
T _ZN6icu_448TimeZone17createEnumerationEPKc
T _ZN6icu_448TimeZone17createEnumerationEi
T _ZN6icu_448TimeZone17createEnumerationEv
T _ZN6icu_448TimeZone18countEquivalentIDsERKNS_13UnicodeStringE
T _ZN6icu_448TimeZone20createCustomTimeZoneERKNS_13UnicodeStringE
T _ZN6icu_448TimeZone20createSystemTimeZoneERKNS_13UnicodeStringE
T _ZN6icu_448TimeZone6getGMTEv
T _ZN6icu_448TimeZone8loadRuleEPK15UResourceBundleRKNS_13UnicodeStringEPS1_R10UErrorCode
T _ZN6icu_448TimeZone9getRegionERKNS_13UnicodeStringE
T _ZN6icu_448TimeZoneC1ERKNS_13UnicodeStringE
T _ZN6icu_448TimeZoneC1ERKS0_
T _ZN6icu_448TimeZoneC1Ev
T _ZN6icu_448TimeZoneC2ERKNS_13UnicodeStringE
T _ZN6icu_448TimeZoneC2ERKS0_
T _ZN6icu_448TimeZoneC2Ev
T _ZN6icu_448TimeZoneD0Ev
T _ZN6icu_448TimeZoneD1Ev
T _ZN6icu_448TimeZoneD2Ev
T _ZN6icu_448TimeZoneaSERKS0_
T _ZN6icu_448ZSFCache3getERKNS_6LocaleER10UErrorCode
T _ZN6icu_448ZSFCacheC1Ei
T _ZN6icu_448ZSFCacheC2Ei
T _ZN6icu_448ZSFCacheD1Ev
T _ZN6icu_448ZSFCacheD2Ev
T _ZN6icu_448ZoneMeta13getMetazoneIDERKNS_13UnicodeStringEdRS1_
T _ZN6icu_448ZoneMeta16getSingleCountryERKNS_13UnicodeStringERS1_
T _ZN6icu_448ZoneMeta19getCanonicalCountryERKNS_13UnicodeStringERS1_
T _ZN6icu_448ZoneMeta19getMetazoneMappingsERKNS_13UnicodeStringE
T _ZN6icu_448ZoneMeta19getZoneIdByMetazoneERKNS_13UnicodeStringES3_RS1_
T _ZN6icu_448ZoneMeta20getCanonicalSystemIDERKNS_13UnicodeStringERS1_R10UErrorCode
T _ZN6icu_448ZoneMeta22createMetazoneMappingsERKNS_13UnicodeStringE
T _ZN6icu_449ClockMath11floorDivideEddRd
T _ZN6icu_449ClockMath11floorDivideEdiRi
T _ZN6icu_449ClockMath11floorDivideEii
T _ZN6icu_449DigitList10getDecimalERNS_19DecimalNumberStringER10UErrorCode
T _ZN6icu_449DigitList11setPositiveEa
T _ZN6icu_449DigitList12fitsIntoLongEa
T _ZN6icu_449DigitList12getDecimalAtEv
T _ZN6icu_449DigitList12setDecimalAtEi
T _ZN6icu_449DigitList13fitsIntoInt64Ea
T _ZN6icu_449DigitList14ensureCapacityEiR10UErrorCode
T _ZN6icu_449DigitList15roundFixedPointEi
T _ZN6icu_449DigitList15setRoundingModeENS_13DecimalFormat13ERoundingModeE
T _ZN6icu_449DigitList15toIntegralValueEv
T _ZN6icu_449DigitList3divERKS0_R10UErrorCode
T _ZN6icu_449DigitList3setERKNS_11StringPieceER10UErrorCode
T _ZN6icu_449DigitList3setEd
T _ZN6icu_449DigitList3setEi
T _ZN6icu_449DigitList3setEx
T _ZN6icu_449DigitList4multERKS0_R10UErrorCode
T _ZN6icu_449DigitList4trimEv
T _ZN6icu_449DigitList5clearEv
T _ZN6icu_449DigitList5roundEi
T _ZN6icu_449DigitList6appendEc
T _ZN6icu_449DigitList6reduceEv
T _ZN6icu_449DigitList7compareERKS0_
T _ZN6icu_449DigitList7getLongEv
T _ZN6icu_449DigitList8getDigitEi
T _ZN6icu_449DigitList8getInt64Ev
T _ZN6icu_449DigitList8setCountEi
T _ZN6icu_449DigitList8setDigitEic
T _ZN6icu_449DigitListC1ERKS0_
T _ZN6icu_449DigitListC1Ev
T _ZN6icu_449DigitListC2ERKS0_
T _ZN6icu_449DigitListC2Ev
T _ZN6icu_449DigitListD1Ev
T _ZN6icu_449DigitListD2Ev
T _ZN6icu_449DigitListaSERKS0_
T _ZN6icu_449InputText10MungeInputEa
T _ZN6icu_449InputText19setDeclaredEncodingEPKci
T _ZN6icu_449InputText7setTextEPKci
T _ZN6icu_449InputTextC1ER10UErrorCode
T _ZN6icu_449InputTextC2ER10UErrorCode
T _ZN6icu_449InputTextD1Ev
T _ZN6icu_449InputTextD2Ev
T _ZN6icu_449NFRuleSet10parseRulesERNS_13UnicodeStringEPKNS_21RuleBasedNumberFormatER10UErrorCode
T _ZN6icu_449NFRuleSetC1EPNS_13UnicodeStringEiR10UErrorCode
T _ZN6icu_449NFRuleSetC2EPNS_13UnicodeStringEiR10UErrorCode
T _ZN6icu_449NFRuleSetD1Ev
T _ZN6icu_449NFRuleSetD2Ev
T _ZN6icu_449PCEBuffer3getEv
T _ZN6icu_449PCEBuffer3putEyii
T _ZN6icu_449PCEBuffer5resetEv
T _ZN6icu_449PCEBufferC1Ev
T _ZN6icu_449PCEBufferC2Ev
T _ZN6icu_449PCEBufferD1Ev
T _ZN6icu_449PCEBufferD2Ev
T _ZN6icu_449RCEBuffer3getEv
T _ZN6icu_449RCEBuffer3putEjii
T _ZN6icu_449RCEBufferC1Ev
T _ZN6icu_449RCEBufferC2Ev
T _ZN6icu_449RCEBufferD1Ev
T _ZN6icu_449RCEBufferD2Ev
T _ZN6icu_449RuleChain14getRepeatLimitEv
T _ZN6icu_449RuleChain14setRepeatLimitEv
T _ZN6icu_449RuleChain9dumpRulesERNS_13UnicodeStringE
T _ZN6icu_449RuleChainC1ERKS0_
T _ZN6icu_449RuleChainC1Ev
T _ZN6icu_449RuleChainC2ERKS0_
T _ZN6icu_449RuleChainC2Ev
T _ZN6icu_449RuleChainD0Ev
T _ZN6icu_449RuleChainD1Ev
T _ZN6icu_449RuleChainD2Ev
T _ZN6icu_449SPUStringC1EPNS_13UnicodeStringE
T _ZN6icu_449SPUStringC2EPNS_13UnicodeStringE
T _ZN6icu_449SPUStringD1Ev
T _ZN6icu_449SPUStringD2Ev
T _ZN6icu_449ScriptSet12countMembersEv
T _ZN6icu_449ScriptSet5UnionE11UScriptCode
T _ZN6icu_449ScriptSet5UnionERKS0_
T _ZN6icu_449ScriptSet6setAllEv
T _ZN6icu_449ScriptSet8resetAllEv
T _ZN6icu_449ScriptSet9intersectE11UScriptCode
T _ZN6icu_449ScriptSet9intersectERKS0_
T _ZN6icu_449ScriptSetC1Ev
T _ZN6icu_449ScriptSetC2Ev
T _ZN6icu_449ScriptSetD1Ev
T _ZN6icu_449ScriptSetD2Ev
T _ZN6icu_449ScriptSetaSERKS0_
T _ZN6icu_449ScriptSeteqERKS0_
T _ZN6icu_449SpoofData10getDefaultER10UErrorCode
T _ZN6icu_449SpoofData12addReferenceEv
T _ZN6icu_449SpoofData12reserveSpaceEiR10UErrorCode
T _ZN6icu_449SpoofData15removeReferenceEv
T _ZN6icu_449SpoofData19validateDataVersionEPKNS_15SpoofDataHeaderER10UErrorCode
T _ZN6icu_449SpoofData5resetEv
T _ZN6icu_449SpoofData8initPtrsER10UErrorCode
T _ZN6icu_449SpoofDataC1EP11UDataMemoryR10UErrorCode
T _ZN6icu_449SpoofDataC1EPKviR10UErrorCode
T _ZN6icu_449SpoofDataC1ER10UErrorCode
T _ZN6icu_449SpoofDataC2EP11UDataMemoryR10UErrorCode
T _ZN6icu_449SpoofDataC2EPKviR10UErrorCode
T _ZN6icu_449SpoofDataC2ER10UErrorCode
T _ZN6icu_449SpoofDataD1Ev
T _ZN6icu_449SpoofDataD2Ev
T _ZN6icu_449SpoofImpl12validateThisEP13USpoofCheckerR10UErrorCode
T _ZN6icu_449SpoofImpl12validateThisEPK13USpoofCheckerR10UErrorCode
T _ZN6icu_449SpoofImpl14addScriptCharsEPKcPNS_10UnicodeSetER10UErrorCode
T _ZN6icu_449SpoofImpl16getStaticClassIDEv
T _ZN6icu_449SpoofImpl17getAllowedLocalesER10UErrorCode
T _ZN6icu_449SpoofImpl17setAllowedLocalesEPKcR10UErrorCode
T _ZN6icu_449SpoofImpl7ScanHexEPKtiiR10UErrorCode
T _ZN6icu_449SpoofImplC1EPNS_9SpoofDataER10UErrorCode
T _ZN6icu_449SpoofImplC1ERKS0_R10UErrorCode
T _ZN6icu_449SpoofImplC1Ev
T _ZN6icu_449SpoofImplC2EPNS_9SpoofDataER10UErrorCode
T _ZN6icu_449SpoofImplC2ERKS0_R10UErrorCode
T _ZN6icu_449SpoofImplC2Ev
T _ZN6icu_449SpoofImplD0Ev
T _ZN6icu_449SpoofImplD1Ev
T _ZN6icu_449SpoofImplD2Ev
U _ZN6icu_449UVector3212setElementAtEii
U _ZN6icu_449UVector3214expandCapacityEiR10UErrorCode
U _ZN6icu_449UVector326assignERKS0_R10UErrorCode
U _ZN6icu_449UVector327setSizeEi
U _ZN6icu_449UVector32C1ER10UErrorCode
U _ZN6icu_449UVector32C1EiR10UErrorCode
U _ZN6icu_449UVector32D1Ev
U _ZN6icu_449UVector32eqERKS0_
U _ZN6icu_449UVector6412setElementAtExi
U _ZN6icu_449UVector6414expandCapacityEiR10UErrorCode
U _ZN6icu_449UVector6414setMaxCapacityEi
U _ZN6icu_449UVector6415insertElementAtExiR10UErrorCode
U _ZN6icu_449UVector6417removeAllElementsEv
U _ZN6icu_449UVector646assignERKS0_R10UErrorCode
U _ZN6icu_449UVector647setSizeEi
U _ZN6icu_449UVector64C1ER10UErrorCode
T _ZN6icu_449VTZReader4readEv
T _ZN6icu_449VTZReaderC1ERKNS_13UnicodeStringE
T _ZN6icu_449VTZReaderC2ERKNS_13UnicodeStringE
T _ZN6icu_449VTZReaderD1Ev
T _ZN6icu_449VTZReaderD2Ev
T _ZN6icu_449VTZWriter5writeERKNS_13UnicodeStringE
T _ZN6icu_449VTZWriter5writeEt
T _ZN6icu_449VTZWriterC1ERNS_13UnicodeStringE
T _ZN6icu_449VTZWriterC2ERNS_13UnicodeStringE
T _ZN6icu_449VTZWriterD1Ev
T _ZN6icu_449VTZWriterD2Ev
T _ZN6icu_449VTimeZone11writeSimpleEdRNS_13UnicodeStringER10UErrorCode
T _ZN6icu_449VTimeZone11writeSimpleEdRNS_9VTZWriterER10UErrorCode
T _ZN6icu_449VTimeZone12setRawOffsetEi
T _ZN6icu_449VTimeZone15createVTimeZoneERKNS_13UnicodeStringER10UErrorCode
T _ZN6icu_449VTimeZone15setLastModifiedEd
T _ZN6icu_449VTimeZone16getStaticClassIDEv
T _ZN6icu_449VTimeZone16getTimeZoneRulesERPKNS_19InitialTimeZoneRuleEPPKNS_12TimeZoneRuleERiR10UErrorCode
T _ZN6icu_449VTimeZone17getNextTransitionEdaRNS_18TimeZoneTransitionE
T _ZN6icu_449VTimeZone19createVTimeZoneByIDERKNS_13UnicodeStringE
T _ZN6icu_449VTimeZone20countTransitionRulesER10UErrorCode
T _ZN6icu_449VTimeZone21getPreviousTransitionEdaRNS_18TimeZoneTransitionE
T _ZN6icu_449VTimeZone4loadERNS_9VTZReaderER10UErrorCode
T _ZN6icu_449VTimeZone5parseER10UErrorCode
T _ZN6icu_449VTimeZone5writeEdRNS_13UnicodeStringER10UErrorCode
T _ZN6icu_449VTimeZone5writeEdRNS_9VTZWriterER10UErrorCode
T _ZN6icu_449VTimeZone8setTZURLERKNS_13UnicodeStringE
T _ZN6icu_449VTimeZoneC1ERKS0_
T _ZN6icu_449VTimeZoneC1Ev
T _ZN6icu_449VTimeZoneC2ERKS0_
T _ZN6icu_449VTimeZoneC2Ev
T _ZN6icu_449VTimeZoneD0Ev
T _ZN6icu_449VTimeZoneD1Ev
T _ZN6icu_449VTimeZoneD2Ev
T _ZN6icu_449VTimeZoneaSERKS0_
U _ZN6icu_44plERKNS_13UnicodeStringES2_
T _ZNK6icu_4410CECalendar14handleGetLimitE19UCalendarDateFieldsNS_8Calendar10ELimitTypeE
T _ZNK6icu_4410CECalendar14inDaylightTimeER10UErrorCode
T _ZNK6icu_4410CECalendar18haveDefaultCenturyEv
T _ZNK6icu_4410CECalendar23handleComputeMonthStartEiia
T _ZNK6icu_4410DateFormat11getCalendarEv
T _ZNK6icu_4410DateFormat11getTimeZoneEv
T _ZNK6icu_4410DateFormat11parseObjectERKNS_13UnicodeStringERNS_11FormattableERNS_13ParsePositionE
T _ZNK6icu_4410DateFormat15getNumberFormatEv
T _ZNK6icu_4410DateFormat5parseERKNS_13UnicodeStringER10UErrorCode
T _ZNK6icu_4410DateFormat5parseERKNS_13UnicodeStringERNS_13ParsePositionE
T _ZNK6icu_4410DateFormat6formatERKNS_11FormattableERNS_13UnicodeStringEPNS_21FieldPositionIteratorER10UErrorCode
T _ZNK6icu_4410DateFormat6formatERKNS_11FormattableERNS_13UnicodeStringERNS_13FieldPositionER10UErrorCode
T _ZNK6icu_4410DateFormat6formatERNS_8CalendarERNS_13UnicodeStringEPNS_21FieldPositionIteratorER10UErrorCode
T _ZNK6icu_4410DateFormat6formatEdRNS_13UnicodeStringE
T _ZNK6icu_4410DateFormat6formatEdRNS_13UnicodeStringEPNS_21FieldPositionIteratorER10UErrorCode
T _ZNK6icu_4410DateFormat6formatEdRNS_13UnicodeStringERNS_13FieldPositionE
T _ZNK6icu_4410DateFormat9isLenientEv
T _ZNK6icu_4410DateFormateqERKNS_6FormatE
T _ZNK6icu_4410StringList17getDynamicClassIDEv
T _ZNK6icu_4410StringList3getEi
T _ZNK6icu_4410StringList4sizeEv
U _ZNK6icu_4410UnicodeSet11getRangeEndEi
U _ZNK6icu_4410UnicodeSet13getRangeCountEv
U _ZNK6icu_4410UnicodeSet13getRangeStartEi
U _ZNK6icu_4410UnicodeSet5cloneEv
U _ZNK6icu_4410UnicodeSet6charAtEi
U _ZNK6icu_4410UnicodeSet8containsEi
T _ZNK6icu_4411Formattable17getDynamicClassIDEv
T _ZNK6icu_4411Formattable5cloneEv
T _ZNK6icu_4411Formattable7getLongER10UErrorCode
T _ZNK6icu_4411Formattable7getTypeEv
T _ZNK6icu_4411Formattable8getArrayERiR10UErrorCode
T _ZNK6icu_4411Formattable8getBogusEv
T _ZNK6icu_4411Formattable8getInt64ER10UErrorCode
T _ZNK6icu_4411Formattable9getDoubleER10UErrorCode
T _ZNK6icu_4411Formattable9getObjectEv
T _ZNK6icu_4411Formattable9getStringER10UErrorCode
T _ZNK6icu_4411Formattable9getStringERNS_13UnicodeStringER10UErrorCode
T _ZNK6icu_4411Formattable9isNumericEv
T _ZNK6icu_4411FormattableeqERKS0_
U _ZNK6icu_4411LocaleBased11getLocaleIDE18ULocDataLocaleTypeR10UErrorCode
U _ZNK6icu_4411LocaleBased9getLocaleE18ULocDataLocaleTypeR10UErrorCode
T _ZNK6icu_4411PluralRules11getKeywordsER10UErrorCode
T _ZNK6icu_4411PluralRules14getNumberValueERKNS_13UnicodeStringE
T _ZNK6icu_4411PluralRules14getRepeatLimitEv
T _ZNK6icu_4411PluralRules15getKeywordOtherEv
T _ZNK6icu_4411PluralRules17getDynamicClassIDEv
T _ZNK6icu_4411PluralRules5cloneEv
T _ZNK6icu_4411PluralRules6selectEd
T _ZNK6icu_4411PluralRules6selectEi
T _ZNK6icu_4411PluralRules9isKeywordERKNS_13UnicodeStringE
T _ZNK6icu_4411PluralRuleseqERKS0_
T _ZNK6icu_4411TextTrieMap12getChildNodeEPNS_13CharacterNodeEt
T _ZNK6icu_4411TextTrieMap6searchEPNS_13CharacterNodeERKNS_13UnicodeStringEiiPNS_30TextTrieMapSearchResultHandlerER10UErrorCode
T _ZNK6icu_4411TextTrieMap6searchERKNS_13UnicodeStringEiPNS_30TextTrieMapSearchResultHandlerER10UErrorCode
T _ZNK6icu_4411TextTrieMap7isEmptyEv
T _ZNK6icu_4411ZoneStrings31getGenericPartialLocationStringERKNS_13UnicodeStringEaaRS1_
T _ZNK6icu_4411ZoneStrings9getStringEiRNS_13UnicodeStringE
T _ZNK6icu_4412CharsetMatch11getLanguageEv
T _ZNK6icu_4412CharsetMatch13getConfidenceEv
T _ZNK6icu_4412CharsetMatch7getNameEv
T _ZNK6icu_4412CharsetMatch9getUCharsEPtiP10UErrorCode
T _ZNK6icu_4412ChoiceFormat10getFormatsERi
T _ZNK6icu_4412ChoiceFormat11getClosuresERi
T _ZNK6icu_4412ChoiceFormat17getDynamicClassIDEv
T _ZNK6icu_4412ChoiceFormat5cloneEv
T _ZNK6icu_4412ChoiceFormat5parseERKNS_13UnicodeStringERNS_11FormattableER10UErrorCode
T _ZNK6icu_4412ChoiceFormat5parseERKNS_13UnicodeStringERNS_11FormattableERNS_13ParsePositionE
T _ZNK6icu_4412ChoiceFormat6formatEPKNS_11FormattableEiRNS_13UnicodeStringERNS_13FieldPositionER10UErrorCode
T _ZNK6icu_4412ChoiceFormat6formatERKNS_11FormattableERNS_13UnicodeStringERNS_13FieldPositionER10UErrorCode
T _ZNK6icu_4412ChoiceFormat6formatEdRNS_13UnicodeStringERNS_13FieldPositionE
T _ZNK6icu_4412ChoiceFormat6formatEiRNS_13UnicodeStringERNS_13FieldPositionE
T _ZNK6icu_4412ChoiceFormat6formatExRNS_13UnicodeStringERNS_13FieldPositionE
T _ZNK6icu_4412ChoiceFormat9getLimitsERi
T _ZNK6icu_4412ChoiceFormat9toPatternERNS_13UnicodeStringE
T _ZNK6icu_4412ChoiceFormateqERKNS_6FormatE
T _ZNK6icu_4412CollationKey17getDynamicClassIDEv
T _ZNK6icu_4412CollationKey8hashCodeEv
T _ZNK6icu_4412CollationKey9compareToERKS0_
T _ZNK6icu_4412CollationKey9compareToERKS0_R10UErrorCode
T _ZNK6icu_4412CollationKeyeqERKS0_
T _ZNK6icu_4412CurrencyUnit17getDynamicClassIDEv
T _ZNK6icu_4412CurrencyUnit5cloneEv
T _ZNK6icu_4412CurrencyUniteqERKNS_7UObjectE
T _ZNK6icu_4412DateTimeRule12getRuleMonthEv
T _ZNK6icu_4412DateTimeRule15getDateRuleTypeEv
T _ZNK6icu_4412DateTimeRule15getTimeRuleTypeEv
T _ZNK6icu_4412DateTimeRule16getRuleDayOfWeekEv
T _ZNK6icu_4412DateTimeRule17getDynamicClassIDEv
T _ZNK6icu_4412DateTimeRule17getRuleDayOfMonthEv
T _ZNK6icu_4412DateTimeRule18getRuleMillisInDayEv
T _ZNK6icu_4412DateTimeRule18getRuleWeekInMonthEv
T _ZNK6icu_4412DateTimeRule5cloneEv
T _ZNK6icu_4412DateTimeRuleeqERKS0_
T _ZNK6icu_4412DateTimeRuleneERKS0_
T _ZNK6icu_4412FormatParser14isQuoteLiteralERKNS_13UnicodeStringE
T _ZNK6icu_4412ICUDataTable13getNoFallbackEPKcS2_S2_RNS_13UnicodeStringE
T _ZNK6icu_4412ICUDataTable3getEPKcS2_S2_RNS_13UnicodeStringE
T _ZNK6icu_4412NumberFormat11getCurrencyEv
T _ZNK6icu_4412NumberFormat11parseObjectERKNS_13UnicodeStringERNS_11FormattableERNS_13ParsePositionE
T _ZNK6icu_4412NumberFormat13parseCurrencyERKNS_13UnicodeStringERNS_11FormattableERNS_13ParsePositionE
T _ZNK6icu_4412NumberFormat14isGroupingUsedEv
T _ZNK6icu_4412NumberFormat20getEffectiveCurrencyEPtR10UErrorCode
T _ZNK6icu_4412NumberFormat23getMaximumIntegerDigitsEv
T _ZNK6icu_4412NumberFormat23getMinimumIntegerDigitsEv
T _ZNK6icu_4412NumberFormat24getMaximumFractionDigitsEv
T _ZNK6icu_4412NumberFormat24getMinimumFractionDigitsEv
T _ZNK6icu_4412NumberFormat5parseERKNS_13UnicodeStringERNS_11FormattableER10UErrorCode
T _ZNK6icu_4412NumberFormat6formatERKNS_11FormattableERNS_13UnicodeStringEPNS_21FieldPositionIteratorER10UErrorCode
T _ZNK6icu_4412NumberFormat6formatERKNS_11FormattableERNS_13UnicodeStringERNS_13FieldPositionER10UErrorCode
T _ZNK6icu_4412NumberFormat6formatERKNS_11StringPieceERNS_13UnicodeStringEPNS_21FieldPositionIteratorER10UErrorCode
T _ZNK6icu_4412NumberFormat6formatERKNS_9DigitListERNS_13UnicodeStringEPNS_21FieldPositionIteratorER10UErrorCode
T _ZNK6icu_4412NumberFormat6formatERKNS_9DigitListERNS_13UnicodeStringERNS_13FieldPositionER10UErrorCode
T _ZNK6icu_4412NumberFormat6formatEdRNS_13UnicodeStringE
T _ZNK6icu_4412NumberFormat6formatEdRNS_13UnicodeStringEPNS_21FieldPositionIteratorER10UErrorCode
T _ZNK6icu_4412NumberFormat6formatEiRNS_13UnicodeStringE
T _ZNK6icu_4412NumberFormat6formatEiRNS_13UnicodeStringEPNS_21FieldPositionIteratorER10UErrorCode
T _ZNK6icu_4412NumberFormat6formatExRNS_13UnicodeStringE
T _ZNK6icu_4412NumberFormat6formatExRNS_13UnicodeStringEPNS_21FieldPositionIteratorER10UErrorCode
T _ZNK6icu_4412NumberFormat6formatExRNS_13UnicodeStringERNS_13FieldPositionE
T _ZNK6icu_4412NumberFormateqERKNS_6FormatE
T _ZNK6icu_4412PluralFormat11parseObjectERKNS_13UnicodeStringERNS_11FormattableERNS_13ParsePositionE
T _ZNK6icu_4412PluralFormat17getDynamicClassIDEv
T _ZNK6icu_4412PluralFormat21insertFormattedNumberEdRNS_13UnicodeStringES2_RNS_13FieldPositionE
T _ZNK6icu_4412PluralFormat5cloneEv
T _ZNK6icu_4412PluralFormat6formatERKNS_11FormattableERNS_13UnicodeStringERNS_13FieldPositionER10UErrorCode
T _ZNK6icu_4412PluralFormat6formatEdR10UErrorCode
T _ZNK6icu_4412PluralFormat6formatEdRNS_13UnicodeStringERNS_13FieldPositionER10UErrorCode
T _ZNK6icu_4412PluralFormat6formatEiR10UErrorCode
T _ZNK6icu_4412PluralFormat6formatEiRNS_13UnicodeStringERNS_13FieldPositionER10UErrorCode
T _ZNK6icu_4412PluralFormateqERKNS_6FormatE
T _ZNK6icu_4412PluralFormatneERKNS_6FormatE
T _ZNK6icu_4412RegexMatcher10groupCountEv
T _ZNK6icu_4412RegexMatcher10requireEndEv
T _ZNK6icu_4412RegexMatcher11appendGroupEiP5UTextR10UErrorCode
T _ZNK6icu_4412RegexMatcher11regionStartEv
T _ZNK6icu_4412RegexMatcher12getTimeLimitEv
T _ZNK6icu_4412RegexMatcher13getStackLimitEv
T _ZNK6icu_4412RegexMatcher17getDynamicClassIDEv
T _ZNK6icu_4412RegexMatcher18hasAnchoringBoundsEv
T _ZNK6icu_4412RegexMatcher20hasTransparentBoundsEv
T _ZNK6icu_4412RegexMatcher3endER10UErrorCode
T _ZNK6icu_4412RegexMatcher3endEiR10UErrorCode
T _ZNK6icu_4412RegexMatcher5groupEP5UTextNS0_22MatcherDestIsUTextFlagER10UErrorCode
T _ZNK6icu_4412RegexMatcher5groupER10UErrorCode
T _ZNK6icu_4412RegexMatcher5groupEiP5UTextR10UErrorCode
T _ZNK6icu_4412RegexMatcher5groupEiR10UErrorCode
T _ZNK6icu_4412RegexMatcher5inputEv
T _ZNK6icu_4412RegexMatcher5startER10UErrorCode
T _ZNK6icu_4412RegexMatcher5startEiR10UErrorCode
T _ZNK6icu_4412RegexMatcher6hitEndEv
T _ZNK6icu_4412RegexMatcher7patternEv
T _ZNK6icu_4412RegexMatcher8getInputEP5UText
T _ZNK6icu_4412RegexMatcher9inputTextEv
T _ZNK6icu_4412RegexMatcher9regionEndEv
T _ZNK6icu_4412RegexPattern11patternTextEv
T _ZNK6icu_4412RegexPattern17getDynamicClassIDEv
T _ZNK6icu_4412RegexPattern5cloneEv
T _ZNK6icu_4412RegexPattern5flagsEv
T _ZNK6icu_4412RegexPattern5splitEP5UTextPS2_iR10UErrorCode
T _ZNK6icu_4412RegexPattern5splitERKNS_13UnicodeStringEPS1_iR10UErrorCode
T _ZNK6icu_4412RegexPattern7matcherEP5UTextNS0_18PatternIsUTextFlagER10UErrorCode
T _ZNK6icu_4412RegexPattern7matcherER10UErrorCode
T _ZNK6icu_4412RegexPattern7matcherERKNS_13UnicodeStringER10UErrorCode
T _ZNK6icu_4412RegexPattern7patternEv
T _ZNK6icu_4412RegexPatterneqERKS0_
T _ZNK6icu_4412SelectFormat11parseObjectERKNS_13UnicodeStringERNS_11FormattableERNS_13ParsePositionE
T _ZNK6icu_4412SelectFormat17checkValidKeywordERKNS_13UnicodeStringE
T _ZNK6icu_4412SelectFormat17classifyCharacterEt
T _ZNK6icu_4412SelectFormat17getDynamicClassIDEv
T _ZNK6icu_4412SelectFormat5cloneEv
T _ZNK6icu_4412SelectFormat6formatERKNS_11FormattableERNS_13UnicodeStringERNS_13FieldPositionER10UErrorCode
T _ZNK6icu_4412SelectFormat6formatERKNS_13UnicodeStringERS1_RNS_13FieldPositionER10UErrorCode
T _ZNK6icu_4412SelectFormateqERKNS_6FormatE
T _ZNK6icu_4412SelectFormatneERKNS_6FormatE
T _ZNK6icu_4412StringSearch10getPatternEv
T _ZNK6icu_4412StringSearch11getCollatorEv
T _ZNK6icu_4412StringSearch17getDynamicClassIDEv
T _ZNK6icu_4412StringSearch5cloneEv
T _ZNK6icu_4412StringSearch9getOffsetEv
T _ZNK6icu_4412StringSearch9safeCloneEv
T _ZNK6icu_4412StringSearcheqERKNS_14SearchIteratorE
T _ZNK6icu_4412TimeZoneRule12getRawOffsetEv
T _ZNK6icu_4412TimeZoneRule13getDSTSavingsEv
T _ZNK6icu_4412TimeZoneRule14isEquivalentToERKS0_
T _ZNK6icu_4412TimeZoneRule7getNameERNS_13UnicodeStringE
T _ZNK6icu_4412TimeZoneRuleeqERKS0_
T _ZNK6icu_4412TimeZoneRuleneERKS0_
T _ZNK6icu_4413DecimalFormat10addPaddingERNS_13UnicodeStringERNS_20FieldPositionHandlerEii
T _ZNK6icu_4413DecimalFormat11appendAffixERNS_13UnicodeStringEdRNS_20FieldPositionHandlerEaa
T _ZNK6icu_4413DecimalFormat11expandAffixERKNS_13UnicodeStringERS1_dRNS_20FieldPositionHandlerEaPS2_
T _ZNK6icu_4413DecimalFormat11skipPaddingERKNS_13UnicodeStringEi
T _ZNK6icu_4413DecimalFormat12compareAffixERKNS_13UnicodeStringEiaaPS2_aaPt
T _ZNK6icu_4413DecimalFormat13getMultiplierEv
T _ZNK6icu_4413DecimalFormat13parseCurrencyERKNS_13UnicodeStringERNS_11FormattableERNS_13ParsePositionE
T _ZNK6icu_4413DecimalFormat14getFormatWidthEv
T _ZNK6icu_4413DecimalFormat14getPadPositionEv
T _ZNK6icu_4413DecimalFormat15getGroupingSizeEv
T _ZNK6icu_4413DecimalFormat15getRoundingModeEv
T _ZNK6icu_4413DecimalFormat16parseForCurrencyERKNS_13UnicodeStringERNS_13ParsePositionERNS_9DigitListEPaPt
T _ZNK6icu_4413DecimalFormat17getDynamicClassIDEv
T _ZNK6icu_4413DecimalFormat17getNegativePrefixERNS_13UnicodeStringE
T _ZNK6icu_4413DecimalFormat17getNegativeSuffixERNS_13UnicodeStringE
T _ZNK6icu_4413DecimalFormat17getPositivePrefixERNS_13UnicodeStringE
T _ZNK6icu_4413DecimalFormat17getPositiveSuffixERNS_13UnicodeStringE
T _ZNK6icu_4413DecimalFormat18appendAffixPatternERNS_13UnicodeStringEPKS1_RS3_a
T _ZNK6icu_4413DecimalFormat18appendAffixPatternERNS_13UnicodeStringERKS1_a
T _ZNK6icu_4413DecimalFormat18isGroupingPositionEi
T _ZNK6icu_4413DecimalFormat18toLocalizedPatternERNS_13UnicodeStringE
T _ZNK6icu_4413DecimalFormat19compareComplexAffixERKNS_13UnicodeStringES3_iaPt
T _ZNK6icu_4413DecimalFormat20getEffectiveCurrencyEPtR10UErrorCode
T _ZNK6icu_4413DecimalFormat20getRoundingIncrementEv
T _ZNK6icu_4413DecimalFormat21getCurrencyPluralInfoEv
T _ZNK6icu_4413DecimalFormat21getPadCharacterStringEv
T _ZNK6icu_4413DecimalFormat23getDecimalFormatSymbolsEv
T _ZNK6icu_4413DecimalFormat24areSignificantDigitsUsedEv
T _ZNK6icu_4413DecimalFormat24getMinimumExponentDigitsEv
T _ZNK6icu_4413DecimalFormat24getSecondaryGroupingSizeEv
T _ZNK6icu_4413DecimalFormat27getMaximumSignificantDigitsEv
T _ZNK6icu_4413DecimalFormat27getMinimumSignificantDigitsEv
T _ZNK6icu_4413DecimalFormat29isDecimalSeparatorAlwaysShownEv
T _ZNK6icu_4413DecimalFormat5cloneEv
T _ZNK6icu_4413DecimalFormat5parseERKNS_13UnicodeStringERNS_11FormattableER10UErrorCode
T _ZNK6icu_4413DecimalFormat5parseERKNS_13UnicodeStringERNS_11FormattableERNS_13ParsePositionE
T _ZNK6icu_4413DecimalFormat5parseERKNS_13UnicodeStringERNS_11FormattableERNS_13ParsePositionEa
T _ZNK6icu_4413DecimalFormat6formatERKNS_11FormattableERNS_13UnicodeStringERNS_13FieldPositionER10UErrorCode
T _ZNK6icu_4413DecimalFormat6formatERKNS_11StringPieceERNS_13UnicodeStringEPNS_21FieldPositionIteratorER10UErrorCode
T _ZNK6icu_4413DecimalFormat6formatERKNS_9DigitListERNS_13UnicodeStringEPNS_21FieldPositionIteratorER10UErrorCode
T _ZNK6icu_4413DecimalFormat6formatERKNS_9DigitListERNS_13UnicodeStringERNS_13FieldPositionER10UErrorCode
W _ZNK6icu_4413DecimalFormat6formatEdRNS_13UnicodeStringE
T _ZNK6icu_4413DecimalFormat6formatEdRNS_13UnicodeStringEPNS_21FieldPositionIteratorER10UErrorCode
T _ZNK6icu_4413DecimalFormat6formatEdRNS_13UnicodeStringERNS_13FieldPositionE
T _ZNK6icu_4413DecimalFormat6formatEiRNS_13UnicodeStringEPNS_21FieldPositionIteratorER10UErrorCode
T _ZNK6icu_4413DecimalFormat6formatEiRNS_13UnicodeStringERNS_13FieldPositionE
T _ZNK6icu_4413DecimalFormat6formatExRNS_13UnicodeStringEPNS_21FieldPositionIteratorER10UErrorCode
T _ZNK6icu_4413DecimalFormat6formatExRNS_13UnicodeStringERNS_13FieldPositionE
T _ZNK6icu_4413DecimalFormat7_formatERKNS_9DigitListERNS_13UnicodeStringERNS_20FieldPositionHandlerER10UErrorCode
T _ZNK6icu_4413DecimalFormat7_formatEdRNS_13UnicodeStringERNS_20FieldPositionHandlerE
T _ZNK6icu_4413DecimalFormat7_formatExRNS_13UnicodeStringERNS_20FieldPositionHandlerE
T _ZNK6icu_4413DecimalFormat8subparseERKNS_13UnicodeStringEPS2_S4_S4_S4_aaRNS_13ParsePositionERNS_9DigitListEPaPt
T _ZNK6icu_4413DecimalFormat9precisionEv
T _ZNK6icu_4413DecimalFormat9subformatERNS_13UnicodeStringERNS_20FieldPositionHandlerERNS_9DigitListEa
T _ZNK6icu_4413DecimalFormat9toPatternERNS_13UnicodeStringE
T _ZNK6icu_4413DecimalFormat9toPatternERNS_13UnicodeStringEa
T _ZNK6icu_4413DecimalFormateqERKNS_6FormatE
T _ZNK6icu_4413FieldPosition17getDynamicClassIDEv
T _ZNK6icu_4413FieldPosition5cloneEv
T _ZNK6icu_4413MessageFormat10getFormatsERi
T _ZNK6icu_4413MessageFormat11parseObjectERKNS_13UnicodeStringERNS_11FormattableERNS_13ParsePositionE
T _ZNK6icu_4413MessageFormat14isLegalArgNameERKNS_13UnicodeStringE
T _ZNK6icu_4413MessageFormat15getArgTypeCountEv
T _ZNK6icu_4413MessageFormat17getDynamicClassIDEv
T _ZNK6icu_4413MessageFormat18usesNamedArgumentsEv
T _ZNK6icu_4413MessageFormat19createIntegerFormatERKNS_6LocaleER10UErrorCode
T _ZNK6icu_4413MessageFormat20getDefaultDateFormatER10UErrorCode
T _ZNK6icu_4413MessageFormat22getDefaultNumberFormatER10UErrorCode
T _ZNK6icu_4413MessageFormat5cloneEv
T _ZNK6icu_4413MessageFormat5parseERKNS_13UnicodeStringERNS_13ParsePositionERi
T _ZNK6icu_4413MessageFormat5parseERKNS_13UnicodeStringERiR10UErrorCode
T _ZNK6icu_4413MessageFormat6formatEPKNS_11FormattableEPKNS_13UnicodeStringEiRS4_RNS_13FieldPositionEiR10UErrorCode
T _ZNK6icu_4413MessageFormat6formatEPKNS_11FormattableEiRNS_13UnicodeStringERNS_13FieldPositionER10UErrorCode
T _ZNK6icu_4413MessageFormat6formatEPKNS_11FormattableEiRNS_13UnicodeStringERNS_13FieldPositionEiR10UErrorCode
T _ZNK6icu_4413MessageFormat6formatEPKNS_13UnicodeStringEPKNS_11FormattableEiRS1_R10UErrorCode
T _ZNK6icu_4413MessageFormat6formatERKNS_11FormattableERNS_13UnicodeStringERNS_13FieldPositionER10UErrorCode
T _ZNK6icu_4413MessageFormat9getLocaleEv
T _ZNK6icu_4413MessageFormat9toPatternERNS_13UnicodeStringE
T _ZNK6icu_4413MessageFormateqERKNS_6FormatE
T _ZNK6icu_4413OlsonTimeZone12getRawOffsetEv
T _ZNK6icu_4413OlsonTimeZone12hasSameRulesERKNS_8TimeZoneE
T _ZNK6icu_4413OlsonTimeZone13getDSTSavingsEv
T _ZNK6icu_4413OlsonTimeZone14inDaylightTimeEdR10UErrorCode
T _ZNK6icu_4413OlsonTimeZone15useDaylightTimeEv
T _ZNK6icu_4413OlsonTimeZone17getDynamicClassIDEv
T _ZNK6icu_4413OlsonTimeZone19getHistoricalOffsetEdaiiRiS1_
T _ZNK6icu_4413OlsonTimeZone23transitionTimeInSecondsEs
T _ZNK6icu_4413OlsonTimeZone5cloneEv
T _ZNK6icu_4413OlsonTimeZone9getOffsetEdaRiS1_R10UErrorCode
T _ZNK6icu_4413OlsonTimeZone9getOffsetEhiiihiR10UErrorCode
T _ZNK6icu_4413OlsonTimeZone9getOffsetEhiiihiiR10UErrorCode
T _ZNK6icu_4413OlsonTimeZoneeqERKNS_8TimeZoneE
T _ZNK6icu_4413TZEnumeration17getDynamicClassIDEv
T _ZNK6icu_4413UCollationPCE17getDynamicClassIDEv
U _ZNK6icu_4413UnicodeString10doHashCodeEv
U _ZNK6icu_4413UnicodeString11countChar32Eii
U _ZNK6icu_4413UnicodeString11moveIndex32Eii
U _ZNK6icu_4413UnicodeString13doCaseCompareEiiPKtiij
U _ZNK6icu_4413UnicodeString13doLastIndexOfEtii
U _ZNK6icu_4413UnicodeString13tempSubStringEii
U _ZNK6icu_4413UnicodeString23doCompareCodePointOrderEiiPKtii
U _ZNK6icu_4413UnicodeString7extractEPtiR10UErrorCode
U _ZNK6icu_4413UnicodeString7extractEiiPciNS0_10EInvariantE
U _ZNK6icu_4413UnicodeString7extractEiiPcjPKc
U _ZNK6icu_4413UnicodeString7indexOfEPKtiiii
U _ZNK6icu_4413UnicodeString8refCountEv
U _ZNK6icu_4413UnicodeString9doCompareEiiPKtii
U _ZNK6icu_4413UnicodeString9doExtractEiiPti
U _ZNK6icu_4413UnicodeString9doIndexOfEtii
T _ZNK6icu_4414CEToStringsMap13getStringListEj
T _ZNK6icu_4414CopticCalendar16getJDEpochOffsetEv
T _ZNK6icu_4414CopticCalendar17getDynamicClassIDEv
T _ZNK6icu_4414CopticCalendar19defaultCenturyStartEv
T _ZNK6icu_4414CopticCalendar23defaultCenturyStartYearEv
T _ZNK6icu_4414CopticCalendar5cloneEv
T _ZNK6icu_4414CopticCalendar7getTypeEv
T _ZNK6icu_4414CurrencyAmount17getDynamicClassIDEv
T _ZNK6icu_4414CurrencyAmount5cloneEv
T _ZNK6icu_4414CurrencyFormat11parseObjectERKNS_13UnicodeStringERNS_11FormattableERNS_13ParsePositionE
T _ZNK6icu_4414CurrencyFormat17getDynamicClassIDEv
T _ZNK6icu_4414CurrencyFormat5cloneEv
T _ZNK6icu_4414CurrencyFormat6formatERKNS_11FormattableERNS_13UnicodeStringERNS_13FieldPositionER10UErrorCode
T _ZNK6icu_4414CurrencyFormateqERKNS_6FormatE
T _ZNK6icu_4414HebrewCalendar14handleGetLimitE19UCalendarDateFieldsNS_8Calendar10ELimitTypeE
T _ZNK6icu_4414HebrewCalendar14inDaylightTimeER10UErrorCode
T _ZNK6icu_4414HebrewCalendar17getDynamicClassIDEv
T _ZNK6icu_4414HebrewCalendar18haveDefaultCenturyEv
T _ZNK6icu_4414HebrewCalendar19defaultCenturyStartEv
T _ZNK6icu_4414HebrewCalendar19handleGetYearLengthEi
T _ZNK6icu_4414HebrewCalendar20handleGetMonthLengthEii
T _ZNK6icu_4414HebrewCalendar23defaultCenturyStartYearEv
T _ZNK6icu_4414HebrewCalendar23handleComputeMonthStartEiia
T _ZNK6icu_4414HebrewCalendar30internalGetDefaultCenturyStartEv
T _ZNK6icu_4414HebrewCalendar34internalGetDefaultCenturyStartYearEv
T _ZNK6icu_4414HebrewCalendar5cloneEv
T _ZNK6icu_4414HebrewCalendar7getTypeEv
T _ZNK6icu_4414HebrewCalendar8yearTypeEi
T _ZNK6icu_4414IndianCalendar14handleGetLimitE19UCalendarDateFieldsNS_8Calendar10ELimitTypeE
T _ZNK6icu_4414IndianCalendar14inDaylightTimeER10UErrorCode
T _ZNK6icu_4414IndianCalendar17getDynamicClassIDEv
T _ZNK6icu_4414IndianCalendar18haveDefaultCenturyEv
T _ZNK6icu_4414IndianCalendar19defaultCenturyStartEv
T _ZNK6icu_4414IndianCalendar19handleGetYearLengthEi
T _ZNK6icu_4414IndianCalendar20handleGetMonthLengthEii
T _ZNK6icu_4414IndianCalendar23defaultCenturyStartYearEv
T _ZNK6icu_4414IndianCalendar23handleComputeMonthStartEiia
T _ZNK6icu_4414IndianCalendar30internalGetDefaultCenturyStartEv
T _ZNK6icu_4414IndianCalendar34internalGetDefaultCenturyStartYearEv
T _ZNK6icu_4414IndianCalendar5cloneEv
T _ZNK6icu_4414IndianCalendar7getTypeEv
T _ZNK6icu_4414NFSubstitution14doSubstitutionEdRNS_13UnicodeStringEi
T _ZNK6icu_4414NFSubstitution14doSubstitutionExRNS_13UnicodeStringEi
T _ZNK6icu_4414NFSubstitution17getDynamicClassIDEv
T _ZNK6icu_4414NFSubstitution18isNullSubstitutionEv
T _ZNK6icu_4414NFSubstitution21isModulusSubstitutionEv
T _ZNK6icu_4414NFSubstitution7doParseERKNS_13UnicodeStringERNS_13ParsePositionEddaRNS_11FormattableE
T _ZNK6icu_4414NFSubstitution8toStringERNS_13UnicodeStringE
T _ZNK6icu_4414NFSubstitutioneqERKS0_
T _ZNK6icu_4414SearchIterator12getAttributeE16USearchAttribute
T _ZNK6icu_4414SearchIterator14getMatchedTextERNS_13UnicodeStringE
T _ZNK6icu_4414SearchIterator15getMatchedStartEv
T _ZNK6icu_4414SearchIterator16getBreakIteratorEv
T _ZNK6icu_4414SearchIterator16getMatchedLengthEv
T _ZNK6icu_4414SearchIterator7getTextEv
T _ZNK6icu_4414SearchIteratoreqERKS0_
T _ZNK6icu_4414SimpleTimeZone12getRawOffsetEv
T _ZNK6icu_4414SimpleTimeZone12hasSameRulesERKNS_8TimeZoneE
T _ZNK6icu_4414SimpleTimeZone13getDSTSavingsEv
T _ZNK6icu_4414SimpleTimeZone14inDaylightTimeEdR10UErrorCode
T _ZNK6icu_4414SimpleTimeZone15useDaylightTimeEv
T _ZNK6icu_4414SimpleTimeZone17getDynamicClassIDEv
T _ZNK6icu_4414SimpleTimeZone5cloneEv
W _ZNK6icu_4414SimpleTimeZone9getOffsetEdaRiS1_R10UErrorCode
T _ZNK6icu_4414SimpleTimeZone9getOffsetEhiiihiR10UErrorCode
T _ZNK6icu_4414SimpleTimeZone9getOffsetEhiiihiiR10UErrorCode
T _ZNK6icu_4414SimpleTimeZone9getOffsetEhiiihiiiR10UErrorCode
T _ZNK6icu_4414SimpleTimeZoneeqERKNS_8TimeZoneE
T _ZNK6icu_4414TaiwanCalendar14handleGetLimitE19UCalendarDateFieldsNS_8Calendar10ELimitTypeE
T _ZNK6icu_4414TaiwanCalendar17getDynamicClassIDEv
T _ZNK6icu_4414TaiwanCalendar18haveDefaultCenturyEv
T _ZNK6icu_4414TaiwanCalendar19defaultCenturyStartEv
T _ZNK6icu_4414TaiwanCalendar23defaultCenturyStartYearEv
T _ZNK6icu_4414TaiwanCalendar30internalGetDefaultCenturyStartEv
T _ZNK6icu_4414TaiwanCalendar34internalGetDefaultCenturyStartYearEv
T _ZNK6icu_4414TaiwanCalendar5cloneEv
T _ZNK6icu_4414TaiwanCalendar7getTypeEv
T _ZNK6icu_4414TimeUnitAmount11getTimeUnitEv
T _ZNK6icu_4414TimeUnitAmount16getTimeUnitFieldEv
T _ZNK6icu_4414TimeUnitAmount17getDynamicClassIDEv
T _ZNK6icu_4414TimeUnitAmount5cloneEv
T _ZNK6icu_4414TimeUnitAmounteqERKNS_7UObjectE
T _ZNK6icu_4414TimeUnitFormat11parseObjectERKNS_13UnicodeStringERNS_11FormattableERNS_13ParsePositionE
T _ZNK6icu_4414TimeUnitFormat17getDynamicClassIDEv
T _ZNK6icu_4414TimeUnitFormat5cloneEv
T _ZNK6icu_4414TimeUnitFormat6formatERKNS_11FormattableERNS_13UnicodeStringERNS_13FieldPositionER10UErrorCode
T _ZNK6icu_4414TimeUnitFormateqERKNS_6FormatE
T _ZNK6icu_4415CharsetDetector16getStripTagsFlagEv
T _ZNK6icu_4415CharsetDetector19setDeclaredEncodingEPKci
T _ZNK6icu_4415ChineseCalendar11newMoonNearEda
T _ZNK6icu_4415ChineseCalendar14handleGetLimitE19UCalendarDateFieldsNS_8Calendar10ELimitTypeE
T _ZNK6icu_4415ChineseCalendar14inDaylightTimeER10UErrorCode
T _ZNK6icu_4415ChineseCalendar14majorSolarTermEi
T _ZNK6icu_4415ChineseCalendar14winterSolsticeEi
T _ZNK6icu_4415ChineseCalendar17getDynamicClassIDEv
T _ZNK6icu_4415ChineseCalendar18haveDefaultCenturyEv
T _ZNK6icu_4415ChineseCalendar18isLeapMonthBetweenEii
T _ZNK6icu_4415ChineseCalendar19defaultCenturyStartEv
T _ZNK6icu_4415ChineseCalendar19hasNoMajorSolarTermEi
T _ZNK6icu_4415ChineseCalendar20handleGetMonthLengthEii
T _ZNK6icu_4415ChineseCalendar20synodicMonthsBetweenEii
T _ZNK6icu_4415ChineseCalendar23defaultCenturyStartYearEv
T _ZNK6icu_4415ChineseCalendar23getFieldResolutionTableEv
T _ZNK6icu_4415ChineseCalendar23handleComputeMonthStartEiia
T _ZNK6icu_4415ChineseCalendar30internalGetDefaultCenturyStartEv
T _ZNK6icu_4415ChineseCalendar34internalGetDefaultCenturyStartYearEv
T _ZNK6icu_4415ChineseCalendar5cloneEv
T _ZNK6icu_4415ChineseCalendar7getTypeEv
T _ZNK6icu_4415ChineseCalendar7newYearEi
T _ZNK6icu_4415DateTimeMatcher6equalsEPKS0_
T _ZNK6icu_4415GoodSuffixTableixEi
T _ZNK6icu_4415IslamicCalendar10monthStartEii
T _ZNK6icu_4415IslamicCalendar14handleGetLimitE19UCalendarDateFieldsNS_8Calendar10ELimitTypeE
T _ZNK6icu_4415IslamicCalendar14inDaylightTimeER10UErrorCode
T _ZNK6icu_4415IslamicCalendar14trueMonthStartEi
T _ZNK6icu_4415IslamicCalendar17getDynamicClassIDEv
T _ZNK6icu_4415IslamicCalendar18haveDefaultCenturyEv
T _ZNK6icu_4415IslamicCalendar19defaultCenturyStartEv
T _ZNK6icu_4415IslamicCalendar19handleGetYearLengthEi
T _ZNK6icu_4415IslamicCalendar20handleGetMonthLengthEii
T _ZNK6icu_4415IslamicCalendar23defaultCenturyStartYearEv
T _ZNK6icu_4415IslamicCalendar23handleComputeMonthStartEiia
T _ZNK6icu_4415IslamicCalendar30internalGetDefaultCenturyStartEv
T _ZNK6icu_4415IslamicCalendar34internalGetDefaultCenturyStartYearEv
T _ZNK6icu_4415IslamicCalendar5cloneEv
T _ZNK6icu_4415IslamicCalendar7getTypeEv
W _ZNK6icu_4415MaybeStackArrayIcLi52EE11getCapacityEv
W _ZNK6icu_4415MaybeStackArrayIcLi52EE13getArrayLimitEv
W _ZNK6icu_4415MaybeStackArrayIcLi52EE8getAliasEv
W _ZNK6icu_4415MaybeStackArrayIcLi52EEcvPcEv
U _ZNK6icu_4415Normalizer2Impl16getDecompositionEiPtRi
T _ZNK6icu_4415NumberingSystem13isAlgorithmicEv
T _ZNK6icu_4415NumberingSystem17getDynamicClassIDEv
T _ZNK6icu_4415PersianCalendar10monthStartEii
T _ZNK6icu_4415PersianCalendar14handleGetLimitE19UCalendarDateFieldsNS_8Calendar10ELimitTypeE
T _ZNK6icu_4415PersianCalendar14inDaylightTimeER10UErrorCode
T _ZNK6icu_4415PersianCalendar17getDynamicClassIDEv
T _ZNK6icu_4415PersianCalendar18haveDefaultCenturyEv
T _ZNK6icu_4415PersianCalendar19defaultCenturyStartEv
T _ZNK6icu_4415PersianCalendar19handleGetYearLengthEi
T _ZNK6icu_4415PersianCalendar20handleGetMonthLengthEii
T _ZNK6icu_4415PersianCalendar23defaultCenturyStartYearEv
T _ZNK6icu_4415PersianCalendar23handleComputeMonthStartEiia
T _ZNK6icu_4415PersianCalendar30internalGetDefaultCenturyStartEv
T _ZNK6icu_4415PersianCalendar34internalGetDefaultCenturyStartYearEv
T _ZNK6icu_4415PersianCalendar5cloneEv
T _ZNK6icu_4415PersianCalendar7getTypeEv
T _ZNK6icu_4416BoyerMooreSearch17getDynamicClassIDEv
T _ZNK6icu_4416BuddhistCalendar14handleGetLimitE19UCalendarDateFieldsNS_8Calendar10ELimitTypeE
T _ZNK6icu_4416BuddhistCalendar17getDynamicClassIDEv
T _ZNK6icu_4416BuddhistCalendar18haveDefaultCenturyEv
T _ZNK6icu_4416BuddhistCalendar19defaultCenturyStartEv
T _ZNK6icu_4416BuddhistCalendar23defaultCenturyStartYearEv
T _ZNK6icu_4416BuddhistCalendar23handleComputeMonthStartEiia
T _ZNK6icu_4416BuddhistCalendar30internalGetDefaultCenturyStartEv
T _ZNK6icu_4416BuddhistCalendar34internalGetDefaultCenturyStartYearEv
T _ZNK6icu_4416BuddhistCalendar5cloneEv
T _ZNK6icu_4416BuddhistCalendar7getTypeEv
T _ZNK6icu_4416DateIntervalInfo15getBestSkeletonERKNS_13UnicodeStringERa
T _ZNK6icu_4416DateIntervalInfo15getDefaultOrderEv
T _ZNK6icu_4416DateIntervalInfo17getDynamicClassIDEv
T _ZNK6icu_4416DateIntervalInfo18getIntervalPatternERKNS_13UnicodeStringE19UCalendarDateFieldsRS1_R10UErrorCode
T _ZNK6icu_4416DateIntervalInfo26getFallbackIntervalPatternERNS_13UnicodeStringE
T _ZNK6icu_4416DateIntervalInfo5cloneEv
T _ZNK6icu_4416DateIntervalInfoeqERKS0_
T _ZNK6icu_4416EthiopicCalendar14handleGetLimitE19UCalendarDateFieldsNS_8Calendar10ELimitTypeE
T _ZNK6icu_4416EthiopicCalendar14isAmeteAlemEraEv
T _ZNK6icu_4416EthiopicCalendar16getJDEpochOffsetEv
T _ZNK6icu_4416EthiopicCalendar17getDynamicClassIDEv
T _ZNK6icu_4416EthiopicCalendar19defaultCenturyStartEv
T _ZNK6icu_4416EthiopicCalendar23defaultCenturyStartYearEv
T _ZNK6icu_4416EthiopicCalendar5cloneEv
T _ZNK6icu_4416EthiopicCalendar7getTypeEv
T _ZNK6icu_4416JapaneseCalendar14handleGetLimitE19UCalendarDateFieldsNS_8Calendar10ELimitTypeE
T _ZNK6icu_4416JapaneseCalendar14internalGetEraEv
T _ZNK6icu_4416JapaneseCalendar16getActualMaximumE19UCalendarDateFieldsR10UErrorCode
T _ZNK6icu_4416JapaneseCalendar17getDynamicClassIDEv
T _ZNK6icu_4416JapaneseCalendar18haveDefaultCenturyEv
T _ZNK6icu_4416JapaneseCalendar19defaultCenturyStartEv
T _ZNK6icu_4416JapaneseCalendar23defaultCenturyStartYearEv
T _ZNK6icu_4416JapaneseCalendar5cloneEv
T _ZNK6icu_4416JapaneseCalendar7getTypeEv
T _ZNK6icu_4416LocalizationInfo14indexForLocaleEPKt
T _ZNK6icu_4416LocalizationInfo15indexForRuleSetEPKt
T _ZNK6icu_4416LocalizationInfoeqEPKS0_
T _ZNK6icu_4416NullSubstitution17getDynamicClassIDEv
T _ZNK6icu_4416SimpleDateFormat11matchStringERKNS_13UnicodeStringEi19UCalendarDateFieldsPS2_iRNS_8CalendarE
T _ZNK6icu_4416SimpleDateFormat14checkIntSuffixERKNS_13UnicodeStringEiia
T _ZNK6icu_4416SimpleDateFormat14formatRFC822TZERNS_13UnicodeStringEi
T _ZNK6icu_4416SimpleDateFormat15getNumberFormatE16UDateFormatField
T _ZNK6icu_4416SimpleDateFormat15getSmpFmtLocaleEv
T _ZNK6icu_4416SimpleDateFormat15parseGMTDefaultERKNS_13UnicodeStringERNS_13ParsePositionE
T _ZNK6icu_4416SimpleDateFormat15skipUWhiteSpaceERKNS_13UnicodeStringEi
T _ZNK6icu_4416SimpleDateFormat16formatGMTDefaultEPNS_12NumberFormatERNS_13UnicodeStringEi
T _ZNK6icu_4416SimpleDateFormat17getDynamicClassIDEv
T _ZNK6icu_4416SimpleDateFormat17zeroPaddingNumberEPNS_12NumberFormatERNS_13UnicodeStringEiii
T _ZNK6icu_4416SimpleDateFormat18compareSimpleAffixERKNS_13UnicodeStringES3_i
T _ZNK6icu_4416SimpleDateFormat18isDefaultGMTFormatEv
T _ZNK6icu_4416SimpleDateFormat18isFieldUnitIgnoredE19UCalendarDateFields
T _ZNK6icu_4416SimpleDateFormat18matchQuarterStringERKNS_13UnicodeStringEi19UCalendarDateFieldsPS2_iRNS_8CalendarE
T _ZNK6icu_4416SimpleDateFormat18skipRuleWhiteSpaceERKNS_13UnicodeStringEi
T _ZNK6icu_4416SimpleDateFormat18toLocalizedPatternERNS_13UnicodeStringER10UErrorCode
T _ZNK6icu_4416SimpleDateFormat20getDateFormatSymbolsEv
T _ZNK6icu_4416SimpleDateFormat5cloneEv
T _ZNK6icu_4416SimpleDateFormat5parseERKNS_13UnicodeStringER10UErrorCode
T _ZNK6icu_4416SimpleDateFormat5parseERKNS_13UnicodeStringERNS_13ParsePositionE
T _ZNK6icu_4416SimpleDateFormat5parseERKNS_13UnicodeStringERNS_8CalendarERNS_13ParsePositionE
W _ZNK6icu_4416SimpleDateFormat6formatERKNS_11FormattableERNS_13UnicodeStringEPNS_21FieldPositionIteratorER10UErrorCode
W _ZNK6icu_4416SimpleDateFormat6formatERKNS_11FormattableERNS_13UnicodeStringERNS_13FieldPositionER10UErrorCode
T _ZNK6icu_4416SimpleDateFormat6formatERNS_8CalendarERNS_13UnicodeStringEPNS_21FieldPositionIteratorER10UErrorCode
T _ZNK6icu_4416SimpleDateFormat6formatERNS_8CalendarERNS_13UnicodeStringERNS_13FieldPositionE
T _ZNK6icu_4416SimpleDateFormat7_formatERNS_8CalendarERNS_13UnicodeStringERNS_20FieldPositionHandlerER10UErrorCode
T _ZNK6icu_4416SimpleDateFormat8parseGMTERKNS_13UnicodeStringERNS_13ParsePositionE
T _ZNK6icu_4416SimpleDateFormat8parseIntERKNS_13UnicodeStringERNS_11FormattableERNS_13ParsePositionEaPNS_12NumberFormatE
T _ZNK6icu_4416SimpleDateFormat8parseIntERKNS_13UnicodeStringERNS_11FormattableEiRNS_13ParsePositionEaPNS_12NumberFormatE
T _ZNK6icu_4416SimpleDateFormat8subParseERKNS_13UnicodeStringERitiaaPaS4_RNS_8CalendarEi
T _ZNK6icu_4416SimpleDateFormat9appendGMTEPNS_12NumberFormatERNS_13UnicodeStringERNS_8CalendarER10UErrorCode
T _ZNK6icu_4416SimpleDateFormat9subFormatERNS_13UnicodeStringEtiRNS_20FieldPositionHandlerERNS_8CalendarER10UErrorCode
T _ZNK6icu_4416SimpleDateFormat9toPatternERNS_13UnicodeStringE
T _ZNK6icu_4416SimpleDateFormateqERKNS_6FormatE
T _ZNK6icu_4416ZoneStringFormat15findGenericLongERKNS_13UnicodeStringEiRiR10UErrorCode
T _ZNK6icu_4416ZoneStringFormat16findGenericShortERKNS_13UnicodeStringEiRiR10UErrorCode
T _ZNK6icu_4416ZoneStringFormat16findSpecificLongERKNS_13UnicodeStringEiRiR10UErrorCode
T _ZNK6icu_4416ZoneStringFormat16getGenericStringERKNS_8CalendarEaaRNS_13UnicodeStringER10UErrorCode
T _ZNK6icu_4416ZoneStringFormat17findSpecificShortERKNS_13UnicodeStringEiRiR10UErrorCode
T _ZNK6icu_4416ZoneStringFormat19findGenericLocationERKNS_13UnicodeStringEiRiR10UErrorCode
T _ZNK6icu_4416ZoneStringFormat20getGenericLongStringERKNS_8CalendarERNS_13UnicodeStringER10UErrorCode
T _ZNK6icu_4416ZoneStringFormat21getGenericShortStringERKNS_8CalendarEaRNS_13UnicodeStringER10UErrorCode
T _ZNK6icu_4416ZoneStringFormat21getSpecificLongStringERKNS_8CalendarERNS_13UnicodeStringER10UErrorCode
T _ZNK6icu_4416ZoneStringFormat22createZoneStringsArrayEdRiS1_R10UErrorCode
T _ZNK6icu_4416ZoneStringFormat22getSpecificShortStringERKNS_8CalendarEaRNS_13UnicodeStringER10UErrorCode
T _ZNK6icu_4416ZoneStringFormat24getGenericLocationStringERKNS_8CalendarERNS_13UnicodeStringER10UErrorCode
T _ZNK6icu_4416ZoneStringFormat31getGenericPartialLocationStringERKNS_13UnicodeStringEadaRS1_
T _ZNK6icu_4416ZoneStringFormat4findERKNS_13UnicodeStringEiiRiR10UErrorCode
T _ZNK6icu_4416ZoneStringFormat9getRegionERNS_13UnicodeStringE
T _ZNK6icu_4416ZoneStringFormat9getStringERKNS_13UnicodeStringENS_28TimeZoneTranslationTypeIndexEdaRS1_
T _ZNK6icu_4417BadCharacterTable10getMaxSkipEv
T _ZNK6icu_4417BadCharacterTableixEj
T _ZNK6icu_4417CharsetRecog_UTF87getNameEv
T _ZNK6icu_4417CharsetRecog_big511getLanguageEv
T _ZNK6icu_4417CharsetRecog_big57getNameEv
T _ZNK6icu_4417CharsetRecog_sjis11getLanguageEv
T _ZNK6icu_4417CharsetRecog_sjis7getNameEv
T _ZNK6icu_4417CharsetRecognizer11getLanguageEv
T _ZNK6icu_4417DateFormatSymbols11getEraNamesERi
T _ZNK6icu_4417DateFormatSymbols11getQuartersERiNS0_13DtContextTypeENS0_11DtWidthTypeE
T _ZNK6icu_4417DateFormatSymbols11getWeekdaysERi
T _ZNK6icu_4417DateFormatSymbols11getWeekdaysERiNS0_13DtContextTypeENS0_11DtWidthTypeE
T _ZNK6icu_4417DateFormatSymbols13getNarrowErasERi
T _ZNK6icu_4417DateFormatSymbols14getAmPmStringsERi
T _ZNK6icu_4417DateFormatSymbols14getShortMonthsERi
T _ZNK6icu_4417DateFormatSymbols14getZoneStringsERiS1_
T _ZNK6icu_4417DateFormatSymbols16getShortWeekdaysERi
T _ZNK6icu_4417DateFormatSymbols17getDynamicClassIDEv
T _ZNK6icu_4417DateFormatSymbols19getZoneStringFormatEv
T _ZNK6icu_4417DateFormatSymbols20getLocalPatternCharsERNS_13UnicodeStringE
T _ZNK6icu_4417DateFormatSymbols7getErasERi
T _ZNK6icu_4417DateFormatSymbols9getLocaleE18ULocDataLocaleTypeR10UErrorCode
T _ZNK6icu_4417DateFormatSymbols9getMonthsERi
T _ZNK6icu_4417DateFormatSymbols9getMonthsERiNS0_13DtContextTypeENS0_11DtWidthTypeE
T _ZNK6icu_4417DateFormatSymbolseqERKS0_
T _ZNK6icu_4417GregorianCalendar10isLeapYearEi
T _ZNK6icu_4417GregorianCalendar10yearLengthEi
T _ZNK6icu_4417GregorianCalendar10yearLengthEv
T _ZNK6icu_4417GregorianCalendar11boundsCheckEi19UCalendarDateFields
T _ZNK6icu_4417GregorianCalendar11monthLengthEi
T _ZNK6icu_4417GregorianCalendar11monthLengthEii
T _ZNK6icu_4417GregorianCalendar14handleGetLimitE19UCalendarDateFieldsNS_8Calendar10ELimitTypeE
T _ZNK6icu_4417GregorianCalendar14inDaylightTimeER10UErrorCode
T _ZNK6icu_4417GregorianCalendar14internalGetEraEv
T _ZNK6icu_4417GregorianCalendar14isEquivalentToERKNS_8CalendarE
T _ZNK6icu_4417GregorianCalendar14validateFieldsEv
T _ZNK6icu_4417GregorianCalendar16getActualMaximumE19UCalendarDateFieldsR10UErrorCode
T _ZNK6icu_4417GregorianCalendar16getActualMinimumE19UCalendarDateFieldsR10UErrorCode
T _ZNK6icu_4417GregorianCalendar16getActualMinimumENS_8Calendar11EDateFieldsE
T _ZNK6icu_4417GregorianCalendar16getActualMinimumENS_8Calendar11EDateFieldsER10UErrorCode
T _ZNK6icu_4417GregorianCalendar17getDynamicClassIDEv
T _ZNK6icu_4417GregorianCalendar18getGregorianChangeEv
T _ZNK6icu_4417GregorianCalendar18haveDefaultCenturyEv
T _ZNK6icu_4417GregorianCalendar19defaultCenturyStartEv
T _ZNK6icu_4417GregorianCalendar19handleGetYearLengthEi
T _ZNK6icu_4417GregorianCalendar20handleGetMonthLengthEii
T _ZNK6icu_4417GregorianCalendar23defaultCenturyStartYearEv
T _ZNK6icu_4417GregorianCalendar23handleComputeMonthStartEiia
T _ZNK6icu_4417GregorianCalendar30internalGetDefaultCenturyStartEv
T _ZNK6icu_4417GregorianCalendar34internalGetDefaultCenturyStartYearEv
T _ZNK6icu_4417GregorianCalendar5cloneEv
T _ZNK6icu_4417GregorianCalendar7getTypeEv
T _ZNK6icu_4417RuleBasedCollator10getSortKeyEPKtiPhi
T _ZNK6icu_4417RuleBasedCollator10getSortKeyERKNS_13UnicodeStringEPhi
T _ZNK6icu_4417RuleBasedCollator10getVersionEPh
T _ZNK6icu_4417RuleBasedCollator11getStrengthEv
T _ZNK6icu_4417RuleBasedCollator14getTailoredSetER10UErrorCode
T _ZNK6icu_4417RuleBasedCollator14getVariableTopER10UErrorCode
T _ZNK6icu_4417RuleBasedCollator15getCollationKeyEPKtiRNS_12CollationKeyER10UErrorCode
T _ZNK6icu_4417RuleBasedCollator15getCollationKeyERKNS_13UnicodeStringERNS_12CollationKeyER10UErrorCode
T _ZNK6icu_4417RuleBasedCollator15getMaxExpansionEi
T _ZNK6icu_4417RuleBasedCollator17getDynamicClassIDEv
T _ZNK6icu_4417RuleBasedCollator30createCollationElementIteratorERKNS_13UnicodeStringE
T _ZNK6icu_4417RuleBasedCollator30createCollationElementIteratorERKNS_17CharacterIteratorE
T _ZNK6icu_4417RuleBasedCollator5cloneEv
T _ZNK6icu_4417RuleBasedCollator7compareEPKtiS2_i
T _ZNK6icu_4417RuleBasedCollator7compareEPKtiS2_iR10UErrorCode
T _ZNK6icu_4417RuleBasedCollator7compareER13UCharIteratorS2_R10UErrorCode
T _ZNK6icu_4417RuleBasedCollator7compareERKNS_13UnicodeStringES3_
T _ZNK6icu_4417RuleBasedCollator7compareERKNS_13UnicodeStringES3_R10UErrorCode
T _ZNK6icu_4417RuleBasedCollator7compareERKNS_13UnicodeStringES3_i
T _ZNK6icu_4417RuleBasedCollator7compareERKNS_13UnicodeStringES3_iR10UErrorCode
T _ZNK6icu_4417RuleBasedCollator8getRulesEv
T _ZNK6icu_4417RuleBasedCollator8hashCodeEv
T _ZNK6icu_4417RuleBasedCollator9getLocaleE18ULocDataLocaleTypeR10UErrorCode
T _ZNK6icu_4417RuleBasedCollatoreqERKNS_8CollatorE
T _ZNK6icu_4417RuleBasedCollatorneERKNS_8CollatorE
T _ZNK6icu_4417RuleBasedTimeZone12getRawOffsetEv
T _ZNK6icu_4417RuleBasedTimeZone12hasSameRulesERKNS_8TimeZoneE
T _ZNK6icu_4417RuleBasedTimeZone13getLocalDeltaEiiiiii
T _ZNK6icu_4417RuleBasedTimeZone14inDaylightTimeEdR10UErrorCode
T _ZNK6icu_4417RuleBasedTimeZone15findRuleInFinalEdaii
T _ZNK6icu_4417RuleBasedTimeZone15useDaylightTimeEv
T _ZNK6icu_4417RuleBasedTimeZone17getDynamicClassIDEv
T _ZNK6icu_4417RuleBasedTimeZone17getOffsetInternalEdaiiRiS1_R10UErrorCode
T _ZNK6icu_4417RuleBasedTimeZone17getTransitionTimeEPNS_10TransitionEaii
T _ZNK6icu_4417RuleBasedTimeZone5cloneEv
T _ZNK6icu_4417RuleBasedTimeZone8findNextEdaRdRPNS_12TimeZoneRuleES4_
T _ZNK6icu_4417RuleBasedTimeZone8findPrevEdaRdRPNS_12TimeZoneRuleES4_
T _ZNK6icu_4417RuleBasedTimeZone9getOffsetEdaRiS1_R10UErrorCode
T _ZNK6icu_4417RuleBasedTimeZone9getOffsetEhiiihiR10UErrorCode
T _ZNK6icu_4417RuleBasedTimeZone9getOffsetEhiiihiiR10UErrorCode
T _ZNK6icu_4417RuleBasedTimeZoneeqERKNS_8TimeZoneE
T _ZNK6icu_4417RuleBasedTimeZoneneERKNS_8TimeZoneE
U _ZNK6icu_4417StringEnumeration5cloneEv
U _ZNK6icu_4417StringEnumerationeqERKS0_
U _ZNK6icu_4417StringEnumerationneERKS0_
T _ZNK6icu_4418AnnualTimeZoneRule10getEndYearEv
T _ZNK6icu_4418AnnualTimeZoneRule12getNextStartEdiiaRd
T _ZNK6icu_4418AnnualTimeZoneRule12getStartYearEv
T _ZNK6icu_4418AnnualTimeZoneRule13getFinalStartEiiRd
T _ZNK6icu_4418AnnualTimeZoneRule13getFirstStartEiiRd
T _ZNK6icu_4418AnnualTimeZoneRule14getStartInYearEiiiRd
T _ZNK6icu_4418AnnualTimeZoneRule14isEquivalentToERKNS_12TimeZoneRuleE
T _ZNK6icu_4418AnnualTimeZoneRule16getPreviousStartEdiiaRd
T _ZNK6icu_4418AnnualTimeZoneRule17getDynamicClassIDEv
T _ZNK6icu_4418AnnualTimeZoneRule5cloneEv
T _ZNK6icu_4418AnnualTimeZoneRule7getRuleEv
T _ZNK6icu_4418AnnualTimeZoneRuleeqERKNS_12TimeZoneRuleE
T _ZNK6icu_4418AnnualTimeZoneRuleneERKNS_12TimeZoneRuleE
T _ZNK6icu_4418CalendarAstronomer10Equatorial8toStringEv
T _ZNK6icu_4418CalendarAstronomer7Horizon8toStringEv
T _ZNK6icu_4418CalendarAstronomer8Ecliptic8toStringEv
T _ZNK6icu_4418CurrencyPluralInfo14getPluralRulesEv
T _ZNK6icu_4418CurrencyPluralInfo17getDynamicClassIDEv
T _ZNK6icu_4418CurrencyPluralInfo24getCurrencyPluralPatternERKNS_13UnicodeStringERS1_
T _ZNK6icu_4418CurrencyPluralInfo5cloneEv
T _ZNK6icu_4418CurrencyPluralInfo9getLocaleEv
T _ZNK6icu_4418CurrencyPluralInfoeqERKS0_
T _ZNK6icu_4418DateIntervalFormat11parseObjectERKNS_13UnicodeStringERNS_11FormattableERNS_13ParsePositionE
T _ZNK6icu_4418DateIntervalFormat13getDateFormatEv
T _ZNK6icu_4418DateIntervalFormat14fallbackFormatERNS_8CalendarES2_RNS_13UnicodeStringERNS_13FieldPositionER10UErrorCode
T _ZNK6icu_4418DateIntervalFormat17getDynamicClassIDEv
T _ZNK6icu_4418DateIntervalFormat19getDateIntervalInfoEv
T _ZNK6icu_4418DateIntervalFormat5cloneEv
T _ZNK6icu_4418DateIntervalFormat6formatEPKNS_12DateIntervalERNS_13UnicodeStringERNS_13FieldPositionER10UErrorCode
T _ZNK6icu_4418DateIntervalFormat6formatERKNS_11FormattableERNS_13UnicodeStringERNS_13FieldPositionER10UErrorCode
T _ZNK6icu_4418DateIntervalFormat6formatERNS_8CalendarES2_RNS_13UnicodeStringERNS_13FieldPositionER10UErrorCode
T _ZNK6icu_4418DateIntervalFormateqERKNS_6FormatE
T _ZNK6icu_4418RelativeDateFormat13toPatternDateERNS_13UnicodeStringER10UErrorCode
T _ZNK6icu_4418RelativeDateFormat13toPatternTimeERNS_13UnicodeStringER10UErrorCode
T _ZNK6icu_4418RelativeDateFormat15getStringForDayEiRiR10UErrorCode
T _ZNK6icu_4418RelativeDateFormat17getDynamicClassIDEv
T _ZNK6icu_4418RelativeDateFormat5cloneEv
T _ZNK6icu_4418RelativeDateFormat5parseERKNS_13UnicodeStringER10UErrorCode
T _ZNK6icu_4418RelativeDateFormat5parseERKNS_13UnicodeStringERNS_13ParsePositionE
T _ZNK6icu_4418RelativeDateFormat5parseERKNS_13UnicodeStringERNS_8CalendarERNS_13ParsePositionE
T _ZNK6icu_4418RelativeDateFormat6formatERKNS_11FormattableERNS_13UnicodeStringERNS_13FieldPositionER10UErrorCode
T _ZNK6icu_4418RelativeDateFormat6formatERNS_8CalendarERNS_13UnicodeStringERNS_13FieldPositionE
T _ZNK6icu_4418RelativeDateFormat9toPatternERNS_13UnicodeStringER10UErrorCode
T _ZNK6icu_4418RelativeDateFormateqERKNS_6FormatE
T _ZNK6icu_4418TimeZoneTransition17getDynamicClassIDEv
T _ZNK6icu_4418TimeZoneTransition5cloneEv
T _ZNK6icu_4418TimeZoneTransition5getToEv
T _ZNK6icu_4418TimeZoneTransition7getFromEv
T _ZNK6icu_4418TimeZoneTransition7getTimeEv
T _ZNK6icu_4418TimeZoneTransitioneqERKS0_
T _ZNK6icu_4418TimeZoneTransitionneERKS0_
T _ZNK6icu_4419CharsetRecog_2022CN7getNameEv
T _ZNK6icu_4419CharsetRecog_2022JP7getNameEv
T _ZNK6icu_4419CharsetRecog_2022KR7getNameEv
T _ZNK6icu_4419CharsetRecog_8859_17getNameEv
T _ZNK6icu_4419CharsetRecog_8859_27getNameEv
T _ZNK6icu_4419CharsetRecog_8859_57getNameEv
T _ZNK6icu_4419CharsetRecog_8859_67getNameEv
T _ZNK6icu_4419CharsetRecog_8859_77getNameEv
T _ZNK6icu_4419CharsetRecog_8859_87getNameEv
T _ZNK6icu_4419CharsetRecog_8859_97getNameEv
T _ZNK6icu_4419CharsetRecog_KOI8_R11getLanguageEv
T _ZNK6icu_4419CharsetRecog_KOI8_R7getNameEv
T _ZNK6icu_4419CharsetRecog_euc_jp11getLanguageEv
T _ZNK6icu_4419CharsetRecog_euc_jp7getNameEv
T _ZNK6icu_4419CharsetRecog_euc_kr11getLanguageEv
T _ZNK6icu_4419CharsetRecog_euc_kr7getNameEv
T _ZNK6icu_4419DecimalNumberString6lengthEv
T _ZNK6icu_4419DecimalNumberStringcvNS_11StringPieceEEv
T _ZNK6icu_4419DecimalNumberStringixEi
T _ZNK6icu_4419InitialTimeZoneRule12getNextStartEdiiaRd
T _ZNK6icu_4419InitialTimeZoneRule13getFinalStartEiiRd
T _ZNK6icu_4419InitialTimeZoneRule13getFirstStartEiiRd
T _ZNK6icu_4419InitialTimeZoneRule14isEquivalentToERKNS_12TimeZoneRuleE
T _ZNK6icu_4419InitialTimeZoneRule16getPreviousStartEdiiaRd
T _ZNK6icu_4419InitialTimeZoneRule17getDynamicClassIDEv
T _ZNK6icu_4419InitialTimeZoneRule5cloneEv
T _ZNK6icu_4419InitialTimeZoneRuleeqERKNS_12TimeZoneRuleE
T _ZNK6icu_4419InitialTimeZoneRuleneERKNS_12TimeZoneRuleE
T _ZNK6icu_4419ModulusSubstitution14doSubstitutionEdRNS_13UnicodeStringEi
T _ZNK6icu_4419ModulusSubstitution14doSubstitutionExRNS_13UnicodeStringEi
T _ZNK6icu_4419ModulusSubstitution17getDynamicClassIDEv
T _ZNK6icu_4419ModulusSubstitution7doParseERKNS_13UnicodeStringERNS_13ParsePositionEddaRNS_11FormattableE
T _ZNK6icu_4419ModulusSubstitutioneqERKNS_14NFSubstitutionE
T _ZNK6icu_4420DecimalFormatSymbols17getDynamicClassIDEv
T _ZNK6icu_4420DecimalFormatSymbols28getPatternForCurrencySpacingENS0_16ECurrencySpacingEaR10UErrorCode
T _ZNK6icu_4420DecimalFormatSymbols9getLocaleE18ULocDataLocaleTypeR10UErrorCode
T _ZNK6icu_4420DecimalFormatSymbolseqERKS0_
T _ZNK6icu_4421CharsetRecog_gb_1803011getLanguageEv
T _ZNK6icu_4421CharsetRecog_gb_180307getNameEv
T _ZNK6icu_4421DTSkeletonEnumeration17getDynamicClassIDEv
T _ZNK6icu_4421DTSkeletonEnumeration5countER10UErrorCode
T _ZNK6icu_4421FieldPositionIterator17getDynamicClassIDEv
T _ZNK6icu_4421FieldPositionIterator7getDataEPii
T _ZNK6icu_4421FieldPositionIteratoreqERKS0_
T _ZNK6icu_4421FormatNameEnumeration17getDynamicClassIDEv
T _ZNK6icu_4421FormatNameEnumeration5countER10UErrorCode
T _ZNK6icu_4421NumeratorSubstitution14doSubstitutionEdRNS_13UnicodeStringEi
T _ZNK6icu_4421NumeratorSubstitution17getDynamicClassIDEv
T _ZNK6icu_4421NumeratorSubstitution7doParseERKNS_13UnicodeStringERNS_13ParsePositionEddaRNS_11FormattableE
T _ZNK6icu_4421NumeratorSubstitutioneqERKNS_14NFSubstitutionE
T _ZNK6icu_4421RuleBasedNumberFormat11findRuleSetERKNS_13UnicodeStringER10UErrorCode
T _ZNK6icu_4421RuleBasedNumberFormat11getCollatorEv
T _ZNK6icu_4421RuleBasedNumberFormat14getRuleSetNameEi
T _ZNK6icu_4421RuleBasedNumberFormat17getDynamicClassIDEv
T _ZNK6icu_4421RuleBasedNumberFormat21getDefaultRuleSetNameEv
T _ZNK6icu_4421RuleBasedNumberFormat23getDecimalFormatSymbolsEv
T _ZNK6icu_4421RuleBasedNumberFormat23getNumberOfRuleSetNamesEv
T _ZNK6icu_4421RuleBasedNumberFormat27getRuleSetDisplayNameLocaleEiR10UErrorCode
T _ZNK6icu_4421RuleBasedNumberFormat36getNumberOfRuleSetDisplayNameLocalesEv
T _ZNK6icu_4421RuleBasedNumberFormat5cloneEv
T _ZNK6icu_4421RuleBasedNumberFormat5parseERKNS_13UnicodeStringERNS_11FormattableERNS_13ParsePositionE
T _ZNK6icu_4421RuleBasedNumberFormat6formatERKNS_11FormattableERNS_13UnicodeStringERNS_13FieldPositionER10UErrorCode
T _ZNK6icu_4421RuleBasedNumberFormat6formatEdRKNS_13UnicodeStringERS1_RNS_13FieldPositionER10UErrorCode
T _ZNK6icu_4421RuleBasedNumberFormat6formatEdRNS_13UnicodeStringERNS_13FieldPositionE
T _ZNK6icu_4421RuleBasedNumberFormat6formatEiRKNS_13UnicodeStringERS1_RNS_13FieldPositionER10UErrorCode
T _ZNK6icu_4421RuleBasedNumberFormat6formatEiRNS_13UnicodeStringERNS_13FieldPositionE
T _ZNK6icu_4421RuleBasedNumberFormat6formatExRKNS_13UnicodeStringERS1_RNS_13FieldPositionER10UErrorCode
T _ZNK6icu_4421RuleBasedNumberFormat6formatExRNS_13UnicodeStringERNS_13FieldPositionE
T _ZNK6icu_4421RuleBasedNumberFormat8getRulesEv
T _ZNK6icu_4421RuleBasedNumberFormateqERKNS_6FormatE
T _ZNK6icu_4421SameValueSubstitution17getDynamicClassIDEv
T _ZNK6icu_4421TimeArrayTimeZoneRule11getTimeTypeEv
T _ZNK6icu_4421TimeArrayTimeZoneRule12getNextStartEdiiaRd
T _ZNK6icu_4421TimeArrayTimeZoneRule13getFinalStartEiiRd
T _ZNK6icu_4421TimeArrayTimeZoneRule13getFirstStartEiiRd
T _ZNK6icu_4421TimeArrayTimeZoneRule14getStartTimeAtEiRd
T _ZNK6icu_4421TimeArrayTimeZoneRule14isEquivalentToERKNS_12TimeZoneRuleE
T _ZNK6icu_4421TimeArrayTimeZoneRule15countStartTimesEv
T _ZNK6icu_4421TimeArrayTimeZoneRule16getPreviousStartEdiiaRd
T _ZNK6icu_4421TimeArrayTimeZoneRule17getDynamicClassIDEv
T _ZNK6icu_4421TimeArrayTimeZoneRule5cloneEv
T _ZNK6icu_4421TimeArrayTimeZoneRule6getUTCEdii
T _ZNK6icu_4421TimeArrayTimeZoneRuleeqERKNS_12TimeZoneRuleE
T _ZNK6icu_4421TimeArrayTimeZoneRuleneERKNS_12TimeZoneRuleE
T _ZNK6icu_4422CharsetRecog_8859_1_da11getLanguageEv
T _ZNK6icu_4422CharsetRecog_8859_1_de11getLanguageEv
T _ZNK6icu_4422CharsetRecog_8859_1_en11getLanguageEv
T _ZNK6icu_4422CharsetRecog_8859_1_es11getLanguageEv
T _ZNK6icu_4422CharsetRecog_8859_1_fr11getLanguageEv
T _ZNK6icu_4422CharsetRecog_8859_1_it11getLanguageEv
T _ZNK6icu_4422CharsetRecog_8859_1_nl11getLanguageEv
T _ZNK6icu_4422CharsetRecog_8859_1_no11getLanguageEv
T _ZNK6icu_4422CharsetRecog_8859_1_pt11getLanguageEv
T _ZNK6icu_4422CharsetRecog_8859_1_sv11getLanguageEv
T _ZNK6icu_4422CharsetRecog_8859_2_cs11getLanguageEv
T _ZNK6icu_4422CharsetRecog_8859_2_hu11getLanguageEv
T _ZNK6icu_4422CharsetRecog_8859_2_pl11getLanguageEv
T _ZNK6icu_4422CharsetRecog_8859_2_ro11getLanguageEv
T _ZNK6icu_4422CharsetRecog_8859_5_ru11getLanguageEv
T _ZNK6icu_4422CharsetRecog_8859_6_ar11getLanguageEv
T _ZNK6icu_4422CharsetRecog_8859_7_el11getLanguageEv
T _ZNK6icu_4422CharsetRecog_8859_8_he11getLanguageEv
T _ZNK6icu_4422CharsetRecog_8859_9_tr11getLanguageEv
T _ZNK6icu_4422CharsetRecog_IBM420_ar11getLanguageEv
T _ZNK6icu_4422CharsetRecog_IBM424_he11getLanguageEv
T _ZNK6icu_4422CharsetRecog_UTF_16_BE7getNameEv
T _ZNK6icu_4422CharsetRecog_UTF_16_LE7getNameEv
T _ZNK6icu_4422CharsetRecog_UTF_32_BE7getCharEPKhi
T _ZNK6icu_4422CharsetRecog_UTF_32_BE7getNameEv
T _ZNK6icu_4422CharsetRecog_UTF_32_LE7getCharEPKhi
T _ZNK6icu_4422CharsetRecog_UTF_32_LE7getNameEv
T _ZNK6icu_4422DTRedundantEnumeration17getDynamicClassIDEv
T _ZNK6icu_4422DTRedundantEnumeration5countER10UErrorCode
T _ZNK6icu_4422LocaleDisplayNamesImpl12localeIdNameEPKcRNS_13UnicodeStringE
T _ZNK6icu_4422LocaleDisplayNamesImpl13appendWithSepERNS_13UnicodeStringERKS1_
T _ZNK6icu_4422LocaleDisplayNamesImpl14keyDisplayNameEPKcRNS_13UnicodeStringE
T _ZNK6icu_4422LocaleDisplayNamesImpl17getDynamicClassIDEv
T _ZNK6icu_4422LocaleDisplayNamesImpl17localeDisplayNameEPKcRNS_13UnicodeStringE
T _ZNK6icu_4422LocaleDisplayNamesImpl17localeDisplayNameERKNS_6LocaleERNS_13UnicodeStringE
T _ZNK6icu_4422LocaleDisplayNamesImpl17regionDisplayNameEPKcRNS_13UnicodeStringE
T _ZNK6icu_4422LocaleDisplayNamesImpl17scriptDisplayNameE11UScriptCodeRNS_13UnicodeStringE
T _ZNK6icu_4422LocaleDisplayNamesImpl17scriptDisplayNameEPKcRNS_13UnicodeStringE
T _ZNK6icu_4422LocaleDisplayNamesImpl18getDialectHandlingEv
T _ZNK6icu_4422LocaleDisplayNamesImpl18variantDisplayNameEPKcRNS_13UnicodeStringE
T _ZNK6icu_4422LocaleDisplayNamesImpl19keyValueDisplayNameEPKcS2_RNS_13UnicodeStringE
T _ZNK6icu_4422LocaleDisplayNamesImpl19languageDisplayNameEPKcRNS_13UnicodeStringE
T _ZNK6icu_4422LocaleDisplayNamesImpl9getLocaleEv
T _ZNK6icu_4422MultiplierSubstitution17getDynamicClassIDEv
T _ZNK6icu_4422MultiplierSubstitutioneqERKNS_14NFSubstitutionE
T _ZNK6icu_4422StringLocalizationInfo13getLocaleNameEi
T _ZNK6icu_4422StringLocalizationInfo14getDisplayNameEii
T _ZNK6icu_4422StringLocalizationInfo14getRuleSetNameEi
T _ZNK6icu_4423SafeZoneStringFormatPtr3getEv
T _ZNK6icu_4424CharsetRecog_8859_8_I_he11getLanguageEv
T _ZNK6icu_4424CharsetRecog_8859_8_I_he7getNameEv
T _ZNK6icu_4424CollationElementIterator13strengthOrderEi
T _ZNK6icu_4424CollationElementIterator17getDynamicClassIDEv
T _ZNK6icu_4424CollationElementIterator9getOffsetEv
T _ZNK6icu_4424CollationElementIteratoreqERKS0_
T _ZNK6icu_4424CollationElementIteratorneERKS0_
T _ZNK6icu_4424DateTimePatternGenerator10getDecimalEv
T _ZNK6icu_4424DateTimePatternGenerator12getSkeletonsER10UErrorCode
T _ZNK6icu_4424DateTimePatternGenerator15isCanonicalItemERKNS_13UnicodeStringE
T _ZNK6icu_4424DateTimePatternGenerator16getBaseSkeletonsER10UErrorCode
T _ZNK6icu_4424DateTimePatternGenerator17getAppendItemNameE21UDateTimePatternField
T _ZNK6icu_4424DateTimePatternGenerator17getDateTimeFormatEv
T _ZNK6icu_4424DateTimePatternGenerator17getDynamicClassIDEv
T _ZNK6icu_4424DateTimePatternGenerator19getAppendItemFormatE21UDateTimePatternField
T _ZNK6icu_4424DateTimePatternGenerator19getAppendNameNumberEPKc
T _ZNK6icu_4424DateTimePatternGenerator20isAvailableFormatSetERKNS_13UnicodeStringE
T _ZNK6icu_4424DateTimePatternGenerator21getAppendFormatNumberEPKc
T _ZNK6icu_4424DateTimePatternGenerator21getPatternForSkeletonERKNS_13UnicodeStringE
T _ZNK6icu_4424DateTimePatternGenerator5cloneEv
T _ZNK6icu_4424DateTimePatternGeneratoreqERKS0_
T _ZNK6icu_4424DateTimePatternGeneratorneERKS0_
T _ZNK6icu_4424IntegralPartSubstitution17getDynamicClassIDEv
T _ZNK6icu_4424PluralKeywordEnumeration17getDynamicClassIDEv
T _ZNK6icu_4424PluralKeywordEnumeration5countER10UErrorCode
T _ZNK6icu_4425AbsoluteValueSubstitution17getDynamicClassIDEv
T _ZNK6icu_4425CharsetRecog_windows_125111getLanguageEv
T _ZNK6icu_4425CharsetRecog_windows_12517getNameEv
T _ZNK6icu_4425CharsetRecog_windows_125611getLanguageEv
T _ZNK6icu_4425CharsetRecog_windows_12567getNameEv
T _ZNK6icu_4426CharsetRecog_IBM420_ar_ltr7getNameEv
T _ZNK6icu_4426CharsetRecog_IBM420_ar_rtl7getNameEv
T _ZNK6icu_4426CharsetRecog_IBM424_he_ltr7getNameEv
T _ZNK6icu_4426CharsetRecog_IBM424_he_rtl7getNameEv
T _ZNK6icu_4426FractionalPartSubstitution14doSubstitutionEdRNS_13UnicodeStringEi
T _ZNK6icu_4426FractionalPartSubstitution17getDynamicClassIDEv
T _ZNK6icu_4426FractionalPartSubstitution7doParseERKNS_13UnicodeStringERNS_13ParsePositionEddaRNS_11FormattableE
T _ZNK6icu_4426FractionalPartSubstitutioneqERKNS_14NFSubstitutionE
T _ZNK6icu_4430CollationLocaleListEnumeration17getDynamicClassIDEv
T _ZNK6icu_446CEList17getDynamicClassIDEv
T _ZNK6icu_446CEList3getEi
T _ZNK6icu_446CEList4sizeEv
T _ZNK6icu_446CEList9matchesAtEiPKS0_
T _ZNK6icu_446CEListixEi
T _ZNK6icu_446Format11getLocaleIDE18ULocDataLocaleTypeR10UErrorCode
T _ZNK6icu_446Format11parseObjectERKNS_13UnicodeStringERNS_11FormattableER10UErrorCode
T _ZNK6icu_446Format6formatERKNS_11FormattableERNS_13UnicodeStringEPNS_21FieldPositionIteratorER10UErrorCode
T _ZNK6icu_446Format6formatERKNS_11FormattableERNS_13UnicodeStringER10UErrorCode
T _ZNK6icu_446Format9getLocaleE18ULocDataLocaleTypeR10UErrorCode
T _ZNK6icu_446FormateqERKS0_
U _ZNK6icu_446Locale11getBaseNameEv
U _ZNK6icu_446Locale14createKeywordsER10UErrorCode
U _ZNK6icu_446Locale14getDisplayNameERKS0_RNS_13UnicodeStringE
U _ZNK6icu_446Locale15getKeywordValueEPKcPciR10UErrorCode
U _ZNK6icu_446Locale17getDisplayCountryERKS0_RNS_13UnicodeStringE
U _ZNK6icu_446Locale5cloneEv
U _ZNK6icu_446Locale8hashCodeEv
U _ZNK6icu_446LocaleeqERKS0_
T _ZNK6icu_446NFRule10indexOfAnyEPKPKt
T _ZNK6icu_446NFRule11stripPrefixERNS_13UnicodeStringERKS1_RNS_13ParsePositionE
T _ZNK6icu_446NFRule12allIgnorableERKNS_13UnicodeStringER10UErrorCode
T _ZNK6icu_446NFRule12prefixLengthERKNS_13UnicodeStringES3_R10UErrorCode
T _ZNK6icu_446NFRule14shouldRollBackEd
T _ZNK6icu_446NFRule15_appendRuleTextERNS_13UnicodeStringE
T _ZNK6icu_446NFRule16expectedExponentEv
T _ZNK6icu_446NFRule16matchToDelimiterERKNS_13UnicodeStringEidS3_RNS_13ParsePositionEPKNS_14NFSubstitutionEd
T _ZNK6icu_446NFRule7doParseERKNS_13UnicodeStringERNS_13ParsePositionEadRNS_11FormattableE
T _ZNK6icu_446NFRule8doFormatEdRNS_13UnicodeStringEi
T _ZNK6icu_446NFRule8doFormatExRNS_13UnicodeStringEi
T _ZNK6icu_446NFRule8findTextERKNS_13UnicodeStringES3_iPi
T _ZNK6icu_446NFRuleeqERKS0_
T _ZNK6icu_447MeasureeqERKNS_7UObjectE
U _ZNK6icu_447UVector10elementAtiEi
U _ZNK6icu_447UVector7indexOfEPvi
U _ZNK6icu_447UVector9elementAtEi
T _ZNK6icu_448Calendar10getMaximumE19UCalendarDateFields
T _ZNK6icu_448Calendar10getMaximumENS0_11EDateFieldsE
T _ZNK6icu_448Calendar10getMinimumE19UCalendarDateFields
T _ZNK6icu_448Calendar10getMinimumENS0_11EDateFieldsE
T _ZNK6icu_448Calendar10newerFieldE19UCalendarDateFieldsS1_
T _ZNK6icu_448Calendar11getLocaleIDE18ULocDataLocaleTypeR10UErrorCode
T _ZNK6icu_448Calendar11getTimeZoneEv
T _ZNK6icu_448Calendar11newestStampE19UCalendarDateFieldsS1_i
T _ZNK6icu_448Calendar14isEquivalentToERKS0_
T _ZNK6icu_448Calendar15getActualHelperE19UCalendarDateFieldsiiR10UErrorCode
T _ZNK6icu_448Calendar15getLeastMaximumE19UCalendarDateFields
T _ZNK6icu_448Calendar15getLeastMaximumENS0_11EDateFieldsE
T _ZNK6icu_448Calendar15getTimeInMillisER10UErrorCode
T _ZNK6icu_448Calendar16getActualMaximumE19UCalendarDateFieldsR10UErrorCode
T _ZNK6icu_448Calendar16getActualMinimumE19UCalendarDateFieldsR10UErrorCode
T _ZNK6icu_448Calendar16getActualMinimumENS0_11EDateFieldsER10UErrorCode
T _ZNK6icu_448Calendar16getDayOfWeekTypeE19UCalendarDaysOfWeekR10UErrorCode
T _ZNK6icu_448Calendar17getFirstDayOfWeekER10UErrorCode
T _ZNK6icu_448Calendar17getFirstDayOfWeekEv
T _ZNK6icu_448Calendar18getGreatestMinimumE19UCalendarDateFields
T _ZNK6icu_448Calendar18getGreatestMinimumENS0_11EDateFieldsE
T _ZNK6icu_448Calendar19handleGetYearLengthEi
T _ZNK6icu_448Calendar20getWeekendTransitionE19UCalendarDaysOfWeekR10UErrorCode
T _ZNK6icu_448Calendar20handleGetMonthLengthEii
T _ZNK6icu_448Calendar23getFieldResolutionTableEv
T _ZNK6icu_448Calendar25getMinimalDaysInFirstWeekEv
T _ZNK6icu_448Calendar3getE19UCalendarDateFieldsR10UErrorCode
T _ZNK6icu_448Calendar5afterERKS0_R10UErrorCode
T _ZNK6icu_448Calendar5isSetE19UCalendarDateFields
T _ZNK6icu_448Calendar6beforeERKS0_R10UErrorCode
T _ZNK6icu_448Calendar6equalsERKS0_R10UErrorCode
T _ZNK6icu_448Calendar8getLimitE19UCalendarDateFieldsNS0_10ELimitTypeE
T _ZNK6icu_448Calendar9getLocaleE18ULocDataLocaleTypeR10UErrorCode
T _ZNK6icu_448Calendar9isLenientEv
T _ZNK6icu_448Calendar9isWeekendEdR10UErrorCode
T _ZNK6icu_448Calendar9isWeekendEv
T _ZNK6icu_448CalendareqERKS0_
T _ZNK6icu_448CollData11getCollatorEv
T _ZNK6icu_448CollData13getStringListEi
T _ZNK6icu_448CollData16minLengthInCharsEPKNS_6CEListEi
T _ZNK6icu_448CollData16minLengthInCharsEPKNS_6CEListEiPi
T _ZNK6icu_448CollData17getDynamicClassIDEv
T _ZNK6icu_448CollData9getCEListEPKNS_13UnicodeStringE
T _ZNK6icu_448Collator11compareUTF8ERKNS_11StringPieceES3_R10UErrorCode
T _ZNK6icu_448Collator14getTailoredSetER10UErrorCode
T _ZNK6icu_448Collator14greaterOrEqualERKNS_13UnicodeStringES3_
T _ZNK6icu_448Collator6equalsERKNS_13UnicodeStringES3_
T _ZNK6icu_448Collator7compareEPKtiS2_i
T _ZNK6icu_448Collator7compareER13UCharIteratorS2_R10UErrorCode
T _ZNK6icu_448Collator7compareERKNS_13UnicodeStringES3_
T _ZNK6icu_448Collator7compareERKNS_13UnicodeStringES3_i
T _ZNK6icu_448Collator7greaterERKNS_13UnicodeStringES3_
T _ZNK6icu_448CollatoreqERKS0_
T _ZNK6icu_448CollatorneERKS0_
T _ZNK6icu_448TimeUnit16getTimeUnitFieldEv
T _ZNK6icu_448TimeUnit17getDynamicClassIDEv
T _ZNK6icu_448TimeUnit5cloneEv
T _ZNK6icu_448TimeUniteqERKNS_7UObjectE
T _ZNK6icu_448TimeZone12hasSameRulesERKS0_
T _ZNK6icu_448TimeZone13getDSTSavingsEv
T _ZNK6icu_448TimeZone14getDisplayNameERKNS_6LocaleERNS_13UnicodeStringE
T _ZNK6icu_448TimeZone14getDisplayNameERNS_13UnicodeStringE
T _ZNK6icu_448TimeZone14getDisplayNameEaNS0_12EDisplayTypeERKNS_6LocaleERNS_13UnicodeStringE
T _ZNK6icu_448TimeZone14getDisplayNameEaNS0_12EDisplayTypeERNS_13UnicodeStringE
T _ZNK6icu_448TimeZone9getOffsetEdaRiS1_R10UErrorCode
T _ZNK6icu_448TimeZoneeqERKS0_
T _ZNK6icu_449DigitList6isZeroEv
T _ZNK6icu_449DigitList8getCountEv
T _ZNK6icu_449DigitList9getDoubleEv
T _ZNK6icu_449DigitListeqERKS0_
T _ZNK6icu_449InputText5isSetEv
T _ZNK6icu_449NFRuleSet11appendRulesERNS_13UnicodeStringE
T _ZNK6icu_449NFRuleSet14findDoubleRuleEd
T _ZNK6icu_449NFRuleSet14findNormalRuleEx
T _ZNK6icu_449NFRuleSet23findFractionRuleSetRuleEd
T _ZNK6icu_449NFRuleSet5parseERKNS_13UnicodeStringERNS_13ParsePositionEdRNS_11FormattableE
T _ZNK6icu_449NFRuleSet6formatEdRNS_13UnicodeStringEi
T _ZNK6icu_449NFRuleSet6formatExRNS_13UnicodeStringEi
T _ZNK6icu_449NFRuleSeteqERKS0_
T _ZNK6icu_449PCEBuffer5emptyEv
T _ZNK6icu_449RCEBuffer5emptyEv
T _ZNK6icu_449RuleChain11getKeywordsEiPNS_13UnicodeStringERi
T _ZNK6icu_449RuleChain6selectEd
T _ZNK6icu_449RuleChain9isKeywordERKNS_13UnicodeStringE
T _ZNK6icu_449SpoofImpl10scriptScanEPKtiRiR10UErrorCode
T _ZNK6icu_449SpoofImpl16confusableLookupEiiPt
T _ZNK6icu_449SpoofImpl16wholeScriptCheckEPKtiPNS_9ScriptSetER10UErrorCode
T _ZNK6icu_449SpoofImpl17getDynamicClassIDEv
T _ZNK6icu_449VTimeZone10beginRRULEERNS_9VTZWriterEiR10UErrorCode
T _ZNK6icu_449VTimeZone11appendUNTILERNS_9VTZWriterERKNS_13UnicodeStringER10UErrorCode
T _ZNK6icu_449VTimeZone11writeFooterERNS_9VTZWriterER10UErrorCode
T _ZNK6icu_449VTimeZone12endZonePropsERNS_9VTZWriterEaR10UErrorCode
T _ZNK6icu_449VTimeZone12getRawOffsetEv
T _ZNK6icu_449VTimeZone12hasSameRulesERKNS_8TimeZoneE
T _ZNK6icu_449VTimeZone12writeHeadersERNS_9VTZWriterER10UErrorCode
T _ZNK6icu_449VTimeZone14beginZonePropsERNS_9VTZWriterEaRKNS_13UnicodeStringEiidR10UErrorCode
T _ZNK6icu_449VTimeZone14inDaylightTimeEdR10UErrorCode
T _ZNK6icu_449VTimeZone14writeFinalRuleERNS_9VTZWriterEaPKNS_18AnnualTimeZoneRuleEiidR10UErrorCode
T _ZNK6icu_449VTimeZone15getLastModifiedERd
T _ZNK6icu_449VTimeZone15useDaylightTimeEv
T _ZNK6icu_449VTimeZone17getDynamicClassIDEv
T _ZNK6icu_449VTimeZone19writeZonePropsByDOMERNS_9VTZWriterEaRKNS_13UnicodeStringEiiiiddR10UErrorCode
T _ZNK6icu_449VTimeZone19writeZonePropsByDOWERNS_9VTZWriterEaRKNS_13UnicodeStringEiiiiiddR10UErrorCode
T _ZNK6icu_449VTimeZone20writeZonePropsByTimeERNS_9VTZWriterEaRKNS_13UnicodeStringEiidaR10UErrorCode
T _ZNK6icu_449VTimeZone27writeZonePropsByDOW_GEQ_DOMERNS_9VTZWriterEaRKNS_13UnicodeStringEiiiiiddR10UErrorCode
T _ZNK6icu_449VTimeZone27writeZonePropsByDOW_LEQ_DOMERNS_9VTZWriterEaRKNS_13UnicodeStringEiiiiiddR10UErrorCode
T _ZNK6icu_449VTimeZone31writeZonePropsByDOW_GEQ_DOM_subERNS_9VTZWriterEiiiidiR10UErrorCode
T _ZNK6icu_449VTimeZone5cloneEv
T _ZNK6icu_449VTimeZone5writeERNS_13UnicodeStringER10UErrorCode
T _ZNK6icu_449VTimeZone5writeERNS_9VTZWriterER10UErrorCode
T _ZNK6icu_449VTimeZone8getTZURLERNS_13UnicodeStringE
T _ZNK6icu_449VTimeZone9getOffsetEdaRiS1_R10UErrorCode
T _ZNK6icu_449VTimeZone9getOffsetEhiiihiR10UErrorCode
T _ZNK6icu_449VTimeZone9getOffsetEhiiihiiR10UErrorCode
T _ZNK6icu_449VTimeZone9writeZoneERNS_9VTZWriterERNS_13BasicTimeZoneEPNS_7UVectorER10UErrorCode
T _ZNK6icu_449VTimeZoneeqERKNS_8TimeZoneE
T _ZNK6icu_449VTimeZoneneERKNS_8TimeZoneE
D _ZTVN6icu_4410CECalendarE
D _ZTVN6icu_4410DateFormatE
D _ZTVN6icu_4410PatternMapE
D _ZTVN6icu_4410RuleParserE
D _ZTVN6icu_4410StringListE
D _ZTVN6icu_4411FormattableE
D _ZTVN6icu_4411MeasureUnitE
D _ZTVN6icu_4411PluralRulesE
D _ZTVN6icu_4411PtnSkeletonE
D _ZTVN6icu_4411TextTrieMapE
D _ZTVN6icu_4411ZoneStringsE
D _ZTVN6icu_4412ChoiceFormatE
D _ZTVN6icu_4412CollationKeyE
D _ZTVN6icu_4412CurrencyUnitE
D _ZTVN6icu_4412DateTimeRuleE
V _ZTVN6icu_4412DistanceInfoE
D _ZTVN6icu_4412FormatParserE
D _ZTVN6icu_4412NumberFormatE
D _ZTVN6icu_4412OrConstraintE
D _ZTVN6icu_4412PluralFormatE
D _ZTVN6icu_4412RegexCompileE
D _ZTVN6icu_4412RegexMatcherE
D _ZTVN6icu_4412RegexPatternE
D _ZTVN6icu_4412SelectFormatE
D _ZTVN6icu_4412StringSearchE
D _ZTVN6icu_4412TimeZoneRuleE
D _ZTVN6icu_4413AndConstraintE
D _ZTVN6icu_4413BasicTimeZoneE
D _ZTVN6icu_4413CalendarCacheE
D _ZTVN6icu_4413DecimalFormatE
D _ZTVN6icu_4413FieldPositionE
V _ZTVN6icu_4413MeasureFormatE
D _ZTVN6icu_4413MessageFormatE
D _ZTVN6icu_4413OlsonTimeZoneE
U _ZTVN6icu_4413ParsePositionE
D _ZTVN6icu_4413TZEnumerationE
D _ZTVN6icu_4413UCollationPCEE
D _ZTVN6icu_4414CopticCalendarE
D _ZTVN6icu_4414CurrencyAmountE
D _ZTVN6icu_4414CurrencyFormatE
D _ZTVN6icu_4414HebrewCalendarE
D _ZTVN6icu_4414IndianCalendarE
D _ZTVN6icu_4414NFSubstitutionE
D _ZTVN6icu_4414SearchIteratorE
D _ZTVN6icu_4414SimpleTimeZoneE
D _ZTVN6icu_4414TaiwanCalendarE
D _ZTVN6icu_4414TimeUnitAmountE
D _ZTVN6icu_4414TimeUnitFormatE
D _ZTVN6icu_4414ZoneStringInfoE
D _ZTVN6icu_4415ChineseCalendarE
V _ZTVN6icu_4415DateTimeMatcherE
D _ZTVN6icu_4415IslamicCalendarE
D _ZTVN6icu_4415NumberingSystemE
D _ZTVN6icu_4415PersianCalendarE
D _ZTVN6icu_4416BoyerMooreSearchE
D _ZTVN6icu_4416BuddhistCalendarE
D _ZTVN6icu_4416CharsetRecog_eucE
D _ZTVN6icu_4416DateIntervalInfoE
D _ZTVN6icu_4416EthiopicCalendarE
D _ZTVN6icu_4416JapaneseCalendarE
D _ZTVN6icu_4416LocalizationInfoE
D _ZTVN6icu_4416NullSubstitutionE
V _ZTVN6icu_4416RiseSetCoordFuncE
D _ZTVN6icu_4416SimpleDateFormatE
V _ZTVN6icu_4416SunTimeAngleFuncE
D _ZTVN6icu_4416ZoneStringFormatE
V _ZTVN6icu_4417CharsetRecog_2022E
D _ZTVN6icu_4417CharsetRecog_UTF8E
D _ZTVN6icu_4417CharsetRecog_big5E
D _ZTVN6icu_4417CharsetRecog_mbcsE
D _ZTVN6icu_4417CharsetRecog_sbcsE
D _ZTVN6icu_4417CharsetRecog_sjisE
D _ZTVN6icu_4417CharsetRecognizerE
D _ZTVN6icu_4417DateFormatSymbolsE
D _ZTVN6icu_4417GregorianCalendarE
V _ZTVN6icu_4417MoonTimeAngleFuncE
D _ZTVN6icu_4417RuleBasedCollatorE
D _ZTVN6icu_4417RuleBasedTimeZoneE
D _ZTVN6icu_4418AnnualTimeZoneRuleE
D _ZTVN6icu_4418CalendarAstronomer9AngleFuncE
D _ZTVN6icu_4418CalendarAstronomer9CoordFuncE
D _ZTVN6icu_4418CurrencyPluralInfoE
D _ZTVN6icu_4418DateIntervalFormatE
V _ZTVN6icu_4418LocaleDisplayNamesE
D _ZTVN6icu_4418PatternMapIteratorE
D _ZTVN6icu_4418RelativeDateFormatE
D _ZTVN6icu_4418TimeZoneTransitionE
D _ZTVN6icu_4419CharsetRecog_2022CNE
D _ZTVN6icu_4419CharsetRecog_2022JPE
D _ZTVN6icu_4419CharsetRecog_2022KRE
D _ZTVN6icu_4419CharsetRecog_8859_1E
D _ZTVN6icu_4419CharsetRecog_8859_2E
D _ZTVN6icu_4419CharsetRecog_8859_5E
D _ZTVN6icu_4419CharsetRecog_8859_6E
D _ZTVN6icu_4419CharsetRecog_8859_7E
D _ZTVN6icu_4419CharsetRecog_8859_8E
D _ZTVN6icu_4419CharsetRecog_8859_9E
D _ZTVN6icu_4419CharsetRecog_KOI8_RE
D _ZTVN6icu_4419CharsetRecog_UTF_32E
D _ZTVN6icu_4419CharsetRecog_euc_jpE
D _ZTVN6icu_4419CharsetRecog_euc_krE
D _ZTVN6icu_4419InitialTimeZoneRuleE
D _ZTVN6icu_4419ModulusSubstitutionE
D _ZTVN6icu_4420CharsetRecog_UnicodeE
D _ZTVN6icu_4420DecimalFormatSymbolsE
D _ZTVN6icu_4420FieldPositionHandlerE
V _ZTVN6icu_4420MoonRiseSetCoordFuncE
D _ZTVN6icu_4421CharsetRecog_gb_18030E
D _ZTVN6icu_4421DTSkeletonEnumerationE
D _ZTVN6icu_4421FieldPositionIteratorE
D _ZTVN6icu_4421FormatNameEnumerationE
D _ZTVN6icu_4421NumeratorSubstitutionE
D _ZTVN6icu_4421RuleBasedNumberFormatE
D _ZTVN6icu_4421SameValueSubstitutionE
D _ZTVN6icu_4421TimeArrayTimeZoneRuleE
D _ZTVN6icu_4422CharsetRecog_8859_1_daE
D _ZTVN6icu_4422CharsetRecog_8859_1_deE
D _ZTVN6icu_4422CharsetRecog_8859_1_enE
D _ZTVN6icu_4422CharsetRecog_8859_1_esE
D _ZTVN6icu_4422CharsetRecog_8859_1_frE
D _ZTVN6icu_4422CharsetRecog_8859_1_itE
D _ZTVN6icu_4422CharsetRecog_8859_1_nlE
D _ZTVN6icu_4422CharsetRecog_8859_1_noE
D _ZTVN6icu_4422CharsetRecog_8859_1_ptE
D _ZTVN6icu_4422CharsetRecog_8859_1_svE
D _ZTVN6icu_4422CharsetRecog_8859_2_csE
D _ZTVN6icu_4422CharsetRecog_8859_2_huE
D _ZTVN6icu_4422CharsetRecog_8859_2_plE
D _ZTVN6icu_4422CharsetRecog_8859_2_roE
D _ZTVN6icu_4422CharsetRecog_8859_5_ruE
D _ZTVN6icu_4422CharsetRecog_8859_6_arE
D _ZTVN6icu_4422CharsetRecog_8859_7_elE
D _ZTVN6icu_4422CharsetRecog_8859_8_heE
D _ZTVN6icu_4422CharsetRecog_8859_9_trE
D _ZTVN6icu_4422CharsetRecog_IBM420_arE
D _ZTVN6icu_4422CharsetRecog_IBM424_heE
D _ZTVN6icu_4422CharsetRecog_UTF_16_BEE
D _ZTVN6icu_4422CharsetRecog_UTF_16_LEE
D _ZTVN6icu_4422CharsetRecog_UTF_32_BEE
D _ZTVN6icu_4422CharsetRecog_UTF_32_LEE
D _ZTVN6icu_4422DTRedundantEnumerationE
D _ZTVN6icu_4422LocaleDisplayNamesImplE
D _ZTVN6icu_4422MultiplierSubstitutionE
D _ZTVN6icu_4422StringLocalizationInfoE
D _ZTVN6icu_4424CharsetRecog_8859_8_I_heE
D _ZTVN6icu_4424CollationElementIteratorE
D _ZTVN6icu_4424DateTimePatternGeneratorE
D _ZTVN6icu_4424FieldPositionOnlyHandlerE
D _ZTVN6icu_4424IntegralPartSubstitutionE
D _ZTVN6icu_4424PluralKeywordEnumerationE
D _ZTVN6icu_4425AbsoluteValueSubstitutionE
D _ZTVN6icu_4425CharsetRecog_windows_1251E
D _ZTVN6icu_4425CharsetRecog_windows_1256E
D _ZTVN6icu_4426CharsetRecog_IBM420_ar_ltrE
D _ZTVN6icu_4426CharsetRecog_IBM420_ar_rtlE
D _ZTVN6icu_4426CharsetRecog_IBM424_he_ltrE
D _ZTVN6icu_4426CharsetRecog_IBM424_he_rtlE
D _ZTVN6icu_4426FractionalPartSubstitutionE
D _ZTVN6icu_4428FieldPositionIteratorHandlerE
D _ZTVN6icu_4429ZoneStringSearchResultHandlerE
D _ZTVN6icu_4430CollationLocaleListEnumerationE
D _ZTVN6icu_4430TextTrieMapSearchResultHandlerE
D _ZTVN6icu_446CEListE
D _ZTVN6icu_446FormatE
D _ZTVN6icu_447MeasureE
D _ZTVN6icu_447PtnElemE
D _ZTVN6icu_448CalendarE
D _ZTVN6icu_448CollDataE
D _ZTVN6icu_448CollatorE
D _ZTVN6icu_448TimeUnitE
D _ZTVN6icu_448TimeZoneE
D _ZTVN6icu_449RuleChainE
D _ZTVN6icu_449SpoofImplE
D _ZTVN6icu_449VTimeZoneE
U _ZdaPv
U _ZdlPv
U _Znaj
T __FINI_ARRAY__
T __INIT_ARRAY__
U __aeabi_d2iz
U __aeabi_d2lz
U __aeabi_dadd
U __aeabi_dcmpeq
U __aeabi_dcmpge
U __aeabi_dcmpgt
U __aeabi_dcmple
U __aeabi_dcmplt
U __aeabi_ddiv
U __aeabi_dmul
U __aeabi_dsub
U __aeabi_i2d
U __aeabi_idiv
U __aeabi_idivmod
U __aeabi_l2d
U __aeabi_ldivmod
U __aeabi_lmul
U __aeabi_ui2d
U __aeabi_uidiv
U __aeabi_uidivmod
U __aeabi_uldivmod
U __aeabi_unwind_cpp_pr0
U __aeabi_unwind_cpp_pr1
A __bss_end__
A __bss_start
A __bss_start__
U __cxa_finalize
U __cxa_pure_virtual
D __data_start
B __dso_handle
A __end__
A __exidx_end
A __exidx_start
U __stack_chk_fail
U __stack_chk_guard
A _bss_end__
U _ctype_
A _edata
A _end
A _stack
U acos
U asin
U atan
U atan2
U atoi
T bms_close_44
T bms_empty_44
T bms_getData_44
T bms_open_44
T bms_search_44
T bms_setTargetString_44
U cos
R d2utable_44
T deleteCEList_44
T deleteChars_44
T deleteCollDataCacheEntry_44
T deleteStringList_44
T deleteUnicodeStringKey_44
T izrule_clone_44
T izrule_close_44
T izrule_equals_44
T izrule_getDSTSavings_44
T izrule_getDynamicClassID_44
T izrule_getFinalStart_44
T izrule_getFirstStart_44
T izrule_getName_44
T izrule_getNextStart_44
T izrule_getPreviousStart_44
T izrule_getRawOffset_44
T izrule_getStaticClassID_44
T izrule_isEquivalentTo_44
T izrule_open_44
U log10
U memcmp
U memcpy
U memmove
U memset
U printf
U qsort
U raise
U sin
U sprintf
U strcat
U strchr
U strcmp
U strcpy
U strlen
U strncat
U strncmp
U strncpy
U strtod
U tan
U u_UCharsToChars_44
U u_charDigitValue_44
U u_charFromName_44
U u_charType_44
U u_charsToUChars_44
U u_digit_44
U u_enumCharTypes_44
U u_foldCase_44
T u_formatMessageWithError_44
T u_formatMessage_44
U u_getCombiningClass_44
U u_getPropertyValueEnum_44
U u_getUnicodeVersion_44
U u_hasBinaryProperty_44
U u_init_44
U u_isUWhiteSpace_44
U u_isWhitespace_44
U u_isdigit_44
U u_islower_44
T u_lengthOfIdenticalLevelRun_44
U u_memchr_44
U u_memcpy_44
T u_parseMessageWithError_44
T u_parseMessage_44
U u_strCompareIter_44
U u_strFromUTF8_44
U u_strToUTF8_44
U u_strToUpper_44
U u_strchr_44
U u_strcmp_44
U u_strcpy_44
U u_strlen_44
U u_strncasecmp_44
U u_strncmp_44
U u_strncpy_44
U u_terminateUChars_44
U u_tolower_44
U u_unescapeAt_44
T u_vformatMessageWithError_44
T u_vformatMessage_44
T u_vparseMessageWithError_44
T u_vparseMessage_44
T u_writeDiff_44
T u_writeIdenticalLevelRunTwoChars_44
T u_writeIdenticalLevelRun_44
U ubrk_close_44
U ubrk_following_44
U ubrk_isBoundary_44
U ubrk_open_44
U ubrk_setText_44
T ucal_add_44
T ucal_clearField_44
T ucal_clear_44
T ucal_clone_44
T ucal_close_44
T ucal_countAvailable_44
T ucal_equivalentTo_44
T ucal_getAttribute_44
T ucal_getAvailable_44
T ucal_getCanonicalTimeZoneID_44
T ucal_getDSTSavings_44
T ucal_getDayOfWeekType_44
T ucal_getDefaultTimeZone_44
T ucal_getGregorianChange_44
T ucal_getKeywordValuesForLocale_44
T ucal_getLimit_44
T ucal_getLocaleByType_44
T ucal_getMillis_44
T ucal_getNow_44
T ucal_getTZDataVersion_44
T ucal_getTimeZoneDisplayName_44
T ucal_getType_44
T ucal_getWeekendTransition_44
T ucal_get_44
T ucal_inDaylightTime_44
T ucal_isSet_44
T ucal_isWeekend_44
T ucal_openCountryTimeZones_44
T ucal_openTimeZones_44
T ucal_open_44
T ucal_roll_44
T ucal_setAttribute_44
T ucal_setDateTime_44
T ucal_setDate_44
T ucal_setDefaultTimeZone_44
T ucal_setGregorianChange_44
T ucal_setMillis_44
T ucal_setTimeZone_44
T ucal_set_44
U ucase_getSingleton_44
U ucase_toFullFolding_44
T ucd_close_44
T ucd_flushCache_44
T ucd_freeCache_44
T ucd_getCollator_44
T ucd_open_44
U ucln_cleanupOne_44
T ucln_i18n_registerCleanup_44
U ucln_registerCleanup_44
U ucnv_close_44
U ucnv_open_44
U ucnv_toUChars_44
T ucol_allocWeights_44
T ucol_assembleTailoringTable_44
T ucol_calcSortKeySimpleTertiary_44
T ucol_calcSortKey_44
T ucol_cloneBinary_44
T ucol_cloneRuleData_44
T ucol_closeElements_44
T ucol_close_44
T ucol_countAvailable_44
T ucol_createElements_44
T ucol_doCE_44
T ucol_equal_44
T ucol_equals_44
T ucol_forceHanImplicit_44
T ucol_forgetUCA_44
T ucol_getAttributeOrDefault_44
T ucol_getAttribute_44
T ucol_getAvailable_44
T ucol_getBound_44
T ucol_getCEStrengthDifference_44
T ucol_getContractionsAndExpansions_44
T ucol_getContractions_44
T ucol_getDisplayName_44
T ucol_getFirstCE_44
T ucol_getFunctionalEquivalent_44
T ucol_getKeywordValuesForLocale_44
T ucol_getKeywordValues_44
T ucol_getKeywords_44
T ucol_getLocaleByType_44
T ucol_getLocale_44
T ucol_getMaxExpansion_44
T ucol_getNextCE_44
T ucol_getOffset_44
T ucol_getPrevCE_44
T ucol_getRulesEx_44
T ucol_getRules_44
T ucol_getShortDefinitionString_44
T ucol_getSortKeySize_44
T ucol_getSortKeyWithAllocation_44
T ucol_getSortKey_44
T ucol_getStrength_44
T ucol_getTailoredSet_44
T ucol_getUCAVersion_44
T ucol_getUnsafeSet_44
T ucol_getVariableTop_44
T ucol_getVersion_44
T ucol_greaterOrEqual_44
T ucol_greater_44
T ucol_initBuffers_44
T ucol_initCollator_44
T ucol_initInverseUCA_44
T ucol_initUCA_44
T ucol_inv_getNextCE_44
T ucol_inv_getPrevCE_44
T ucol_isTailored_44
T ucol_keyHashCode_44
T ucol_mergeSortkeys_44
T ucol_nextProcessed_44
T ucol_nextSortKeyPart_44
T ucol_nextWeight_44
T ucol_next_44
T ucol_normalizeShortDefinitionString_44
T ucol_openBinary_44
T ucol_openElements_44
T ucol_openFromShortString_44
T ucol_openRules_44
T ucol_open_44
T ucol_open_internal_44
T ucol_prepareShortStringOpen_44
T ucol_previousProcessed_44
T ucol_previous_44
T ucol_primaryOrder_44
T ucol_prv_getSpecialCE_44
T ucol_prv_getSpecialPrevCE_44
T ucol_reset_44
T ucol_restoreVariableTop_44
T ucol_safeClone_44
T ucol_secondaryOrder_44
T ucol_setAttribute_44
T ucol_setOffset_44
T ucol_setOptionsFromHeader_44
T ucol_setReqValidLocales_44
T ucol_setStrength_44
T ucol_setText_44
T ucol_setVariableTop_44
T ucol_strcollIter_44
T ucol_strcoll_44
T ucol_tertiaryOrder_44
T ucol_tok_assembleTokenList_44
T ucol_tok_closeTokenList_44
T ucol_tok_getNextArgument_44
T ucol_tok_initTokenList_44
T ucol_tok_parseNextToken_44
T ucol_updateInternalState_44
T ucsdet_close_44
T ucsdet_detectAll_44
T ucsdet_detect_44
T ucsdet_enableInputFilter_44
T ucsdet_getAllDetectableCharsets_44
T ucsdet_getConfidence_44
T ucsdet_getLanguage_44
T ucsdet_getName_44
T ucsdet_getUChars_44
T ucsdet_isInputFilterEnabled_44
T ucsdet_open_44
T ucsdet_setDeclaredEncoding_44
T ucsdet_setText_44
T ucurr_countCurrencies_44
T ucurr_forLocaleAndDate_44
T ucurr_forLocale_44
T ucurr_getDefaultFractionDigits_44
T ucurr_getKeywordValuesForLocale_44
T ucurr_getName_44
T ucurr_getPluralName_44
T ucurr_getRoundingIncrement_44
T ucurr_openISOCurrencies_44
T udat_applyPatternRelative_44
T udat_applyPattern_44
T udat_clone_44
T udat_close_44
T udat_countAvailable_44
T udat_countSymbols_44
T udat_format_44
T udat_get2DigitYearStart_44
T udat_getAvailable_44
T udat_getCalendar_44
T udat_getLocaleByType_44
T udat_getNumberFormat_44
T udat_getSymbols_44
T udat_isLenient_44
T udat_open_44
T udat_parseCalendar_44
T udat_parse_44
T udat_set2DigitYearStart_44
T udat_setCalendar_44
T udat_setLenient_44
T udat_setNumberFormat_44
T udat_setSymbols_44
T udat_toCalendarDateField_44
T udat_toPatternRelativeDate_44
T udat_toPatternRelativeTime_44
T udat_toPattern_44
U udata_close_44
U udata_getMemory_44
U udata_openChoice_44
U udata_open_44
U udata_printError_44
U udata_swapDataHeader_44
T udatpg_addPattern_44
T udatpg_clone_44
T udatpg_close_44
T udatpg_getAppendItemFormat_44
T udatpg_getAppendItemName_44
T udatpg_getBaseSkeleton_44
T udatpg_getBestPatternWithOptions_44
T udatpg_getBestPattern_44
T udatpg_getDateTimeFormat_44
T udatpg_getDecimal_44
T udatpg_getPatternForSkeleton_44
T udatpg_getSkeleton_44
T udatpg_openBaseSkeletons_44
T udatpg_openEmpty_44
T udatpg_openSkeletons_44
T udatpg_open_44
T udatpg_replaceFieldTypesWithOptions_44
T udatpg_replaceFieldTypes_44
T udatpg_setAppendItemFormat_44
T udatpg_setAppendItemName_44
T udatpg_setDateTimeFormat_44
T udatpg_setDecimal_44
U uenum_close_44
U uenum_openCharStringsEnumeration_44
U uenum_openFromStringEnumeration_44
U uenum_unextDefault_44
U uhash_close_44
U uhash_compareCaselessUnicodeString_44
U uhash_compareChars_44
U uhash_compareLong_44
U uhash_compareUChars_44
U uhash_compareUnicodeString_44
U uhash_count_44
U uhash_deleteUnicodeString_44
U uhash_equals_44
U uhash_freeBlock_44
U uhash_get_44
U uhash_geti_44
U uhash_hashCaselessUnicodeString_44
U uhash_hashChars_44
U uhash_hashLong_44
U uhash_hashUCharsN_44
U uhash_hashUChars_44
U uhash_hashUnicodeString_44
U uhash_iget_44
U uhash_igeti_44
U uhash_init_44
U uhash_iput_44
U uhash_iputi_44
U uhash_nextElement_44
U uhash_openSize_44
U uhash_open_44
U uhash_put_44
U uhash_puti_44
U uhash_removeElement_44
U uhash_setKeyDeleter_44
U uhash_setValueComparator_44
U uhash_setValueDeleter_44
U uiter_next32_44
U uiter_previous32_44
U uiter_setUTF8_44
T uldn_close_44
T uldn_getDialectHandling_44
T uldn_getLocale_44
T uldn_keyDisplayName_44
T uldn_keyValueDisplayName_44
T uldn_languageDisplayName_44
T uldn_localeDisplayName_44
T uldn_open_44
T uldn_regionDisplayName_44
T uldn_scriptCodeDisplayName_44
T uldn_scriptDisplayName_44
T uldn_variantDisplayName_44
U ulist_addItemBeginList_44
U ulist_addItemEndList_44
U ulist_close_keyword_values_iterator_44
U ulist_containsString_44
U ulist_count_keyword_values_44
U ulist_createEmptyList_44
U ulist_deleteList_44
U ulist_getListSize_44
U ulist_getNext_44
U ulist_next_keyword_value_44
U ulist_resetList_44
U ulist_reset_keyword_values_iterator_44
U uloc_addLikelySubtags_44
U uloc_canonicalize_44
U uloc_countAvailable_44
U uloc_getAvailable_44
U uloc_getBaseName_44
U uloc_getCountry_44
U uloc_getDefault_44
U uloc_getKeywordValue_44
U uloc_getLanguage_44
U uloc_getName_44
U uloc_getParent_44
U uloc_getScript_44
U uloc_getTableStringWithFallback_44
U uloc_getVariant_44
U uloc_setKeywordValue_44
T ulocdata_close_44
T ulocdata_getCLDRVersion_44
T ulocdata_getDelimiter_44
T ulocdata_getExemplarSet_44
T ulocdata_getLocaleDisplayPattern_44
T ulocdata_getLocaleSeparator_44
T ulocdata_getMeasurementSystem_44
T ulocdata_getNoSubstitute_44
T ulocdata_getPaperSize_44
T ulocdata_open_44
T ulocdata_setNoSubstitute_44
T umsg_applyPattern_44
T umsg_autoQuoteApostrophe_44
T umsg_clone_44
T umsg_close_44
T umsg_format_44
T umsg_getLocale_44
T umsg_open_44
T umsg_parse_44
T umsg_setLocale_44
T umsg_toPattern_44
T umsg_vformat_44
T umsg_vparse_44
U umtx_atomic_dec_44
U umtx_atomic_inc_44
U umtx_destroy_44
U umtx_lock_44
U umtx_unlock_44
U unorm_closeIter_44
U unorm_getFCDTrieIndex_44
U unorm_isNormalized_44
U unorm_normalize_44
U unorm_openIter_44
U unorm_setIter_44
T unum_applyPattern_44
T unum_clone_44
T unum_close_44
T unum_countAvailable_44
T unum_formatDoubleCurrency_44
T unum_formatDouble_44
T unum_formatInt64_44
T unum_format_44
T unum_getAttribute_44
T unum_getAvailable_44
T unum_getDoubleAttribute_44
T unum_getLocaleByType_44
T unum_getSymbol_44
T unum_getTextAttribute_44
T unum_open_44
T unum_parseDoubleCurrency_44
T unum_parseDouble_44
T unum_parseInt64_44
T unum_parse_44
T unum_setAttribute_44
T unum_setDoubleAttribute_44
T unum_setSymbol_44
T unum_setTextAttribute_44
T unum_toPattern_44
U uprv_asciitolower_44
U uprv_ceil_44
T uprv_cnttab_addContraction_44
T uprv_cnttab_changeContraction_44
T uprv_cnttab_changeLastCE_44
T uprv_cnttab_clone_44
T uprv_cnttab_close_44
T uprv_cnttab_constructTable_44
T uprv_cnttab_findCE_44
T uprv_cnttab_findCP_44
T uprv_cnttab_getCE_44
T uprv_cnttab_insertContraction_44
T uprv_cnttab_isTailored_44
T uprv_cnttab_open_44
T uprv_cnttab_setContraction_44
T uprv_collIterateAtEnd_44
T uprv_decContextClearStatus_44
T uprv_decContextDefault_44
T uprv_decContextGetRounding_44
T uprv_decContextGetStatus_44
T uprv_decContextRestoreStatus_44
T uprv_decContextSaveStatus_44
T uprv_decContextSetRounding_44
T uprv_decContextSetStatusFromStringQuiet_44
T uprv_decContextSetStatusFromString_44
T uprv_decContextSetStatusQuiet_44
T uprv_decContextSetStatus_44
T uprv_decContextStatusToString_44
T uprv_decContextTestEndian_44
T uprv_decContextTestSavedStatus_44
T uprv_decContextTestStatus_44
T uprv_decContextZeroStatus_44
T uprv_decNumberAbs_44
T uprv_decNumberAdd_44
T uprv_decNumberAnd_44
T uprv_decNumberClassToString_44
T uprv_decNumberClass_44
T uprv_decNumberCompareSignal_44
T uprv_decNumberCompareTotalMag_44
T uprv_decNumberCompareTotal_44
T uprv_decNumberCompare_44
T uprv_decNumberCopyAbs_44
T uprv_decNumberCopyNegate_44
T uprv_decNumberCopySign_44
T uprv_decNumberCopy_44
T uprv_decNumberDivideInteger_44
T uprv_decNumberDivide_44
T uprv_decNumberExp_44
T uprv_decNumberFMA_44
T uprv_decNumberFromInt32_44
T uprv_decNumberFromString_44
T uprv_decNumberFromUInt32_44
T uprv_decNumberGetBCD_44
T uprv_decNumberInvert_44
T uprv_decNumberIsNormal_44
T uprv_decNumberIsSubnormal_44
T uprv_decNumberLn_44
T uprv_decNumberLog10_44
T uprv_decNumberLogB_44
T uprv_decNumberMaxMag_44
T uprv_decNumberMax_44
T uprv_decNumberMinMag_44
T uprv_decNumberMin_44
T uprv_decNumberMinus_44
T uprv_decNumberMultiply_44
T uprv_decNumberNextMinus_44
T uprv_decNumberNextPlus_44
T uprv_decNumberNextToward_44
T uprv_decNumberNormalize_44
T uprv_decNumberOr_44
T uprv_decNumberPlus_44
T uprv_decNumberPower_44
T uprv_decNumberQuantize_44
T uprv_decNumberReduce_44
T uprv_decNumberRemainderNear_44
T uprv_decNumberRemainder_44
T uprv_decNumberRescale_44
T uprv_decNumberRotate_44
T uprv_decNumberSameQuantum_44
T uprv_decNumberScaleB_44
T uprv_decNumberSetBCD_44
T uprv_decNumberShift_44
T uprv_decNumberSquareRoot_44
T uprv_decNumberSubtract_44
T uprv_decNumberToEngString_44
T uprv_decNumberToInt32_44
T uprv_decNumberToIntegralExact_44
T uprv_decNumberToIntegralValue_44
T uprv_decNumberToString_44
T uprv_decNumberToUInt32_44
T uprv_decNumberTrim_44
T uprv_decNumberVersion_44
T uprv_decNumberXor_44
T uprv_decNumberZero_44
T uprv_delete_collIterate_44
U uprv_fabs_44
U uprv_floor_44
U uprv_fmod_44
U uprv_free_44
U uprv_getInfinity_44
U uprv_getNaN_44
T uprv_getStaticCurrencyName_44
U uprv_getUTCtime_44
T uprv_init_collIterate_44
T uprv_init_pce_44
U uprv_isInvariantUString_44
U uprv_isNaN_44
U uprv_isNegativeInfinity_44
U uprv_isPositiveInfinity_44
U uprv_isRuleWhiteSpace_44
U uprv_itou_44
U uprv_log_44
U uprv_malloc_44
U uprv_maxMantissa_44
U uprv_max_44
U uprv_min_44
T uprv_new_collIterate_44
T uprv_parseCurrency_44
U uprv_pow_44
U uprv_realloc_44
U uprv_round_44
U uprv_sortArray_44
U uprv_strdup_44
U uprv_strndup_44
U uprv_timezone_44
U uprv_toupper_44
U uprv_tzname_44
U uprv_tzset_44
T uprv_uca_addAnElement_44
T uprv_uca_assembleTable_44
T uprv_uca_canonicalClosure_44
T uprv_uca_closeTempTable_44
T uprv_uca_getCodePointFromRaw_44
T uprv_uca_getImplicitFromRaw_44
T uprv_uca_getRawFromCodePoint_44
T uprv_uca_getRawFromImplicit_44
T uprv_uca_initImplicitConstants_44
T uprv_uca_initTempTable_44
T uregex_appendReplacementUText_44
T uregex_appendReplacement_44
T uregex_appendTailUText_44
T uregex_appendTail_44
T uregex_clone_44
T uregex_close_44
T uregex_end_44
T uregex_findNext_44
T uregex_find_44
T uregex_flags_44
T uregex_getMatchCallback_44
T uregex_getStackLimit_44
T uregex_getText_44
T uregex_getTimeLimit_44
T uregex_getUText_44
T uregex_groupCount_44
T uregex_groupUText_44
T uregex_group_44
T uregex_hasAnchoringBounds_44
T uregex_hasTransparentBounds_44
T uregex_hitEnd_44
T uregex_lookingAt_44
T uregex_matches_44
T uregex_openC_44
T uregex_openUText_44
T uregex_open_44
T uregex_patternUText_44
T uregex_pattern_44
T uregex_refreshUText
T uregex_regionEnd_44
T uregex_regionStart_44
T uregex_replaceAllUText_44
T uregex_replaceAll_44
T uregex_replaceFirstUText_44
T uregex_replaceFirst_44
T uregex_requireEnd_44
T uregex_reset_44
T uregex_setMatchCallback_44
T uregex_setRegion_44
T uregex_setStackLimit_44
T uregex_setText_44
T uregex_setTimeLimit_44
T uregex_setUText_44
T uregex_splitUText_44
T uregex_split_44
T uregex_start_44
T uregex_ucstr_unescape_charAt_44
T uregex_useAnchoringBounds_44
T uregex_useTransparentBounds_44
T uregex_utext_unescape_charAt_44
U ures_close_44
U ures_getBinary_44
U ures_getByIndex_44
U ures_getByKeyWithFallback_44
U ures_getByKey_44
U ures_getFunctionalEquivalent_44
U ures_getIntVector_44
U ures_getInt_44
U ures_getKey_44
U ures_getKeywordValues_44
U ures_getLocaleByType_44
U ures_getLocale_44
U ures_getNextResource_44
U ures_getNextString_44
U ures_getSize_44
U ures_getStringByIndex_44
U ures_getStringByKeyWithFallback_44
U ures_getStringByKey_44
U ures_getString_44
U ures_getType_44
U ures_getUTF8StringByKey_44
U ures_getUTF8String_44
U ures_getVersionByKey_44
U ures_hasNext_44
U ures_initStackObject_44
U ures_openDirect_44
U ures_openFillIn_44
U ures_open_44
U ures_resetIterator_44
U uscript_getCode_44
U uscript_getName_44
U uscript_getScript_44
T usearch_close_44
T usearch_first_44
T usearch_following_44
T usearch_getAttribute_44
T usearch_getBreakIterator_44
T usearch_getCollator_44
T usearch_getMatchedLength_44
T usearch_getMatchedStart_44
T usearch_getMatchedText_44
T usearch_getOffset_44
T usearch_getPattern_44
T usearch_getText_44
T usearch_handleNextCanonical_44
T usearch_handleNextExact_44
T usearch_handlePreviousCanonical_44
T usearch_handlePreviousExact_44
T usearch_last_44
T usearch_next_44
T usearch_openFromCollator_44
T usearch_open_44
T usearch_preceding_44
T usearch_previous_44
T usearch_reset_44
T usearch_searchBackwards_44
T usearch_search_44
T usearch_setAttribute_44
T usearch_setBreakIterator_44
T usearch_setCollator_44
T usearch_setOffset_44
T usearch_setPattern_44
T usearch_setText_44
U uset_addAll_44
U uset_addRange_44
U uset_addString_44
U uset_add_44
U uset_applyPattern_44
U uset_clear_44
U uset_close_44
U uset_contains_44
U uset_getItemCount_44
U uset_getItem_44
U uset_openEmpty_44
U uset_openPatternOptions_44
U uset_openPattern_44
U uset_open_44
U uset_removeAll_44
U uset_size_44
T uspoof_areConfusableUTF8_44
T uspoof_areConfusableUnicodeString_44
T uspoof_areConfusable_44
T uspoof_checkUTF8_44
T uspoof_checkUnicodeString_44
T uspoof_check_44
T uspoof_clone_44
T uspoof_close_44
T uspoof_getAllowedChars_44
T uspoof_getAllowedLocales_44
T uspoof_getAllowedUnicodeSet_44
T uspoof_getChecks_44
T uspoof_getSkeletonUTF8_44
T uspoof_getSkeletonUnicodeString_44
T uspoof_getSkeleton_44
T uspoof_openFromSerialized_44
T uspoof_openFromSource_44
T uspoof_open_44
T uspoof_serialize_44
T uspoof_setAllowedChars_44
T uspoof_setAllowedLocales_44
T uspoof_setAllowedUnicodeSet_44
T uspoof_setChecks_44
T uspoof_swap_44
U utext_caseCompareNativeLimit_44
U utext_clone_44
U utext_close_44
U utext_compareNativeLimit_44
U utext_current32_44
U utext_equals_44
U utext_extract_44
U utext_getNativeIndex_44
U utext_moveIndex32_44
U utext_nativeLength_44
U utext_next32_44
U utext_openConstUnicodeString_44
U utext_openUChars_44
U utext_openUnicodeString_44
U utext_previous32_44
U utext_replace_44
U utext_setNativeIndex_44
T utmscale_fromInt64_44
T utmscale_getTimeScaleValue_44
T utmscale_toInt64_44
U utrie2_close_44
U utrie2_freeze_44
U utrie2_get32_44
U utrie2_openFromSerialized_44
U utrie2_open_44
U utrie2_serialize_44
U utrie2_set32_44
U utrie2_setRange32_44
U utrie2_swap_44
U utrie_clone_44
U utrie_close_44
U utrie_enum_44
U utrie_get32_44
U utrie_open_44
U utrie_serialize_44
U utrie_set32_44
U utrie_unserialize_44
T vzone_clone_44
T vzone_close_44
T vzone_countTransitionRules_44
T vzone_equals_44
T vzone_getDynamicClassID_44
T vzone_getLastModified_44
T vzone_getNextTransition_44
T vzone_getOffset2_44
T vzone_getOffset3_44
T vzone_getOffset_44
T vzone_getPreviousTransition_44
T vzone_getRawOffset_44
T vzone_getStaticClassID_44
T vzone_getTZURL_44
T vzone_hasSameRules_44
T vzone_inDaylightTime_44
T vzone_openData_44
T vzone_openID_44
T vzone_setLastModified_44
T vzone_setRawOffset_44
T vzone_setTZURL_44
T vzone_useDaylightTime_44
T vzone_writeFromStart_44
T vzone_writeSimple_44
T vzone_write_44
T zrule_close_44
T zrule_equals_44
T zrule_getDSTSavings_44
T zrule_getName_44
T zrule_getRawOffset_44
T zrule_isEquivalentTo_44
T ztrans_adoptFrom_44
T ztrans_adoptTo_44
T ztrans_clone_44
T ztrans_close_44
T ztrans_equals_44
T ztrans_getDynamicClassID_44
T ztrans_getFrom_44
T ztrans_getStaticClassID_44
T ztrans_getTime_44
T ztrans_getTo_44
T ztrans_openEmpty_44
T ztrans_open_44
T ztrans_setFrom_44
T ztrans_setTime_44
T ztrans_setTo_44
