T T_CString_int64ToString_44
T T_CString_integerToString_44
T T_CString_stricmp_44
T T_CString_stringToInteger_44
T T_CString_strnicmp_44
T T_CString_toLowerCase_44
T T_CString_toUpperCase_44
T UCNV_FROM_U_CALLBACK_ESCAPE_44
T UCNV_FROM_U_CALLBACK_SKIP_44
T UCNV_FROM_U_CALLBACK_STOP_44
T UCNV_FROM_U_CALLBACK_SUBSTITUTE_44
T UCNV_TO_U_CALLBACK_ESCAPE_44
T UCNV_TO_U_CALLBACK_SKIP_44
T UCNV_TO_U_CALLBACK_STOP_44
T UCNV_TO_U_CALLBACK_SUBSTITUTE_44
T UDataMemory_createNewInstance_44
T UDataMemory_init_44
T UDataMemory_isLoaded_44
T UDataMemory_normalizeDataPointer_44
T UDataMemory_setData_44
T UDatamemory_assign_44
D _ASCIIData_44
D _Bocu1Data_44
D _CESU8Data_44
D _HZData_44
D _IMAPData_44
D _ISCIIData_44
D _ISO2022Data_44
D _LMBCSData11_44
D _LMBCSData16_44
D _LMBCSData17_44
D _LMBCSData18_44
D _LMBCSData19_44
D _LMBCSData1_44
D _LMBCSData2_44
D _LMBCSData3_44
D _LMBCSData4_44
D _LMBCSData5_44
D _LMBCSData6_44
D _LMBCSData8_44
D _Latin1Data_44
D _MBCSData_44
D _SCSUData_44
D _UTF16BEData_44
D _UTF16Data_44
D _UTF16LEData_44
D _UTF32BEData_44
D _UTF32Data_44
D _UTF32LEData_44
D _UTF7Data_44
D _UTF8Data_44
T _ZN6icu_4410NameToEnum4swapEPK12UDataSwapperPKhiPhS6_iP10UErrorCode
T _ZN6icu_4410Normalizer10quickCheckERKNS_13UnicodeStringE18UNormalizationModeiR10UErrorCode
T _ZN6icu_4410Normalizer11clearBufferEv
T _ZN6icu_4410Normalizer11concatenateERNS_13UnicodeStringES2_S2_18UNormalizationModeiR10UErrorCode
T _ZN6icu_4410Normalizer12isNormalizedERKNS_13UnicodeStringE18UNormalizationModeiR10UErrorCode
T _ZN6icu_4410Normalizer12setIndexOnlyEi
T _ZN6icu_4410Normalizer13nextNormalizeEv
T _ZN6icu_4410Normalizer16getStaticClassIDEv
T _ZN6icu_4410Normalizer17previousNormalizeEv
T _ZN6icu_4410Normalizer4initEv
T _ZN6icu_4410Normalizer4lastEv
T _ZN6icu_4410Normalizer4nextEv
T _ZN6icu_4410Normalizer5firstEv
T _ZN6icu_4410Normalizer5resetEv
T _ZN6icu_4410Normalizer7composeERKNS_13UnicodeStringEaiRS1_R10UErrorCode
T _ZN6icu_4410Normalizer7currentEv
T _ZN6icu_4410Normalizer7getTextERNS_13UnicodeStringE
T _ZN6icu_4410Normalizer7setModeE18UNormalizationMode
T _ZN6icu_4410Normalizer7setTextEPKtiR10UErrorCode
T _ZN6icu_4410Normalizer7setTextERKNS_13UnicodeStringER10UErrorCode
T _ZN6icu_4410Normalizer7setTextERKNS_17CharacterIteratorER10UErrorCode
T _ZN6icu_4410Normalizer8previousEv
T _ZN6icu_4410Normalizer9decomposeERKNS_13UnicodeStringEaiRS1_R10UErrorCode
T _ZN6icu_4410Normalizer9normalizeERKNS_13UnicodeStringE18UNormalizationModeiRS1_R10UErrorCode
T _ZN6icu_4410Normalizer9setOptionEia
T _ZN6icu_4410NormalizerC1EPKti18UNormalizationMode
T _ZN6icu_4410NormalizerC1ERKNS_13UnicodeStringE18UNormalizationMode
T _ZN6icu_4410NormalizerC1ERKNS_17CharacterIteratorE18UNormalizationMode
T _ZN6icu_4410NormalizerC1ERKS0_
T _ZN6icu_4410NormalizerC2EPKti18UNormalizationMode
T _ZN6icu_4410NormalizerC2ERKNS_13UnicodeStringE18UNormalizationMode
T _ZN6icu_4410NormalizerC2ERKNS_17CharacterIteratorE18UNormalizationMode
T _ZN6icu_4410NormalizerC2ERKS0_
T _ZN6icu_4410NormalizerD0Ev
T _ZN6icu_4410NormalizerD1Ev
T _ZN6icu_4410NormalizerD2Ev
T _ZN6icu_4410UnicodeSet10complementERKNS_13UnicodeStringE
T _ZN6icu_4410UnicodeSet10complementEi
T _ZN6icu_4410UnicodeSet10complementEii
T _ZN6icu_4410UnicodeSet10complementEv
T _ZN6icu_4410UnicodeSet10createFromERKNS_13UnicodeStringE
T _ZN6icu_4410UnicodeSet10setPatternERKNS_13UnicodeStringE
T _ZN6icu_4410UnicodeSet10setToBogusEv
T _ZN6icu_4410UnicodeSet11applyFilterEPFaiPvES1_iR10UErrorCode
T _ZN6icu_4410UnicodeSet11exclusiveOrEPKiia
T _ZN6icu_4410UnicodeSet11getSingleCPERKNS_13UnicodeStringE
T _ZN6icu_4410UnicodeSet11swapBuffersEv
T _ZN6icu_4410UnicodeSet12_appendToPatERNS_13UnicodeStringERKS1_a
T _ZN6icu_4410UnicodeSet12_appendToPatERNS_13UnicodeStringEia
T _ZN6icu_4410UnicodeSet12applyPatternERKNS_13UnicodeStringER10UErrorCode
T _ZN6icu_4410UnicodeSet12applyPatternERKNS_13UnicodeStringERNS_13ParsePositionEjPKNS_11SymbolTableER10UErrorCode
T _ZN6icu_4410UnicodeSet12applyPatternERKNS_13UnicodeStringEjPKNS_11SymbolTableER10UErrorCode
T _ZN6icu_4410UnicodeSet12applyPatternERNS_21RuleCharacterIteratorEPKNS_11SymbolTableERNS_13UnicodeStringEjR10UErrorCode
T _ZN6icu_4410UnicodeSet13complementAllERKNS_13UnicodeStringE
T _ZN6icu_4410UnicodeSet13complementAllERKS0_
T _ZN6icu_4410UnicodeSet13createFromAllERKNS_13UnicodeStringE
T _ZN6icu_4410UnicodeSet13getInclusionsEiR10UErrorCode
T _ZN6icu_4410UnicodeSet14ensureCapacityEiR10UErrorCode
T _ZN6icu_4410UnicodeSet14releasePatternEv
T _ZN6icu_4410UnicodeSet15allocateStringsER10UErrorCode
T _ZN6icu_4410UnicodeSet16getStaticClassIDEv
T _ZN6icu_4410UnicodeSet16removeAllStringsEv
T _ZN6icu_4410UnicodeSet16resemblesPatternERKNS_13UnicodeStringEi
T _ZN6icu_4410UnicodeSet18applyPropertyAliasERKNS_13UnicodeStringES3_R10UErrorCode
T _ZN6icu_4410UnicodeSet20applyPropertyPatternERKNS_13UnicodeStringERNS_13ParsePositionER10UErrorCode
T _ZN6icu_4410UnicodeSet20applyPropertyPatternERNS_21RuleCharacterIteratorERNS_13UnicodeStringER10UErrorCode
T _ZN6icu_4410UnicodeSet20ensureBufferCapacityEiR10UErrorCode
T _ZN6icu_4410UnicodeSet21applyIntPropertyValueE9UPropertyiR10UErrorCode
T _ZN6icu_4410UnicodeSet24resemblesPropertyPatternERKNS_13UnicodeStringEi
T _ZN6icu_4410UnicodeSet24resemblesPropertyPatternERNS_21RuleCharacterIteratorEi
T _ZN6icu_4410UnicodeSet3addEPKiia
T _ZN6icu_4410UnicodeSet3addERKNS_13UnicodeStringE
T _ZN6icu_4410UnicodeSet3addEi
T _ZN6icu_4410UnicodeSet3addEii
T _ZN6icu_4410UnicodeSet3setEii
T _ZN6icu_4410UnicodeSet4_addERKNS_13UnicodeStringE
T _ZN6icu_4410UnicodeSet5clearEv
T _ZN6icu_4410UnicodeSet6addAllERKNS_13UnicodeStringE
T _ZN6icu_4410UnicodeSet6addAllERKS0_
T _ZN6icu_4410UnicodeSet6freezeEv
T _ZN6icu_4410UnicodeSet6removeERKNS_13UnicodeStringE
T _ZN6icu_4410UnicodeSet6removeEi
T _ZN6icu_4410UnicodeSet6removeEii
T _ZN6icu_4410UnicodeSet6retainEPKiia
T _ZN6icu_4410UnicodeSet6retainEi
T _ZN6icu_4410UnicodeSet6retainEii
T _ZN6icu_4410UnicodeSet7compactEv
T _ZN6icu_4410UnicodeSet7matchesERKNS_11ReplaceableERiia
T _ZN6icu_4410UnicodeSet9closeOverEi
T _ZN6icu_4410UnicodeSet9matchRestERKNS_11ReplaceableEiiRKNS_13UnicodeStringE
T _ZN6icu_4410UnicodeSet9removeAllERKNS_13UnicodeStringE
T _ZN6icu_4410UnicodeSet9removeAllERKS0_
T _ZN6icu_4410UnicodeSet9retainAllERKNS_13UnicodeStringE
T _ZN6icu_4410UnicodeSet9retainAllERKS0_
T _ZN6icu_4410UnicodeSetC1ERKNS_13UnicodeStringER10UErrorCode
T _ZN6icu_4410UnicodeSetC1ERKNS_13UnicodeStringERNS_13ParsePositionEjPKNS_11SymbolTableER10UErrorCode
T _ZN6icu_4410UnicodeSetC1ERKNS_13UnicodeStringEjPKNS_11SymbolTableER10UErrorCode
T _ZN6icu_4410UnicodeSetC1ERKS0_
T _ZN6icu_4410UnicodeSetC1ERKS0_a
T _ZN6icu_4410UnicodeSetC1Eii
T _ZN6icu_4410UnicodeSetC1Ev
T _ZN6icu_4410UnicodeSetC2ERKNS_13UnicodeStringER10UErrorCode
T _ZN6icu_4410UnicodeSetC2ERKNS_13UnicodeStringERNS_13ParsePositionEjPKNS_11SymbolTableER10UErrorCode
T _ZN6icu_4410UnicodeSetC2ERKNS_13UnicodeStringEjPKNS_11SymbolTableER10UErrorCode
T _ZN6icu_4410UnicodeSetC2ERKS0_
T _ZN6icu_4410UnicodeSetC2ERKS0_a
T _ZN6icu_4410UnicodeSetC2Eii
T _ZN6icu_4410UnicodeSetC2Ev
T _ZN6icu_4410UnicodeSetD0Ev
T _ZN6icu_4410UnicodeSetD1Ev
T _ZN6icu_4410UnicodeSetD2Ev
T _ZN6icu_4410UnicodeSetaSERKS0_
T _ZN6icu_4411ICU_Utility11parseNumberERKNS_13UnicodeStringERia
T _ZN6icu_4411ICU_Utility12appendNumberERNS_13UnicodeStringEiii
T _ZN6icu_4411ICU_Utility12appendToRuleERNS_13UnicodeStringEPKNS_14UnicodeMatcherEaS2_
T _ZN6icu_4411ICU_Utility12appendToRuleERNS_13UnicodeStringERKS1_aaS2_
T _ZN6icu_4411ICU_Utility12appendToRuleERNS_13UnicodeStringEiaaS2_
T _ZN6icu_4411ICU_Utility12parseIntegerERKNS_13UnicodeStringERii
T _ZN6icu_4411ICU_Utility12parsePatternERKNS_13UnicodeStringERKNS_11ReplaceableEii
T _ZN6icu_4411ICU_Utility12parsePatternERKNS_13UnicodeStringEiiS3_Pi
T _ZN6icu_4411ICU_Utility13isUnprintableEi
T _ZN6icu_4411ICU_Utility14skipWhitespaceERKNS_13UnicodeStringERia
T _ZN6icu_4411ICU_Utility17escapeUnprintableERNS_13UnicodeStringEi
T _ZN6icu_4411ICU_Utility22parseUnicodeIdentifierERKNS_13UnicodeStringERi
T _ZN6icu_4411ICU_Utility9parseCharERKNS_13UnicodeStringERit
T _ZN6icu_4411LocaleBased12setLocaleIDsEPKcS2_
T _ZN6icu_4411Normalizer211getInstanceEPKcS2_19UNormalization2ModeR10UErrorCode
T _ZN6icu_4411Normalizer216getStaticClassIDEv
T _ZN6icu_4411ReplaceableC1Ev
T _ZN6icu_4411ReplaceableC2Ev
T _ZN6icu_4411ReplaceableD0Ev
T _ZN6icu_4411ReplaceableD1Ev
T _ZN6icu_4411ReplaceableD2Ev
T _ZN6icu_4411StringPiece3setEPKc
R _ZN6icu_4411StringPiece4nposE
T _ZN6icu_4411StringPieceC1EPKc
T _ZN6icu_4411StringPieceC1ERKS0_i
T _ZN6icu_4411StringPieceC1ERKS0_ii
T _ZN6icu_4411StringPieceC2EPKc
T _ZN6icu_4411StringPieceC2ERKS0_i
T _ZN6icu_4411StringPieceC2ERKS0_ii
T _ZN6icu_4411SymbolTableD0Ev
T _ZN6icu_4411SymbolTableD1Ev
T _ZN6icu_4411SymbolTableD2Ev
T _ZN6icu_4411TernaryNodeD1Ev
T _ZN6icu_4411TernaryNodeD2Ev
T _ZN6icu_4412DateInterval16getStaticClassIDEv
T _ZN6icu_4412DateIntervalC1ERKS0_
T _ZN6icu_4412DateIntervalC1Edd
T _ZN6icu_4412DateIntervalC2ERKS0_
T _ZN6icu_4412DateIntervalC2Edd
T _ZN6icu_4412DateIntervalD0Ev
T _ZN6icu_4412DateIntervalD1Ev
T _ZN6icu_4412DateIntervalD2Ev
T _ZN6icu_4412DateIntervalaSERKS0_
T _ZN6icu_4412EnumToOffset4swapEPK12UDataSwapperPKhiPhS6_iP10UErrorCode
T _ZN6icu_4413BreakIterator12makeInstanceERKNS_6LocaleEiR10UErrorCode
T _ZN6icu_4413BreakIterator13buildInstanceERKNS_6LocaleEPKciR10UErrorCode
T _ZN6icu_4413BreakIterator14createInstanceERKNS_6LocaleEiR10UErrorCode
T _ZN6icu_4413BreakIterator14getDisplayNameERKNS_6LocaleERNS_13UnicodeStringE
T _ZN6icu_4413BreakIterator14getDisplayNameERKNS_6LocaleES3_RNS_13UnicodeStringE
T _ZN6icu_4413BreakIterator18createLineInstanceERKNS_6LocaleER10UErrorCode
T _ZN6icu_4413BreakIterator18createWordInstanceERKNS_6LocaleER10UErrorCode
T _ZN6icu_4413BreakIterator19createTitleInstanceERKNS_6LocaleER10UErrorCode
T _ZN6icu_4413BreakIterator19getAvailableLocalesERi
T _ZN6icu_4413BreakIterator22createSentenceInstanceERKNS_6LocaleER10UErrorCode
T _ZN6icu_4413BreakIterator23createCharacterInstanceERKNS_6LocaleER10UErrorCode
T _ZN6icu_4413BreakIteratorC1Ev
T _ZN6icu_4413BreakIteratorC2Ev
T _ZN6icu_4413BreakIteratorD0Ev
T _ZN6icu_4413BreakIteratorD1Ev
T _ZN6icu_4413BreakIteratorD2Ev
T _ZN6icu_4413Norm2AllModes14createInstanceEPKcS2_R10UErrorCode
T _ZN6icu_4413ParsePosition16getStaticClassIDEv
T _ZN6icu_4413ParsePositionD0Ev
T _ZN6icu_4413ParsePositionD1Ev
T _ZN6icu_4413ParsePositionD2Ev
T _ZN6icu_4413UnicodeFilter16getStaticClassIDEv
T _ZN6icu_4413UnicodeFilter7matchesERKNS_11ReplaceableERiia
T _ZN6icu_4413UnicodeFilter7setDataEPKNS_23TransliterationRuleDataE
T _ZN6icu_4413UnicodeFilterD0Ev
T _ZN6icu_4413UnicodeFilterD1Ev
T _ZN6icu_4413UnicodeFilterD2Ev
T _ZN6icu_4413UnicodeString10padLeadingEit
T _ZN6icu_4413UnicodeString10setToBogusEv
T _ZN6icu_4413UnicodeString11padTrailingEit
T _ZN6icu_4413UnicodeString12fastCopyFromERKS0_
T _ZN6icu_4413UnicodeString12releaseArrayEv
T _ZN6icu_4413UnicodeString13releaseBufferEi
T _ZN6icu_4413UnicodeString14findAndReplaceEiiRKS0_iiS2_ii
T _ZN6icu_4413UnicodeString16doCodepageCreateEPKciP10UConverterR10UErrorCode
T _ZN6icu_4413UnicodeString16doCodepageCreateEPKciS2_
T _ZN6icu_4413UnicodeString16getStaticClassIDEv
T _ZN6icu_4413UnicodeString18cloneArrayIfNeededEiiaPPia
T _ZN6icu_4413UnicodeString20handleReplaceBetweenEiiRKS0_
T _ZN6icu_4413UnicodeString4copyEiii
T _ZN6icu_4413UnicodeString4trimEv
T _ZN6icu_4413UnicodeString5setToEPtii
T _ZN6icu_4413UnicodeString5setToEaPKti
W _ZN6icu_4413UnicodeString5setToEi
T _ZN6icu_4413UnicodeString6addRefEv
T _ZN6icu_4413UnicodeString7caseMapEPNS_13BreakIteratorEPKcji
T _ZN6icu_4413UnicodeString7toLowerERKNS_6LocaleE
T _ZN6icu_4413UnicodeString7toLowerEv
T _ZN6icu_4413UnicodeString7toTitleEPNS_13BreakIteratorE
T _ZN6icu_4413UnicodeString7toTitleEPNS_13BreakIteratorERKNS_6LocaleE
T _ZN6icu_4413UnicodeString7toTitleEPNS_13BreakIteratorERKNS_6LocaleEj
T _ZN6icu_4413UnicodeString7toUpperERKNS_6LocaleE
T _ZN6icu_4413UnicodeString7toUpperEv
T _ZN6icu_4413UnicodeString7unBogusEv
T _ZN6icu_4413UnicodeString8allocateEi
T _ZN6icu_4413UnicodeString8copyFromERKS0_a
T _ZN6icu_4413UnicodeString8foldCaseEj
T _ZN6icu_4413UnicodeString8fromUTF8ERKNS_11StringPieceE
T _ZN6icu_4413UnicodeString9doReplaceEiiPKtii
T _ZN6icu_4413UnicodeString9doReplaceEiiRKS0_ii
T _ZN6icu_4413UnicodeString9doReverseEii
T _ZN6icu_4413UnicodeString9fromUTF32EPKii
T _ZN6icu_4413UnicodeString9getBufferEi
T _ZN6icu_4413UnicodeString9removeRefEv
T _ZN6icu_4413UnicodeString9setCharAtEit
T _ZN6icu_4413UnicodeString9setToUTF8ERKNS_11StringPieceE
T _ZN6icu_4413UnicodeStringC1EPKc
T _ZN6icu_4413UnicodeStringC1EPKcS2_
T _ZN6icu_4413UnicodeStringC1EPKci
T _ZN6icu_4413UnicodeStringC1EPKciNS0_10EInvariantE
T _ZN6icu_4413UnicodeStringC1EPKciP10UConverterR10UErrorCode
T _ZN6icu_4413UnicodeStringC1EPKciS2_
T _ZN6icu_4413UnicodeStringC1EPKt
T _ZN6icu_4413UnicodeStringC1EPKti
T _ZN6icu_4413UnicodeStringC1EPtii
T _ZN6icu_4413UnicodeStringC1ERKS0_
T _ZN6icu_4413UnicodeStringC1ERKS0_i
T _ZN6icu_4413UnicodeStringC1ERKS0_ii
T _ZN6icu_4413UnicodeStringC1EaPKti
T _ZN6icu_4413UnicodeStringC1Ei
T _ZN6icu_4413UnicodeStringC1Eiii
T _ZN6icu_4413UnicodeStringC1Et
T _ZN6icu_4413UnicodeStringC1Ev
T _ZN6icu_4413UnicodeStringC2EPKc
T _ZN6icu_4413UnicodeStringC2EPKcS2_
T _ZN6icu_4413UnicodeStringC2EPKci
T _ZN6icu_4413UnicodeStringC2EPKciNS0_10EInvariantE
T _ZN6icu_4413UnicodeStringC2EPKciP10UConverterR10UErrorCode
T _ZN6icu_4413UnicodeStringC2EPKciS2_
T _ZN6icu_4413UnicodeStringC2EPKt
T _ZN6icu_4413UnicodeStringC2EPKti
T _ZN6icu_4413UnicodeStringC2EPtii
T _ZN6icu_4413UnicodeStringC2ERKS0_
T _ZN6icu_4413UnicodeStringC2ERKS0_i
T _ZN6icu_4413UnicodeStringC2ERKS0_ii
T _ZN6icu_4413UnicodeStringC2EaPKti
T _ZN6icu_4413UnicodeStringC2Ei
T _ZN6icu_4413UnicodeStringC2Eiii
T _ZN6icu_4413UnicodeStringC2Et
T _ZN6icu_4413UnicodeStringC2Ev
T _ZN6icu_4413UnicodeStringD0Ev
T _ZN6icu_4413UnicodeStringD1Ev
T _ZN6icu_4413UnicodeStringD2Ev
T _ZN6icu_4413UnicodeStringaSERKS0_
T _ZN6icu_4414RBBISetBuilder11addValToSetEPNS_8RBBINodeEj
T _ZN6icu_4414RBBISetBuilder11getTrieSizeEv
T _ZN6icu_4414RBBISetBuilder12addValToSetsEPNS_7UVectorEj
T _ZN6icu_4414RBBISetBuilder13serializeTrieEPh
T _ZN6icu_4414RBBISetBuilder5buildEv
T _ZN6icu_4414RBBISetBuilderC1EPNS_15RBBIRuleBuilderE
T _ZN6icu_4414RBBISetBuilderC2EPNS_15RBBIRuleBuilderE
T _ZN6icu_4414RBBISetBuilderD1Ev
T _ZN6icu_4414RBBISetBuilderD2Ev
T _ZN6icu_4414ResourceBundle13getNextStringEPPKcR10UErrorCode
T _ZN6icu_4414ResourceBundle13getNextStringER10UErrorCode
T _ZN6icu_4414ResourceBundle13resetIteratorEv
T _ZN6icu_4414ResourceBundle15getWithFallbackEPKcR10UErrorCode
T _ZN6icu_4414ResourceBundle16getStaticClassIDEv
T _ZN6icu_4414ResourceBundle18constructForLocaleERKNS_13UnicodeStringERKNS_6LocaleER10UErrorCode
T _ZN6icu_4414ResourceBundle7getNextER10UErrorCode
T _ZN6icu_4414ResourceBundleC1EP15UResourceBundleR10UErrorCode
T _ZN6icu_4414ResourceBundleC1EPKcRKNS_6LocaleER10UErrorCode
T _ZN6icu_4414ResourceBundleC1ER10UErrorCode
T _ZN6icu_4414ResourceBundleC1ERKNS_13UnicodeStringER10UErrorCode
T _ZN6icu_4414ResourceBundleC1ERKNS_13UnicodeStringERKNS_6LocaleER10UErrorCode
T _ZN6icu_4414ResourceBundleC1ERKS0_
T _ZN6icu_4414ResourceBundleC2EP15UResourceBundleR10UErrorCode
T _ZN6icu_4414ResourceBundleC2EPKcRKNS_6LocaleER10UErrorCode
T _ZN6icu_4414ResourceBundleC2ER10UErrorCode
T _ZN6icu_4414ResourceBundleC2ERKNS_13UnicodeStringER10UErrorCode
T _ZN6icu_4414ResourceBundleC2ERKNS_13UnicodeStringERKNS_6LocaleER10UErrorCode
T _ZN6icu_4414ResourceBundleC2ERKS0_
T _ZN6icu_4414ResourceBundleD0Ev
T _ZN6icu_4414ResourceBundleD1Ev
T _ZN6icu_4414ResourceBundleD2Ev
T _ZN6icu_4414ResourceBundleaSERKS0_
T _ZN6icu_4414UnicodeFunctor16getStaticClassIDEv
T _ZN6icu_4414UnicodeFunctorD0Ev
T _ZN6icu_4414UnicodeFunctorD1Ev
T _ZN6icu_4414UnicodeFunctorD2Ev
T _ZN6icu_4414UnicodeMatcherD0Ev
T _ZN6icu_4414UnicodeMatcherD1Ev
T _ZN6icu_4414UnicodeMatcherD2Ev
T _ZN6icu_4415NoopNormalizer216getStaticClassIDEv
T _ZN6icu_4415Normalizer2Impl12isAcceptableEPvPKcS3_PK9UDataInfo
T _ZN6icu_4415Normalizer2Impl4loadEPKcS2_R10UErrorCode
T _ZN6icu_4415Normalizer2Impl7combineEPKti
T _ZN6icu_4415Normalizer2ImplD1Ev
T _ZN6icu_4415Normalizer2ImplD2Ev
T _ZN6icu_4415PropertyAliases4swapEPK12UDataSwapperPKhiPhP10UErrorCode
T _ZN6icu_4415RBBIDataWrapper12addReferenceEv
T _ZN6icu_4415RBBIDataWrapper15removeReferenceEv
T _ZN6icu_4415RBBIDataWrapper4initEPKNS_14RBBIDataHeaderER10UErrorCode
T _ZN6icu_4415RBBIDataWrapper8hashCodeEv
T _ZN6icu_4415RBBIDataWrapperC1EP11UDataMemoryR10UErrorCode
T _ZN6icu_4415RBBIDataWrapperC1EPKNS_14RBBIDataHeaderENS0_10EDontAdoptER10UErrorCode
T _ZN6icu_4415RBBIDataWrapperC1EPKNS_14RBBIDataHeaderER10UErrorCode
T _ZN6icu_4415RBBIDataWrapperC2EP11UDataMemoryR10UErrorCode
T _ZN6icu_4415RBBIDataWrapperC2EPKNS_14RBBIDataHeaderENS0_10EDontAdoptER10UErrorCode
T _ZN6icu_4415RBBIDataWrapperC2EPKNS_14RBBIDataHeaderER10UErrorCode
T _ZN6icu_4415RBBIDataWrapperD1Ev
T _ZN6icu_4415RBBIDataWrapperD2Ev
T _ZN6icu_4415RBBIRuleBuilder11flattenDataEv
T _ZN6icu_4415RBBIRuleBuilder28createRuleBasedBreakIteratorERKNS_13UnicodeStringEP11UParseErrorR10UErrorCode
T _ZN6icu_4415RBBIRuleBuilderC1ERKNS_13UnicodeStringEP11UParseErrorR10UErrorCode
T _ZN6icu_4415RBBIRuleBuilderC2ERKNS_13UnicodeStringEP11UParseErrorR10UErrorCode
T _ZN6icu_4415RBBIRuleBuilderD0Ev
T _ZN6icu_4415RBBIRuleBuilderD1Ev
T _ZN6icu_4415RBBIRuleBuilderD2Ev
T _ZN6icu_4415RBBIRuleScanner10findSetForERKNS_13UnicodeStringEPNS_8RBBINodeEPNS_10UnicodeSetE
T _ZN6icu_4415RBBIRuleScanner10fixOpStackENS_8RBBINode12OpPrecedenceE
T _ZN6icu_4415RBBIRuleScanner10nextCharLLEv
T _ZN6icu_4415RBBIRuleScanner10stripRulesERKNS_13UnicodeStringE
T _ZN6icu_4415RBBIRuleScanner11pushNewNodeENS_8RBBINode8NodeTypeE
T _ZN6icu_4415RBBIRuleScanner14doParseActionsEi
T _ZN6icu_4415RBBIRuleScanner5errorE10UErrorCode
T _ZN6icu_4415RBBIRuleScanner5parseEv
T _ZN6icu_4415RBBIRuleScanner7scanSetEv
T _ZN6icu_4415RBBIRuleScanner8nextCharERNS0_12RBBIRuleCharE
T _ZN6icu_4415RBBIRuleScannerC1EPNS_15RBBIRuleBuilderE
T _ZN6icu_4415RBBIRuleScannerC2EPNS_15RBBIRuleBuilderE
T _ZN6icu_4415RBBIRuleScannerD0Ev
T _ZN6icu_4415RBBIRuleScannerD1Ev
T _ZN6icu_4415RBBIRuleScannerD2Ev
T _ZN6icu_4415RBBISymbolTable8addEntryERKNS_13UnicodeStringEPNS_8RBBINodeER10UErrorCode
T _ZN6icu_4415RBBISymbolTableC1EPNS_15RBBIRuleScannerERKNS_13UnicodeStringER10UErrorCode
T _ZN6icu_4415RBBISymbolTableC2EPNS_15RBBIRuleScannerERKNS_13UnicodeStringER10UErrorCode
T _ZN6icu_4415RBBISymbolTableD0Ev
T _ZN6icu_4415RBBISymbolTableD1Ev
T _ZN6icu_4415RBBISymbolTableD2Ev
T _ZN6icu_4415RangeDescriptor17setDictionaryFlagEv
T _ZN6icu_4415RangeDescriptor5splitEiR10UErrorCode
T _ZN6icu_4415RangeDescriptorC1ER10UErrorCode
T _ZN6icu_4415RangeDescriptorC1ERKS0_R10UErrorCode
T _ZN6icu_4415RangeDescriptorC2ER10UErrorCode
T _ZN6icu_4415RangeDescriptorC2ERKS0_R10UErrorCode
T _ZN6icu_4415RangeDescriptorD1Ev
T _ZN6icu_4415RangeDescriptorD2Ev
T _ZN6icu_4415SimpleSingleton11getInstanceEPFPvPKvR10UErrorCodeES3_RS1_S5_
T _ZN6icu_4415ThaiBreakEngineC1EPKNS_18TrieWordDictionaryER10UErrorCode
T _ZN6icu_4415ThaiBreakEngineC2EPKNS_18TrieWordDictionaryER10UErrorCode
T _ZN6icu_4415ThaiBreakEngineD0Ev
T _ZN6icu_4415ThaiBreakEngineD1Ev
T _ZN6icu_4415ThaiBreakEngineD2Ev
T _ZN6icu_4415UTrie2Singleton11getInstanceEPFPvPKvR10UErrorCodeES3_S5_
T _ZN6icu_4415UnhandledEngine15handleCharacterEii
T _ZN6icu_4415UnhandledEngineC1ER10UErrorCode
T _ZN6icu_4415UnhandledEngineC2ER10UErrorCode
T _ZN6icu_4415UnhandledEngineD0Ev
T _ZN6icu_4415UnhandledEngineD1Ev
T _ZN6icu_4415UnhandledEngineD2Ev
T _ZN6icu_4416FCDTrieSingleton14createInstanceEPKvR10UErrorCode
T _ZN6icu_4416RBBITableBuilder11calcLastPosEPNS_8RBBINodeE
T _ZN6icu_4416RBBITableBuilder11exportTableEPv
T _ZN6icu_4416RBBITableBuilder12calcFirstPosEPNS_8RBBINodeE
T _ZN6icu_4416RBBITableBuilder12calcNullableEPNS_8RBBINodeE
T _ZN6icu_4416RBBITableBuilder13calcFollowPosEPNS_8RBBINodeE
T _ZN6icu_4416RBBITableBuilder15buildStateTableEv
T _ZN6icu_4416RBBITableBuilder16flagTaggedStatesEv
T _ZN6icu_4416RBBITableBuilder19flagAcceptingStatesEv
T _ZN6icu_4416RBBITableBuilder19flagLookAheadStatesEv
T _ZN6icu_4416RBBITableBuilder19mergeRuleStatusValsEv
T _ZN6icu_4416RBBITableBuilder20calcChainedFollowPosEPNS_8RBBINodeE
T _ZN6icu_4416RBBITableBuilder5buildEv
T _ZN6icu_4416RBBITableBuilder6setAddEPNS_7UVectorES2_
T _ZN6icu_4416RBBITableBuilder8bofFixupEv
T _ZN6icu_4416RBBITableBuilder9setEqualsEPNS_7UVectorES2_
T _ZN6icu_4416RBBITableBuilder9sortedAddEPPNS_7UVectorEi
T _ZN6icu_4416RBBITableBuilderC1EPNS_15RBBIRuleBuilderEPPNS_8RBBINodeE
T _ZN6icu_4416RBBITableBuilderC2EPNS_15RBBIRuleBuilderEPPNS_8RBBINodeE
T _ZN6icu_4416RBBITableBuilderD1Ev
T _ZN6icu_4416RBBITableBuilderD2Ev
T _ZN6icu_4416ReorderingBuffer10previousCCEv
T _ZN6icu_4416ReorderingBuffer12appendZeroCCEPKtS2_R10UErrorCode
T _ZN6icu_4416ReorderingBuffer12appendZeroCCEiR10UErrorCode
T _ZN6icu_4416ReorderingBuffer12removeSuffixEi
T _ZN6icu_4416ReorderingBuffer12skipPreviousEv
T _ZN6icu_4416ReorderingBuffer19appendSupplementaryEihR10UErrorCode
T _ZN6icu_4416ReorderingBuffer4initEiR10UErrorCode
T _ZN6icu_4416ReorderingBuffer6appendEPKtihhR10UErrorCode
T _ZN6icu_4416ReorderingBuffer6insertEih
T _ZN6icu_4416ReorderingBuffer6removeEv
T _ZN6icu_4416ReorderingBuffer6resizeEiR10UErrorCode
T _ZN6icu_4417CanonicalIterator11cleanPiecesEv
T _ZN6icu_4417CanonicalIterator14getEquivalentsERKNS_13UnicodeStringERiR10UErrorCode
T _ZN6icu_4417CanonicalIterator15getEquivalents2EPNS_9HashtableEPKtiR10UErrorCode
T _ZN6icu_4417CanonicalIterator16getStaticClassIDEv
T _ZN6icu_4417CanonicalIterator4nextEv
T _ZN6icu_4417CanonicalIterator5resetEv
T _ZN6icu_4417CanonicalIterator7extractEPNS_9HashtableEiPKtiiR10UErrorCode
T _ZN6icu_4417CanonicalIterator7permuteERNS_13UnicodeStringEaPNS_9HashtableER10UErrorCode
T _ZN6icu_4417CanonicalIterator9getSourceEv
T _ZN6icu_4417CanonicalIterator9setSourceERKNS_13UnicodeStringER10UErrorCode
T _ZN6icu_4417CanonicalIteratorC1ERKNS_13UnicodeStringER10UErrorCode
T _ZN6icu_4417CanonicalIteratorC2ERKNS_13UnicodeStringER10UErrorCode
T _ZN6icu_4417CanonicalIteratorD0Ev
T _ZN6icu_4417CanonicalIteratorD1Ev
T _ZN6icu_4417CanonicalIteratorD2Ev
T _ZN6icu_4417CharacterIterator12firstPostIncEv
T _ZN6icu_4417CharacterIterator14first32PostIncEv
T _ZN6icu_4417CharacterIteratorC1ERKS0_
T _ZN6icu_4417CharacterIteratorC1Ei
T _ZN6icu_4417CharacterIteratorC1Eii
T _ZN6icu_4417CharacterIteratorC1Eiiii
T _ZN6icu_4417CharacterIteratorC1Ev
T _ZN6icu_4417CharacterIteratorC2ERKS0_
T _ZN6icu_4417CharacterIteratorC2Ei
T _ZN6icu_4417CharacterIteratorC2Eii
T _ZN6icu_4417CharacterIteratorC2Eiiii
T _ZN6icu_4417CharacterIteratorC2Ev
T _ZN6icu_4417CharacterIteratoraSERKS0_
T _ZN6icu_4417StringEnumeration19ensureCharsCapacityEiR10UErrorCode
T _ZN6icu_4417StringEnumeration4nextEPiR10UErrorCode
T _ZN6icu_4417StringEnumeration5unextEPiR10UErrorCode
T _ZN6icu_4417StringEnumeration8setCharsEPKciR10UErrorCode
T _ZN6icu_4417StringEnumerationC1Ev
T _ZN6icu_4417StringEnumerationC2Ev
T _ZN6icu_4417StringEnumerationD0Ev
T _ZN6icu_4417StringEnumerationD1Ev
T _ZN6icu_4417StringEnumerationD2Ev
T _ZN6icu_4417TriStateSingleton11getInstanceEPFPvPKvR10UErrorCodeES3_RS1_S5_
T _ZN6icu_4417TriStateSingleton5resetEv
R _ZN6icu_4418KeywordEnumeration9fgClassIDE
T _ZN6icu_4418Normalizer2Factory10getFCDTrieER10UErrorCode
T _ZN6icu_4418Normalizer2Factory10getNFCImplER10UErrorCode
T _ZN6icu_4418Normalizer2Factory11getInstanceE18UNormalizationModeR10UErrorCode
T _ZN6icu_4418Normalizer2Factory11getNFKCImplER10UErrorCode
T _ZN6icu_4418Normalizer2Factory14getFCCInstanceER10UErrorCode
T _ZN6icu_4418Normalizer2Factory14getFCDInstanceER10UErrorCode
T _ZN6icu_4418Normalizer2Factory14getNFCInstanceER10UErrorCode
T _ZN6icu_4418Normalizer2Factory14getNFDInstanceER10UErrorCode
T _ZN6icu_4418Normalizer2Factory14getNFKC_CFImplER10UErrorCode
T _ZN6icu_4418Normalizer2Factory15getNFKCInstanceER10UErrorCode
T _ZN6icu_4418Normalizer2Factory15getNFKDInstanceER10UErrorCode
T _ZN6icu_4418Normalizer2Factory15getNoopInstanceER10UErrorCode
T _ZN6icu_4418Normalizer2Factory18getNFKC_CFInstanceER10UErrorCode
T _ZN6icu_4418Normalizer2Factory7getImplEPKNS_11Normalizer2E
T _ZN6icu_4418TrieWordDictionaryC1Ev
T _ZN6icu_4418TrieWordDictionaryC2Ev
T _ZN6icu_4418TrieWordDictionaryD0Ev
T _ZN6icu_4418TrieWordDictionaryD1Ev
T _ZN6icu_4418TrieWordDictionaryD2Ev
T _ZN6icu_4418UStringEnumeration16getStaticClassIDEv
T _ZN6icu_4418UStringEnumeration5resetER10UErrorCode
T _ZN6icu_4418UStringEnumeration5snextER10UErrorCode
T _ZN6icu_4418UStringEnumerationC1EP12UEnumeration
T _ZN6icu_4418UStringEnumerationC2EP12UEnumeration
T _ZN6icu_4418UStringEnumerationD0Ev
T _ZN6icu_4418UStringEnumerationD1Ev
T _ZN6icu_4418UStringEnumerationD2Ev
T _ZN6icu_4418UnicodeSetIterator16getStaticClassIDEv
T _ZN6icu_4418UnicodeSetIterator4nextEv
T _ZN6icu_4418UnicodeSetIterator5resetERKNS_10UnicodeSetE
T _ZN6icu_4418UnicodeSetIterator5resetEv
T _ZN6icu_4418UnicodeSetIterator9getStringEv
T _ZN6icu_4418UnicodeSetIterator9loadRangeEi
T _ZN6icu_4418UnicodeSetIterator9nextRangeEv
T _ZN6icu_4418UnicodeSetIteratorC1ERKNS_10UnicodeSetE
T _ZN6icu_4418UnicodeSetIteratorC1Ev
T _ZN6icu_4418UnicodeSetIteratorC2ERKNS_10UnicodeSetE
T _ZN6icu_4418UnicodeSetIteratorC2Ev
T _ZN6icu_4418UnicodeSetIteratorD0Ev
T _ZN6icu_4418UnicodeSetIteratorD1Ev
T _ZN6icu_4418UnicodeSetIteratorD2Ev
T _ZN6icu_4419FilteredNormalizer216getStaticClassIDEv
T _ZN6icu_4419LanguageBreakEngineC1Ev
T _ZN6icu_4419LanguageBreakEngineC2Ev
T _ZN6icu_4419LanguageBreakEngineD0Ev
T _ZN6icu_4419LanguageBreakEngineD1Ev
T _ZN6icu_4419LanguageBreakEngineD2Ev
T _ZN6icu_4419Normalizer2WithImpl16getStaticClassIDEv
T _ZN6icu_4419RBBIStateDescriptorC1EiP10UErrorCode
T _ZN6icu_4419RBBIStateDescriptorC2EiP10UErrorCode
T _ZN6icu_4419RBBIStateDescriptorD1Ev
T _ZN6icu_4419RBBIStateDescriptorD2Ev
T _ZN6icu_4420CheckedArrayByteSink15GetAppendBufferEiiPciPi
T _ZN6icu_4420CheckedArrayByteSink6AppendEPKci
T _ZN6icu_4420CheckedArrayByteSinkC1EPci
T _ZN6icu_4420CheckedArrayByteSinkC2EPci
T _ZN6icu_4420LanguageBreakFactoryC1Ev
T _ZN6icu_4420LanguageBreakFactoryC2Ev
T _ZN6icu_4420LanguageBreakFactoryD0Ev
T _ZN6icu_4420LanguageBreakFactoryD1Ev
T _ZN6icu_4420LanguageBreakFactoryD2Ev
T _ZN6icu_4420RBBISymbolTableEntryC1Ev
T _ZN6icu_4420RBBISymbolTableEntryC2Ev
T _ZN6icu_4420RBBISymbolTableEntryD1Ev
T _ZN6icu_4420RBBISymbolTableEntryD2Ev
T _ZN6icu_4420UnicodeSetStringSpan15addToSpanNotSetEi
T _ZN6icu_4420UnicodeSetStringSpanC1ERKNS_10UnicodeSetERKNS_7UVectorEj
T _ZN6icu_4420UnicodeSetStringSpanC1ERKS0_RKNS_7UVectorE
T _ZN6icu_4420UnicodeSetStringSpanC2ERKNS_10UnicodeSetERKNS_7UVectorEj
T _ZN6icu_4420UnicodeSetStringSpanC2ERKS0_RKNS_7UVectorE
T _ZN6icu_4420UnicodeSetStringSpanD1Ev
T _ZN6icu_4420UnicodeSetStringSpanD2Ev
T _ZN6icu_4421CompactTrieDictionary28compactMutableTrieDictionaryERKNS_21MutableTrieDictionaryER10UErrorCode
T _ZN6icu_4421CompactTrieDictionaryC1EP11UDataMemoryR10UErrorCode
T _ZN6icu_4421CompactTrieDictionaryC1EPKvR10UErrorCode
T _ZN6icu_4421CompactTrieDictionaryC1ERKNS_21MutableTrieDictionaryER10UErrorCode
T _ZN6icu_4421CompactTrieDictionaryC2EP11UDataMemoryR10UErrorCode
T _ZN6icu_4421CompactTrieDictionaryC2EPKvR10UErrorCode
T _ZN6icu_4421CompactTrieDictionaryC2ERKNS_21MutableTrieDictionaryER10UErrorCode
T _ZN6icu_4421CompactTrieDictionaryD0Ev
T _ZN6icu_4421CompactTrieDictionaryD1Ev
T _ZN6icu_4421CompactTrieDictionaryD2Ev
T _ZN6icu_4421DictionaryBreakEngine13setCharactersERKNS_10UnicodeSetE
T _ZN6icu_4421DictionaryBreakEngineC1Ej
T _ZN6icu_4421DictionaryBreakEngineC2Ej
T _ZN6icu_4421DictionaryBreakEngineD0Ev
T _ZN6icu_4421DictionaryBreakEngineD1Ev
T _ZN6icu_4421DictionaryBreakEngineD2Ev
T _ZN6icu_4421MutableTrieDictionary7addWordEPKtiR10UErrorCode
T _ZN6icu_4421MutableTrieDictionaryC1ER10UErrorCode
T _ZN6icu_4421MutableTrieDictionaryC1EtR10UErrorCode
T _ZN6icu_4421MutableTrieDictionaryC2ER10UErrorCode
T _ZN6icu_4421MutableTrieDictionaryC2EtR10UErrorCode
T _ZN6icu_4421MutableTrieDictionaryD0Ev
T _ZN6icu_4421MutableTrieDictionaryD1Ev
T _ZN6icu_4421MutableTrieDictionaryD2Ev
T _ZN6icu_4421RuleCharacterIterator11skipIgnoredEi
T _ZN6icu_4421RuleCharacterIterator4nextEiRaR10UErrorCode
T _ZN6icu_4421RuleCharacterIterator6setPosERKNS0_3PosE
T _ZN6icu_4421RuleCharacterIterator8_advanceEi
T _ZN6icu_4421RuleCharacterIterator9jumpaheadEi
T _ZN6icu_4421RuleCharacterIteratorC1ERKNS_13UnicodeStringEPKNS_11SymbolTableERNS_13ParsePositionE
T _ZN6icu_4421RuleCharacterIteratorC2ERKNS_13UnicodeStringEPKNS_11SymbolTableERNS_13ParsePositionE
T _ZN6icu_4422CompactTrieEnumeration16getStaticClassIDEv
T _ZN6icu_4422CompactTrieEnumeration5snextER10UErrorCode
T _ZN6icu_4422MutableTrieEnumeration16getStaticClassIDEv
T _ZN6icu_4422RuleBasedBreakIterator10handleNextEPKNS_14RBBIStateTableE
T _ZN6icu_4422RuleBasedBreakIterator10isBoundaryEi
T _ZN6icu_4422RuleBasedBreakIterator12setBreakTypeEi
T _ZN6icu_4422RuleBasedBreakIterator14getBinaryRulesERj
T _ZN6icu_4422RuleBasedBreakIterator14handlePreviousEPKNS_14RBBIStateTableE
T _ZN6icu_4422RuleBasedBreakIterator15checkDictionaryEiia
T _ZN6icu_4422RuleBasedBreakIterator16getRuleStatusVecEPiiR10UErrorCode
T _ZN6icu_4422RuleBasedBreakIterator16getStaticClassIDEv
T _ZN6icu_4422RuleBasedBreakIterator17createBufferCloneEPvRiR10UErrorCode
T _ZN6icu_4422RuleBasedBreakIterator19makeRuleStatusValidEv
T _ZN6icu_4422RuleBasedBreakIterator22getLanguageBreakEngineEi
T _ZN6icu_4422RuleBasedBreakIterator4initEv
T _ZN6icu_4422RuleBasedBreakIterator4lastEv
T _ZN6icu_4422RuleBasedBreakIterator4nextEi
T _ZN6icu_4422RuleBasedBreakIterator4nextEv
T _ZN6icu_4422RuleBasedBreakIterator5firstEv
T _ZN6icu_4422RuleBasedBreakIterator5resetEv
T _ZN6icu_4422RuleBasedBreakIterator7setTextEP5UTextR10UErrorCode
T _ZN6icu_4422RuleBasedBreakIterator7setTextERKNS_13UnicodeStringE
T _ZN6icu_4422RuleBasedBreakIterator8previousEv
T _ZN6icu_4422RuleBasedBreakIterator9adoptTextEPNS_17CharacterIteratorE
T _ZN6icu_4422RuleBasedBreakIterator9followingEi
T _ZN6icu_4422RuleBasedBreakIterator9precedingEi
T _ZN6icu_4422RuleBasedBreakIteratorC1EP11UDataMemoryR10UErrorCode
T _ZN6icu_4422RuleBasedBreakIteratorC1EPKNS_14RBBIDataHeaderENS0_10EDontAdoptER10UErrorCode
T _ZN6icu_4422RuleBasedBreakIteratorC1EPNS_14RBBIDataHeaderER10UErrorCode
T _ZN6icu_4422RuleBasedBreakIteratorC1ERKNS_13UnicodeStringER11UParseErrorR10UErrorCode
T _ZN6icu_4422RuleBasedBreakIteratorC1ERKS0_
T _ZN6icu_4422RuleBasedBreakIteratorC1Ev
T _ZN6icu_4422RuleBasedBreakIteratorC2EP11UDataMemoryR10UErrorCode
T _ZN6icu_4422RuleBasedBreakIteratorC2EPKNS_14RBBIDataHeaderENS0_10EDontAdoptER10UErrorCode
T _ZN6icu_4422RuleBasedBreakIteratorC2EPNS_14RBBIDataHeaderER10UErrorCode
T _ZN6icu_4422RuleBasedBreakIteratorC2ERKNS_13UnicodeStringER11UParseErrorR10UErrorCode
T _ZN6icu_4422RuleBasedBreakIteratorC2ERKS0_
T _ZN6icu_4422RuleBasedBreakIteratorC2Ev
T _ZN6icu_4422RuleBasedBreakIteratorD0Ev
T _ZN6icu_4422RuleBasedBreakIteratorD1Ev
T _ZN6icu_4422RuleBasedBreakIteratorD2Ev
T _ZN6icu_4422RuleBasedBreakIteratoraSERKS0_
T _ZN6icu_4422UCharCharacterIterator10previous32Ev
T _ZN6icu_4422UCharCharacterIterator10setIndex32Ei
T _ZN6icu_4422UCharCharacterIterator11hasPreviousEv
T _ZN6icu_4422UCharCharacterIterator11nextPostIncEv
T _ZN6icu_4422UCharCharacterIterator12firstPostIncEv
T _ZN6icu_4422UCharCharacterIterator13next32PostIncEv
T _ZN6icu_4422UCharCharacterIterator14first32PostIncEv
T _ZN6icu_4422UCharCharacterIterator16getStaticClassIDEv
T _ZN6icu_4422UCharCharacterIterator4lastEv
T _ZN6icu_4422UCharCharacterIterator4moveEiNS_17CharacterIterator7EOriginE
T _ZN6icu_4422UCharCharacterIterator4nextEv
T _ZN6icu_4422UCharCharacterIterator5firstEv
T _ZN6icu_4422UCharCharacterIterator6last32Ev
T _ZN6icu_4422UCharCharacterIterator6move32EiNS_17CharacterIterator7EOriginE
T _ZN6icu_4422UCharCharacterIterator6next32Ev
T _ZN6icu_4422UCharCharacterIterator7first32Ev
T _ZN6icu_4422UCharCharacterIterator7getTextERNS_13UnicodeStringE
T _ZN6icu_4422UCharCharacterIterator7hasNextEv
T _ZN6icu_4422UCharCharacterIterator7setTextEPKti
T _ZN6icu_4422UCharCharacterIterator8previousEv
T _ZN6icu_4422UCharCharacterIterator8setIndexEi
T _ZN6icu_4422UCharCharacterIteratorC1EPKti
T _ZN6icu_4422UCharCharacterIteratorC1EPKtii
T _ZN6icu_4422UCharCharacterIteratorC1EPKtiiii
T _ZN6icu_4422UCharCharacterIteratorC1ERKS0_
T _ZN6icu_4422UCharCharacterIteratorC1Ev
T _ZN6icu_4422UCharCharacterIteratorC2EPKti
T _ZN6icu_4422UCharCharacterIteratorC2EPKtii
T _ZN6icu_4422UCharCharacterIteratorC2EPKtiiii
T _ZN6icu_4422UCharCharacterIteratorC2ERKS0_
T _ZN6icu_4422UCharCharacterIteratorC2Ev
T _ZN6icu_4422UCharCharacterIteratorD0Ev
T _ZN6icu_4422UCharCharacterIteratorD1Ev
T _ZN6icu_4422UCharCharacterIteratorD2Ev
T _ZN6icu_4422UCharCharacterIteratoraSERKS0_
T _ZN6icu_4423ICULanguageBreakFactory12getEngineForEii
T _ZN6icu_4423ICULanguageBreakFactory13loadEngineForEii
T _ZN6icu_4423ICULanguageBreakFactory17loadDictionaryForE11UScriptCodei
T _ZN6icu_4423ICULanguageBreakFactoryC1ER10UErrorCode
T _ZN6icu_4423ICULanguageBreakFactoryC2ER10UErrorCode
T _ZN6icu_4423ICULanguageBreakFactoryD0Ev
T _ZN6icu_4423ICULanguageBreakFactoryD1Ev
T _ZN6icu_4423ICULanguageBreakFactoryD2Ev
T _ZN6icu_4423StringCharacterIterator16getStaticClassIDEv
T _ZN6icu_4423StringCharacterIterator7getTextERNS_13UnicodeStringE
T _ZN6icu_4423StringCharacterIterator7setTextERKNS_13UnicodeStringE
T _ZN6icu_4423StringCharacterIteratorC1ERKNS_13UnicodeStringE
T _ZN6icu_4423StringCharacterIteratorC1ERKNS_13UnicodeStringEi
T _ZN6icu_4423StringCharacterIteratorC1ERKNS_13UnicodeStringEiii
T _ZN6icu_4423StringCharacterIteratorC1ERKS0_
T _ZN6icu_4423StringCharacterIteratorC1Ev
T _ZN6icu_4423StringCharacterIteratorC2ERKNS_13UnicodeStringE
T _ZN6icu_4423StringCharacterIteratorC2ERKNS_13UnicodeStringEi
T _ZN6icu_4423StringCharacterIteratorC2ERKNS_13UnicodeStringEiii
T _ZN6icu_4423StringCharacterIteratorC2ERKS0_
T _ZN6icu_4423StringCharacterIteratorC2Ev
T _ZN6icu_4423StringCharacterIteratorD0Ev
T _ZN6icu_4423StringCharacterIteratorD1Ev
T _ZN6icu_4423StringCharacterIteratorD2Ev
T _ZN6icu_4423StringCharacterIteratoraSERKS0_
T _ZN6icu_4424ForwardCharacterIteratorC1ERKS0_
T _ZN6icu_4424ForwardCharacterIteratorC1Ev
T _ZN6icu_4424ForwardCharacterIteratorC2ERKS0_
T _ZN6icu_4424ForwardCharacterIteratorC2Ev
T _ZN6icu_4424ForwardCharacterIteratorD0Ev
T _ZN6icu_4424ForwardCharacterIteratorD1Ev
T _ZN6icu_4424ForwardCharacterIteratorD2Ev
T _ZN6icu_4425NonContiguousEnumToOffset4swapEPK12UDataSwapperPKhiPhS6_iP10UErrorCode
T _ZN6icu_4427ForwardUTrie2StringIterator6next16Ev
T _ZN6icu_4427locale_set_default_internalEPKc
T _ZN6icu_4428BackwardUTrie2StringIterator10previous16Ev
T _ZN6icu_446BMPSet15overrideIllegalEv
T _ZN6icu_446BMPSet8initBitsEv
T _ZN6icu_446BMPSetC1EPKii
T _ZN6icu_446BMPSetC1ERKS0_PKii
T _ZN6icu_446BMPSetC2EPKii
T _ZN6icu_446BMPSetC2ERKS0_PKii
T _ZN6icu_446BMPSetD0Ev
T _ZN6icu_446BMPSetD1Ev
T _ZN6icu_446BMPSetD2Ev
T _ZN6icu_446Locale10getChineseEv
T _ZN6icu_446Locale10getDefaultEv
T _ZN6icu_446Locale10getEnglishEv
T _ZN6icu_446Locale10getGermanyEv
T _ZN6icu_446Locale10getItalianEv
T _ZN6icu_446Locale10setDefaultERKS0_R10UErrorCode
T _ZN6icu_446Locale10setToBogusEv
T _ZN6icu_446Locale11getJapaneseEv
T _ZN6icu_446Locale14createFromNameEPKc
T _ZN6icu_446Locale14getLocaleCacheEv
T _ZN6icu_446Locale14setFromPOSIXIDEPKc
T _ZN6icu_446Locale15createCanonicalEPKc
T _ZN6icu_446Locale15getCanadaFrenchEv
T _ZN6icu_446Locale15getISOCountriesEv
T _ZN6icu_446Locale15getISOLanguagesEv
T _ZN6icu_446Locale15setKeywordValueEPKcS2_R10UErrorCode
T _ZN6icu_446Locale16getStaticClassIDEv
T _ZN6icu_446Locale19getAvailableLocalesERi
T _ZN6icu_446Locale20getSimplifiedChineseEv
T _ZN6icu_446Locale21getTraditionalChineseEv
T _ZN6icu_446Locale4initEPKca
T _ZN6icu_446Locale5getUKEv
T _ZN6icu_446Locale5getUSEv
T _ZN6icu_446Locale6getPRCEv
T _ZN6icu_446Locale7getRootEv
T _ZN6icu_446Locale8getChinaEv
T _ZN6icu_446Locale8getItalyEv
T _ZN6icu_446Locale8getJapanEv
T _ZN6icu_446Locale8getKoreaEv
T _ZN6icu_446Locale9getCanadaEv
T _ZN6icu_446Locale9getFranceEv
T _ZN6icu_446Locale9getFrenchEv
T _ZN6icu_446Locale9getGermanEv
T _ZN6icu_446Locale9getKoreanEv
T _ZN6icu_446Locale9getLocaleEi
T _ZN6icu_446Locale9getTaiwanEv
T _ZN6icu_446LocaleC1ENS0_11ELocaleTypeE
T _ZN6icu_446LocaleC1EPKcS2_S2_S2_
T _ZN6icu_446LocaleC1ERKS0_
T _ZN6icu_446LocaleC1Ev
T _ZN6icu_446LocaleC2ENS0_11ELocaleTypeE
T _ZN6icu_446LocaleC2EPKcS2_S2_S2_
T _ZN6icu_446LocaleC2ERKS0_
T _ZN6icu_446LocaleC2Ev
T _ZN6icu_446LocaleD0Ev
T _ZN6icu_446LocaleD1Ev
T _ZN6icu_446LocaleD2Ev
T _ZN6icu_446LocaleaSERKS0_
T _ZN6icu_446UStack16getStaticClassIDEv
T _ZN6icu_446UStack3popEv
T _ZN6icu_446UStack4popiEv
T _ZN6icu_446UStackC1EPFvPvEPFa8UHashTokS4_ER10UErrorCode
T _ZN6icu_446UStackC1EPFvPvEPFa8UHashTokS4_EiR10UErrorCode
T _ZN6icu_446UStackC1ER10UErrorCode
T _ZN6icu_446UStackC1EiR10UErrorCode
T _ZN6icu_446UStackC2EPFvPvEPFa8UHashTokS4_ER10UErrorCode
T _ZN6icu_446UStackC2EPFvPvEPFa8UHashTokS4_EiR10UErrorCode
T _ZN6icu_446UStackC2ER10UErrorCode
T _ZN6icu_446UStackC2EiR10UErrorCode
T _ZN6icu_446UStackD0Ev
T _ZN6icu_446UStackD1Ev
T _ZN6icu_446UStackD2Ev
T _ZN6icu_447UMemorydaEPv
T _ZN6icu_447UMemorydlEPv
T _ZN6icu_447UMemorynaEj
T _ZN6icu_447UMemorynwEj
T _ZN6icu_447UObjectD0Ev
T _ZN6icu_447UObjectD1Ev
T _ZN6icu_447UObjectD2Ev
T _ZN6icu_447UVector10addElementEPvR10UErrorCode
T _ZN6icu_447UVector10addElementEiR10UErrorCode
T _ZN6icu_447UVector10setDeleterEPFvPvE
T _ZN6icu_447UVector11setComparerEPFa8UHashTokS1_E
T _ZN6icu_447UVector12setElementAtEPvi
T _ZN6icu_447UVector12setElementAtEii
T _ZN6icu_447UVector12sortedInsertE8UHashTokPFaS1_S1_ER10UErrorCode
T _ZN6icu_447UVector12sortedInsertEPvPFa8UHashTokS2_ER10UErrorCode
T _ZN6icu_447UVector12sortedInsertEiPFa8UHashTokS1_ER10UErrorCode
T _ZN6icu_447UVector13removeElementEPv
T _ZN6icu_447UVector14ensureCapacityEiR10UErrorCode
T _ZN6icu_447UVector15insertElementAtEPviR10UErrorCode
T _ZN6icu_447UVector15insertElementAtEiiR10UErrorCode
T _ZN6icu_447UVector15orphanElementAtEi
T _ZN6icu_447UVector15removeElementAtEi
T _ZN6icu_447UVector16getStaticClassIDEv
T _ZN6icu_447UVector17removeAllElementsEv
T _ZN6icu_447UVector4sortEPFa8UHashTokS1_ER10UErrorCode
T _ZN6icu_447UVector5_initEiR10UErrorCode
T _ZN6icu_447UVector5sortiER10UErrorCode
T _ZN6icu_447UVector6assignERKS0_PFvP8UHashTokS4_ER10UErrorCode
T _ZN6icu_447UVector7setSizeEiR10UErrorCode
T _ZN6icu_447UVector9removeAllERKS0_
T _ZN6icu_447UVector9retainAllERKS0_
T _ZN6icu_447UVectorC1EPFvPvEPFa8UHashTokS4_ER10UErrorCode
T _ZN6icu_447UVectorC1EPFvPvEPFa8UHashTokS4_EiR10UErrorCode
T _ZN6icu_447UVectorC1ER10UErrorCode
T _ZN6icu_447UVectorC1EiR10UErrorCode
T _ZN6icu_447UVectorC2EPFvPvEPFa8UHashTokS4_ER10UErrorCode
T _ZN6icu_447UVectorC2EPFvPvEPFa8UHashTokS4_EiR10UErrorCode
T _ZN6icu_447UVectorC2ER10UErrorCode
T _ZN6icu_447UVectorC2EiR10UErrorCode
T _ZN6icu_447UVectorD0Ev
T _ZN6icu_447UVectorD1Ev
T _ZN6icu_447UVectorD2Ev
T _ZN6icu_447UVectoreqERKS0_
T _ZN6icu_448ByteSink15GetAppendBufferEiiPciPi
T _ZN6icu_448ByteSink5FlushEv
T _ZN6icu_448RBBINode11flattenSetsEv
T _ZN6icu_448RBBINode16flattenVariablesEv
T _ZN6icu_448RBBINode9cloneTreeEv
T _ZN6icu_448RBBINode9findNodesEPNS_7UVectorENS0_8NodeTypeER10UErrorCode
T _ZN6icu_448RBBINodeC1ENS0_8NodeTypeE
T _ZN6icu_448RBBINodeC1ERKS0_
T _ZN6icu_448RBBINodeC2ENS0_8NodeTypeE
T _ZN6icu_448RBBINodeC2ERKS0_
T _ZN6icu_448RBBINodeD1Ev
T _ZN6icu_448RBBINodeD2Ev
T _ZN6icu_449ErrorCode5resetEv
W _ZN6icu_449Hashtable3putERKNS_13UnicodeStringEPvR10UErrorCode
T _ZN6icu_449UVector3212setElementAtEii
T _ZN6icu_449UVector3212sortedInsertEiR10UErrorCode
T _ZN6icu_449UVector3214expandCapacityEiR10UErrorCode
T _ZN6icu_449UVector3214setMaxCapacityEi
T _ZN6icu_449UVector3215insertElementAtEiiR10UErrorCode
T _ZN6icu_449UVector3215removeElementAtEi
T _ZN6icu_449UVector3216getStaticClassIDEv
T _ZN6icu_449UVector3217removeAllElementsEv
W _ZN6icu_449UVector324pushEiR10UErrorCode
T _ZN6icu_449UVector325_initEiR10UErrorCode
T _ZN6icu_449UVector326assignERKS0_R10UErrorCode
T _ZN6icu_449UVector327setSizeEi
T _ZN6icu_449UVector329removeAllERKS0_
T _ZN6icu_449UVector329retainAllERKS0_
T _ZN6icu_449UVector32C1ER10UErrorCode
T _ZN6icu_449UVector32C1EiR10UErrorCode
T _ZN6icu_449UVector32C2ER10UErrorCode
T _ZN6icu_449UVector32C2EiR10UErrorCode
T _ZN6icu_449UVector32D0Ev
T _ZN6icu_449UVector32D1Ev
T _ZN6icu_449UVector32D2Ev
T _ZN6icu_449UVector32eqERKS0_
T _ZN6icu_449UVector6412setElementAtExi
T _ZN6icu_449UVector6414expandCapacityEiR10UErrorCode
T _ZN6icu_449UVector6414setMaxCapacityEi
T _ZN6icu_449UVector6415insertElementAtExiR10UErrorCode
T _ZN6icu_449UVector6416getStaticClassIDEv
T _ZN6icu_449UVector6417removeAllElementsEv
T _ZN6icu_449UVector645_initEiR10UErrorCode
T _ZN6icu_449UVector646assignERKS0_R10UErrorCode
T _ZN6icu_449UVector647setSizeEi
T _ZN6icu_449UVector64C1ER10UErrorCode
T _ZN6icu_449UVector64C1EiR10UErrorCode
T _ZN6icu_449UVector64C2ER10UErrorCode
T _ZN6icu_449UVector64C2EiR10UErrorCode
T _ZN6icu_449UVector64D0Ev
T _ZN6icu_449UVector64D1Ev
T _ZN6icu_449UVector64D2Ev
T _ZN6icu_449UVector64eqERKS0_
T _ZN6icu_44eqERKNS_11StringPieceES2_
T _ZN6icu_44plERKNS_13UnicodeStringES2_
T _ZNK6icu_4410Normalizer10startIndexEv
T _ZNK6icu_4410Normalizer17getDynamicClassIDEv
T _ZNK6icu_4410Normalizer5cloneEv
T _ZNK6icu_4410Normalizer8endIndexEv
T _ZNK6icu_4410Normalizer8getIndexEv
T _ZNK6icu_4410Normalizer8getUModeEv
T _ZNK6icu_4410Normalizer8hashCodeEv
T _ZNK6icu_4410Normalizer9getOptionEi
T _ZNK6icu_4410NormalizereqERKS0_
T _ZNK6icu_4410UnicodeSet10_toPatternERNS_13UnicodeStringEa
T _ZNK6icu_4410UnicodeSet11containsAllERKNS_13UnicodeStringE
T _ZNK6icu_4410UnicodeSet11containsAllERKS0_
T _ZNK6icu_4410UnicodeSet11getRangeEndEi
T _ZNK6icu_4410UnicodeSet12containsNoneERKNS_13UnicodeStringE
T _ZNK6icu_4410UnicodeSet12containsNoneERKS0_
T _ZNK6icu_4410UnicodeSet12containsNoneEii
T _ZNK6icu_4410UnicodeSet12spanBackUTF8EPKci17USetSpanCondition
T _ZNK6icu_4410UnicodeSet13addMatchSetToERS0_
T _ZNK6icu_4410UnicodeSet13cloneAsThawedEv
T _ZNK6icu_4410UnicodeSet13findCodePointEi
T _ZNK6icu_4410UnicodeSet13getRangeCountEv
T _ZNK6icu_4410UnicodeSet13getRangeStartEi
T _ZNK6icu_4410UnicodeSet14getStringCountEv
T _ZNK6icu_4410UnicodeSet16_generatePatternERNS_13UnicodeStringEa
T _ZNK6icu_4410UnicodeSet17getDynamicClassIDEv
T _ZNK6icu_4410UnicodeSet17matchesIndexValueEh
T _ZNK6icu_4410UnicodeSet4sizeEv
T _ZNK6icu_4410UnicodeSet4spanEPKti17USetSpanCondition
T _ZNK6icu_4410UnicodeSet5cloneEv
T _ZNK6icu_4410UnicodeSet6charAtEi
T _ZNK6icu_4410UnicodeSet7indexOfEi
T _ZNK6icu_4410UnicodeSet7isEmptyEv
T _ZNK6icu_4410UnicodeSet8containsERKNS_13UnicodeStringE
T _ZNK6icu_4410UnicodeSet8containsEi
T _ZNK6icu_4410UnicodeSet8containsEii
T _ZNK6icu_4410UnicodeSet8hashCodeEv
T _ZNK6icu_4410UnicodeSet8spanBackEPKti17USetSpanCondition
T _ZNK6icu_4410UnicodeSet8spanUTF8EPKci17USetSpanCondition
T _ZNK6icu_4410UnicodeSet9getStringEi
T _ZNK6icu_4410UnicodeSet9serializeEPtiR10UErrorCode
T _ZNK6icu_4410UnicodeSet9toPatternERNS_13UnicodeStringEa
T _ZNK6icu_4410UnicodeSeteqERKS0_
T _ZNK6icu_4411LocaleBased11getLocaleIDE18ULocDataLocaleTypeR10UErrorCode
T _ZNK6icu_4411LocaleBased9getLocaleE18ULocDataLocaleTypeR10UErrorCode
T _ZNK6icu_4411Replaceable11hasMetaDataEv
T _ZNK6icu_4411Replaceable5cloneEv
T _ZNK6icu_4412DateInterval17getDynamicClassIDEv
T _ZNK6icu_4412DateInterval5cloneEv
T _ZNK6icu_4412DateIntervaleqERKS0_
T _ZNK6icu_4413BreakIterator11getLocaleIDE18ULocDataLocaleTypeR10UErrorCode
T _ZNK6icu_4413BreakIterator9getLocaleE18ULocDataLocaleTypeR10UErrorCode
T _ZNK6icu_4413ParsePosition17getDynamicClassIDEv
T _ZNK6icu_4413ParsePosition5cloneEv
T _ZNK6icu_4413UnicodeFilter9toMatcherEv
T _ZNK6icu_4413UnicodeString10doHashCodeEv
T _ZNK6icu_4413UnicodeString10unescapeAtERi
T _ZNK6icu_4413UnicodeString11countChar32Eii
T _ZNK6icu_4413UnicodeString11getChar32AtEi
T _ZNK6icu_4413UnicodeString11hasMetaDataEv
T _ZNK6icu_4413UnicodeString11lastIndexOfEPKtiiii
T _ZNK6icu_4413UnicodeString11moveIndex32Eii
T _ZNK6icu_4413UnicodeString13doCaseCompareEiiPKtiij
T _ZNK6icu_4413UnicodeString13doLastIndexOfEiii
T _ZNK6icu_4413UnicodeString13doLastIndexOfEtii
T _ZNK6icu_4413UnicodeString13tempSubStringEii
T _ZNK6icu_4413UnicodeString14extractBetweenEiiRS0_
T _ZNK6icu_4413UnicodeString17getDynamicClassIDEv
T _ZNK6icu_4413UnicodeString17hasMoreChar32ThanEiii
T _ZNK6icu_4413UnicodeString23doCompareCodePointOrderEiiPKtii
T _ZNK6icu_4413UnicodeString5cloneEv
T _ZNK6icu_4413UnicodeString6toUTF8ERNS_8ByteSinkE
T _ZNK6icu_4413UnicodeString6toUTF8EiiPci
T _ZNK6icu_4413UnicodeString7extractEPciP10UConverterR10UErrorCode
T _ZNK6icu_4413UnicodeString7extractEPtiR10UErrorCode
T _ZNK6icu_4413UnicodeString7extractEiiPciNS0_10EInvariantE
T _ZNK6icu_4413UnicodeString7extractEiiPcj
T _ZNK6icu_4413UnicodeString7extractEiiPcjPKc
T _ZNK6icu_4413UnicodeString7indexOfEPKtiiii
T _ZNK6icu_4413UnicodeString7toUTF32EPiiR10UErrorCode
T _ZNK6icu_4413UnicodeString8refCountEv
T _ZNK6icu_4413UnicodeString8unescapeEv
T _ZNK6icu_4413UnicodeString9doCompareEiiPKtii
T _ZNK6icu_4413UnicodeString9doExtractEiiPciP10UConverterR10UErrorCode
T _ZNK6icu_4413UnicodeString9doExtractEiiPti
T _ZNK6icu_4413UnicodeString9doIndexOfEiii
T _ZNK6icu_4413UnicodeString9doIndexOfEtii
T _ZNK6icu_4413UnicodeString9getCharAtEi
T _ZNK6icu_4413UnicodeString9getLengthEv
T _ZNK6icu_4414RBBISetBuilder12getFirstCharEi
T _ZNK6icu_4414RBBISetBuilder20getNumCharCategoriesEv
T _ZNK6icu_4414RBBISetBuilder6sawBOFEv
T _ZNK6icu_4414ResourceBundle10getVersionEPh
T _ZNK6icu_4414ResourceBundle11getStringExEPKcR10UErrorCode
T _ZNK6icu_4414ResourceBundle11getStringExEiR10UErrorCode
T _ZNK6icu_4414ResourceBundle12getIntVectorERiR10UErrorCode
T _ZNK6icu_4414ResourceBundle16getVersionNumberEv
T _ZNK6icu_4414ResourceBundle17getDynamicClassIDEv
T _ZNK6icu_4414ResourceBundle3getEPKcR10UErrorCode
T _ZNK6icu_4414ResourceBundle3getEiR10UErrorCode
T _ZNK6icu_4414ResourceBundle5cloneEv
T _ZNK6icu_4414ResourceBundle6getIntER10UErrorCode
T _ZNK6icu_4414ResourceBundle6getKeyEv
T _ZNK6icu_4414ResourceBundle7getNameEv
T _ZNK6icu_4414ResourceBundle7getSizeEv
T _ZNK6icu_4414ResourceBundle7getTypeEv
T _ZNK6icu_4414ResourceBundle7getUIntER10UErrorCode
T _ZNK6icu_4414ResourceBundle7hasNextEv
T _ZNK6icu_4414ResourceBundle9getBinaryERiR10UErrorCode
T _ZNK6icu_4414ResourceBundle9getLocaleE18ULocDataLocaleTypeR10UErrorCode
T _ZNK6icu_4414ResourceBundle9getLocaleEv
T _ZNK6icu_4414ResourceBundle9getStringER10UErrorCode
T _ZNK6icu_4414UnicodeFunctor10toReplacerEv
T _ZNK6icu_4414UnicodeFunctor9toMatcherEv
T _ZNK6icu_4415NoopNormalizer217getDynamicClassIDEv
T _ZNK6icu_4415Normalizer2Impl10getFCDTrieER10UErrorCode
T _ZNK6icu_4415Normalizer2Impl14decomposeShortEPKtS2_RNS_16ReorderingBufferER10UErrorCode
T _ZNK6icu_4415Normalizer2Impl16composeAndAppendEPKtS2_aaRNS_16ReorderingBufferER10UErrorCode
T _ZNK6icu_4415Normalizer2Impl16getDecompositionEiPtRi
T _ZNK6icu_4415Normalizer2Impl16makeFCDAndAppendEPKtS2_aRNS_16ReorderingBufferER10UErrorCode
T _ZNK6icu_4415Normalizer2Impl17addPropertyStartsEPK9USetAdderR10UErrorCode
T _ZNK6icu_4415Normalizer2Impl17composeQuickCheckEPKtS2_aP25UNormalizationCheckResult
T _ZNK6icu_4415Normalizer2Impl17hasDecompBoundaryEia
T _ZNK6icu_4415Normalizer2Impl18decomposeAndAppendEPKtS2_aRNS_16ReorderingBufferER10UErrorCode
T _ZNK6icu_4415Normalizer2Impl18setFCD16FromNorm16EiitP6UTrie2R10UErrorCode
T _ZNK6icu_4415Normalizer2Impl19findNextFCDBoundaryEPKtS2_
T _ZNK6icu_4415Normalizer2Impl20findNextCompBoundaryEPKtS2_
T _ZNK6icu_4415Normalizer2Impl20hasCompBoundaryAfterEiaa
T _ZNK6icu_4415Normalizer2Impl21hasCompBoundaryBeforeEit
T _ZNK6icu_4415Normalizer2Impl23findPreviousFCDBoundaryEPKtS2_
T _ZNK6icu_4415Normalizer2Impl24findPreviousCompBoundaryEPKtS2_
T _ZNK6icu_4415Normalizer2Impl30copyLowPrefixFromNulTerminatedEPKtiPNS_16ReorderingBufferER10UErrorCode
T _ZNK6icu_4415Normalizer2Impl30getTrailCCFromCompYesAndZeroCCEPKtS2_
T _ZNK6icu_4415Normalizer2Impl7composeEPKtS2_aaRNS_16ReorderingBufferER10UErrorCode
T _ZNK6icu_4415Normalizer2Impl7makeFCDEPKtS2_PNS_16ReorderingBufferER10UErrorCode
T _ZNK6icu_4415Normalizer2Impl9decomposeEPKtS2_PNS_16ReorderingBufferER10UErrorCode
T _ZNK6icu_4415Normalizer2Impl9decomposeEitRNS_16ReorderingBufferER10UErrorCode
T _ZNK6icu_4415Normalizer2Impl9recomposeERNS_16ReorderingBufferEia
T _ZNK6icu_4415PropertyAliases11getValueMapEi
T _ZNK6icu_4415PropertyAliases17chooseNameInGroupEs19UPropertyNameChoice
T _ZNK6icu_4415RBBIDataWrapper19getRuleSourceStringEv
T _ZNK6icu_4415RBBIDataWrappereqERKS0_
T _ZNK6icu_4415RBBISymbolTable10lookupNodeERKNS_13UnicodeStringE
T _ZNK6icu_4415RBBISymbolTable13lookupMatcherEi
T _ZNK6icu_4415RBBISymbolTable14parseReferenceERKNS_13UnicodeStringERNS_13ParsePositionEi
T _ZNK6icu_4415RBBISymbolTable6lookupERKNS_13UnicodeStringE
T _ZNK6icu_4415ThaiBreakEngine23divideUpDictionaryRangeEP5UTextiiRNS_6UStackE
T _ZNK6icu_4415UnhandledEngine10findBreaksEP5UTextiiaiRNS_6UStackE
T _ZNK6icu_4415UnhandledEngine7handlesEii
T _ZNK6icu_4416RBBITableBuilder12getTableSizeEv
T _ZNK6icu_4416ReorderingBuffer6equalsEPKtS2_
T _ZNK6icu_4417CanonicalIterator17getDynamicClassIDEv
T _ZNK6icu_4417StringEnumeration5cloneEv
T _ZNK6icu_4417StringEnumerationeqERKS0_
T _ZNK6icu_4417StringEnumerationneERKS0_
T _ZNK6icu_4418UStringEnumeration17getDynamicClassIDEv
T _ZNK6icu_4418UStringEnumeration5countER10UErrorCode
T _ZNK6icu_4418UnicodeSetIterator17getDynamicClassIDEv
T _ZNK6icu_4419FilteredNormalizer210quickCheckERKNS_13UnicodeStringER10UErrorCode
T _ZNK6icu_4419FilteredNormalizer212isNormalizedERKNS_13UnicodeStringER10UErrorCode
T _ZNK6icu_4419FilteredNormalizer216hasBoundaryAfterEi
T _ZNK6icu_4419FilteredNormalizer217getDynamicClassIDEv
T _ZNK6icu_4419FilteredNormalizer217hasBoundaryBeforeEi
T _ZNK6icu_4419FilteredNormalizer217spanQuickCheckYesERKNS_13UnicodeStringER10UErrorCode
T _ZNK6icu_4419FilteredNormalizer224normalizeSecondAndAppendERNS_13UnicodeStringERKS1_R10UErrorCode
T _ZNK6icu_4419FilteredNormalizer224normalizeSecondAndAppendERNS_13UnicodeStringERKS1_aR10UErrorCode
T _ZNK6icu_4419FilteredNormalizer26appendERNS_13UnicodeStringERKS1_R10UErrorCode
T _ZNK6icu_4419FilteredNormalizer27isInertEi
T _ZNK6icu_4419FilteredNormalizer29normalizeERKNS_13UnicodeStringERS1_17USetSpanConditionR10UErrorCode
T _ZNK6icu_4419FilteredNormalizer29normalizeERKNS_13UnicodeStringERS1_R10UErrorCode
T _ZNK6icu_4419Normalizer2WithImpl17getDynamicClassIDEv
T _ZNK6icu_4420UnicodeSetStringSpan11spanNotBackEPKti
T _ZNK6icu_4420UnicodeSetStringSpan11spanNotUTF8EPKhi
T _ZNK6icu_4420UnicodeSetStringSpan12spanBackUTF8EPKhi17USetSpanCondition
T _ZNK6icu_4420UnicodeSetStringSpan15spanNotBackUTF8EPKhi
T _ZNK6icu_4420UnicodeSetStringSpan4spanEPKti17USetSpanCondition
T _ZNK6icu_4420UnicodeSetStringSpan7spanNotEPKti
T _ZNK6icu_4420UnicodeSetStringSpan8spanBackEPKti17USetSpanCondition
T _ZNK6icu_4420UnicodeSetStringSpan8spanUTF8EPKhi17USetSpanCondition
T _ZNK6icu_4421CompactTrieDictionary12cloneMutableER10UErrorCode
T _ZNK6icu_4421CompactTrieDictionary4dataEv
T _ZNK6icu_4421CompactTrieDictionary7matchesEP5UTextiPiRii
T _ZNK6icu_4421CompactTrieDictionary8dataSizeEv
T _ZNK6icu_4421CompactTrieDictionary9openWordsER10UErrorCode
T _ZNK6icu_4421DictionaryBreakEngine10findBreaksEP5UTextiiaiRNS_6UStackE
T _ZNK6icu_4421DictionaryBreakEngine7handlesEii
T _ZNK6icu_4421MutableTrieDictionary6searchEP5UTextiPiRiiRPNS_11TernaryNodeERa
T _ZNK6icu_4421MutableTrieDictionary7matchesEP5UTextiPiRii
T _ZNK6icu_4421MutableTrieDictionary9openWordsER10UErrorCode
T _ZNK6icu_4421RuleCharacterIterator5atEndEv
T _ZNK6icu_4421RuleCharacterIterator6getPosERNS0_3PosE
T _ZNK6icu_4421RuleCharacterIterator8_currentEv
T _ZNK6icu_4421RuleCharacterIterator9lookaheadERNS_13UnicodeStringEi
T _ZNK6icu_4422CompactTrieEnumeration17getDynamicClassIDEv
T _ZNK6icu_4422MutableTrieEnumeration17getDynamicClassIDEv
T _ZNK6icu_4422RuleBasedBreakIterator13getRuleStatusEv
T _ZNK6icu_4422RuleBasedBreakIterator17getDynamicClassIDEv
T _ZNK6icu_4422RuleBasedBreakIterator5cloneEv
T _ZNK6icu_4422RuleBasedBreakIterator7currentEv
T _ZNK6icu_4422RuleBasedBreakIterator7getTextEv
T _ZNK6icu_4422RuleBasedBreakIterator8getRulesEv
T _ZNK6icu_4422RuleBasedBreakIterator8getUTextEP5UTextR10UErrorCode
T _ZNK6icu_4422RuleBasedBreakIterator8hashCodeEv
T _ZNK6icu_4422RuleBasedBreakIteratoreqERKNS_13BreakIteratorE
T _ZNK6icu_4422UCharCharacterIterator17getDynamicClassIDEv
T _ZNK6icu_4422UCharCharacterIterator5cloneEv
T _ZNK6icu_4422UCharCharacterIterator7currentEv
T _ZNK6icu_4422UCharCharacterIterator8hashCodeEv
T _ZNK6icu_4422UCharCharacterIterator9current32Ev
T _ZNK6icu_4422UCharCharacterIteratoreqERKNS_24ForwardCharacterIteratorE
T _ZNK6icu_4423StringCharacterIterator17getDynamicClassIDEv
T _ZNK6icu_4423StringCharacterIterator5cloneEv
T _ZNK6icu_4423StringCharacterIteratoreqERKNS_24ForwardCharacterIteratorE
T _ZNK6icu_446BMPSet12spanBackUTF8EPKhi17USetSpanCondition
T _ZNK6icu_446BMPSet13findCodePointEiii
T _ZNK6icu_446BMPSet4spanEPKtS2_17USetSpanCondition
T _ZNK6icu_446BMPSet8containsEi
T _ZNK6icu_446BMPSet8spanBackEPKtS2_17USetSpanCondition
T _ZNK6icu_446BMPSet8spanUTF8EPKhi17USetSpanCondition
T _ZNK6icu_446Locale11getBaseNameEv
T _ZNK6icu_446Locale14createKeywordsER10UErrorCode
T _ZNK6icu_446Locale14getDisplayNameERKS0_RNS_13UnicodeStringE
T _ZNK6icu_446Locale14getDisplayNameERNS_13UnicodeStringE
T _ZNK6icu_446Locale14getISO3CountryEv
T _ZNK6icu_446Locale15getISO3LanguageEv
T _ZNK6icu_446Locale15getKeywordValueEPKcPciR10UErrorCode
T _ZNK6icu_446Locale16getDisplayScriptERKS0_RNS_13UnicodeStringE
T _ZNK6icu_446Locale16getDisplayScriptERNS_13UnicodeStringE
T _ZNK6icu_446Locale17getDisplayCountryERKS0_RNS_13UnicodeStringE
T _ZNK6icu_446Locale17getDisplayCountryERNS_13UnicodeStringE
T _ZNK6icu_446Locale17getDisplayVariantERKS0_RNS_13UnicodeStringE
T _ZNK6icu_446Locale17getDisplayVariantERNS_13UnicodeStringE
T _ZNK6icu_446Locale17getDynamicClassIDEv
T _ZNK6icu_446Locale18getDisplayLanguageERKS0_RNS_13UnicodeStringE
T _ZNK6icu_446Locale18getDisplayLanguageERNS_13UnicodeStringE
T _ZNK6icu_446Locale5cloneEv
T _ZNK6icu_446Locale7getLCIDEv
T _ZNK6icu_446Locale8hashCodeEv
T _ZNK6icu_446LocaleeqERKS0_
T _ZNK6icu_446UStack17getDynamicClassIDEv
T _ZNK6icu_446UStack6searchEPv
T _ZNK6icu_447UVector10elementAtiEi
T _ZNK6icu_447UVector11containsAllERKS0_
T _ZNK6icu_447UVector12containsNoneERKS0_
T _ZNK6icu_447UVector17getDynamicClassIDEv
T _ZNK6icu_447UVector6equalsERKS0_
T _ZNK6icu_447UVector7indexOfE8UHashTokia
T _ZNK6icu_447UVector7indexOfEPvi
T _ZNK6icu_447UVector7indexOfEii
T _ZNK6icu_447UVector7toArrayEPPv
T _ZNK6icu_447UVector9elementAtEi
T _ZNK6icu_449ErrorCode13assertSuccessEv
T _ZNK6icu_449ErrorCode9errorNameEv
T _ZNK6icu_449UVector3211containsAllERKS0_
T _ZNK6icu_449UVector3212containsNoneERKS0_
T _ZNK6icu_449UVector3217getDynamicClassIDEv
T _ZNK6icu_449UVector326equalsERKS0_
T _ZNK6icu_449UVector327indexOfEii
T _ZNK6icu_449UVector6417getDynamicClassIDEv
D _ZTVN6icu_4410NormalizerE
D _ZTVN6icu_4410UnicodeSetE
V _ZTVN6icu_4411Normalizer2E
D _ZTVN6icu_4411ReplaceableE
D _ZTVN6icu_4411SymbolTableE
D _ZTVN6icu_4412DateIntervalE
D _ZTVN6icu_4413BreakIteratorE
D _ZTVN6icu_4413ParsePositionE
D _ZTVN6icu_4413UnicodeFilterE
D _ZTVN6icu_4413UnicodeStringE
V _ZTVN6icu_4414FCDNormalizer2E
D _ZTVN6icu_4414ResourceBundleE
D _ZTVN6icu_4414UnicodeFunctorE
D _ZTVN6icu_4414UnicodeMatcherE
D _ZTVN6icu_4415NoopNormalizer2E
D _ZTVN6icu_4415RBBIRuleBuilderE
D _ZTVN6icu_4415RBBIRuleScannerE
D _ZTVN6icu_4415RBBISymbolTableE
D _ZTVN6icu_4415ThaiBreakEngineE
D _ZTVN6icu_4415UnhandledEngineE
D _ZTVN6icu_4417CanonicalIteratorE
D _ZTVN6icu_4417CharacterIteratorE
D _ZTVN6icu_4417StringEnumerationE
V _ZTVN6icu_4418ComposeNormalizer2E
V _ZTVN6icu_4418KeywordEnumerationE
D _ZTVN6icu_4418TrieWordDictionaryE
D _ZTVN6icu_4418UStringEnumerationE
D _ZTVN6icu_4418UnicodeSetIteratorE
D _ZTVN6icu_4419FilteredNormalizer2E
D _ZTVN6icu_4419LanguageBreakEngineE
D _ZTVN6icu_4419Normalizer2WithImplE
V _ZTVN6icu_4420BuildCompactTrieNodeE
D _ZTVN6icu_4420CheckedArrayByteSinkE
V _ZTVN6icu_4420DecomposeNormalizer2E
D _ZTVN6icu_4420LanguageBreakFactoryE
D _ZTVN6icu_4421CompactTrieDictionaryE
D _ZTVN6icu_4421DictionaryBreakEngineE
D _ZTVN6icu_4421MutableTrieDictionaryE
D _ZTVN6icu_4422CompactTrieEnumerationE
D _ZTVN6icu_4422MutableTrieEnumerationE
D _ZTVN6icu_4422RuleBasedBreakIteratorE
D _ZTVN6icu_4422UCharCharacterIteratorE
D _ZTVN6icu_4423ICULanguageBreakFactoryE
D _ZTVN6icu_4423StringCharacterIteratorE
D _ZTVN6icu_4424ForwardCharacterIteratorE
V _ZTVN6icu_4428BuildCompactTrieVerticalNodeE
V _ZTVN6icu_4430BuildCompactTrieHorizontalNodeE
D _ZTVN6icu_446BMPSetE
D _ZTVN6icu_446LocaleE
D _ZTVN6icu_446UStackE
D _ZTVN6icu_447UObjectE
D _ZTVN6icu_447UVectorE
D _ZTVN6icu_448ByteSinkE
D _ZTVN6icu_449UVector32E
D _ZTVN6icu_449UVector64E
T _ZThn4_N6icu_4410UnicodeSet7matchesERKNS_11ReplaceableERiia
T _ZThn4_N6icu_4410UnicodeSetD0Ev
T _ZThn4_N6icu_4410UnicodeSetD1Ev
T _ZThn4_N6icu_4413UnicodeFilter7matchesERKNS_11ReplaceableERiia
T _ZThn4_N6icu_4413UnicodeFilterD0Ev
T _ZThn4_N6icu_4413UnicodeFilterD1Ev
T _ZThn4_NK6icu_4410UnicodeSet13addMatchSetToERS0_
T _ZThn4_NK6icu_4410UnicodeSet17matchesIndexValueEh
T _ZThn4_NK6icu_4410UnicodeSet9toPatternERNS_13UnicodeStringEa
U _ZdlPv
T __FINI_ARRAY__
T __INIT_ARRAY__
U __aeabi_d2f
U __aeabi_d2iz
U __aeabi_dadd
U __aeabi_dcmpeq
U __aeabi_dcmpgt
U __aeabi_dcmplt
U __aeabi_ddiv
U __aeabi_dmul
U __aeabi_f2iz
U __aeabi_fcmpgt
U __aeabi_fcmplt
U __aeabi_fmul
U __aeabi_i2d
U __aeabi_i2f
U __aeabi_idiv
U __aeabi_idivmod
U __aeabi_uidiv
U __aeabi_uidivmod
T __aeabi_ulcmp
U __aeabi_uldivmod
U __aeabi_unwind_cpp_pr0
U __aeabi_unwind_cpp_pr1
A __bss_end__
A __bss_start
A __bss_start__
U __cxa_finalize
U __cxa_pure_virtual
D __data_start
B __dso_handle
A __end__
A __exidx_end
A __exidx_start
U __stack_chk_fail
U __stack_chk_guard
A _bss_end__
U _ctype_
A _edata
A _end
A _stack
U atol
U ceil
U close
U closedir
T cmemory_cleanup_44
T cmemory_inUse_44
U fclose
U floor
U fmod
U fopen
U fread
U free
U fseek
U ftell
U getenv
U gmtime
R icudt44_dat
T locale_getKeywords_44
T locale_get_default_44
T locale_set_default_44
U localtime
U log
U malloc
U mbstowcs
U memcmp
U memcpy
U memmove
U memset
U mktime
U mmap
U modf
U munmap
U open
U opendir
U pow
U pthread_mutex_destroy
U pthread_mutex_init
U pthread_mutex_lock
U pthread_mutex_unlock
U readdir
U readlink
U realloc
T res_countArrayItems_44
T res_findResource_44
T res_getAlias_44
T res_getArrayItem_44
T res_getBinary_44
T res_getIntVector_44
T res_getPublicType_44
T res_getResource_44
T res_getString_44
T res_getTableItemByIndex_44
T res_getTableItemByKey_44
T res_load_44
T res_read_44
T res_unload_44
U rewind
U setlocale
U snprintf
U sprintf
U stat
U strcat
U strchr
U strcmp
U strcpy
U strlen
U strncat
U strncmp
U strncpy
U strrchr
U strstr
U strtod
U strtol
U strtoul
U time
T triedict_swap_44
T u_UCharsToChars_44
T u_austrcpy_44
T u_austrncpy_44
T u_catclose_44
T u_catgets_44
T u_catopen_44
T u_charAge_44
T u_charDigitValue_44
T u_charDirection_44
T u_charFromName_44
T u_charMirror_44
T u_charName_44
T u_charType_44
T u_charsToUChars_44
T u_cleanup_44
T u_countChar32_44
T u_digit_44
T u_enumCharNames_44
T u_enumCharTypes_44
T u_errorName_44
T u_foldCase_44
T u_forDigit_44
T u_getCombiningClass_44
T u_getDataDirectory_44
T u_getDefaultConverter_44
T u_getFC_NFKC_Closure_44
T u_getISOComment_44
T u_getIntPropertyMaxValue_44
T u_getIntPropertyMinValue_44
T u_getIntPropertyValue_44
T u_getNumericValue_44
T u_getPropertyEnum_44
T u_getPropertyName_44
T u_getPropertyValueEnum_44
T u_getPropertyValueName_44
T u_getUnicodeProperties_44
T u_getUnicodeVersion_44
T u_getVersion_44
T u_hasBinaryProperty_44
T u_init_44
T u_isIDIgnorable_44
T u_isIDPart_44
T u_isIDStart_44
T u_isISOControl_44
T u_isJavaIDPart_44
T u_isJavaIDStart_44
T u_isJavaSpaceChar_44
T u_isMirrored_44
T u_isUAlphabetic_44
T u_isULowercase_44
T u_isUUppercase_44
T u_isUWhiteSpace_44
T u_isWhitespace_44
T u_isalnumPOSIX_44
T u_isalnum_44
T u_isalpha_44
T u_isbase_44
T u_isblank_44
T u_iscntrl_44
T u_isdefined_44
T u_isdigit_44
T u_isgraphPOSIX_44
T u_isgraph_44
T u_islower_44
T u_isprintPOSIX_44
T u_isprint_44
T u_ispunct_44
T u_isspace_44
T u_istitle_44
T u_isupper_44
T u_isxdigit_44
T u_memcasecmp_44
T u_memchr32_44
T u_memchr_44
T u_memcmpCodePointOrder_44
T u_memcmp_44
T u_memcpy_44
T u_memmove_44
T u_memrchr32_44
T u_memrchr_44
T u_memset_44
T u_releaseDefaultConverter_44
T u_setAtomicIncDecFunctions_44
T u_setDataDirectory_44
T u_setMemoryFunctions_44
T u_setMutexFunctions_44
T u_shapeArabic_44
T u_strCaseCompare_44
T u_strCompareIter_44
T u_strCompare_44
T u_strFindFirst_44
T u_strFindLast_44
T u_strFoldCase_44
T u_strFromJavaModifiedUTF8WithSub_44
T u_strFromPunycode_44
T u_strFromUTF32WithSub_44
T u_strFromUTF32_44
T u_strFromUTF8Lenient_44
T u_strFromUTF8WithSub_44
T u_strFromUTF8_44
T u_strFromWCS_44
T u_strHasMoreChar32Than_44
T u_strToJavaModifiedUTF8_44
T u_strToLower_44
T u_strToPunycode_44
T u_strToTitle_44
T u_strToUTF32WithSub_44
T u_strToUTF32_44
T u_strToUTF8WithSub_44
T u_strToUTF8_44
T u_strToUpper_44
T u_strToWCS_44
T u_strcasecmp_44
T u_strcat_44
T u_strchr32_44
T u_strchr_44
T u_strcmpCodePointOrder_44
T u_strcmpFold_44
T u_strcmp_44
T u_strcpy_44
T u_strcspn_44
T u_strlen_44
T u_strncasecmp_44
T u_strncat_44
T u_strncmpCodePointOrder_44
T u_strncmp_44
T u_strncpy_44
T u_strpbrk_44
T u_strrchr32_44
T u_strrchr_44
T u_strrstr_44
T u_strspn_44
T u_strstr_44
T u_strtok_r_44
T u_terminateChars_44
T u_terminateUChar32s_44
T u_terminateUChars_44
T u_terminateWChars_44
T u_tolower_44
T u_totitle_44
T u_toupper_44
T u_uastrcpy_44
T u_uastrncpy_44
T u_unescapeAt_44
T u_unescape_44
T u_versionFromString_44
T u_versionFromUString_44
T u_versionToString_44
T ubidi_addPropertyStarts_44
T ubidi_closeProps_44
T ubidi_close_44
T ubidi_countParagraphs_44
T ubidi_countRuns_44
T ubidi_getClassCallback_44
T ubidi_getClass_44
T ubidi_getCustomizedClass_44
T ubidi_getDirection_44
T ubidi_getJoiningGroup_44
T ubidi_getJoiningType_44
T ubidi_getLength_44
T ubidi_getLevelAt_44
T ubidi_getLevels_44
T ubidi_getLogicalIndex_44
T ubidi_getLogicalMap_44
T ubidi_getLogicalRun_44
T ubidi_getMaxValue_44
T ubidi_getMemory_44
T ubidi_getMirror_44
T ubidi_getParaLevel_44
T ubidi_getParagraphByIndex_44
T ubidi_getParagraph_44
T ubidi_getProcessedLength_44
T ubidi_getReorderingMode_44
T ubidi_getReorderingOptions_44
T ubidi_getResultLength_44
T ubidi_getRuns_44
T ubidi_getSingleton_44
T ubidi_getText_44
T ubidi_getVisualIndex_44
T ubidi_getVisualMap_44
T ubidi_getVisualRun_44
T ubidi_invertMap_44
T ubidi_isBidiControl_44
T ubidi_isInverse_44
T ubidi_isJoinControl_44
T ubidi_isMirrored_44
T ubidi_isOrderParagraphsLTR_44
T ubidi_openSized_44
T ubidi_open_44
T ubidi_orderParagraphsLTR_44
T ubidi_reorderLogical_44
T ubidi_reorderVisual_44
T ubidi_setClassCallback_44
T ubidi_setInverse_44
T ubidi_setLine_44
T ubidi_setPara_44
T ubidi_setReorderingMode_44
T ubidi_setReorderingOptions_44
T ubidi_writeReordered_44
T ubidi_writeReverse_44
T ublock_getCode_44
T ubrk_close_44
T ubrk_countAvailable_44
T ubrk_current_44
T ubrk_first_44
T ubrk_following_44
T ubrk_getAvailable_44
T ubrk_getLocaleByType_44
T ubrk_getRuleStatusVec_44
T ubrk_getRuleStatus_44
T ubrk_isBoundary_44
T ubrk_last_44
T ubrk_next_44
T ubrk_openRules_44
T ubrk_open_44
T ubrk_preceding_44
T ubrk_previous_44
T ubrk_safeClone_44
T ubrk_setText_44
T ubrk_setUText_44
T ubrk_swap_44
T ucase_addCaseClosure_44
T ucase_addPropertyStarts_44
T ucase_addStringCaseClosure_44
T ucase_close_44
T ucase_fold_44
T ucase_getCaseLocale_44
T ucase_getSingleton_44
T ucase_getTypeOrIgnorable_44
T ucase_getType_44
T ucase_hasBinaryProperty_44
T ucase_isCaseSensitive_44
T ucase_isSoftDotted_44
T ucase_toFullFolding_44
T ucase_toFullLower_44
T ucase_toFullTitle_44
T ucase_toFullUpper_44
T ucase_tolower_44
T ucase_totitle_44
T ucase_toupper_44
T ucasemap_close_44
T ucasemap_getBreakIterator_44
T ucasemap_getLocale_44
T ucasemap_getOptions_44
T ucasemap_open_44
T ucasemap_setBreakIterator_44
T ucasemap_setLocale_44
T ucasemap_setOptions_44
T ucasemap_toTitle_44
T ucasemap_utf8FoldCase_44
T ucasemap_utf8ToLower_44
T ucasemap_utf8ToTitle_44
T ucasemap_utf8ToUpper_44
T uchar_addPropertyStarts_44
T uchar_swapNames_44
T ucln_cleanupOne_44
T ucln_common_registerCleanup_44
T ucln_lib_cleanup_44
T ucln_registerCleanup_44
T ucnv_MBCSFromUChar32_44
T ucnv_MBCSFromUnicodeWithOffsets_44
T ucnv_MBCSGetFilteredUnicodeSetForUnicode_44
T ucnv_MBCSGetType_44
T ucnv_MBCSGetUnicodeSetForUnicode_44
T ucnv_MBCSIsLeadByte_44
T ucnv_MBCSSimpleGetNextUChar_44
T ucnv_MBCSToUnicodeWithOffsets_44
T ucnv_bld_countAvailableConverters_44
T ucnv_bld_getAvailableConverter_44
T ucnv_canCreateConverter_44
T ucnv_cbFromUWriteBytes_44
T ucnv_cbFromUWriteSub_44
T ucnv_cbFromUWriteUChars_44
T ucnv_cbToUWriteSub_44
T ucnv_cbToUWriteUChars_44
T ucnv_close_44
T ucnv_compareNames_44
T ucnv_convertEx_44
T ucnv_convert_44
T ucnv_countAliases_44
T ucnv_countAvailable_44
T ucnv_countStandards_44
T ucnv_createAlgorithmicConverter_44
T ucnv_createConverterFromPackage_44
T ucnv_createConverterFromSharedData_44
T ucnv_createConverter_44
T ucnv_detectUnicodeSignature_44
T ucnv_extContinueMatchFromU_44
T ucnv_extContinueMatchToU_44
T ucnv_extGetUnicodeSet_44
T ucnv_extInitialMatchFromU_44
T ucnv_extInitialMatchToU_44
T ucnv_extSimpleMatchFromU_44
T ucnv_extSimpleMatchToU_44
T ucnv_fixFileSeparator_44
T ucnv_flushCache_44
T ucnv_fromAlgorithmic_44
T ucnv_fromUChars_44
T ucnv_fromUCountPending_44
T ucnv_fromUWriteBytes_44
T ucnv_fromUnicode_44
T ucnv_fromUnicode_UTF8_44
T ucnv_fromUnicode_UTF8_OFFSETS_LOGIC_44
T ucnv_getAlias_44
T ucnv_getAliases_44
T ucnv_getAvailableName_44
T ucnv_getCCSID_44
T ucnv_getCanonicalName_44
T ucnv_getCompleteUnicodeSet_44
T ucnv_getDefaultName_44
T ucnv_getDisplayName_44
T ucnv_getFromUCallBack_44
T ucnv_getInvalidChars_44
T ucnv_getInvalidUChars_44
T ucnv_getMaxCharSize_44
T ucnv_getMinCharSize_44
T ucnv_getName_44
T ucnv_getNextUChar_44
T ucnv_getNonSurrogateUnicodeSet_44
T ucnv_getPlatform_44
T ucnv_getStandardName_44
T ucnv_getStandard_44
T ucnv_getStarters_44
T ucnv_getSubstChars_44
T ucnv_getToUCallBack_44
T ucnv_getType_44
T ucnv_getUnicodeSet_44
T ucnv_incrementRefCount_44
T ucnv_io_countKnownConverters_44
T ucnv_io_getConverterName_44
T ucnv_io_stripASCIIForCompare_44
T ucnv_io_stripEBCDICForCompare_44
T ucnv_isAmbiguous_44
T ucnv_loadSharedData_44
T ucnv_load_44
T ucnv_openAllNames_44
T ucnv_openCCSID_44
T ucnv_openPackage_44
T ucnv_openStandardNames_44
T ucnv_openU_44
T ucnv_open_44
T ucnv_resetFromUnicode_44
T ucnv_resetToUnicode_44
T ucnv_reset_44
T ucnv_safeClone_44
T ucnv_setDefaultName_44
T ucnv_setFallback_44
T ucnv_setFromUCallBack_44
T ucnv_setSubstChars_44
T ucnv_setSubstString_44
T ucnv_setToUCallBack_44
T ucnv_swapAliases_44
T ucnv_swap_44
T ucnv_toAlgorithmic_44
T ucnv_toUChars_44
T ucnv_toUCountPending_44
T ucnv_toUWriteCodePoint_44
T ucnv_toUWriteUChars_44
T ucnv_toUnicode_44
T ucnv_unloadSharedDataIfReady_44
T ucnv_unload_44
T ucnv_usesFallback_44
T ucnvsel_close_44
T ucnvsel_openFromSerialized_44
T ucnvsel_open_44
T ucnvsel_selectForString_44
T ucnvsel_selectForUTF8_44
T ucnvsel_serialize_44
T ucol_looksLikeCollationBinary_44
T ucol_swapBinary_44
T ucol_swapInverseUCA_44
T ucol_swap_44
T udata_checkCommonData_44
T udata_closeSwapper_44
T udata_close_44
T udata_getHeaderSize_44
T udata_getInfoSize_44
T udata_getInfo_44
T udata_getLength_44
T udata_getMemory_44
T udata_getRawMemory_44
T udata_openChoice_44
T udata_openSwapperForInputData_44
T udata_openSwapper_44
T udata_open_44
T udata_printError_44
T udata_readInt16_44
T udata_readInt32_44
T udata_setAppData_44
T udata_setCommonData_44
T udata_setFileAccess_44
T udata_swapDataHeader_44
T udata_swapInvStringBlock_44
T uenum_close_44
T uenum_count_44
T uenum_nextDefault_44
T uenum_next_44
T uenum_openCharStringsEnumeration_44
T uenum_openFromStringEnumeration_44
T uenum_reset_44
T uenum_unextDefault_44
T uenum_unext_44
T uhash_close_44
T uhash_compareCaselessUnicodeString_44
T uhash_compareChars_44
T uhash_compareIChars_44
T uhash_compareLong_44
T uhash_compareUChars_44
T uhash_compareUnicodeString_44
T uhash_count_44
T uhash_deleteHashtable_44
T uhash_deleteUVector_44
T uhash_deleteUnicodeString_44
T uhash_equals_44
T uhash_find_44
T uhash_freeBlock_44
T uhash_get_44
T uhash_geti_44
T uhash_hashCaselessUnicodeString_44
T uhash_hashChars_44
T uhash_hashIChars_44
T uhash_hashLong_44
T uhash_hashUCharsN_44
T uhash_hashUChars_44
T uhash_hashUnicodeString_44
T uhash_iget_44
T uhash_igeti_44
T uhash_init_44
T uhash_iput_44
T uhash_iputi_44
T uhash_iremove_44
T uhash_iremovei_44
T uhash_nextElement_44
T uhash_openSize_44
T uhash_open_44
T uhash_put_44
T uhash_puti_44
T uhash_removeAll_44
T uhash_removeElement_44
T uhash_remove_44
T uhash_removei_44
T uhash_setKeyComparator_44
T uhash_setKeyDeleter_44
T uhash_setKeyHasher_44
T uhash_setResizePolicy_44
T uhash_setValueComparator_44
T uhash_setValueDeleter_44
T uidna_IDNToASCII_44
T uidna_IDNToUnicode_44
T uidna_compare_44
T uidna_toASCII_44
T uidna_toUnicode_44
T uiter_current32_44
T uiter_getState_44
T uiter_next32_44
T uiter_previous32_44
T uiter_setCharacterIterator_44
T uiter_setReplaceable_44
T uiter_setState_44
T uiter_setString_44
T uiter_setUTF16BE_44
T uiter_setUTF8_44
T ulist_addItemBeginList_44
T ulist_addItemEndList_44
T ulist_close_keyword_values_iterator_44
T ulist_containsString_44
T ulist_count_keyword_values_44
T ulist_createEmptyList_44
T ulist_deleteList_44
T ulist_getListFromEnum_44
T ulist_getListSize_44
T ulist_getNext_44
T ulist_next_keyword_value_44
T ulist_resetList_44
T ulist_reset_keyword_values_iterator_44
T uloc_acceptLanguageFromHTTP_44
T uloc_acceptLanguage_44
T uloc_addLikelySubtags_44
T uloc_canonicalize_44
T uloc_countAvailable_44
T uloc_forLanguageTag_44
T uloc_getAvailable_44
T uloc_getBaseName_44
T uloc_getCharacterOrientation_44
T uloc_getCountry_44
T uloc_getCurrentCountryID_44
T uloc_getCurrentLanguageID_44
T uloc_getDefault_44
T uloc_getDisplayCountry_44
T uloc_getDisplayKeywordValue_44
T uloc_getDisplayKeyword_44
T uloc_getDisplayLanguage_44
T uloc_getDisplayName_44
T uloc_getDisplayScript_44
T uloc_getDisplayVariant_44
T uloc_getISO3Country_44
T uloc_getISO3Language_44
T uloc_getISOCountries_44
T uloc_getISOLanguages_44
T uloc_getKeywordValue_44
T uloc_getLCID_44
T uloc_getLanguage_44
T uloc_getLineOrientation_44
T uloc_getLocaleForLCID_44
T uloc_getName_44
T uloc_getParent_44
T uloc_getScript_44
T uloc_getTableStringWithFallback_44
T uloc_getVariant_44
T uloc_minimizeSubtags_44
T uloc_openKeywordList_44
T uloc_openKeywords_44
T uloc_setDefault_44
T uloc_setKeywordValue_44
T uloc_toLanguageTag_44
T ulocimp_getCountry_44
T ulocimp_getLanguage_44
T ulocimp_getScript_44
T umtx_atomic_dec_44
T umtx_atomic_inc_44
T umtx_cleanup_44
T umtx_destroy_44
T umtx_init_44
T umtx_lock_44
T umtx_unlock_44
T uniset_getUnicode32Instance_44
T unorm2_append_44
T unorm2_close_44
T unorm2_getInstance_44
T unorm2_hasBoundaryAfter_44
T unorm2_hasBoundaryBefore_44
T unorm2_isInert_44
T unorm2_isNormalized_44
T unorm2_normalizeSecondAndAppend_44
T unorm2_normalize_44
T unorm2_openFiltered_44
T unorm2_quickCheck_44
T unorm2_spanQuickCheckYes_44
T unorm2_swap_44
T unorm_addPropertyStarts_44
T unorm_closeIter_44
T unorm_compare_44
T unorm_concatenate_44
T unorm_getCanonStartSet_44
T unorm_getFCDTrieIndex_44
T unorm_getQuickCheck_44
T unorm_haveData_44
T unorm_isCanonSafeStart_44
T unorm_isNormalizedWithOptions_44
T unorm_isNormalized_44
T unorm_next_44
T unorm_normalize_44
T unorm_openIter_44
T unorm_previous_44
T unorm_quickCheckWithOptions_44
T unorm_quickCheck_44
T unorm_setIter_44
T uplug_getConfiguration_44
T uplug_getContext_44
T uplug_getCurrentLevel_44
T uplug_getLibraryName_44
T uplug_getLibrary_44
T uplug_getPlugInternal_44
T uplug_getPlugLevel_44
T uplug_getPlugLoadStatus_44
T uplug_getPlugName_44
T uplug_getPluginFile_44
T uplug_getSymbolName_44
T uplug_init_44
T uplug_loadPlugFromEntrypoint_44
T uplug_nextPlug_44
T uplug_removePlug_44
T uplug_setContext_44
T uplug_setPlugLevel_44
T uplug_setPlugName_44
T uplug_setPlugNoUnload_44
T upname_swap_44
T uprops_getSource_44
T upropsvec_addPropertyStarts_44
T uprv_asciiFromEbcdic_44
T uprv_asciitolower_44
T uprv_ceil_44
T uprv_compareASCIIPropertyNames_44
T uprv_compareEBCDICPropertyNames_44
T uprv_compareInvAscii_44
T uprv_compareInvEbcdicAsAscii_44
T uprv_compareInvEbcdic_44
T uprv_convertToLCID_44
T uprv_convertToPosix_44
T uprv_copyAscii_44
T uprv_copyEbcdic_44
T uprv_ebcdicFromAscii_44
T uprv_ebcdictolower_44
T uprv_fabs_44
T uprv_floor_44
T uprv_fmax_44
T uprv_fmin_44
T uprv_fmod_44
T uprv_free_44
T uprv_getCharNameCharacters_44
T uprv_getDefaultCodepage_44
T uprv_getDefaultLocaleID_44
T uprv_getInfinity_44
T uprv_getMaxCharNameLength_44
T uprv_getMaxValues_44
T uprv_getNaN_44
T uprv_getUTCtime_44
T uprv_haveProperties_44
T uprv_int32Comparator_44
T uprv_isInfinite_44
T uprv_isInvariantString_44
T uprv_isInvariantUString_44
T uprv_isNaN_44
T uprv_isNegativeInfinity_44
T uprv_isPositiveInfinity_44
T uprv_isRuleWhiteSpace_44
T uprv_itou_44
T uprv_log_44
T uprv_malloc_44
T uprv_mapFile_44
T uprv_maxMantissa_44
T uprv_max_44
T uprv_maximumPtr_44
T uprv_min_44
T uprv_modf_44
T uprv_openRuleWhiteSpaceSet_44
T uprv_pathIsAbsolute_44
T uprv_pow10_44
T uprv_pow_44
T uprv_realloc_44
T uprv_round_44
T uprv_sortArray_44
T uprv_strCompare_44
T uprv_strdup_44
T uprv_strndup_44
T uprv_syntaxError_44
T uprv_timezone_44
T uprv_toupper_44
T uprv_trunc_44
T uprv_tzname_44
T uprv_tzset_44
T uprv_uint16Comparator_44
T uprv_uint32Comparator_44
T uprv_unmapFile_44
T uprv_wcscat
T uprv_wcscpy
T uprv_wcslen
T upvec_cloneArray_44
T upvec_close_44
T upvec_compactToUTrie2Handler_44
T upvec_compactToUTrie2WithRowIndexes_44
T upvec_compactToUTrieHandler_44
T upvec_compact_44
T upvec_getArray_44
T upvec_getRow_44
T upvec_getValue_44
T upvec_open_44
T upvec_setValue_44
T ures_close_44
T ures_copyResb_44
T ures_countArrayItems_44
T ures_findResource_44
T ures_findSubResource_44
T ures_getBinary_44
T ures_getByIndex_44
T ures_getByKeyWithFallback_44
T ures_getByKey_44
T ures_getFunctionalEquivalent_44
T ures_getIntVector_44
T ures_getInt_44
T ures_getKey_44
T ures_getKeywordValues_44
T ures_getLocaleByType_44
T ures_getLocale_44
T ures_getName_44
T ures_getNextResource_44
T ures_getNextString_44
T ures_getSize_44
T ures_getStringByIndex_44
T ures_getStringByKeyWithFallback_44
T ures_getStringByKey_44
T ures_getString_44
T ures_getType_44
T ures_getUInt_44
T ures_getUTF8StringByIndex_44
T ures_getUTF8StringByKey_44
T ures_getUTF8String_44
T ures_getVersionByKey_44
T ures_getVersionNumber_44
T ures_getVersion_44
T ures_hasNext_44
T ures_initStackObject_44
T ures_openAvailableLocales_44
T ures_openDirect_44
T ures_openFillIn_44
T ures_openU_44
T ures_open_44
T ures_resetIterator_44
T ures_swap_44
T uscript_closeRun_44
T uscript_getCode_44
T uscript_getName_44
T uscript_getScript_44
T uscript_getShortName_44
T uscript_nextRun_44
T uscript_openRun_44
T uscript_resetRun_44
T uscript_setRunText_44
T uset_addAllCodePoints_44
T uset_addAll_44
T uset_addRange_44
T uset_addString_44
T uset_add_44
T uset_applyIntPropertyValue_44
T uset_applyPattern_44
T uset_applyPropertyAlias_44
T uset_charAt_44
T uset_clear_44
T uset_cloneAsThawed_44
T uset_clone_44
T uset_closeOver_44
T uset_close_44
T uset_compact_44
T uset_complementAll_44
T uset_complement_44
T uset_containsAllCodePoints_44
T uset_containsAll_44
T uset_containsNone_44
T uset_containsRange_44
T uset_containsSome_44
T uset_containsString_44
T uset_contains_44
T uset_equals_44
T uset_freeze_44
T uset_getItemCount_44
T uset_getItem_44
T uset_getSerializedRangeCount_44
T uset_getSerializedRange_44
T uset_getSerializedSet_44
T uset_indexOf_44
T uset_isEmpty_44
T uset_isFrozen_44
T uset_openEmpty_44
T uset_openPatternOptions_44
T uset_openPattern_44
T uset_open_44
T uset_removeAllStrings_44
T uset_removeAll_44
T uset_removeRange_44
T uset_removeString_44
T uset_remove_44
T uset_resemblesPattern_44
T uset_retainAll_44
T uset_retain_44
T uset_serialize_44
T uset_serializedContains_44
T uset_setSerializedToOne_44
T uset_set_44
T uset_size_44
T uset_spanBackUTF8_44
T uset_spanBack_44
T uset_spanUTF8_44
T uset_span_44
T uset_toPattern_44
T usprep_close_44
T usprep_openByType_44
T usprep_open_44
T usprep_prepare_44
T usprep_swap_44
T ustr_foldCase_44
T ustr_toLower_44
T ustr_toTitle_44
T ustr_toUpper_44
T utext_caseCompareNativeLimit_44
T utext_caseCompare_44
T utext_char32At_44
T utext_clone_44
T utext_close_44
T utext_compareNativeLimit_44
T utext_compare_44
T utext_copy_44
T utext_current32_44
T utext_equals_44
T utext_extract_44
T utext_freeze_44
T utext_getNativeIndex_44
T utext_getPreviousNativeIndex_44
T utext_hasMetaData_44
T utext_isLengthExpensive_44
T utext_isWritable_44
T utext_moveIndex32_44
T utext_nativeLength_44
T utext_next32From_44
T utext_next32_44
T utext_openCharacterIterator_44
T utext_openConstUnicodeString_44
T utext_openReplaceable_44
T utext_openUChars_44
T utext_openUTF8_44
T utext_openUnicodeString_44
T utext_previous32From_44
T utext_previous32_44
T utext_replace_44
T utext_setNativeIndex_44
T utext_setup_44
T utf8_appendCharSafeBody_44
T utf8_back1SafeBody_44
R utf8_countTrailBytes_44
T utf8_nextCharSafeBody_44
T utf8_prevCharSafeBody_44
T utrace_cleanup_44
T utrace_data_44
T utrace_entry_44
T utrace_exit_44
T utrace_format_44
T utrace_functionName_44
T utrace_getFunctions_44
T utrace_getLevel_44
B utrace_level_44
T utrace_setFunctions_44
T utrace_setLevel_44
T utrace_vformat_44
T utrie2_cloneAsThawed_44
T utrie2_clone_44
T utrie2_close_44
T utrie2_enumForLeadSurrogate_44
T utrie2_enum_44
T utrie2_freeze_44
T utrie2_fromUTrie_44
T utrie2_get32FromLeadSurrogateCodeUnit_44
T utrie2_get32_44
T utrie2_getVersion_44
T utrie2_internalU8NextIndex_44
T utrie2_internalU8PrevIndex_44
T utrie2_isFrozen_44
T utrie2_openDummy_44
T utrie2_openFromSerialized_44
T utrie2_open_44
T utrie2_serialize_44
T utrie2_set32ForLeadSurrogateCodeUnit_44
T utrie2_set32_44
T utrie2_setRange32_44
T utrie2_swap_44
T utrie_clone_44
T utrie_close_44
T utrie_defaultGetFoldingOffset_44
T utrie_enum_44
T utrie_get32_44
T utrie_getData_44
T utrie_open_44
T utrie_serialize_44
T utrie_set32_44
T utrie_setRange32_44
T utrie_swap_44
T utrie_unserializeDummy_44
T utrie_unserialize_44
U wcstombs
