T JNI_OnLoad
T _ZN8latinime10Dictionary10getAddressEPi
T _ZN8latinime10Dictionary10getBigramsEPtiPiiS1_S2_iii
T _ZN8latinime10Dictionary10wideStrLenEPt
T _ZN8latinime10Dictionary11getWordsRecEiiibiii
T _ZN8latinime10Dictionary11isValidWordEPti
T _ZN8latinime10Dictionary11sameAsTypedEPti
T _ZN8latinime10Dictionary11toLowerCaseEt
T _ZN8latinime10Dictionary13addWordBigramEPtii
T _ZN8latinime10Dictionary13getBigramFreqEPi
T _ZN8latinime10Dictionary14getSuggestionsEPiiPtS1_iiiiS1_i
T _ZN8latinime10Dictionary14isValidWordRecEiPtii
T _ZN8latinime10Dictionary16getBigramAddressEPib
T _ZN8latinime10Dictionary16getVersionNumberEv
T _ZN8latinime10Dictionary18registerNextLetterEt
T _ZN8latinime10Dictionary19checkFirstCharacterEPt
T _ZN8latinime10Dictionary21searchForTerminalNodeEii
T _ZN8latinime10Dictionary26checkIfDictVersionIsLatestEv
T _ZN8latinime10Dictionary7addWordEPtii
T _ZN8latinime10Dictionary7getCharEPi
T _ZN8latinime10Dictionary7getFreqEPi
T _ZN8latinime10DictionaryC1EPvii
T _ZN8latinime10DictionaryC2EPvii
T _ZN8latinime10DictionaryD1Ev
T _ZN8latinime10DictionaryD2Ev
T _ZN8latinime13latin_tolowerEt
U _ZdlPv
U _Znwj
U __aeabi_unwind_cpp_pr0
A __bss_end__
A __bss_start
A __bss_start__
D __data_start
A __end__
A __exidx_end
A __exidx_start
U __sF
U __stack_chk_fail
U __stack_chk_guard
A _bss_end__
A _edata
A _end
A _stack
U bsearch
U fprintf
U fputs
U memmove
