U EAS_CloseFile
U EAS_Config
U EAS_GetLocation
U EAS_Init
U EAS_Locate
U EAS_OpenFile
U EAS_ParseMetaData
U EAS_Pause
U EAS_Prepare
U EAS_Render
U EAS_Resume
U EAS_SetParameter
U EAS_SetRepeat
U EAS_Shutdown
U EAS_State
T _ZN7android10ARTPWriter10reachedEOSEv
T _ZN7android10ARTPWriter11sendAMRDataEPNS_11MediaBufferE
T _ZN7android10ARTPWriter11sendAVCDataEPNS_11MediaBufferE
T _ZN7android10ARTPWriter12sendH263DataEPNS_11MediaBufferE
T _ZN7android10ARTPWriter15dumpSessionDescEv
T _ZN7android10ARTPWriter17onMessageReceivedERKNS_2spINS_8AMessageEEE
T _ZN7android10ARTPWriter22makeH264SPropParamSetsEPNS_11MediaBufferE
T _ZN7android10ARTPWriter4sendERKNS_2spINS_7ABufferEEEb
T _ZN7android10ARTPWriter4stopEv
T _ZN7android10ARTPWriter5addSRERKNS_2spINS_7ABufferEEE
T _ZN7android10ARTPWriter5pauseEv
T _ZN7android10ARTPWriter5startEPNS_8MetaDataE
T _ZN7android10ARTPWriter6onReadERKNS_2spINS_8AMessageEEE
T _ZN7android10ARTPWriter7addSDESERKNS_2spINS_7ABufferEEE
T _ZN7android10ARTPWriter7sendByeEv
T _ZN7android10ARTPWriter8onSendSRERKNS_2spINS_8AMessageEEE
T _ZN7android10ARTPWriter9GetNowNTPEv
T _ZN7android10ARTPWriter9addSourceERKNS_2spINS_11MediaSourceEEE
T _ZN7android10ARTPWriterC1Ei
T _ZN7android10ARTPWriterC2Ei
T _ZN7android10ARTPWriterD0Ev
T _ZN7android10ARTPWriterD1Ev
T _ZN7android10ARTPWriterD2Ev
U _ZN7android10AudioTrack11getPositionEPj
U _ZN7android10AudioTrack15attachAuxEffectEi
U _ZN7android10AudioTrack21setAuxEffectSendLevelEf
U _ZN7android10AudioTrack4stopEv
U _ZN7android10AudioTrack5flushEv
U _ZN7android10AudioTrack5pauseEv
U _ZN7android10AudioTrack5startEv
U _ZN7android10AudioTrack5writeEPKvj
U _ZN7android10AudioTrack9setVolumeEff
U _ZN7android10AudioTrackC1EijiiijPFviPvS1_ES1_ii
U _ZN7android10AudioTrackD1Ev
W _ZN7android10Compare_EQIiiEENS_7AStringERKT_RKT0_
W _ZN7android10Compare_EQIjjEENS_7AStringERKT_RKT0_
W _ZN7android10Compare_EQIllEENS_7AStringERKT_RKT0_
W _ZN7android10Compare_GEIiiEENS_7AStringERKT_RKT0_
W _ZN7android10Compare_GEIjjEENS_7AStringERKT_RKT0_
W _ZN7android10Compare_LEIjjEENS_7AStringERKT_RKT0_
W _ZN7android10Compare_LTIjjEENS_7AStringERKT_RKT0_
U _ZN7android10IInterfaceD0Ev
U _ZN7android10IInterfaceD1Ev
U _ZN7android10MemoryBaseC1ERKNS_2spINS_11IMemoryHeapEEElj
U _ZN7android10VectorImpl11setCapacityEj
U _ZN7android10VectorImpl13finish_vectorEv
U _ZN7android10VectorImpl19reservedVectorImpl1Ev
U _ZN7android10VectorImpl19reservedVectorImpl2Ev
U _ZN7android10VectorImpl19reservedVectorImpl3Ev
U _ZN7android10VectorImpl19reservedVectorImpl4Ev
U _ZN7android10VectorImpl19reservedVectorImpl5Ev
U _ZN7android10VectorImpl19reservedVectorImpl6Ev
U _ZN7android10VectorImpl19reservedVectorImpl7Ev
U _ZN7android10VectorImpl19reservedVectorImpl8Ev
U _ZN7android10VectorImpl4pushEPKv
U _ZN7android10VectorImpl5clearEv
U _ZN7android10VectorImplC2Ejj
U _ZN7android10VectorImplD2Ev
U _ZN7android11AudioSource15getMaxAmplitudeEv
U _ZN7android11AudioSourceC1Eijj
U _ZN7android11AudioSystem19getOutputFrameCountEPii
U _ZN7android11AudioSystem21getOutputSamplingRateEPii
W _ZN7android11BnInterfaceINS_12IMediaPlayerEE10onAsBinderEv
W _ZN7android11BnInterfaceINS_14IMediaRecorderEE10onAsBinderEv
W _ZN7android11BnInterfaceINS_19IMediaPlayerServiceEE10onAsBinderEv
W _ZN7android11BnInterfaceINS_23IMediaMetadataRetrieverEE10onAsBinderEv
U _ZN7android11MPEG4Writer21setInterleaveDurationEj
U _ZN7android11MPEG4WriterC1Ei
U _ZN7android11MediaBuffer7releaseEv
U _ZN7android11MediaBuffer9meta_dataEv
U _ZN7android11MediaBuffer9set_rangeEjj
U _ZN7android12CameraSource16CreateFromCameraERKNS_2spINS_6CameraEEE
U _ZN7android12IMediaPlayer10descriptorE
U _ZN7android12IMediaPlayerC2Ev
U _ZN7android12IMediaPlayerD0Ev
U _ZN7android12IMediaPlayerD1Ev
U _ZN7android12IMediaPlayerD2Ev
U _ZN7android12StringPrintfEPKcz
W _ZN7android12compare_typeINS_16key_value_pair_tINS_7String8ES2_EEEEiRKT_S6_
U _ZN7android12encodeBase64EPKvjPNS_7AStringE
U _ZN7android13AwesomePlayer10setLoopingEb
U _ZN7android13AwesomePlayer11getDurationEPx
U _ZN7android13AwesomePlayer11getPositionEPx
U _ZN7android13AwesomePlayer11setISurfaceERKNS_2spINS_8ISurfaceEEE
U _ZN7android13AwesomePlayer11setListenerERKNS_2wpINS_15MediaPlayerBaseEEE
U _ZN7android13AwesomePlayer12prepareAsyncEv
U _ZN7android13AwesomePlayer12setAudioSinkERKNS_2spINS_15MediaPlayerBase9AudioSinkEEE
U _ZN7android13AwesomePlayer13setDataSourceEPKcPKNS_11KeyedVectorINS_7String8ES4_EE
U _ZN7android13AwesomePlayer13setDataSourceEixx
U _ZN7android13AwesomePlayer4playEv
U _ZN7android13AwesomePlayer5pauseEv
U _ZN7android13AwesomePlayer5resetEv
U _ZN7android13AwesomePlayer6resumeEv
U _ZN7android13AwesomePlayer6seekToEx
U _ZN7android13AwesomePlayer7prepareEv
U _ZN7android13AwesomePlayer7suspendEv
U _ZN7android13AwesomePlayerC1Ev
U _ZN7android13AwesomePlayerD1Ev
U _ZN7android13BnMediaPlayer10onTransactEjRKNS_6ParcelEPS1_j
U _ZN7android13MPEG2TSWriterC1Ei
U _ZN7android13MediaProfiles11getInstanceEv
T _ZN7android13getPlayerTypeEPKc
T _ZN7android13getPlayerTypeEixx
T _ZN7android14CallbackThread10threadLoopEv
T _ZN7android14CallbackThreadC1ERKNS_2wpINS_15MediaPlayerBase9AudioSinkEEEPFjPS3_PvjS8_ES8_
T _ZN7android14CallbackThreadC2ERKNS_2wpINS_15MediaPlayerBase9AudioSinkEEEPFjPS3_PvjS8_ES8_
T _ZN7android14CallbackThreadD0Ev
T _ZN7android14CallbackThreadD1Ev
T _ZN7android14CallbackThreadD2Ev
U _ZN7android14IMediaRecorder10descriptorE
U _ZN7android14IMediaRecorderC2Ev
U _ZN7android14IMediaRecorderD0Ev
U _ZN7android14IMediaRecorderD1Ev
U _ZN7android14IMediaRecorderD2Ev
U _ZN7android14IPCThreadState13flushCommandsEv
U _ZN7android14IPCThreadState13getCallingPidEv
U _ZN7android14IPCThreadState13getCallingUidEv
U _ZN7android14IPCThreadState20clearCallingIdentityEv
U _ZN7android14IPCThreadState22restoreCallingIdentityEx
U _ZN7android14IPCThreadState4selfEv
U _ZN7android14MemoryHeapBaseC1EjjPKc
T _ZN7android14TestPlayerStub13resetInternalEv
T _ZN7android14TestPlayerStub13setDataSourceEPKcPKNS_11KeyedVectorINS_7String8ES4_EE
T _ZN7android14TestPlayerStub8parseUrlEv
T _ZN7android14TestPlayerStub9canBeUsedEPKc
T _ZN7android14TestPlayerStub9initCheckEv
T _ZN7android14TestPlayerStubC1Ev
T _ZN7android14TestPlayerStubC2Ev
T _ZN7android14TestPlayerStubD0Ev
T _ZN7android14TestPlayerStubD1Ev
T _ZN7android14TestPlayerStubD2Ev
U _ZN7android15BnMediaRecorder10onTransactEjRKNS_6ParcelEPS1_j
U _ZN7android16CameraParameters14setPreviewSizeEii
U _ZN7android16CameraParameters19setPreviewFrameRateEi
U _ZN7android16CameraParameters9unflattenERKNS_7String8E
U _ZN7android16CameraParametersD1Ev
U _ZN7android16SortedVectorImpl25reservedSortedVectorImpl1Ev
U _ZN7android16SortedVectorImpl25reservedSortedVectorImpl2Ev
U _ZN7android16SortedVectorImpl25reservedSortedVectorImpl3Ev
U _ZN7android16SortedVectorImpl25reservedSortedVectorImpl4Ev
U _ZN7android16SortedVectorImpl25reservedSortedVectorImpl5Ev
U _ZN7android16SortedVectorImpl25reservedSortedVectorImpl6Ev
U _ZN7android16SortedVectorImpl25reservedSortedVectorImpl7Ev
U _ZN7android16SortedVectorImpl25reservedSortedVectorImpl8Ev
U _ZN7android16SortedVectorImpl3addEPKv
U _ZN7android16SortedVectorImpl6removeEPKv
U _ZN7android16SortedVectorImplC2Ejj
U _ZN7android16SortedVectorImplD2Ev
U _ZN7android16SortedVectorImplaSERKS0_
D _ZN7android16cameraPermissionE
T _ZN7android17StagefrightPlayer10playerTypeEv
T _ZN7android17StagefrightPlayer10setLoopingEi
T _ZN7android17StagefrightPlayer11getDurationEPi
T _ZN7android17StagefrightPlayer11getMetadataERKNS_12SortedVectorIiEEPNS_6ParcelE
T _ZN7android17StagefrightPlayer12prepareAsyncEv
T _ZN7android17StagefrightPlayer12setAudioSinkERKNS_2spINS_15MediaPlayerBase9AudioSinkEEE
T _ZN7android17StagefrightPlayer13setDataSourceEPKcPKNS_11KeyedVectorINS_7String8ES4_EE
T _ZN7android17StagefrightPlayer13setDataSourceEixx
T _ZN7android17StagefrightPlayer15setVideoSurfaceERKNS_2spINS_8ISurfaceEEE
T _ZN7android17StagefrightPlayer18getCurrentPositionEPi
T _ZN7android17StagefrightPlayer4stopEv
T _ZN7android17StagefrightPlayer5pauseEv
T _ZN7android17StagefrightPlayer5resetEv
T _ZN7android17StagefrightPlayer5startEv
T _ZN7android17StagefrightPlayer6invokeERKNS_6ParcelEPS1_
T _ZN7android17StagefrightPlayer6resumeEv
T _ZN7android17StagefrightPlayer6seekToEi
T _ZN7android17StagefrightPlayer7prepareEv
T _ZN7android17StagefrightPlayer7suspendEv
T _ZN7android17StagefrightPlayer9initCheckEv
T _ZN7android17StagefrightPlayer9isPlayingEv
T _ZN7android17StagefrightPlayerC1Ev
T _ZN7android17StagefrightPlayerC2Ev
T _ZN7android17StagefrightPlayerD0Ev
T _ZN7android17StagefrightPlayerD1Ev
T _ZN7android17StagefrightPlayerD2Ev
W _ZN7android17move_forward_typeINS_16key_value_pair_tINS_7String8ES2_EEEEvPT_PKS4_j
T _ZN7android18MediaPlayerService10AudioCache11getPositionEPj
T _ZN7android18MediaPlayerService10AudioCache12getSessionIdEv
T _ZN7android18MediaPlayerService10AudioCache4openEjiiiPFjPNS_15MediaPlayerBase9AudioSinkEPvjS5_ES5_
T _ZN7android18MediaPlayerService10AudioCache4stopEv
T _ZN7android18MediaPlayerService10AudioCache4waitEv
T _ZN7android18MediaPlayerService10AudioCache5startEv
T _ZN7android18MediaPlayerService10AudioCache5writeEPKvj
T _ZN7android18MediaPlayerService10AudioCache6notifyEPviii
T _ZN7android18MediaPlayerService10AudioCacheC1EPKc
T _ZN7android18MediaPlayerService10AudioCacheC2EPKc
T _ZN7android18MediaPlayerService11AudioOutput11getPositionEPj
T _ZN7android18MediaPlayerService11AudioOutput12getSessionIdEv
T _ZN7android18MediaPlayerService11AudioOutput12isOnEmulatorEv
B _ZN7android18MediaPlayerService11AudioOutput13mIsOnEmulatorE
T _ZN7android18MediaPlayerService11AudioOutput15CallbackWrapperEiPvS2_
T _ZN7android18MediaPlayerService11AudioOutput15attachAuxEffectEi
D _ZN7android18MediaPlayerService11AudioOutput15mMinBufferCountE
T _ZN7android18MediaPlayerService11AudioOutput17getMinBufferCountEv
T _ZN7android18MediaPlayerService11AudioOutput17setMinBufferCountEv
T _ZN7android18MediaPlayerService11AudioOutput21setAuxEffectSendLevelEf
T _ZN7android18MediaPlayerService11AudioOutput4openEjiiiPFjPNS_15MediaPlayerBase9AudioSinkEPvjS5_ES5_
T _ZN7android18MediaPlayerService11AudioOutput4stopEv
T _ZN7android18MediaPlayerService11AudioOutput5closeEv
T _ZN7android18MediaPlayerService11AudioOutput5flushEv
T _ZN7android18MediaPlayerService11AudioOutput5pauseEv
T _ZN7android18MediaPlayerService11AudioOutput5startEv
T _ZN7android18MediaPlayerService11AudioOutput5writeEPKvj
T _ZN7android18MediaPlayerService11AudioOutput9setVolumeEff
T _ZN7android18MediaPlayerService11AudioOutputC1Ei
T _ZN7android18MediaPlayerService11AudioOutputC2Ei
T _ZN7android18MediaPlayerService11AudioOutputD0Ev
T _ZN7android18MediaPlayerService11AudioOutputD1Ev
T _ZN7android18MediaPlayerService11AudioOutputD2Ev
T _ZN7android18MediaPlayerService11instantiateEv
T _ZN7android18MediaPlayerService12removeClientENS_2wpINS0_6ClientEEE
T _ZN7android18MediaPlayerService19createMediaRecorderEi
T _ZN7android18MediaPlayerService23createMetadataRetrieverEi
T _ZN7android18MediaPlayerService25removeMediaRecorderClientENS_2wpINS_19MediaRecorderClientEEE
T _ZN7android18MediaPlayerService4dumpEiRKNS_6VectorINS_8String16EEE
T _ZN7android18MediaPlayerService6Client10disconnectEv
T _ZN7android18MediaPlayerService6Client10setLoopingEi
T _ZN7android18MediaPlayerService6Client11getDurationEPi
T _ZN7android18MediaPlayerService6Client11getMetadataEbbPNS_6ParcelE
T _ZN7android18MediaPlayerService6Client12createPlayerENS_11player_typeE
T _ZN7android18MediaPlayerService6Client12prepareAsyncEv
T _ZN7android18MediaPlayerService6Client13setDataSourceEPKcPKNS_11KeyedVectorINS_7String8ES5_EE
T _ZN7android18MediaPlayerService6Client13setDataSourceEixx
T _ZN7android18MediaPlayerService6Client15attachAuxEffectEi
T _ZN7android18MediaPlayerService6Client15setVideoSurfaceERKNS_2spINS_8ISurfaceEEE
T _ZN7android18MediaPlayerService6Client17setMetadataFilterERKNS_6ParcelE
T _ZN7android18MediaPlayerService6Client18getCurrentPositionEPi
T _ZN7android18MediaPlayerService6Client18setAudioStreamTypeEi
T _ZN7android18MediaPlayerService6Client20addNewMetadataUpdateEi
T _ZN7android18MediaPlayerService6Client21setAuxEffectSendLevelEf
T _ZN7android18MediaPlayerService6Client4stopEv
T _ZN7android18MediaPlayerService6Client5pauseEv
T _ZN7android18MediaPlayerService6Client5resetEv
T _ZN7android18MediaPlayerService6Client5startEv
T _ZN7android18MediaPlayerService6Client6invokeERKNS_6ParcelEPS2_
T _ZN7android18MediaPlayerService6Client6notifyEPviii
T _ZN7android18MediaPlayerService6Client6resumeEv
T _ZN7android18MediaPlayerService6Client6seekToEi
T _ZN7android18MediaPlayerService6Client7suspendEv
T _ZN7android18MediaPlayerService6Client9isPlayingEPb
T _ZN7android18MediaPlayerService6Client9setVolumeEff
T _ZN7android18MediaPlayerService6ClientC1ERKNS_2spIS0_EEiiRKNS2_INS_18IMediaPlayerClientEEEi
T _ZN7android18MediaPlayerService6ClientC2ERKNS_2spIS0_EEiiRKNS2_INS_18IMediaPlayerClientEEEi
T _ZN7android18MediaPlayerService6ClientD0Ev
T _ZN7android18MediaPlayerService6ClientD1Ev
T _ZN7android18MediaPlayerService6ClientD2Ev
T _ZN7android18MediaPlayerService6createEiRKNS_2spINS_18IMediaPlayerClientEEEPKcPKNS_11KeyedVectorINS_7String8ES9_EEi
T _ZN7android18MediaPlayerService6createEiRKNS_2spINS_18IMediaPlayerClientEEEixxi
T _ZN7android18MediaPlayerService6decodeEPKcPjPiS4_
T _ZN7android18MediaPlayerService6decodeEixxPjPiS2_
T _ZN7android18MediaPlayerService6getOMXEv
T _ZN7android18MediaPlayerServiceC1Ev
T _ZN7android18MediaPlayerServiceC2Ev
T _ZN7android18MediaPlayerServiceD0Ev
T _ZN7android18MediaPlayerServiceD1Ev
T _ZN7android18MediaPlayerServiceD2Ev
W _ZN7android18move_backward_typeINS_16key_value_pair_tINS_7String8ES2_EEEEvPT_PKS4_j
U _ZN7android19IMediaPlayerService10descriptorE
U _ZN7android19IMediaPlayerServiceC2Ev
U _ZN7android19IMediaPlayerServiceD0Ev
U _ZN7android19IMediaPlayerServiceD1Ev
U _ZN7android19IMediaPlayerServiceD2Ev
T _ZN7android19MediaRecorderClient11setListenerERKNS_2spINS_20IMediaRecorderClientEEE
T _ZN7android19MediaRecorderClient12setVideoSizeEii
T _ZN7android19MediaRecorderClient13setOutputFileEPKc
T _ZN7android19MediaRecorderClient13setOutputFileEixx
T _ZN7android19MediaRecorderClient13setParametersERKNS_7String8E
T _ZN7android19MediaRecorderClient14setAudioSourceEi
T _ZN7android19MediaRecorderClient14setVideoSourceEi
T _ZN7android19MediaRecorderClient15getMaxAmplitudeEPi
T _ZN7android19MediaRecorderClient15setAudioEncoderEi
T _ZN7android19MediaRecorderClient15setOutputFormatEi
T _ZN7android19MediaRecorderClient15setVideoEncoderEi
T _ZN7android19MediaRecorderClient17setPreviewSurfaceERKNS_2spINS_8ISurfaceEEE
T _ZN7android19MediaRecorderClient17setVideoFrameRateEi
T _ZN7android19MediaRecorderClient4initEv
T _ZN7android19MediaRecorderClient4stopEv
T _ZN7android19MediaRecorderClient5closeEv
T _ZN7android19MediaRecorderClient5resetEv
T _ZN7android19MediaRecorderClient5startEv
T _ZN7android19MediaRecorderClient7prepareEv
T _ZN7android19MediaRecorderClient7releaseEv
T _ZN7android19MediaRecorderClient9setCameraERKNS_2spINS_7ICameraEEE
T _ZN7android19MediaRecorderClientC1ERKNS_2spINS_18MediaPlayerServiceEEEi
T _ZN7android19MediaRecorderClientC2ERKNS_2spINS_18MediaPlayerServiceEEEi
T _ZN7android19MediaRecorderClientD0Ev
T _ZN7android19MediaRecorderClientD1Ev
T _ZN7android19MediaRecorderClientD2Ev
T _ZN7android19StagefrightRecorder11setListenerERKNS_2spINS_20IMediaRecorderClientEEE
T _ZN7android19StagefrightRecorder12setParameterERKNS_7String8ES3_
T _ZN7android19StagefrightRecorder12setVideoSizeEii
T _ZN7android19StagefrightRecorder13setOutputFileEPKc
T _ZN7android19StagefrightRecorder13setOutputFileEixx
T _ZN7android19StagefrightRecorder13setParametersERKNS_7String8E
T _ZN7android19StagefrightRecorder14setAudioSourceENS_12audio_sourceE
T _ZN7android19StagefrightRecorder14setVideoSourceENS_12video_sourceE
T _ZN7android19StagefrightRecorder15getMaxAmplitudeEPi
T _ZN7android19StagefrightRecorder15setAudioEncoderENS_13audio_encoderE
T _ZN7android19StagefrightRecorder15setOutputFormatENS_13output_formatE
T _ZN7android19StagefrightRecorder15setVideoEncoderENS_13video_encoderE
T _ZN7android19StagefrightRecorder16clipVideoBitRateEv
T _ZN7android19StagefrightRecorder17createAudioSourceEv
T _ZN7android19StagefrightRecorder17setPreviewSurfaceERKNS_2spINS_8ISurfaceEEE
T _ZN7android19StagefrightRecorder17setVideoFrameRateEi
T _ZN7android19StagefrightRecorder17setupAudioEncoderERKNS_2spINS_11MediaWriterEEE
T _ZN7android19StagefrightRecorder17setupCameraSourceEv
T _ZN7android19StagefrightRecorder17setupVideoEncoderEPNS_2spINS_11MediaSourceEEE
T _ZN7android19StagefrightRecorder17startAACRecordingEv
T _ZN7android19StagefrightRecorder17startAMRRecordingEv
T _ZN7android19StagefrightRecorder17startRTPRecordingEv
T _ZN7android19StagefrightRecorder18clipVideoFrameRateEv
T _ZN7android19StagefrightRecorder19clipVideoFrameWidthEv
T _ZN7android19StagefrightRecorder19startMPEG4RecordingEv
T _ZN7android19StagefrightRecorder20clipVideoFrameHeightEv
T _ZN7android19StagefrightRecorder21setParamVideoCameraIdEi
T _ZN7android19StagefrightRecorder21setParamVideoRotationEi
T _ZN7android19StagefrightRecorder21startMPEG2TSRecordingEv
T _ZN7android19StagefrightRecorder22setParamAudioTimeScaleEi
T _ZN7android19StagefrightRecorder22setParamMovieTimeScaleEi
T _ZN7android19StagefrightRecorder22setParamVideoTimeScaleEi
T _ZN7android19StagefrightRecorder23setParam64BitFileOffsetEb
T _ZN7android19StagefrightRecorder23setParamTrackTimeStatusEx
T _ZN7android19StagefrightRecorder24setParamMaxFileSizeBytesEx
T _ZN7android19StagefrightRecorder25setParamAudioSamplingRateEi
T _ZN7android19StagefrightRecorder25setParamMaxFileDurationUsEx
T _ZN7android19StagefrightRecorder25setParamVideoEncoderLevelEi
T _ZN7android19StagefrightRecorder26setParamInterleaveDurationEi
T _ZN7android19StagefrightRecorder27setParamVideoEncoderProfileEi
T _ZN7android19StagefrightRecorder28setParamAudioEncodingBitRateEi
T _ZN7android19StagefrightRecorder28setParamVideoEncodingBitRateEi
T _ZN7android19StagefrightRecorder28setParamVideoIFramesIntervalEi
T _ZN7android19StagefrightRecorder29setParamAudioNumberOfChannelsEi
T _ZN7android19StagefrightRecorder4initEv
T _ZN7android19StagefrightRecorder4stopEv
T _ZN7android19StagefrightRecorder5closeEv
T _ZN7android19StagefrightRecorder5pauseEv
T _ZN7android19StagefrightRecorder5resetEv
T _ZN7android19StagefrightRecorder5startEv
T _ZN7android19StagefrightRecorder7prepareEv
T _ZN7android19StagefrightRecorder9setCameraERKNS_2spINS_7ICameraEEE
T _ZN7android19StagefrightRecorderC1Ev
T _ZN7android19StagefrightRecorderC2Ev
T _ZN7android19StagefrightRecorderD0Ev
T _ZN7android19StagefrightRecorderD1Ev
T _ZN7android19StagefrightRecorderD2Ev
U _ZN7android20BnMediaPlayerService10onTransactEjRKNS_6ParcelEPS1_j
T _ZN7android21MidiMetadataRetriever13setDataSourceEPKc
T _ZN7android21MidiMetadataRetriever13setDataSourceEixx
T _ZN7android21MidiMetadataRetriever15extractMetadataEi
T _ZN7android21MidiMetadataRetriever19clearMetadataValuesEv
U _ZN7android21defaultServiceManagerEv
D _ZN7android21recordAudioPermissionE
U _ZN7android22checkCallingPermissionERKNS_8String16E
U _ZN7android23IMediaMetadataRetriever10descriptorE
U _ZN7android23IMediaMetadataRetrieverC2Ev
U _ZN7android23IMediaMetadataRetrieverD0Ev
U _ZN7android23IMediaMetadataRetrieverD1Ev
U _ZN7android23IMediaMetadataRetrieverD2Ev
T _ZN7android23MetadataRetrieverClient10disconnectEv
T _ZN7android23MetadataRetrieverClient13setDataSourceEPKc
T _ZN7android23MetadataRetrieverClient13setDataSourceEixx
T _ZN7android23MetadataRetrieverClient14getFrameAtTimeExi
T _ZN7android23MetadataRetrieverClient15extractAlbumArtEv
T _ZN7android23MetadataRetrieverClient15extractMetadataEi
T _ZN7android23MetadataRetrieverClientC1Ei
T _ZN7android23MetadataRetrieverClientC2Ei
T _ZN7android23MetadataRetrieverClientD0Ev
T _ZN7android23MetadataRetrieverClientD1Ev
T _ZN7android23MetadataRetrieverClientD2Ev
U _ZN7android23openContentProviderFileERKNS_8String16E
U _ZN7android24BnMediaMetadataRetriever10onTransactEjRKNS_6ParcelEPS1_j
U _ZN7android24MEDIA_MIMETYPE_AUDIO_AACE
U _ZN7android24MEDIA_MIMETYPE_VIDEO_AVCE
U _ZN7android25MEDIA_MIMETYPE_VIDEO_H263E
U _ZN7android26MEDIA_MIMETYPE_VIDEO_MPEG4E
U _ZN7android27MEDIA_MIMETYPE_AUDIO_AMR_NBE
U _ZN7android27MEDIA_MIMETYPE_AUDIO_AMR_WBE
U _ZN7android28StagefrightMetadataRetrieverC1Ev
W _ZN7android2spINS_10MemoryBaseEEaSEPS1_
W _ZN7android2spINS_11AudioSourceEEaSERKS2_
W _ZN7android2spINS_11MediaSourceEED1Ev
W _ZN7android2spINS_11MediaSourceEEaSERKS2_
W _ZN7android2spINS_11MediaWriterEEaSERKS2_
W _ZN7android2spINS_11MediaWriterEEaSINS_10ARTPWriterEEERS2_PT_
W _ZN7android2spINS_11MediaWriterEEaSINS_9AMRWriterEEERS2_PT_
W _ZN7android2spINS_14MemoryHeapBaseEEaSEPS1_
W _ZN7android2spINS_15MediaPlayerBase9AudioSinkEEaSERKS3_
W _ZN7android2spINS_15MediaPlayerBaseEED1Ev
W _ZN7android2spINS_15MediaPlayerBaseEEaSERKS2_
W _ZN7android2spINS_15MediaPlayerBaseEEaSINS_14TestPlayerStubEEERS2_PT_
W _ZN7android2spINS_15MediaPlayerBaseEEaSINS_17StagefrightPlayerEEERS2_PT_
W _ZN7android2spINS_15MediaPlayerBaseEEaSINS_8MidiFileEEERS2_PT_
W _ZN7android2spINS_18IMediaPlayerClientEEaSERKS2_
W _ZN7android2spINS_18MediaPlayerService11AudioOutputEEaSEPS2_
W _ZN7android2spINS_18MediaPlayerServiceEED1Ev
W _ZN7android2spINS_18MediaPlayerServiceEEaSERKS2_
W _ZN7android2spINS_20IMediaRecorderClientEEaSERKS2_
W _ZN7android2spINS_26MediaMetadataRetrieverBaseEEaSERKS2_
W _ZN7android2spINS_26MediaMetadataRetrieverBaseEEaSINS_21MidiMetadataRetrieverEEERS2_PT_
W _ZN7android2spINS_26MediaMetadataRetrieverBaseEEaSINS_28StagefrightMetadataRetrieverEEERS2_PT_
W _ZN7android2spINS_4IOMXEEaSINS_3OMXEEERS2_PT_
W _ZN7android2spINS_6CameraEED1Ev
W _ZN7android2spINS_6CameraEEaSERKS2_
W _ZN7android2spINS_6ThreadEEaSINS_14CallbackThreadEEERS2_PT_
W _ZN7android2spINS_7IMemoryEE5clearEv
W _ZN7android2spINS_7IMemoryEED1Ev
W _ZN7android2spINS_7IMemoryEEaSINS_10MemoryBaseEEERS2_PT_
W _ZN7android2spINS_8ISurfaceEEaSERKS2_
W _ZN7android2spINS_8MetaDataEED1Ev
W _ZN7android2spINS_8MidiFileEEaSEPS1_
W _ZN7android2wpINS_18MediaPlayerService6ClientEED1Ev
U _ZN7android3OMXC1Ev
U _ZN7android5media8Metadata10appendBoolEib
U _ZN7android5media8Metadata11resetParcelEv
U _ZN7android5media8Metadata12appendHeaderEv
U _ZN7android5media8Metadata12updateLengthEv
U _ZN7android5media8MetadataC1EPNS_6ParcelE
U _ZN7android5media8MetadataD1Ev
U _ZN7android6Camera11stopPreviewEv
U _ZN7android6Camera13setParametersERKNS_7String8E
U _ZN7android6Camera14previewEnabledEv
U _ZN7android6Camera17setPreviewDisplayERKNS_2spINS_8ISurfaceEEE
U _ZN7android6Camera4lockEv
U _ZN7android6Camera6createERKNS_2spINS_7ICameraEEE
U _ZN7android6Camera6unlockEv
U _ZN7android6Camera7connectEi
U _ZN7android6Parcel10writeInt32Ei
U _ZN7android6Thread10readyToRunEv
U _ZN7android6Thread11requestExitEv
U _ZN7android6Thread18requestExitAndWaitEv
U _ZN7android6Thread3runEPKcij
U _ZN7android6ThreadC2Eb
U _ZN7android6ThreadD0Ev
U _ZN7android6ThreadD1Ev
U _ZN7android6ThreadD2Ev
U _ZN7android7ABuffer8setRangeEjj
U _ZN7android7ABufferC1Ej
U _ZN7android7ALooper15registerHandlerERKNS_2spINS_8AHandlerEEE
U _ZN7android7ALooper5startEbbi
U _ZN7android7ALooper7setNameEPKc
U _ZN7android7ALooper8GetNowUsEv
U _ZN7android7ALooperC1Ev
U _ZN7android7AString6appendEPKc
U _ZN7android7AString6appendERKS0_
U _ZN7android7AString6appendEi
U _ZN7android7AString6appendEj
U _ZN7android7AString6appendEl
U _ZN7android7AString6appendEy
U _ZN7android7AStringC1EPKc
U _ZN7android7AStringC1Ev
U _ZN7android7AStringD1Ev
U _ZN7android7AStringaSERKS0_
U _ZN7android7BBinder10onTransactEjRKNS_6ParcelEPS1_j
U _ZN7android7BBinder10pingBinderEv
U _ZN7android7BBinder11linkToDeathERKNS_2spINS_7IBinder14DeathRecipientEEEPvj
U _ZN7android7BBinder11localBinderEv
U _ZN7android7BBinder12attachObjectEPKvPvS3_PFvS2_S3_S3_E
U _ZN7android7BBinder12detachObjectEPKv
U _ZN7android7BBinder13unlinkToDeathERKNS_2wpINS_7IBinder14DeathRecipientEEEPvjPS4_
U _ZN7android7BBinder4dumpEiRKNS_6VectorINS_8String16EEE
U _ZN7android7BBinder8transactEjRKNS_6ParcelEPS1_j
U _ZN7android7BBinderC2Ev
U _ZN7android7BBinderD0Ev
U _ZN7android7BBinderD1Ev
U _ZN7android7BBinderD2Ev
U _ZN7android7IBinder11localBinderEv
U _ZN7android7IBinder12remoteBinderEv
U _ZN7android7IBinder19queryLocalInterfaceERKNS_8String16E
U _ZN7android7IBinderD0Ev
U _ZN7android7IBinderD1Ev
U _ZN7android7RefBase10onFirstRefEv
U _ZN7android7RefBase12weakref_type16attemptIncStrongEPKv
U _ZN7android7RefBase12weakref_type7decWeakEPKv
U _ZN7android7RefBase12weakref_type7incWeakEPKv
U _ZN7android7RefBase13onLastWeakRefEPKv
U _ZN7android7RefBase15onLastStrongRefEPKv
U _ZN7android7RefBase20onIncStrongAttemptedEjPKv
U _ZN7android7RefBaseC2Ev
U _ZN7android7RefBaseD2Ev
U _ZN7android7String85setToEPKc
U _ZN7android7String85setToEPKcj
U _ZN7android7String85setToERKS0_
U _ZN7android7String86appendEPKc
U _ZN7android7String8C1EPKcj
U _ZN7android7String8C1ERKS0_
U _ZN7android7String8C1Ev
U _ZN7android7String8D1Ev
U _ZN7android8AMessage4postEx
U _ZN7android8AMessageC1Eji
U _ZN7android8MetaData10setCStringEjPKc
U _ZN7android8MetaData11findCStringEjPPKc
U _ZN7android8MetaData8setInt32Eji
U _ZN7android8MetaData8setInt64Ejx
U _ZN7android8MetaData9findInt32EjPi
U _ZN7android8MetaData9findInt64EjPx
U _ZN7android8MetaDataC1Ev
T _ZN7android8MidiFile10setLoopingEi
T _ZN7android8MidiFile11getDurationEPi
T _ZN7android8MidiFile12prepareAsyncEv
T _ZN7android8MidiFile12renderThreadEPv
T _ZN7android8MidiFile12reset_nosyncEv
T _ZN7android8MidiFile13setDataSourceEPKcPKNS_11KeyedVectorINS_7String8ES4_EE
T _ZN7android8MidiFile13setDataSourceEixx
T _ZN7android8MidiFile17createOutputTrackEv
T _ZN7android8MidiFile18getCurrentPositionEPi
T _ZN7android8MidiFile4stopEv
T _ZN7android8MidiFile5pauseEv
T _ZN7android8MidiFile5resetEv
T _ZN7android8MidiFile5startEv
T _ZN7android8MidiFile6renderEv
T _ZN7android8MidiFile6seekToEi
T _ZN7android8MidiFile7prepareEv
T _ZN7android8MidiFile7releaseEv
T _ZN7android8MidiFile9initCheckEv
T _ZN7android8MidiFile9isPlayingEv
T _ZN7android8MidiFileC1Ev
T _ZN7android8MidiFileC2Ev
T _ZN7android8MidiFileD0Ev
T _ZN7android8MidiFileD1Ev
T _ZN7android8MidiFileD2Ev
U _ZN7android8OMXCodec6CreateERKNS_2spINS_4IOMXEEERKNS1_INS_8MetaDataEEEbRKNS1_INS_11MediaSourceEEEPKcj
U _ZN7android8String16C1EPKc
U _ZN7android8String16D1Ev
U _ZN7android9AMRWriterC1Ei
D _ZN7android9FILE_EXTSE
U _ZN7android9OMXClient7connectEv
U _ZN7android9OMXClientC1Ev
T _ZN7android9memStatusEiRKNS_6VectorINS_8String16EEE
U _ZNK7android10AudioTrack10frameCountEv
U _ZNK7android10AudioTrack12channelCountEv
U _ZNK7android10AudioTrack4dumpEiRKNS_6VectorINS_8String16EEE
U _ZNK7android10AudioTrack7latencyEv
U _ZNK7android10AudioTrack9frameSizeEv
U _ZNK7android10AudioTrack9initCheckEv
U _ZNK7android11AudioSource9initCheckEv
U _ZNK7android11MediaBuffer12range_lengthEv
U _ZNK7android11MediaBuffer12range_offsetEv
U _ZNK7android11MediaBuffer4dataEv
U _ZNK7android12IMediaPlayer22getInterfaceDescriptorEv
W _ZNK7android12SortedVectorINS_16key_value_pair_tINS_7String8ES2_EEE10do_compareEPKvS6_
W _ZNK7android12SortedVectorINS_16key_value_pair_tINS_7String8ES2_EEE10do_destroyEPvj
W _ZNK7android12SortedVectorINS_16key_value_pair_tINS_7String8ES2_EEE12do_constructEPvj
W _ZNK7android12SortedVectorINS_16key_value_pair_tINS_7String8ES2_EEE15do_move_forwardEPvPKvj
W _ZNK7android12SortedVectorINS_16key_value_pair_tINS_7String8ES2_EEE16do_move_backwardEPvPKvj
W _ZNK7android12SortedVectorINS_16key_value_pair_tINS_7String8ES2_EEE7do_copyEPvPKvj
W _ZNK7android12SortedVectorINS_16key_value_pair_tINS_7String8ES2_EEE8do_splatEPvPKvj
W _ZNK7android12SortedVectorINS_2wpINS_18MediaPlayerService6ClientEEEE10do_compareEPKvS7_
W _ZNK7android12SortedVectorINS_2wpINS_18MediaPlayerService6ClientEEEE10do_destroyEPvj
W _ZNK7android12SortedVectorINS_2wpINS_18MediaPlayerService6ClientEEEE12do_constructEPvj
W _ZNK7android12SortedVectorINS_2wpINS_18MediaPlayerService6ClientEEEE15do_move_forwardEPvPKvj
W _ZNK7android12SortedVectorINS_2wpINS_18MediaPlayerService6ClientEEEE16do_move_backwardEPvPKvj
W _ZNK7android12SortedVectorINS_2wpINS_18MediaPlayerService6ClientEEEE7do_copyEPvPKvj
W _ZNK7android12SortedVectorINS_2wpINS_18MediaPlayerService6ClientEEEE8do_splatEPvPKvj
W _ZNK7android12SortedVectorINS_2wpINS_19MediaRecorderClientEEEE10do_compareEPKvS6_
W _ZNK7android12SortedVectorINS_2wpINS_19MediaRecorderClientEEEE10do_destroyEPvj
W _ZNK7android12SortedVectorINS_2wpINS_19MediaRecorderClientEEEE12do_constructEPvj
W _ZNK7android12SortedVectorINS_2wpINS_19MediaRecorderClientEEEE15do_move_forwardEPvPKvj
W _ZNK7android12SortedVectorINS_2wpINS_19MediaRecorderClientEEEE16do_move_backwardEPvPKvj
W _ZNK7android12SortedVectorINS_2wpINS_19MediaRecorderClientEEEE7do_copyEPvPKvj
W _ZNK7android12SortedVectorINS_2wpINS_19MediaRecorderClientEEEE8do_splatEPvPKvj
W _ZNK7android12SortedVectorIiE10do_compareEPKvS3_
W _ZNK7android12SortedVectorIiE10do_destroyEPvj
W _ZNK7android12SortedVectorIiE12do_constructEPvj
W _ZNK7android12SortedVectorIiE15do_move_forwardEPvPKvj
W _ZNK7android12SortedVectorIiE16do_move_backwardEPvPKvj
W _ZNK7android12SortedVectorIiE7do_copyEPvPKvj
W _ZNK7android12SortedVectorIiE8do_splatEPvPKvj
U _ZNK7android13AwesomePlayer5flagsEv
U _ZNK7android13AwesomePlayer9isPlayingEv
U _ZNK7android13MediaProfiles26getVideoEncoderParamByNameEPKcNS_13video_encoderE
U _ZNK7android14IMediaRecorder22getInterfaceDescriptorEv
U _ZNK7android14MemoryHeapBase9getDeviceEv
U _ZNK7android16CameraParameters14getPreviewSizeEPiS1_
U _ZNK7android16CameraParameters19getPreviewFrameRateEv
U _ZNK7android16CameraParameters7flattenEv
U _ZNK7android16SortedVectorImpl7indexOfEPKv
T _ZNK7android18MediaPlayerService10AudioCache13msecsPerFrameEv
T _ZNK7android18MediaPlayerService10AudioCache4dumpEiRKNS_6VectorINS_8String16EEE
T _ZNK7android18MediaPlayerService10AudioCache7latencyEv
T _ZNK7android18MediaPlayerService11AudioOutput10bufferSizeEv
T _ZNK7android18MediaPlayerService11AudioOutput10frameCountEv
T _ZNK7android18MediaPlayerService11AudioOutput12channelCountEv
T _ZNK7android18MediaPlayerService11AudioOutput13msecsPerFrameEv
T _ZNK7android18MediaPlayerService11AudioOutput4dumpEiRKNS_6VectorINS_8String16EEE
T _ZNK7android18MediaPlayerService11AudioOutput7latencyEv
T _ZNK7android18MediaPlayerService11AudioOutput9frameSizeEv
T _ZNK7android18MediaPlayerService6Client18shouldDropMetadataEi
T _ZNK7android18MediaPlayerService6Client4dumpEiRKNS_6VectorINS_8String16EEE
U _ZNK7android19IMediaPlayerService22getInterfaceDescriptorEv
T _ZNK7android19MediaRecorderClient4dumpEiRKNS_6VectorINS_8String16EEE
T _ZNK7android19StagefrightRecorder4dumpEiRKNS_6VectorINS_8String16EEE
U _ZNK7android23IMediaMetadataRetriever22getInterfaceDescriptorEv
T _ZNK7android23MetadataRetrieverClient4dumpEiRKNS_6VectorINS_8String16EEE
U _ZNK7android6Camera13getParametersEv
U _ZNK7android6Parcel11readInplaceEj
U _ZNK7android6Parcel9dataAvailEv
U _ZNK7android6Parcel9readInt32EPi
W _ZNK7android6VectorIhE10do_destroyEPvj
W _ZNK7android6VectorIhE12do_constructEPvj
W _ZNK7android6VectorIhE15do_move_forwardEPvPKvj
W _ZNK7android6VectorIhE16do_move_backwardEPvPKvj
W _ZNK7android6VectorIhE7do_copyEPvPKvj
W _ZNK7android6VectorIhE8do_splatEPvPKvj
U _ZNK7android7AString5c_strEv
U _ZNK7android7AString5emptyEv
U _ZNK7android7BBinder10findObjectEPKv
U _ZNK7android7BBinder13isBinderAliveEv
U _ZNK7android7BBinder22getInterfaceDescriptorEv
U _ZNK7android7IBinder13checkSubclassEPKv
U _ZNK7android7IMemory7pointerEv
U _ZNK7android7RefBase10createWeakEPKv
U _ZNK7android7RefBase9decStrongEPKv
U _ZNK7android7RefBase9incStrongEPKv
U _ZNK7android8AMessage4whatEv
V _ZTCN7android11BnInterfaceINS_12IMediaPlayerEEE0_NS_10IInterfaceE
V _ZTCN7android11BnInterfaceINS_12IMediaPlayerEEE0_S1_
V _ZTCN7android11BnInterfaceINS_12IMediaPlayerEEE4_NS_7BBinderE
V _ZTCN7android11BnInterfaceINS_12IMediaPlayerEEE4_NS_7IBinderE
V _ZTCN7android11BnInterfaceINS_14IMediaRecorderEEE0_NS_10IInterfaceE
V _ZTCN7android11BnInterfaceINS_14IMediaRecorderEEE0_S1_
V _ZTCN7android11BnInterfaceINS_14IMediaRecorderEEE4_NS_7BBinderE
V _ZTCN7android11BnInterfaceINS_14IMediaRecorderEEE4_NS_7IBinderE
V _ZTCN7android11BnInterfaceINS_19IMediaPlayerServiceEEE0_NS_10IInterfaceE
V _ZTCN7android11BnInterfaceINS_19IMediaPlayerServiceEEE0_S1_
V _ZTCN7android11BnInterfaceINS_19IMediaPlayerServiceEEE4_NS_7BBinderE
V _ZTCN7android11BnInterfaceINS_19IMediaPlayerServiceEEE4_NS_7IBinderE
V _ZTCN7android11BnInterfaceINS_23IMediaMetadataRetrieverEEE0_NS_10IInterfaceE
V _ZTCN7android11BnInterfaceINS_23IMediaMetadataRetrieverEEE0_S1_
V _ZTCN7android11BnInterfaceINS_23IMediaMetadataRetrieverEEE4_NS_7BBinderE
V _ZTCN7android11BnInterfaceINS_23IMediaMetadataRetrieverEEE4_NS_7IBinderE
D _ZTCN7android14CallbackThreadE0_NS_6ThreadE
D _ZTCN7android18MediaPlayerService6ClientE0_NS_10IInterfaceE
D _ZTCN7android18MediaPlayerService6ClientE0_NS_11BnInterfaceINS_12IMediaPlayerEEE
D _ZTCN7android18MediaPlayerService6ClientE0_NS_12IMediaPlayerE
D _ZTCN7android18MediaPlayerService6ClientE0_NS_13BnMediaPlayerE
D _ZTCN7android18MediaPlayerService6ClientE4_NS_7BBinderE
D _ZTCN7android18MediaPlayerService6ClientE4_NS_7IBinderE
D _ZTCN7android18MediaPlayerServiceE0_NS_10IInterfaceE
D _ZTCN7android18MediaPlayerServiceE0_NS_11BnInterfaceINS_19IMediaPlayerServiceEEE
D _ZTCN7android18MediaPlayerServiceE0_NS_19IMediaPlayerServiceE
D _ZTCN7android18MediaPlayerServiceE0_NS_20BnMediaPlayerServiceE
D _ZTCN7android18MediaPlayerServiceE4_NS_7BBinderE
D _ZTCN7android18MediaPlayerServiceE4_NS_7IBinderE
D _ZTCN7android19MediaRecorderClientE0_NS_10IInterfaceE
D _ZTCN7android19MediaRecorderClientE0_NS_11BnInterfaceINS_14IMediaRecorderEEE
D _ZTCN7android19MediaRecorderClientE0_NS_14IMediaRecorderE
D _ZTCN7android19MediaRecorderClientE0_NS_15BnMediaRecorderE
D _ZTCN7android19MediaRecorderClientE4_NS_7BBinderE
D _ZTCN7android19MediaRecorderClientE4_NS_7IBinderE
D _ZTCN7android23MetadataRetrieverClientE0_NS_10IInterfaceE
D _ZTCN7android23MetadataRetrieverClientE0_NS_11BnInterfaceINS_23IMediaMetadataRetrieverEEE
D _ZTCN7android23MetadataRetrieverClientE0_NS_23IMediaMetadataRetrieverE
D _ZTCN7android23MetadataRetrieverClientE0_NS_24BnMediaMetadataRetrieverE
D _ZTCN7android23MetadataRetrieverClientE4_NS_7BBinderE
D _ZTCN7android23MetadataRetrieverClientE4_NS_7IBinderE
V _ZTTN7android11BnInterfaceINS_12IMediaPlayerEEE
V _ZTTN7android11BnInterfaceINS_14IMediaRecorderEEE
V _ZTTN7android11BnInterfaceINS_19IMediaPlayerServiceEEE
V _ZTTN7android11BnInterfaceINS_23IMediaMetadataRetrieverEEE
U _ZTTN7android13BnMediaPlayerE
D _ZTTN7android14CallbackThreadE
U _ZTTN7android15BnMediaRecorderE
D _ZTTN7android18MediaPlayerService6ClientE
D _ZTTN7android18MediaPlayerServiceE
D _ZTTN7android19MediaRecorderClientE
U _ZTTN7android20BnMediaPlayerServiceE
D _ZTTN7android23MetadataRetrieverClientE
U _ZTTN7android24BnMediaMetadataRetrieverE
D _ZTVN7android10ARTPWriterE
V _ZTVN7android11BnInterfaceINS_12IMediaPlayerEEE
V _ZTVN7android11BnInterfaceINS_14IMediaRecorderEEE
V _ZTVN7android11BnInterfaceINS_19IMediaPlayerServiceEEE
V _ZTVN7android11BnInterfaceINS_23IMediaMetadataRetrieverEEE
V _ZTVN7android11MediaWriterE
V _ZTVN7android12SortedVectorINS_16key_value_pair_tINS_7String8ES2_EEEE
V _ZTVN7android12SortedVectorINS_2wpINS_18MediaPlayerService6ClientEEEEE
V _ZTVN7android12SortedVectorINS_2wpINS_19MediaRecorderClientEEEEE
V _ZTVN7android12SortedVectorIiEE
U _ZTVN7android13BnMediaPlayerE
D _ZTVN7android14CallbackThreadE
D _ZTVN7android14TestPlayerStubE
U _ZTVN7android15BnMediaRecorderE
V _ZTVN7android15MediaPlayerBase9AudioSinkE
V _ZTVN7android15MediaPlayerBaseE
V _ZTVN7android17AHandlerReflectorINS_10ARTPWriterEEE
V _ZTVN7android17MediaRecorderBaseE
D _ZTVN7android17StagefrightPlayerE
D _ZTVN7android18MediaPlayerService10AudioCacheE
D _ZTVN7android18MediaPlayerService11AudioOutputE
D _ZTVN7android18MediaPlayerService6ClientE
D _ZTVN7android18MediaPlayerServiceE
D _ZTVN7android19MediaRecorderClientE
D _ZTVN7android19StagefrightRecorderE
U _ZTVN7android20BnMediaPlayerServiceE
V _ZTVN7android20MediaPlayerInterfaceE
D _ZTVN7android21MidiMetadataRetrieverE
D _ZTVN7android23MetadataRetrieverClientE
U _ZTVN7android24BnMediaMetadataRetrieverE
V _ZTVN7android26MediaMetadataRetrieverBaseE
V _ZTVN7android31MediaMetadataRetrieverInterfaceE
V _ZTVN7android6VectorIhEE
V _ZTVN7android8AHandlerE
D _ZTVN7android8MidiFileE
U _ZThn4_N7android13BnMediaPlayer10onTransactEjRKNS_6ParcelEPS1_j
U _ZThn4_N7android15BnMediaRecorder10onTransactEjRKNS_6ParcelEPS1_j
T _ZThn4_N7android18MediaPlayerService4dumpEiRKNS_6VectorINS_8String16EEE
T _ZThn4_N7android18MediaPlayerService6ClientD0Ev
T _ZThn4_N7android18MediaPlayerService6ClientD1Ev
T _ZThn4_N7android18MediaPlayerServiceD0Ev
T _ZThn4_N7android18MediaPlayerServiceD1Ev
T _ZThn4_N7android19MediaRecorderClientD0Ev
T _ZThn4_N7android19MediaRecorderClientD1Ev
U _ZThn4_N7android20BnMediaPlayerService10onTransactEjRKNS_6ParcelEPS1_j
T _ZThn4_N7android23MetadataRetrieverClientD0Ev
T _ZThn4_N7android23MetadataRetrieverClientD1Ev
U _ZThn4_N7android24BnMediaMetadataRetriever10onTransactEjRKNS_6ParcelEPS1_j
U _ZTv0_n12_N7android10IInterfaceD0Ev
U _ZTv0_n12_N7android10IInterfaceD1Ev
W _ZTv0_n12_N7android11BnInterfaceINS_12IMediaPlayerEED0Ev
W _ZTv0_n12_N7android11BnInterfaceINS_12IMediaPlayerEED1Ev
W _ZTv0_n12_N7android11BnInterfaceINS_14IMediaRecorderEED0Ev
W _ZTv0_n12_N7android11BnInterfaceINS_14IMediaRecorderEED1Ev
W _ZTv0_n12_N7android11BnInterfaceINS_19IMediaPlayerServiceEED0Ev
W _ZTv0_n12_N7android11BnInterfaceINS_19IMediaPlayerServiceEED1Ev
W _ZTv0_n12_N7android11BnInterfaceINS_23IMediaMetadataRetrieverEED0Ev
W _ZTv0_n12_N7android11BnInterfaceINS_23IMediaMetadataRetrieverEED1Ev
U _ZTv0_n12_N7android12IMediaPlayerD0Ev
U _ZTv0_n12_N7android12IMediaPlayerD1Ev
W _ZTv0_n12_N7android13BnMediaPlayerD0Ev
W _ZTv0_n12_N7android13BnMediaPlayerD1Ev
T _ZTv0_n12_N7android14CallbackThreadD0Ev
T _ZTv0_n12_N7android14CallbackThreadD1Ev
U _ZTv0_n12_N7android14IMediaRecorderD0Ev
U _ZTv0_n12_N7android14IMediaRecorderD1Ev
W _ZTv0_n12_N7android15BnMediaRecorderD0Ev
W _ZTv0_n12_N7android15BnMediaRecorderD1Ev
T _ZTv0_n12_N7android18MediaPlayerService6ClientD0Ev
T _ZTv0_n12_N7android18MediaPlayerService6ClientD1Ev
T _ZTv0_n12_N7android18MediaPlayerServiceD0Ev
T _ZTv0_n12_N7android18MediaPlayerServiceD1Ev
U _ZTv0_n12_N7android19IMediaPlayerServiceD0Ev
U _ZTv0_n12_N7android19IMediaPlayerServiceD1Ev
T _ZTv0_n12_N7android19MediaRecorderClientD0Ev
T _ZTv0_n12_N7android19MediaRecorderClientD1Ev
W _ZTv0_n12_N7android20BnMediaPlayerServiceD0Ev
W _ZTv0_n12_N7android20BnMediaPlayerServiceD1Ev
U _ZTv0_n12_N7android23IMediaMetadataRetrieverD0Ev
U _ZTv0_n12_N7android23IMediaMetadataRetrieverD1Ev
T _ZTv0_n12_N7android23MetadataRetrieverClientD0Ev
T _ZTv0_n12_N7android23MetadataRetrieverClientD1Ev
W _ZTv0_n12_N7android24BnMediaMetadataRetrieverD0Ev
W _ZTv0_n12_N7android24BnMediaMetadataRetrieverD1Ev
U _ZTv0_n12_N7android6ThreadD0Ev
U _ZTv0_n12_N7android6ThreadD1Ev
U _ZTv0_n12_N7android7BBinderD0Ev
U _ZTv0_n12_N7android7BBinderD1Ev
U _ZTv0_n12_N7android7IBinderD0Ev
U _ZTv0_n12_N7android7IBinderD1Ev
U _ZdaPv
U _ZdlPv
U _Znaj
U _Znwj
T __FINI_ARRAY__
T __INIT_ARRAY__
U __aeabi_d2iz
U __aeabi_ddiv
U __aeabi_dmul
U __aeabi_f2d
U __aeabi_fdiv
U __aeabi_i2d
U __aeabi_idivmod
U __aeabi_ldivmod
U __aeabi_lmul
U __aeabi_ui2f
U __aeabi_uidiv
U __aeabi_uldivmod
U __aeabi_unwind_cpp_pr0
U __android_log_assert
U __android_log_print
A __bss_end__
A __bss_start
A __bss_start__
U __cxa_finalize
U __cxa_pure_virtual
D __data_start
B __dso_handle
A __end__
U __errno
A __exidx_end
A __exidx_start
U __stack_chk_fail
U __stack_chk_guard
A _bss_end__
U _ctype_
A _edata
A _end
A _stack
U androidCreateThreadEtc
U android_atomic_inc
U close
U closedir
U dlclose
U dlerror
U dlopen
U dlsym
U dup
U fclose
U fgets
U fopen
U free
U free_malloc_leak_info
U fstat
U get_malloc_leak_info
U getpid
U gettid
U inet_ntoa
U lrand48
U lseek
U lstat
U malloc
U memcmp
U memcpy
U memmove
U memset
U opendir
U property_get
U pthread_cond_destroy
U pthread_cond_init
U pthread_cond_signal
U pthread_cond_wait
U pthread_mutex_destroy
U pthread_mutex_init
U pthread_mutex_lock
U pthread_mutex_unlock
U read
U readdir
U readlink
U sendto
U snprintf
U socket
U strcasecmp
U strcat
U strchr
U strcmp
U strdup
U strerror
U strlen
U strncasecmp
U strncmp
U strstr
U strtoll
U strzcmp16
U systemTime
U write
