T RIL_Init
U RIL_register
T SchemaObjectTemplateInit
T V8_Fatal
B WorkerV8Template
T _Z10ReqSetMutePP6BufferPKvjPv
T _Z10RspStringsiPv9RIL_ErrnoP6Buffer
T _Z10testWorkerv
T _Z11DecodeBytesN2v86HandleINS_5ValueEEE8encoding
T _Z11DecodeWritePcjN2v86HandleINS0_5ValueEEE8encoding
T _Z11RspIntegersiPv9RIL_ErrnoP6Buffer
T _Z11RspOperatoriPv9RIL_ErrnoP6Buffer
T _Z11experimentsN2v86HandleINS_7ContextEEE
T _Z11testMsSleepN2v86HandleINS_7ContextEEE
T _Z11testStlPortv
T _Z12WorkerV8Initv
T _Z12requestsInitN2v86HandleINS_7ContextEEEPP21RilRequestWorkerQueue
T _Z12startMockRilN2v86HandleINS_7ContextEEE
T _Z12testReadFilev
T _Z12testRequestsN2v86HandleINS_7ContextEEE
T _Z12testWorkerV8N2v86HandleINS_7ContextEEE
T _Z13ErrorCallbackN2v86HandleINS_7MessageEEENS0_INS_5ValueEEE
T _Z13ParseEncodingN2v86HandleINS_5ValueEEE8encoding
T _Z13ReqWithNoDataPP6BufferPKvjPv
T _Z13RspWithNoDataiPv9RIL_ErrnoP6Buffer
T _Z13makeJsContextv
T _Z13responsesInitN2v86HandleINS_7ContextEEE
T _Z13testJsSupportN2v86HandleINS_7ContextEEE
T _Z14CreateFileNameRKN2v89ArgumentsE
T _Z14ReqEnterSimPinPP6BufferPKvjPv
T _Z14ReqScreenStatePP6BufferPKvjPv
T _Z14ctrlServerInitN2v86HandleINS_7ContextEEE
T _Z14testProtobufV8N2v86HandleINS_7ContextEEE
T _Z14testRadioStateN2v86HandleINS_7ContextEEE
T _Z14testRilRequestN2v86HandleINS_7ContextEEEiPKvjPv
T _Z15LogErrorMessageN2v86HandleINS_7MessageEEEPKc
T _Z15ReportExceptionPN2v88TryCatchE
T _Z15RspGetSimStatusiPv9RIL_ErrnoP6Buffer
T _Z16RadioStateGetterN2v85LocalINS_6StringEEERKNS_12AccessorInfoE
T _Z16RadioStateSetterN2v85LocalINS_6StringEEENS0_INS_5ValueEEERKNS_12AccessorInfoE
T _Z16ReadFileToBufferRKN2v89ArgumentsE
T _Z16ReadFileToStringRKN2v89ArgumentsE
T _Z16callOnRilRequestN2v86HandleINS_7ContextEEEiPKvPv
T _Z16callOnRilRequestN2v86HandleINS_7ContextEEEiPvjS3_
T _Z16testCompileErrorN2v86HandleINS_7ContextEEE
T _Z16testRuntimeErrorN2v86HandleINS_7ContextEEE
T _Z17CheckEqualsHelperPKciS0_N2v86HandleINS1_5ValueEEES0_S4_
T _Z17GetReqScreenStateN2v85LocalINS_6StringEEERKNS_12AccessorInfoE
T _Z17RspSignalStrengthiPv9RIL_ErrnoP6Buffer
T _Z18RspEnterSimPinDataiPv9RIL_ErrnoP6Buffer
T _Z18RspGetCurrentCallsiPv9RIL_ErrnoP6Buffer
T _Z20CheckNonEqualsHelperPKciS0_N2v86HandleINS1_5ValueEEES0_S4_
T _Z21ReqSeparateConnectionPP6BufferPKvjPv
T _Z21testReqHangUpProtobufv
T _Z22SendRilRequestCompleteRKN2v89ArgumentsE
T _Z22UnsolRspSignalStrengthiP6Buffer
T _Z23SendCtrlRequestCompleteRKN2v89ArgumentsE
T _Z26SendRilUnsolicitedResponseRKN2v89ArgumentsE
T _Z26WorkerV8ObjectTemplateInitN2v86HandleINS_14ObjectTemplateEEE
T _Z26testReadFileToStringBufferN2v86HandleINS_7ContextEEE
T _Z26testReqScreenStateProtobufv
T _Z35testOnRilRequestUsingCppRequestObjsN2v86HandleINS_7ContextEEE
T _Z5PrintRKN2v89ArgumentsE
T _Z5runJsN2v86HandleINS_7ContextEEEPNS_8TryCatchEPKcS6_
T _Z6EncodePKvj8encoding
T _Z7IncludeRKN2v89ArgumentsE
T _Z7MsSleepRKN2v89ArgumentsE
T _Z7ReqDialPP6BufferPKvjPv
T _Z8ReadFilePKcPPcPj
T _Z9API_FatalPKcS0_z
T _Z9ReqHangUpPP6BufferPKvjPv
T _Z9RspStringiPv9RIL_ErrnoP6Buffer
T _Z9ToCStringN2v86HandleINS_5ValueEEE
T _Z9ToCStringRKN2v86String10AsciiValueE
T _Z9ToCStringRKN2v86String9Utf8ValueE
T _Z9testPrintN2v86HandleINS_7ContextEEE
T _ZN11WorkerQueue10AddDelayedEPvi
T _ZN11WorkerQueue13obtain_recordEPvi
T _ZN11WorkerQueue14release_recordEPNS_6RecordE
T _ZN11WorkerQueue3AddEPv
T _ZN11WorkerQueue3RunEv
T _ZN11WorkerQueue4StopEv
T _ZN11WorkerQueueC1Ev
T _ZN11WorkerQueueC2Ev
T _ZN11WorkerQueueD0Ev
T _ZN11WorkerQueueD1Ev
T _ZN11WorkerQueueD2Ev
B _ZN11protobuf_v812TypeTemplateE
B _ZN11protobuf_v813ParseTemplateE
B _ZN11protobuf_v814SchemaTemplateE
B _ZN11protobuf_v817SerializeTemplateE
T _ZN11protobuf_v84InitEv
T _ZN12WorkerThread13BeginStoppingEv
T _ZN12WorkerThread16WaitUntilStoppedEv
T _ZN12WorkerThread3RunEPv
T _ZN12WorkerThread4StopEv
T _ZN12WorkerThread4WorkEPv
T _ZN12WorkerThread9isRunningEv
T _ZN12WorkerThreadC1Ev
T _ZN12WorkerThreadC2Ev
T _ZN12WorkerThreadD0Ev
T _ZN12WorkerThreadD1Ev
T _ZN12WorkerThreadD2Ev
T _ZN13communication34protobuf_AddDesc_msgheader_2eprotoEv
T _ZN13communication37protobuf_AssignDesc_msgheader_2eprotoEv
T _ZN13communication39protobuf_ShutdownFile_msgheader_2eprotoEv
B _ZN13communication48static_descriptor_initializer_msgheader_2eproto_E
T _ZN13communication9MsgHeader10SharedCtorEv
T _ZN13communication9MsgHeader10SharedDtorEv
T _ZN13communication9MsgHeader10descriptorEv
R _ZN13communication9MsgHeader15kCmdFieldNumberE
T _ZN13communication9MsgHeader16default_instanceEv
B _ZN13communication9MsgHeader17default_instance_E
R _ZN13communication9MsgHeader17kTokenFieldNumberE
R _ZN13communication9MsgHeader18kStatusFieldNumberE
T _ZN13communication9MsgHeader21InitAsDefaultInstanceEv
R _ZN13communication9MsgHeader22kLengthDataFieldNumberE
T _ZN13communication9MsgHeader27MergePartialFromCodedStreamEPN6google8protobuf2io16CodedInputStreamE
T _ZN13communication9MsgHeader4SwapEPS0_
T _ZN13communication9MsgHeader5ClearEv
T _ZN13communication9MsgHeader8CopyFromERKN6google8protobuf7MessageE
T _ZN13communication9MsgHeader8CopyFromERKS0_
T _ZN13communication9MsgHeader9MergeFromERKN6google8protobuf7MessageE
T _ZN13communication9MsgHeader9MergeFromERKS0_
T _ZN13communication9MsgHeaderC1ERKS0_
T _ZN13communication9MsgHeaderC1Ev
T _ZN13communication9MsgHeaderC2ERKS0_
T _ZN13communication9MsgHeaderC2Ev
T _ZN13communication9MsgHeaderD0Ev
T _ZN13communication9MsgHeaderD1Ev
T _ZN13communication9MsgHeaderD2Ev
T _ZN21RilRequestWorkerQueue10AddRequestEiPKvjPv
T _ZN21RilRequestWorkerQueue7ProcessEPv
T _ZN21RilRequestWorkerQueueC1EN2v86HandleINS0_7ContextEEE
T _ZN21RilRequestWorkerQueueC2EN2v86HandleINS0_7ContextEEE
T _ZN21RilRequestWorkerQueueD0Ev
T _ZN21RilRequestWorkerQueueD1Ev
T _ZN21RilRequestWorkerQueueD2Ev
T _ZN2v810ScriptData10PreCompileEPKci
T _ZN2v810ScriptData3NewEPji
T _ZN2v810TypeSwitch3NewENS_6HandleINS_16FunctionTemplateEEE
T _ZN2v810TypeSwitch3NewEiPNS_6HandleINS_16FunctionTemplateEEE
T _ZN2v810TypeSwitch5matchENS_6HandleINS_5ValueEEE
T _ZN2v811HandleScope12CreateHandleEPNS_8internal6ObjectE
T _ZN2v811HandleScope15NumberOfHandlesEv
T _ZN2v811HandleScope8RawCloseEPPNS_8internal6ObjectE
T _ZN2v811HandleScopeC1Ev
T _ZN2v811HandleScopeC2Ev
T _ZN2v811HandleScopeD1Ev
T _ZN2v811HandleScopeD2Ev
T _ZN2v812NeanderArray3addENS_8internal6HandleINS1_6ObjectEEE
T _ZN2v812NeanderArray3getEi
T _ZN2v812NeanderArray3setEiPNS_8internal6ObjectE
T _ZN2v812NeanderArray6lengthEv
T _ZN2v812NeanderArrayC1Ev
T _ZN2v812NeanderArrayC2Ev
T _ZN2v813NeanderObject4sizeEv
T _ZN2v813NeanderObjectC1Ei
T _ZN2v813NeanderObjectC2Ei
T _ZN2v814HeapStatisticsC1Ev
T _ZN2v814HeapStatisticsC2Ev
T _ZN2v814ObjectTemplate11NewInstanceEv
T _ZN2v814ObjectTemplate11SetAccessorENS_6HandleINS_6StringEEEPFNS1_INS_5ValueEEENS_5LocalIS2_EERKNS_12AccessorInfoEEPFvS7_NS6_IS4_EESA_ES5_NS_13AccessControlENS_17PropertyAttributeE
T _ZN2v814ObjectTemplate18InternalFieldCountEv
T _ZN2v814ObjectTemplate18MarkAsUndetectableEv
T _ZN2v814ObjectTemplate21SetInternalFieldCountEi
T _ZN2v814ObjectTemplate23SetAccessCheckCallbacksEPFbNS_5LocalINS_6ObjectEEENS1_INS_5ValueEEENS_10AccessTypeES5_EPFbS3_jS6_S5_ENS_6HandleIS4_EEb
T _ZN2v814ObjectTemplate23SetNamedPropertyHandlerEPFNS_6HandleINS_5ValueEEENS_5LocalINS_6StringEEERKNS_12AccessorInfoEEPFS3_S6_NS4_IS2_EES9_EPFNS1_INS_7BooleanEEES6_S9_ESI_PFNS1_INS_5ArrayEEES9_ES3_
T _ZN2v814ObjectTemplate24SetCallAsFunctionHandlerEPFNS_6HandleINS_5ValueEEERKNS_9ArgumentsEES3_
T _ZN2v814ObjectTemplate25SetIndexedPropertyHandlerEPFNS_6HandleINS_5ValueEEEjRKNS_12AccessorInfoEEPFS3_jNS_5LocalIS2_EES6_EPFNS1_INS_7BooleanEEEjS6_ESG_PFNS1_INS_5ArrayEEES6_ES3_
T _ZN2v814ObjectTemplate3NewENS_6HandleINS_16FunctionTemplateEEE
T _ZN2v814ObjectTemplate3NewEv
T _ZN2v814ThrowExceptionENS_6HandleINS_5ValueEEE
T _ZN2v816FunctionTemplate11GetFunctionEv
T _ZN2v816FunctionTemplate11HasInstanceENS_6HandleINS_5ValueEEE
T _ZN2v816FunctionTemplate12SetClassNameENS_6HandleINS_6StringEEE
T _ZN2v816FunctionTemplate14SetCallHandlerEPFNS_6HandleINS_5ValueEEERKNS_9ArgumentsEES3_
T _ZN2v816FunctionTemplate16InstanceTemplateEv
T _ZN2v816FunctionTemplate17PrototypeTemplateEv
T _ZN2v816FunctionTemplate18SetHiddenPrototypeEb
T _ZN2v816FunctionTemplate27AddInstancePropertyAccessorENS_6HandleINS_6StringEEEPFNS1_INS_5ValueEEENS_5LocalIS2_EERKNS_12AccessorInfoEEPFvS7_NS6_IS4_EESA_ES5_NS_13AccessControlENS_17PropertyAttributeE
T _ZN2v816FunctionTemplate31SetNamedInstancePropertyHandlerEPFNS_6HandleINS_5ValueEEENS_5LocalINS_6StringEEERKNS_12AccessorInfoEEPFS3_S6_NS4_IS2_EES9_EPFNS1_INS_7BooleanEEES6_S9_ESI_PFNS1_INS_5ArrayEEES9_ES3_
T _ZN2v816FunctionTemplate32SetInstanceCallAsFunctionHandlerEPFNS_6HandleINS_5ValueEEERKNS_9ArgumentsEES3_
T _ZN2v816FunctionTemplate33SetIndexedInstancePropertyHandlerEPFNS_6HandleINS_5ValueEEEjRKNS_12AccessorInfoEEPFS3_jNS_5LocalIS2_EES6_EPFNS1_INS_7BooleanEEEjS6_ESG_PFNS1_INS_5ArrayEEES6_ES3_
T _ZN2v816FunctionTemplate3NewEPFNS_6HandleINS_5ValueEEERKNS_9ArgumentsEES3_NS1_INS_9SignatureEEE
T _ZN2v816FunctionTemplate7InheritENS_6HandleIS0_EE
T _ZN2v817RegisterExtensionEPNS_9ExtensionE
B _ZN2v819RegisteredExtension16first_extension_E
T _ZN2v819RegisteredExtension8RegisterEPS0_
T _ZN2v819RegisteredExtensionC1EPNS_9ExtensionE
T _ZN2v819RegisteredExtensionC2EPNS_9ExtensionE
T _ZN2v819ResourceConstraintsC1Ev
T _ZN2v819ResourceConstraintsC2Ev
T _ZN2v822SetResourceConstraintsEPNS_19ResourceConstraintsE
T _ZN2v823ImplementationUtilities18CurrentHandleScopeEv
T _ZN2v823ImplementationUtilities4NullEv
T _ZN2v823ImplementationUtilities4TrueEv
T _ZN2v823ImplementationUtilities5FalseEv
T _ZN2v823ImplementationUtilities9UndefinedEv
T _ZN2v823NewExternalStringHandleEPNS_6String22ExternalStringResourceE
T _ZN2v828NewExternalAsciiStringHandleEPNS_6String27ExternalAsciiStringResourceE
T _ZN2v82V810GetVersionEv
T _ZN2v82V810InitializeEv
T _ZN2v82V811GetLogLinesEiPci
T _ZN2v82V812IsGlobalWeakEPPNS_8internal6ObjectE
T _ZN2v82V813DisposeGlobalEPPNS_8internal6ObjectE
T _ZN2v82V813PauseProfilerEv
T _ZN2v82V814AddObjectGroupEPNS_10PersistentINS_5ValueEEEj
T _ZN2v82V814ResumeProfilerEv
T _ZN2v82V815PauseProfilerExEii
T _ZN2v82V816IdleNotificationEv
T _ZN2v82V816IsProfilerPausedEv
T _ZN2v82V816ResumeProfilerExEii
T _ZN2v82V817GetHeapStatisticsEPNS_14HeapStatisticsE
T _ZN2v82V817IsGlobalNearDeathEPPNS_8internal6ObjectE
T _ZN2v82V818AddMessageListenerEPFvNS_6HandleINS_7MessageEEENS1_INS_5ValueEEEES5_
T _ZN2v82V818GetCurrentThreadIdEv
T _ZN2v82V818GlobalizeReferenceEPPNS_8internal6ObjectE
T _ZN2v82V818SetCounterFunctionEPFPiPKcE
T _ZN2v82V818SetFlagsFromStringEPKci
T _ZN2v82V818TerminateExecutionEi
T _ZN2v82V818TerminateExecutionEv
T _ZN2v82V820SetFatalErrorHandlerEPFvPKcS2_E
T _ZN2v82V821LowMemoryNotificationEv
T _ZN2v82V822RemoveMessageListenersEPFvNS_6HandleINS_7MessageEEENS1_INS_5ValueEEEE
T _ZN2v82V823SetFlagsFromCommandLineEPiPPcb
T _ZN2v82V824EnableSlidingStateWindowEv
T _ZN2v82V824GetActiveProfilerModulesEv
T _ZN2v82V826IgnoreOutOfMemoryExceptionEv
T _ZN2v82V826SetCreateHistogramFunctionEPFPvPKciijE
T _ZN2v82V827SetGlobalGCEpilogueCallbackEPFvvE
T _ZN2v82V827SetGlobalGCPrologueCallbackEPFvvE
T _ZN2v82V829SetAddHistogramSampleFunctionEPFvPviE
T _ZN2v82V836SetFailedAccessCheckCallbackFunctionEPFvNS_5LocalINS_6ObjectEEENS_10AccessTypeENS1_INS_5ValueEEEE
T _ZN2v82V837AdjustAmountOfExternalAllocatedMemoryEi
T _ZN2v82V86IsDeadEv
T _ZN2v82V87DisposeEv
T _ZN2v82V88MakeWeakEPPNS_8internal6ObjectEPvPFvNS_10PersistentINS_5ValueEEES5_E
T _ZN2v82V89ClearWeakEPPNS_8internal6ObjectE
T _ZN2v84Date3NewEd
T _ZN2v84Date9CheckCastEPNS_5ValueE
T _ZN2v84NullEv
T _ZN2v84TrueEv
T _ZN2v85Array14CloneElementAtEj
T _ZN2v85Array3NewEi
T _ZN2v85Array9CheckCastEPNS_5ValueE
T _ZN2v85Debug10DebugBreakEv
T _ZN2v85Debug11EnableAgentEPKcib
T _ZN2v85Debug11SendCommandEPKtiPNS0_10ClientDataE
T _ZN2v85Debug17SetMessageHandlerEPFvPKtiPNS0_10ClientDataEEb
T _ZN2v85Debug18SetMessageHandler2EPFvRKNS0_7MessageEE
T _ZN2v85Debug20ProcessDebugMessagesEv
T _ZN2v85Debug21SetDebugEventListenerENS_6HandleINS_6ObjectEEENS1_INS_5ValueEEE
T _ZN2v85Debug21SetDebugEventListenerEPFvNS_10DebugEventENS_6HandleINS_6ObjectEEES4_NS2_INS_5ValueEEEES6_
T _ZN2v85Debug22SetHostDispatchHandlerEPFvvEi
T _ZN2v85Debug30SetDebugMessageDispatchHandlerEPFvvEb
T _ZN2v85Debug4CallENS_6HandleINS_8FunctionEEENS1_INS_5ValueEEE
T _ZN2v85Debug9GetMirrorENS_6HandleINS_5ValueEEE
T _ZN2v85FalseEv
T _ZN2v85Utils16ReportApiFailureEPKcS2_
T _ZN2v86Locker14StopPreemptionEv
T _ZN2v86Locker15StartPreemptionEi
B _ZN2v86Locker7active_E
T _ZN2v86Locker8IsLockedEv
T _ZN2v86LockerC1Ev
T _ZN2v86LockerC2Ev
T _ZN2v86LockerD1Ev
T _ZN2v86LockerD2Ev
T _ZN2v86Number3NewEd
T _ZN2v86Number9CheckCastEPNS_5ValueE
T _ZN2v86Object11ForceDeleteENS_6HandleINS_5ValueEEE
T _ZN2v86Object12GetPrototypeEv
T _ZN2v86Object12SetPrototypeENS_6HandleINS_5ValueEEE
T _ZN2v86Object14GetHiddenValueENS_6HandleINS_6StringEEE
T _ZN2v86Object14SetHiddenValueENS_6HandleINS_6StringEEENS1_INS_5ValueEEE
T _ZN2v86Object15GetIdentityHashEv
T _ZN2v86Object16GetPropertyNamesEv
T _ZN2v86Object16SetInternalFieldEiNS_6HandleINS_5ValueEEE
T _ZN2v86Object17DeleteHiddenValueENS_6HandleINS_6StringEEE
T _ZN2v86Object17TurnOnAccessCheckEv
T _ZN2v86Object18InternalFieldCountEv
T _ZN2v86Object19ObjectProtoToStringEv
T _ZN2v86Object20GetRealNamedPropertyENS_6HandleINS_6StringEEE
T _ZN2v86Object20HasRealNamedPropertyENS_6HandleINS_6StringEEE
T _ZN2v86Object22HasRealIndexedPropertyEj
T _ZN2v86Object23CheckedGetInternalFieldEi
T _ZN2v86Object25HasNamedLookupInterceptorEv
T _ZN2v86Object25SetPointerInInternalFieldEiPv
T _ZN2v86Object27HasIndexedLookupInterceptorEv
T _ZN2v86Object28FindInstanceInPrototypeChainENS_6HandleINS_16FunctionTemplateEEE
T _ZN2v86Object28HasRealNamedCallbackPropertyENS_6HandleINS_6StringEEE
T _ZN2v86Object31SetIndexedPropertiesToPixelDataEPhi
T _ZN2v86Object31SlowGetPointerFromInternalFieldEi
T _ZN2v86Object36GetRealNamedPropertyInPrototypeChainENS_6HandleINS_6StringEEE
T _ZN2v86Object39SetIndexedPropertiesToExternalArrayDataEPvNS_17ExternalArrayTypeEi
T _ZN2v86Object3GetENS_6HandleINS_5ValueEEE
T _ZN2v86Object3HasENS_6HandleINS_6StringEEE
T _ZN2v86Object3HasEj
T _ZN2v86Object3NewEv
T _ZN2v86Object3SetENS_6HandleINS_5ValueEEES3_NS_17PropertyAttributeE
T _ZN2v86Object5CloneEv
T _ZN2v86Object6DeleteENS_6HandleINS_6StringEEE
T _ZN2v86Object6DeleteEj
T _ZN2v86Object7IsDirtyEv
T _ZN2v86Object8ForceSetENS_6HandleINS_5ValueEEES3_NS_17PropertyAttributeE
T _ZN2v86Object9CheckCastEPNS_5ValueE
T _ZN2v86Script2IdEv
T _ZN2v86Script3NewENS_6HandleINS_6StringEEENS1_INS_5ValueEEE
T _ZN2v86Script3NewENS_6HandleINS_6StringEEEPNS_12ScriptOriginEPNS_10ScriptDataES3_
T _ZN2v86Script3RunEv
T _ZN2v86Script7CompileENS_6HandleINS_6StringEEENS1_INS_5ValueEEES3_
T _ZN2v86Script7CompileENS_6HandleINS_6StringEEEPNS_12ScriptOriginEPNS_10ScriptDataES3_
T _ZN2v86Script7SetDataENS_6HandleINS_6StringEEE
T _ZN2v86String10AsciiValueC1ENS_6HandleINS_5ValueEEE
T _ZN2v86String10AsciiValueC2ENS_6HandleINS_5ValueEEE
T _ZN2v86String10AsciiValueD1Ev
T _ZN2v86String10AsciiValueD2Ev
T _ZN2v86String11NewExternalEPNS0_22ExternalStringResourceE
T _ZN2v86String11NewExternalEPNS0_27ExternalAsciiStringResourceE
T _ZN2v86String12MakeExternalEPNS0_22ExternalStringResourceE
T _ZN2v86String12MakeExternalEPNS0_27ExternalAsciiStringResourceE
T _ZN2v86String15CanMakeExternalEv
T _ZN2v86String15NewUndetectableEPKci
T _ZN2v86String15NewUndetectableEPKti
T _ZN2v86String3NewEPKci
T _ZN2v86String3NewEPKti
T _ZN2v86String5EmptyEv
T _ZN2v86String5ValueC1ENS_6HandleINS_5ValueEEE
T _ZN2v86String5ValueC2ENS_6HandleINS_5ValueEEE
T _ZN2v86String5ValueD1Ev
T _ZN2v86String5ValueD2Ev
T _ZN2v86String6ConcatENS_6HandleIS0_EES2_
T _ZN2v86String9CheckCastEPNS_5ValueE
T _ZN2v86String9NewSymbolEPKci
T _ZN2v86String9Utf8ValueC1ENS_6HandleINS_5ValueEEE
T _ZN2v86String9Utf8ValueC2ENS_6HandleINS_5ValueEEE
T _ZN2v86String9Utf8ValueD1Ev
T _ZN2v86String9Utf8ValueD2Ev
T _ZN2v87Context10GetCallingEv
T _ZN2v87Context10GetCurrentEv
T _ZN2v87Context10GetEnteredEv
T _ZN2v87Context12DetachGlobalEv
T _ZN2v87Context14ReattachGlobalENS_6HandleINS_6ObjectEEE
T _ZN2v87Context16GetSecurityTokenEv
T _ZN2v87Context16SetSecurityTokenENS_6HandleINS_5ValueEEE
T _ZN2v87Context23HasOutOfMemoryExceptionEv
T _ZN2v87Context23UseDefaultSecurityTokenEv
T _ZN2v87Context3NewEPNS_22ExtensionConfigurationENS_6HandleINS_14ObjectTemplateEEENS3_INS_5ValueEEE
T _ZN2v87Context4ExitEv
T _ZN2v87Context5EnterEv
T _ZN2v87Context6GlobalEv
T _ZN2v87Context7GetDataEv
T _ZN2v87Context7SetDataENS_6HandleINS_6StringEEE
T _ZN2v87Context9InContextEv
T _ZN2v87Integer15NewFromUnsignedEj
T _ZN2v87Integer3NewEi
T _ZN2v87Integer9CheckCastEPNS_5ValueE
T _ZN2v87Message22PrintCurrentStackTraceEP7__sFILE
T _ZN2v88External10FullUnwrapENS_6HandleINS_5ValueEEE
T _ZN2v88External3NewEPv
T _ZN2v88External4WrapEPv
T _ZN2v88External9CheckCastEPNS_5ValueE
R _ZN2v88Function19kLineOffsetNotFoundE
T _ZN2v88Function4CallENS_6HandleINS_6ObjectEEEiPNS1_INS_5ValueEEE
T _ZN2v88Function7SetNameENS_6HandleINS_6StringEEE
T _ZN2v88Function9CheckCastEPNS_5ValueE
T _ZN2v88Template3SetENS_6HandleINS_6StringEEENS1_INS_4DataEEENS_17PropertyAttributeE
T _ZN2v88TryCatch10SetVerboseEb
T _ZN2v88TryCatch17SetCaptureMessageEb
T _ZN2v88TryCatch5ResetEv
T _ZN2v88TryCatch7ReThrowEv
T _ZN2v88TryCatchC1Ev
T _ZN2v88TryCatchC2Ev
T _ZN2v88TryCatchD1Ev
T _ZN2v88TryCatchD2Ev
T _ZN2v88UnlockerC1Ev
T _ZN2v88UnlockerC2Ev
T _ZN2v88UnlockerD1Ev
T _ZN2v88UnlockerD2Ev
T _ZN2v88internal10ActionNode11EatsAtLeastEii
T _ZN2v88internal10ActionNode11SetRegisterEiiPNS0_10RegExpNodeE
T _ZN2v88internal10ActionNode13BeginSubmatchEiiPNS0_10RegExpNodeE
T _ZN2v88internal10ActionNode13ClearCapturesENS0_8IntervalEPNS0_10RegExpNodeE
T _ZN2v88internal10ActionNode13StorePositionEibPNS0_10RegExpNodeE
T _ZN2v88internal10ActionNode15EmptyMatchCheckEiiiPNS0_10RegExpNodeE
T _ZN2v88internal10ActionNode17IncrementRegisterEiPNS0_10RegExpNodeE
T _ZN2v88internal10ActionNode23PositiveSubmatchSuccessEiiiiPNS0_10RegExpNodeE
T _ZN2v88internal10ActionNode24ComputeFirstCharacterSetEi
T _ZN2v88internal10ActionNode4EmitEPNS0_14RegExpCompilerEPNS0_5TraceE
T _ZN2v88internal10ActionNode6AcceptEPNS0_11NodeVisitorE
T _ZN2v88internal10Assignment6AcceptEPNS0_10AstVisitorE
T _ZN2v88internal10AstLabeler10VisitBlockEPNS0_5BlockE
T _ZN2v88internal10AstLabeler10VisitThrowEPNS0_5ThrowE
T _ZN2v88internal10AstLabeler12VisitCallNewEPNS0_7CallNewE
T _ZN2v88internal10AstLabeler12VisitLiteralEPNS0_7LiteralE
T _ZN2v88internal10AstLabeler13VisitPropertyEPNS0_8PropertyE
T _ZN2v88internal10AstLabeler15VisitAssignmentEPNS0_10AssignmentE
T _ZN2v88internal10AstLabeler15VisitStatementsEPNS0_8ZoneListIPNS0_9StatementEEE
T _ZN2v88internal10AstLabeler16VisitCallRuntimeEPNS0_11CallRuntimeE
T _ZN2v88internal10AstLabeler16VisitConditionalEPNS0_11ConditionalE
T _ZN2v88internal10AstLabeler16VisitDeclarationEPNS0_11DeclarationE
T _ZN2v88internal10AstLabeler16VisitIfStatementEPNS0_11IfStatementE
T _ZN2v88internal10AstLabeler17VisitArrayLiteralEPNS0_12ArrayLiteralE
T _ZN2v88internal10AstLabeler17VisitDeclarationsEPNS0_8ZoneListIPNS0_11DeclarationEEE
T _ZN2v88internal10AstLabeler17VisitForStatementEPNS0_12ForStatementE
T _ZN2v88internal10AstLabeler17VisitThisFunctionEPNS0_12ThisFunctionE
T _ZN2v88internal10AstLabeler18VisitObjectLiteralEPNS0_13ObjectLiteralE
T _ZN2v88internal10AstLabeler18VisitRegExpLiteralEPNS0_13RegExpLiteralE
T _ZN2v88internal10AstLabeler18VisitVariableProxyEPNS0_13VariableProxyE
T _ZN2v88internal10AstLabeler19VisitBreakStatementEPNS0_14BreakStatementE
T _ZN2v88internal10AstLabeler19VisitCountOperationEPNS0_14CountOperationE
T _ZN2v88internal10AstLabeler19VisitEmptyStatementEPNS0_14EmptyStatementE
T _ZN2v88internal10AstLabeler19VisitForInStatementEPNS0_14ForInStatementE
T _ZN2v88internal10AstLabeler19VisitUnaryOperationEPNS0_14UnaryOperationE
T _ZN2v88internal10AstLabeler19VisitWhileStatementEPNS0_14WhileStatementE
T _ZN2v88internal10AstLabeler20VisitBinaryOperationEPNS0_15BinaryOperationE
T _ZN2v88internal10AstLabeler20VisitFunctionLiteralEPNS0_15FunctionLiteralE
T _ZN2v88internal10AstLabeler20VisitReturnStatementEPNS0_15ReturnStatementE
T _ZN2v88internal10AstLabeler20VisitSwitchStatementEPNS0_15SwitchStatementE
T _ZN2v88internal10AstLabeler21VisitCompareOperationEPNS0_16CompareOperationE
T _ZN2v88internal10AstLabeler21VisitDoWhileStatementEPNS0_16DoWhileStatementE
T _ZN2v88internal10AstLabeler22VisitContinueStatementEPNS0_17ContinueStatementE
T _ZN2v88internal10AstLabeler22VisitDebuggerStatementEPNS0_17DebuggerStatementE
T _ZN2v88internal10AstLabeler22VisitTryCatchStatementEPNS0_17TryCatchStatementE
T _ZN2v88internal10AstLabeler22VisitWithExitStatementEPNS0_17WithExitStatementE
T _ZN2v88internal10AstLabeler23VisitWithEnterStatementEPNS0_18WithEnterStatementE
T _ZN2v88internal10AstLabeler24VisitExpressionStatementEPNS0_19ExpressionStatementE
T _ZN2v88internal10AstLabeler24VisitTryFinallyStatementEPNS0_19TryFinallyStatementE
T _ZN2v88internal10AstLabeler25VisitCatchExtensionObjectEPNS0_20CatchExtensionObjectE
T _ZN2v88internal10AstLabeler31VisitFunctionBoilerplateLiteralEPNS0_26FunctionBoilerplateLiteralE
T _ZN2v88internal10AstLabeler5LabelEPNS0_15CompilationInfoE
T _ZN2v88internal10AstLabeler9VisitCallEPNS0_4CallE
T _ZN2v88internal10AstLabeler9VisitSlotEPNS0_4SlotE
T _ZN2v88internal10AstVisitor15VisitStatementsEPNS0_8ZoneListIPNS0_9StatementEEE
T _ZN2v88internal10AstVisitor16VisitExpressionsEPNS0_8ZoneListIPNS0_10ExpressionEEE
T _ZN2v88internal10AstVisitor17VisitDeclarationsEPNS0_8ZoneListIPNS0_11DeclarationEEE
T _ZN2v88internal10CEntryStub12GenerateCoreEPNS0_14MacroAssemblerEPNS0_5LabelES5_S5_bb
T _ZN2v88internal10CEntryStub16GenerateThrowTOSEPNS0_14MacroAssemblerE
T _ZN2v88internal10CEntryStub24GenerateThrowUncatchableEPNS0_14MacroAssemblerE24UncatchableExceptionType
T _ZN2v88internal10CEntryStub8GenerateEPNS0_14MacroAssemblerE
T _ZN2v88internal10CEntryStub8MinorKeyEv
W _ZN2v88internal10CStrVectorEPKc
T _ZN2v88internal10ChoiceNode11EatsAtLeastEii
T _ZN2v88internal10ChoiceNode13GenerateGuardEPNS0_20RegExpMacroAssemblerEPNS0_5GuardEPNS0_5TraceE
T _ZN2v88internal10ChoiceNode17EatsAtLeastHelperEiiPNS0_10RegExpNodeE
T _ZN2v88internal10ChoiceNode20GetQuickCheckDetailsEPNS0_17QuickCheckDetailsEPNS0_14RegExpCompilerEib
T _ZN2v88internal10ChoiceNode20GreedyLoopTextLengthEPNS0_18GuardedAlternativeE
T _ZN2v88internal10ChoiceNode25EmitOutOfLineContinuationEPNS0_14RegExpCompilerEPNS0_5TraceENS0_18GuardedAlternativeEPNS0_21AlternativeGenerationEib
T _ZN2v88internal10ChoiceNode26CalculatePreloadCharactersEPNS0_14RegExpCompilerE
T _ZN2v88internal10ChoiceNode4EmitEPNS0_14RegExpCompilerEPNS0_5TraceE
T _ZN2v88internal10ChoiceNode6AcceptEPNS0_11NodeVisitorE
T _ZN2v88internal10ChoiceNode8GetTableEb
T _ZN2v88internal10ConsString13ConsStringGetEi
T _ZN2v88internal10ConsString21ConsStringIterateBodyEPNS0_13ObjectVisitorE
T _ZN2v88internal10DateParser11DayComposer5WriteEPNS0_10FixedArrayE
R _ZN2v88internal10DateParser12KeywordTable5arrayE
T _ZN2v88internal10DateParser12KeywordTable6LookupEPKji
T _ZN2v88internal10DateParser12TimeComposer5WriteEPNS0_10FixedArrayE
T _ZN2v88internal10DateParser16TimeZoneComposer5WriteEPNS0_10FixedArrayE
W _ZN2v88internal10DateParser5ParseIKcEEbNS0_6VectorIT_EEPNS0_10FixedArrayE
W _ZN2v88internal10DateParser5ParseIKtEEbNS0_6VectorIT_EEPNS0_10FixedArrayE
W _ZN2v88internal10DictionaryINS0_21NumberDictionaryShapeEjE10CopyKeysToEPNS0_10FixedArrayE18PropertyAttributes
W _ZN2v88internal10DictionaryINS0_21NumberDictionaryShapeEjE10ValueAtPutEiPNS0_6ObjectE
W _ZN2v88internal10DictionaryINS0_21NumberDictionaryShapeEjE12CopyValuesToEPNS0_10FixedArrayE
W _ZN2v88internal10DictionaryINS0_21NumberDictionaryShapeEjE12DetailsAtPutEiNS0_15PropertyDetailsE
W _ZN2v88internal10DictionaryINS0_21NumberDictionaryShapeEjE14DeletePropertyEiNS0_8JSObject10DeleteModeE
W _ZN2v88internal10DictionaryINS0_21NumberDictionaryShapeEjE14EnsureCapacityEij
W _ZN2v88internal10DictionaryINS0_21NumberDictionaryShapeEjE17SlowReverseLookupEPNS0_6ObjectE
W _ZN2v88internal10DictionaryINS0_21NumberDictionaryShapeEjE20NextEnumerationIndexEv
W _ZN2v88internal10DictionaryINS0_21NumberDictionaryShapeEjE20NumberOfEnumElementsEv
W _ZN2v88internal10DictionaryINS0_21NumberDictionaryShapeEjE23SetNextEnumerationIndexEi
W _ZN2v88internal10DictionaryINS0_21NumberDictionaryShapeEjE32NumberOfElementsFilterAttributesE18PropertyAttributes
W _ZN2v88internal10DictionaryINS0_21NumberDictionaryShapeEjE3AddEjPNS0_6ObjectENS0_15PropertyDetailsE
W _ZN2v88internal10DictionaryINS0_21NumberDictionaryShapeEjE4castEPNS0_6ObjectE
W _ZN2v88internal10DictionaryINS0_21NumberDictionaryShapeEjE5AtPutEjPNS0_6ObjectE
W _ZN2v88internal10DictionaryINS0_21NumberDictionaryShapeEjE7ValueAtEi
W _ZN2v88internal10DictionaryINS0_21NumberDictionaryShapeEjE8AddEntryEjPNS0_6ObjectENS0_15PropertyDetailsEj
W _ZN2v88internal10DictionaryINS0_21NumberDictionaryShapeEjE8AllocateEi
W _ZN2v88internal10DictionaryINS0_21NumberDictionaryShapeEjE8SetEntryEiPNS0_6ObjectES5_NS0_15PropertyDetailsE
W _ZN2v88internal10DictionaryINS0_21NumberDictionaryShapeEjE9DetailsAtEi
W _ZN2v88internal10DictionaryINS0_21StringDictionaryShapeEPNS0_6StringEE10CopyKeysToEPNS0_10FixedArrayE
W _ZN2v88internal10DictionaryINS0_21StringDictionaryShapeEPNS0_6StringEE10ValueAtPutEiPNS0_6ObjectE
W _ZN2v88internal10DictionaryINS0_21StringDictionaryShapeEPNS0_6StringEE12CopyValuesToEPNS0_10FixedArrayE
W _ZN2v88internal10DictionaryINS0_21StringDictionaryShapeEPNS0_6StringEE12DetailsAtPutEiNS0_15PropertyDetailsE
W _ZN2v88internal10DictionaryINS0_21StringDictionaryShapeEPNS0_6StringEE14DeletePropertyEiNS0_8JSObject10DeleteModeE
W _ZN2v88internal10DictionaryINS0_21StringDictionaryShapeEPNS0_6StringEE14EnsureCapacityEiS4_
W _ZN2v88internal10DictionaryINS0_21StringDictionaryShapeEPNS0_6StringEE17SlowReverseLookupEPNS0_6ObjectE
W _ZN2v88internal10DictionaryINS0_21StringDictionaryShapeEPNS0_6StringEE20NextEnumerationIndexEv
W _ZN2v88internal10DictionaryINS0_21StringDictionaryShapeEPNS0_6StringEE20NumberOfEnumElementsEv
W _ZN2v88internal10DictionaryINS0_21StringDictionaryShapeEPNS0_6StringEE23SetNextEnumerationIndexEi
W _ZN2v88internal10DictionaryINS0_21StringDictionaryShapeEPNS0_6StringEE29GenerateNewEnumerationIndicesEv
W _ZN2v88internal10DictionaryINS0_21StringDictionaryShapeEPNS0_6StringEE32NumberOfElementsFilterAttributesE18PropertyAttributes
W _ZN2v88internal10DictionaryINS0_21StringDictionaryShapeEPNS0_6StringEE3AddES4_PNS0_6ObjectENS0_15PropertyDetailsE
W _ZN2v88internal10DictionaryINS0_21StringDictionaryShapeEPNS0_6StringEE4castEPNS0_6ObjectE
W _ZN2v88internal10DictionaryINS0_21StringDictionaryShapeEPNS0_6StringEE7ValueAtEi
W _ZN2v88internal10DictionaryINS0_21StringDictionaryShapeEPNS0_6StringEE8AddEntryES4_PNS0_6ObjectENS0_15PropertyDetailsEj
W _ZN2v88internal10DictionaryINS0_21StringDictionaryShapeEPNS0_6StringEE8AllocateEi
W _ZN2v88internal10DictionaryINS0_21StringDictionaryShapeEPNS0_6StringEE8SetEntryEiPNS0_6ObjectES7_NS0_15PropertyDetailsE
W _ZN2v88internal10DictionaryINS0_21StringDictionaryShapeEPNS0_6StringEE9DetailsAtEi
B _ZN2v88internal10FLAG_traceE
T _ZN2v88internal10FixedArray11UnionOfKeysEPS1_
T _ZN2v88internal10FixedArray18AddKeysFromJSArrayEPNS0_7JSArrayE
T _ZN2v88internal10FixedArray21FixedArrayIterateBodyEPNS0_13ObjectVisitorE
T _ZN2v88internal10FixedArray6CopyToEiPS1_ii
T _ZN2v88internal10FixedArray8CopySizeEi
T _ZN2v88internal10FixedArray9SortPairsEPS1_j
T _ZN2v88internal10FixedArray9SwapPairsEPS1_ii
T _ZN2v88internal10FixedSpace15SlowAllocateRawEi
T _ZN2v88internal10FixedSpace18AllocateInNextPageEPNS0_4PageEi
T _ZN2v88internal10FixedSpace21PrepareForMarkCompactEb
T _ZN2v88internal10FixedSpace22MCCommitRelocationInfoEv
T _ZN2v88internal10FixedSpace30PutRestOfCurrentPageOnFreeListEPNS0_4PageE
T _ZN2v88internal10GetKeysForENS0_6HandleINS0_8JSObjectEEE
T _ZN2v88internal10HeapNumber15HeapNumberPrintEPNS0_12StringStreamE
T _ZN2v88internal10HeapNumber15HeapNumberPrintEv
T _ZN2v88internal10HeapNumber19HeapNumberToBooleanEv
T _ZN2v88internal10HeapObject11IterateBodyENS0_12InstanceTypeEiPNS0_13ObjectVisitorE
T _ZN2v88internal10HeapObject15SlowSizeFromMapEPNS0_3MapE
T _ZN2v88internal10HeapObject17IterateStructBodyEiPNS0_13ObjectVisitorE
T _ZN2v88internal10HeapObject20HeapObjectShortPrintEPNS0_12StringStreamE
T _ZN2v88internal10HeapObject7IterateEPNS0_13ObjectVisitorE
T _ZN2v88internal10JSFunction12SetPrototypeEPNS0_6ObjectE
T _ZN2v88internal10JSFunction20SetInstanceClassNameEPNS0_6StringE
T _ZN2v88internal10JSFunction20SetInstancePrototypeEPNS0_6ObjectE
T _ZN2v88internal10JSFunction25GlobalContextFromLiteralsEPNS0_10FixedArrayE
T _ZN2v88internal10JumpTarget16AddReachingFrameEPNS0_12VirtualFrameE
T _ZN2v88internal10JumpTarget17ComputeEntryFrameEv
B _ZN2v88internal10JumpTarget24compiling_deferred_code_E
T _ZN2v88internal10JumpTarget4BindEPNS0_6ResultE
T _ZN2v88internal10JumpTarget4BindEv
T _ZN2v88internal10JumpTarget4CallEv
T _ZN2v88internal10JumpTarget4JumpEPNS0_6ResultE
T _ZN2v88internal10JumpTarget4JumpEv
T _ZN2v88internal10JumpTarget5UnuseEv
T _ZN2v88internal10JumpTarget6BranchENS0_9ConditionENS0_4HintE
T _ZN2v88internal10JumpTarget6BranchENS0_9ConditionEPNS0_6ResultENS0_4HintE
T _ZN2v88internal10JumpTarget6DoBindEv
T _ZN2v88internal10JumpTarget6DoJumpEv
T _ZN2v88internal10JumpTarget8DoBranchENS0_9ConditionENS0_4HintE
B _ZN2v88internal10MapCompact21map_updating_visitor_E
T _ZN2v88internal10MemOperandC1ENS0_8RegisterES2_NS0_7ShiftOpEiNS0_8AddrModeE
T _ZN2v88internal10MemOperandC1ENS0_8RegisterES2_NS0_8AddrModeE
T _ZN2v88internal10MemOperandC1ENS0_8RegisterEiNS0_8AddrModeE
T _ZN2v88internal10MemOperandC2ENS0_8RegisterES2_NS0_7ShiftOpEiNS0_8AddrModeE
T _ZN2v88internal10MemOperandC2ENS0_8RegisterES2_NS0_8AddrModeE
T _ZN2v88internal10MemOperandC2ENS0_8RegisterEiNS0_8AddrModeE
T _ZN2v88internal10PagedSpace10FindObjectEPh
T _ZN2v88internal10PagedSpace12HasBeenSetupEv
T _ZN2v88internal10PagedSpace12ReserveSpaceEi
T _ZN2v88internal10PagedSpace14EnsureCapacityEi
T _ZN2v88internal10PagedSpace17SetAllocationInfoEPNS0_14AllocationInfoEPNS0_4PageE
T _ZN2v88internal10PagedSpace17SlowMCAllocateRawEi
T _ZN2v88internal10PagedSpace21MCResetRelocationInfoEv
T _ZN2v88internal10PagedSpace23MCSpaceOffsetForAddressEPh
T _ZN2v88internal10PagedSpace5SetupEPhj
T _ZN2v88internal10PagedSpace6ExpandEPNS0_4PageE
T _ZN2v88internal10PagedSpace6IsUsedEPNS0_4PageE
T _ZN2v88internal10PagedSpace6ShrinkEv
T _ZN2v88internal10PagedSpace8TearDownEv
T _ZN2v88internal10PagedSpace9ClearRSetEv
T _ZN2v88internal10PagedSpaceC1EiNS0_15AllocationSpaceENS0_13ExecutabilityE
T _ZN2v88internal10PagedSpaceC2EiNS0_15AllocationSpaceENS0_13ExecutabilityE
T _ZN2v88internal10PixelArray8SetValueEjPNS0_6ObjectE
T _ZN2v88internal10RegExpAtom12AppendToTextEPNS0_10RegExpTextE
T _ZN2v88internal10RegExpAtom6AcceptEPNS0_13RegExpVisitorEPv
T _ZN2v88internal10RegExpAtom6AsAtomEv
T _ZN2v88internal10RegExpAtom6IsAtomEv
T _ZN2v88internal10RegExpAtom6ToNodeEPNS0_14RegExpCompilerEPNS0_10RegExpNodeE
T _ZN2v88internal10RegExpImpl11AtomCompileENS0_6HandleINS0_8JSRegExpEEENS2_INS0_6StringEEENS3_5FlagsES6_
T _ZN2v88internal10RegExpImpl12IrregexpExecENS0_6HandleINS0_8JSRegExpEEENS2_INS0_6StringEEEiNS2_INS0_7JSArrayEEE
T _ZN2v88internal10RegExpImpl15CompileIrregexpENS0_6HandleINS0_8JSRegExpEEEb
T _ZN2v88internal10RegExpImpl15IrregexpPrepareENS0_6HandleINS0_8JSRegExpEEENS2_INS0_6StringEEENS3_5FlagsEi
T _ZN2v88internal10RegExpImpl16IrregexpByteCodeEPNS0_10FixedArrayEb
T _ZN2v88internal10RegExpImpl18IrregexpNativeCodeEPNS0_10FixedArrayEb
T _ZN2v88internal10RegExpImpl19CreateRegExpLiteralENS0_6HandleINS0_10JSFunctionEEENS2_INS0_6StringEEES6_Pb
T _ZN2v88internal10RegExpImpl24IrregexpMaxRegisterCountEPNS0_10FixedArrayE
T _ZN2v88internal10RegExpImpl24IrregexpNumberOfCapturesEPNS0_10FixedArrayE
T _ZN2v88internal10RegExpImpl25IrregexpNumberOfRegistersEPNS0_10FixedArrayE
T _ZN2v88internal10RegExpImpl27SetIrregexpMaxRegisterCountEPNS0_10FixedArrayEi
T _ZN2v88internal10RegExpImpl4ExecENS0_6HandleINS0_8JSRegExpEEENS2_INS0_6StringEEEiNS2_INS0_7JSArrayEEE
T _ZN2v88internal10RegExpImpl7CompileENS0_6HandleINS0_8JSRegExpEEENS2_INS0_6StringEEES6_
T _ZN2v88internal10RegExpImpl8AtomExecENS0_6HandleINS0_8JSRegExpEEENS2_INS0_6StringEEEiNS2_INS0_7JSArrayEEE
T _ZN2v88internal10RegExpNode13EnsureSiblingEPNS0_8NodeInfoEPb
T _ZN2v88internal10RegExpNode13LimitVersionsEPNS0_14RegExpCompilerEPNS0_5TraceE
T _ZN2v88internal10RegExpNode13TryGetSiblingEPNS0_8NodeInfoE
T _ZN2v88internal10RegExpNode14EmitQuickCheckEPNS0_14RegExpCompilerEPNS0_5TraceEbPNS0_5LabelEPNS0_17QuickCheckDetailsEb
T _ZN2v88internal10RegExpNode17FirstCharacterSetEv
T _ZN2v88internal10RegExpNode24ComputeFirstCharacterSetEi
T _ZN2v88internal10RegExpNodeD0Ev
T _ZN2v88internal10RegExpNodeD1Ev
T _ZN2v88internal10RegExpNodeD2Ev
T _ZN2v88internal10RegExpText12AppendToTextEPS1_
T _ZN2v88internal10RegExpText6AcceptEPNS0_13RegExpVisitorEPv
T _ZN2v88internal10RegExpText6AsTextEv
T _ZN2v88internal10RegExpText6IsTextEv
T _ZN2v88internal10RegExpText6ToNodeEPNS0_14RegExpCompilerEPNS0_10RegExpNodeE
T _ZN2v88internal10RegExpTree11AsAssertionEv
T _ZN2v88internal10RegExpTree11AsLookaheadEv
T _ZN2v88internal10RegExpTree11IsAssertionEv
T _ZN2v88internal10RegExpTree11IsLookaheadEv
T _ZN2v88internal10RegExpTree12AppendToTextEPNS0_10RegExpTextE
T _ZN2v88internal10RegExpTree12AsQuantifierEv
T _ZN2v88internal10RegExpTree12IsQuantifierEv
T _ZN2v88internal10RegExpTree13AsAlternativeEv
T _ZN2v88internal10RegExpTree13AsDisjunctionEv
T _ZN2v88internal10RegExpTree13IsAlternativeEv
T _ZN2v88internal10RegExpTree13IsDisjunctionEv
T _ZN2v88internal10RegExpTree15AsBackReferenceEv
T _ZN2v88internal10RegExpTree15IsBackReferenceEv
T _ZN2v88internal10RegExpTree16AsCharacterClassEv
T _ZN2v88internal10RegExpTree16IsCharacterClassEv
T _ZN2v88internal10RegExpTree6AsAtomEv
T _ZN2v88internal10RegExpTree6AsTextEv
T _ZN2v88internal10RegExpTree6IsAtomEv
T _ZN2v88internal10RegExpTree6IsTextEv
T _ZN2v88internal10RegExpTree7AsEmptyEv
T _ZN2v88internal10RegExpTree7IsEmptyEv
T _ZN2v88internal10RegExpTree8ToStringEv
T _ZN2v88internal10RegExpTree9AsCaptureEv
T _ZN2v88internal10RegExpTree9IsCaptureEv
T _ZN2v88internal10Serializer13SpaceOfObjectEPNS0_10HeapObjectE
T _ZN2v88internal10Serializer13VisitPointersEPPNS0_6ObjectES4_
T _ZN2v88internal10Serializer16ObjectSerializer13OutputRawDataEPh
T _ZN2v88internal10Serializer16ObjectSerializer13VisitPointersEPPNS0_6ObjectES5_
T _ZN2v88internal10Serializer16ObjectSerializer15VisitCodeTargetEPNS0_9RelocInfoE
T _ZN2v88internal10Serializer16ObjectSerializer17VisitRuntimeEntryEPNS0_9RelocInfoE
T _ZN2v88internal10Serializer16ObjectSerializer23VisitExternalReferencesEPPhS4_
T _ZN2v88internal10Serializer16ObjectSerializer24VisitExternalAsciiStringEPPNS_6String27ExternalAsciiStringResourceE
T _ZN2v88internal10Serializer16ObjectSerializer9SerializeEv
B _ZN2v88internal10Serializer22serialization_enabled_E
B _ZN2v88internal10Serializer23too_late_to_enable_now_E
T _ZN2v88internal10Serializer30SpaceOfAlreadySerializedObjectEPNS0_10HeapObjectE
T _ZN2v88internal10Serializer34SerializeReferenceToPreviousObjectEiiNS1_23ReferenceRepresentationE
T _ZN2v88internal10Serializer8AllocateEiiPb
T _ZN2v88internal10SerializerC1EPNS0_16SnapshotByteSinkE
T _ZN2v88internal10SerializerC2EPNS0_16SnapshotByteSinkE
T _ZN2v88internal10SerializerD0Ev
T _ZN2v88internal10SerializerD1Ev
T _ZN2v88internal10SerializerD2Ev
T _ZN2v88internal10SetElementENS0_6HandleINS0_8JSObjectEEEjNS1_INS0_6ObjectEEE
T _ZN2v88internal10StackFrame10PrintIndexEPNS0_12StringStreamENS1_9PrintModeEi
T _ZN2v88internal10StackFrame11ComputeTypeEPNS1_5StateE
T _ZN2v88internal10StackFrame19CookFramesForThreadEPNS0_14ThreadLocalTopE
T _ZN2v88internal10StackFrame21UncookFramesForThreadEPNS0_14ThreadLocalTopE
T _ZN2v88internal10StackFrame4CookEv
T _ZN2v88internal10StackFrame6UncookEv
T _ZN2v88internal10StackGuard10DebugBreakEv
T _ZN2v88internal10StackGuard10InitThreadERKNS0_15ExecutionAccessE
T _ZN2v88internal10StackGuard11ClearThreadERKNS0_15ExecutionAccessE
T _ZN2v88internal10StackGuard11IsPreemptedEv
T _ZN2v88internal10StackGuard11ThreadLocal10InitializeEv
T _ZN2v88internal10StackGuard11ThreadLocal5ClearEv
T _ZN2v88internal10StackGuard12DebugCommandEv
T _ZN2v88internal10StackGuard12IsDebugBreakEv
T _ZN2v88internal10StackGuard13IsInterruptedEv
T _ZN2v88internal10StackGuard13SetStackLimitEj
B _ZN2v88internal10StackGuard13thread_local_E
T _ZN2v88internal10StackGuard14IsDebugCommandEv
T _ZN2v88internal10StackGuard15IsStackOverflowEv
T _ZN2v88internal10StackGuard16EnableInterruptsEv
T _ZN2v88internal10StackGuard17ArchiveStackGuardEPc
T _ZN2v88internal10StackGuard17DisableInterruptsEv
T _ZN2v88internal10StackGuard17RestoreStackGuardEPc
T _ZN2v88internal10StackGuard18TerminateExecutionEv
T _ZN2v88internal10StackGuard19FreeThreadResourcesEv
T _ZN2v88internal10StackGuard20IsTerminateExecutionEv
T _ZN2v88internal10StackGuard21ArchiveSpacePerThreadEv
T _ZN2v88internal10StackGuard5IsSetERKNS0_15ExecutionAccessE
T _ZN2v88internal10StackGuard7PreemptEv
T _ZN2v88internal10StackGuard8ContinueENS0_13InterruptFlagE
T _ZN2v88internal10StackGuard9InterruptEv
T _ZN2v88internal10StaticType11Type2StringEPS1_
B _ZN2v88internal10StatsTable16lookup_function_E
B _ZN2v88internal10StatsTable26create_histogram_function_E
B _ZN2v88internal10StatsTable30add_histogram_sample_function_E
T _ZN2v88internal10UTF8Buffer11AddCharSlowEi
T _ZN2v88internal10UTF8BufferC1Ev
T _ZN2v88internal10UTF8BufferC2Ev
T _ZN2v88internal10UTF8BufferD1Ev
T _ZN2v88internal10UTF8BufferD2Ev
T _ZN2v88internal10WriteBytesEPKcPKhib
T _ZN2v88internal10WriteCharsEPKcS2_ib
T _ZN2v88internal11BreakTarget13set_directionENS0_10JumpTarget14DirectionalityE
T _ZN2v88internal11BreakTarget4BindEPNS0_6ResultE
T _ZN2v88internal11BreakTarget4BindEv
T _ZN2v88internal11BreakTarget4JumpEPNS0_6ResultE
T _ZN2v88internal11BreakTarget4JumpEv
T _ZN2v88internal11BreakTarget6BranchENS0_9ConditionENS0_4HintE
T _ZN2v88internal11BreakTarget6BranchENS0_9ConditionEPNS0_6ResultENS0_4HintE
T _ZN2v88internal11BreakTarget6CopyToEPS1_
T _ZN2v88internal11CallIC_MissENS0_9ArgumentsE
T _ZN2v88internal11CallRuntime6AcceptEPNS0_10AstVisitorE
T _ZN2v88internal11CodePatcher4EmitEPh
T _ZN2v88internal11CodePatcher4EmitEi
T _ZN2v88internal11CodePatcherC1EPhi
T _ZN2v88internal11CodePatcherC2EPhi
T _ZN2v88internal11CodePatcherD0Ev
T _ZN2v88internal11CodePatcherD1Ev
T _ZN2v88internal11CodePatcherD2Ev
T _ZN2v88internal11CompareStub7GetNameEv
T _ZN2v88internal11CompareStub8GenerateEPNS0_14MacroAssemblerE
T _ZN2v88internal11CompareStub8MinorKeyEv
T _ZN2v88internal11CompileLazyENS0_6HandleINS0_10JSFunctionEEENS1_INS0_6ObjectEEENS0_18ClearExceptionFlagE
T _ZN2v88internal11Conditional6AcceptEPNS0_10AstVisitorE
B _ZN2v88internal11CpuFeatures10supported_E
B _ZN2v88internal11CpuFeatures25found_by_runtime_probing_E
T _ZN2v88internal11CpuFeatures5ProbeEv
B _ZN2v88internal11CpuFeatures8enabled_E
T _ZN2v88internal11Declaration6AcceptEPNS0_10AstVisitorE
B _ZN2v88internal11FLAG_strictE
D _ZN2v88internal11FLAG_use_icE
T _ZN2v88internal11GCExtension17GetNativeFunctionENS_6HandleINS_6StringEEE
T _ZN2v88internal11GCExtension2GCERKNS_9ArgumentsE
D _ZN2v88internal11GCExtension7kSourceE
T _ZN2v88internal11GetPropertyENS0_6HandleINS0_6ObjectEEES3_
T _ZN2v88internal11GetPropertyENS0_6HandleINS0_8JSObjectEEEPKc
T _ZN2v88internal11HandleScope15NumberOfHandlesEv
T _ZN2v88internal11HandleScope16DeleteExtensionsEv
T _ZN2v88internal11HandleScope20current_next_addressEv
T _ZN2v88internal11HandleScope21current_limit_addressEv
T _ZN2v88internal11HandleScope26current_extensions_addressEv
T _ZN2v88internal11HandleScope6ExtendEv
T _ZN2v88internal11HandleScope8ZapRangeEPPNS0_6ObjectES4_
D _ZN2v88internal11HandleScope8current_E
T _ZN2v88internal11IfStatement6AcceptEPNS0_10AstVisitorE
T _ZN2v88internal11JSArguments4argvEv
T _ZN2v88internal11JSArgumentsC1EiPPKc
T _ZN2v88internal11JSArgumentsC1Ev
T _ZN2v88internal11JSArgumentsC2EiPPKc
T _ZN2v88internal11JSArgumentsC2Ev
T _ZN2v88internal11JSArgumentsaSES1_
T _ZN2v88internal11JSArgumentsixEi
T _ZN2v88internal11JSEntryStub12GenerateBodyEPNS0_14MacroAssemblerEb
T _ZN2v88internal11KeyedLoadIC12GenerateMissEPNS0_14MacroAssemblerE
T _ZN2v88internal11KeyedLoadIC12UpdateCachesEPNS0_12LookupResultENS0_16InlineCacheStateENS0_6HandleINS0_6ObjectEEENS5_INS0_6StringEEE
T _ZN2v88internal11KeyedLoadIC14GenerateStringEPNS0_14MacroAssemblerE
T _ZN2v88internal11KeyedLoadIC15GenerateGenericEPNS0_14MacroAssemblerE
T _ZN2v88internal11KeyedLoadIC16PatchInlinedLoadEPhPNS0_6ObjectE
T _ZN2v88internal11KeyedLoadIC19ClearInlinedVersionEPh
T _ZN2v88internal11KeyedLoadIC19external_array_stubENS0_8JSObject12ElementsKindE
T _ZN2v88internal11KeyedLoadIC21GenerateExternalArrayEPNS0_14MacroAssemblerENS_17ExternalArrayTypeE
T _ZN2v88internal11KeyedLoadIC26GenerateIndexedInterceptorEPNS0_14MacroAssemblerE
T _ZN2v88internal11KeyedLoadIC26GenerateRuntimeGetPropertyEPNS0_14MacroAssemblerE
T _ZN2v88internal11KeyedLoadIC4LoadENS0_16InlineCacheStateENS0_6HandleINS0_6ObjectEEES5_
T _ZN2v88internal11KeyedLoadIC5ClearEPhPNS0_4CodeE
T _ZN2v88internal11LoadIC_MissENS0_9ArgumentsE
T _ZN2v88internal11MakeLazyASTENS0_6HandleINS0_6ScriptEEENS1_INS0_6StringEEEiib
T _ZN2v88internal11MessageImpl11NewResponseENS_10DebugEventEbNS0_6HandleINS0_8JSObjectEEES5_NS3_INS0_6StringEEEPNS_5Debug10ClientDataE
T _ZN2v88internal11MessageImpl8NewEventENS_10DebugEventEbNS0_6HandleINS0_8JSObjectEEES5_
T _ZN2v88internal11MessageImplC1EbNS_10DebugEventEbNS0_6HandleINS0_8JSObjectEEES5_NS3_INS0_6StringEEEPNS_5Debug10ClientDataE
T _ZN2v88internal11MessageImplC2EbNS_10DebugEventEbNS0_6HandleINS0_8JSObjectEEES5_NS3_INS0_6StringEEEPNS_5Debug10ClientDataE
T _ZN2v88internal11POSIXSocket15SetReuseAddressEb
T _ZN2v88internal11POSIXSocket4BindEi
T _ZN2v88internal11POSIXSocket7ConnectEPKcS3_
T _ZN2v88internal11POSIXSocket8ShutdownEv
T _ZN2v88internal11PagedSpaces4nextEv
T _ZN2v88internal11ParseRegExpEPNS0_16FlatStringReaderEbPNS0_17RegExpCompileDataE
T _ZN2v88internal11RegExpEmpty6AcceptEPNS0_13RegExpVisitorEPv
T _ZN2v88internal11RegExpEmpty6ToNodeEPNS0_14RegExpCompilerEPNS0_10RegExpNodeE
T _ZN2v88internal11RegExpEmpty7AsEmptyEv
T _ZN2v88internal11RegExpEmpty7IsEmptyEv
B _ZN2v88internal11RegExpEmpty9kInstanceE
T _ZN2v88internal11RegExpStack11ThreadLocal4FreeEv
T _ZN2v88internal11RegExpStack12ArchiveStackEPc
T _ZN2v88internal11RegExpStack12RestoreStackEPc
B _ZN2v88internal11RegExpStack13thread_local_E
T _ZN2v88internal11RegExpStack14EnsureCapacityEj
T _ZN2v88internal11RegExpStack5ResetEv
T _ZN2v88internal11RegExpStackC1Ev
T _ZN2v88internal11RegExpStackC2Ev
T _ZN2v88internal11RegExpStackD1Ev
T _ZN2v88internal11RegExpStackD2Ev
T _ZN2v88internal11Relocatable12ArchiveStateEPc
T _ZN2v88internal11Relocatable12RestoreStateEPc
T _ZN2v88internal11Relocatable21ArchiveSpacePerThreadEv
T _ZN2v88internal11Relocatable31PostGarbageCollectionProcessingEv
B _ZN2v88internal11Relocatable4top_E
T _ZN2v88internal11Relocatable7IterateEPNS0_13ObjectVisitorE
T _ZN2v88internal11Relocatable7IterateEPNS0_13ObjectVisitorEPS1_
T _ZN2v88internal11Relocatable7IterateEPNS0_13ObjectVisitorEPc
T _ZN2v88internal11ScriptCache10GetScriptsEv
T _ZN2v88internal11ScriptCache16HandleWeakScriptENS_10PersistentINS_5ValueEEEPv
T _ZN2v88internal11ScriptCache23ProcessCollectedScriptsEv
T _ZN2v88internal11ScriptCache3AddENS0_6HandleINS0_6ScriptEEE
T _ZN2v88internal11ScriptCache5ClearEv
T _ZN2v88internal11SetPropertyENS0_6HandleINS0_6ObjectEEES3_S3_18PropertyAttributes
T _ZN2v88internal11SetPropertyENS0_6HandleINS0_8JSObjectEEENS1_INS0_6StringEEENS1_INS0_6ObjectEEE18PropertyAttributes
T _ZN2v88internal11StringToIntEPKciiPd
T _ZN2v88internal11StringToIntEPNS0_6StringEiiPd
T _ZN2v88internal11SymbolTable12LookupStringEPNS0_6StringEPPNS0_6ObjectE
T _ZN2v88internal11SymbolTable12LookupSymbolENS0_6VectorIKcEEPPNS0_6ObjectE
T _ZN2v88internal11SymbolTable20LookupSymbolIfExistsEPNS0_6StringEPS3_
T _ZN2v88internal11SymbolTable28LookupTwoCharsSymbolIfExistsEjjPPNS0_6StringE
T _ZN2v88internal11SymbolTable9LookupKeyEPNS0_12HashTableKeyEPPNS0_6ObjectE
T _ZN2v88internal11TextElement4AtomEPNS0_10RegExpAtomE
T _ZN2v88internal11TextElement6lengthEv
T _ZN2v88internal11TextElement9CharClassEPNS0_20RegExpCharacterClassE
T _ZN2v88internal11ThreadState10FirstInUseEv
B _ZN2v88internal11ThreadState12free_anchor_E
T _ZN2v88internal11ThreadState13AllocateSpaceEv
B _ZN2v88internal11ThreadState14in_use_anchor_E
T _ZN2v88internal11ThreadState4NextEv
T _ZN2v88internal11ThreadState6UnlinkEv
T _ZN2v88internal11ThreadState7GetFreeEv
T _ZN2v88internal11ThreadState8LinkIntoENS1_4ListE
T _ZN2v88internal11ThreadStateC1Ev
T _ZN2v88internal11ThreadStateC2Ev
T _ZN2v88internal11UTF16Buffer9SubStringEii
T _ZN2v88internal11UTF16BufferC1Ev
T _ZN2v88internal11UTF16BufferC2Ev
T _ZN2v88internal11UnionOfKeysENS0_6HandleINS0_10FixedArrayEEES3_
T _ZN2v88internal11VariableMap6LookupENS0_6HandleINS0_6StringEEE
T _ZN2v88internal11VariableMap7DeclareEPNS0_5ScopeENS0_6HandleINS0_6StringEEENS0_8Variable4ModeEbNS7_4KindE
T _ZN2v88internal11VariableMapC1Eb
T _ZN2v88internal11VariableMapC1Ev
T _ZN2v88internal11VariableMapC2Eb
T _ZN2v88internal11VariableMapC2Ev
T _ZN2v88internal11VariableMapD0Ev
T _ZN2v88internal11VariableMapD1Ev
T _ZN2v88internal11VariableMapD2Ev
T _ZN2v88internal12ArrayLiteral6AcceptEPNS0_10AstVisitorE
T _ZN2v88internal12AstOptimizer10VisitBlockEPNS0_5BlockE
T _ZN2v88internal12AstOptimizer10VisitThrowEPNS0_5ThrowE
T _ZN2v88internal12AstOptimizer12VisitCallNewEPNS0_7CallNewE
T _ZN2v88internal12AstOptimizer12VisitLiteralEPNS0_7LiteralE
T _ZN2v88internal12AstOptimizer13VisitPropertyEPNS0_8PropertyE
T _ZN2v88internal12AstOptimizer15VisitAssignmentEPNS0_10AssignmentE
T _ZN2v88internal12AstOptimizer16VisitCallRuntimeEPNS0_11CallRuntimeE
T _ZN2v88internal12AstOptimizer16VisitConditionalEPNS0_11ConditionalE
T _ZN2v88internal12AstOptimizer16VisitDeclarationEPNS0_11DeclarationE
T _ZN2v88internal12AstOptimizer16VisitIfStatementEPNS0_11IfStatementE
T _ZN2v88internal12AstOptimizer17OptimizeArgumentsEPNS0_8ZoneListIPNS0_10ExpressionEEE
T _ZN2v88internal12AstOptimizer17VisitArrayLiteralEPNS0_12ArrayLiteralE
T _ZN2v88internal12AstOptimizer17VisitForStatementEPNS0_12ForStatementE
T _ZN2v88internal12AstOptimizer17VisitThisFunctionEPNS0_12ThisFunctionE
T _ZN2v88internal12AstOptimizer18VisitObjectLiteralEPNS0_13ObjectLiteralE
T _ZN2v88internal12AstOptimizer18VisitRegExpLiteralEPNS0_13RegExpLiteralE
T _ZN2v88internal12AstOptimizer18VisitVariableProxyEPNS0_13VariableProxyE
T _ZN2v88internal12AstOptimizer19VisitBreakStatementEPNS0_14BreakStatementE
T _ZN2v88internal12AstOptimizer19VisitCountOperationEPNS0_14CountOperationE
T _ZN2v88internal12AstOptimizer19VisitEmptyStatementEPNS0_14EmptyStatementE
T _ZN2v88internal12AstOptimizer19VisitForInStatementEPNS0_14ForInStatementE
T _ZN2v88internal12AstOptimizer19VisitUnaryOperationEPNS0_14UnaryOperationE
T _ZN2v88internal12AstOptimizer19VisitWhileStatementEPNS0_14WhileStatementE
T _ZN2v88internal12AstOptimizer20VisitBinaryOperationEPNS0_15BinaryOperationE
T _ZN2v88internal12AstOptimizer20VisitFunctionLiteralEPNS0_15FunctionLiteralE
T _ZN2v88internal12AstOptimizer20VisitReturnStatementEPNS0_15ReturnStatementE
T _ZN2v88internal12AstOptimizer20VisitSwitchStatementEPNS0_15SwitchStatementE
T _ZN2v88internal12AstOptimizer21VisitCompareOperationEPNS0_16CompareOperationE
T _ZN2v88internal12AstOptimizer21VisitDoWhileStatementEPNS0_16DoWhileStatementE
T _ZN2v88internal12AstOptimizer22VisitContinueStatementEPNS0_17ContinueStatementE
T _ZN2v88internal12AstOptimizer22VisitDebuggerStatementEPNS0_17DebuggerStatementE
T _ZN2v88internal12AstOptimizer22VisitTryCatchStatementEPNS0_17TryCatchStatementE
T _ZN2v88internal12AstOptimizer22VisitWithExitStatementEPNS0_17WithExitStatementE
T _ZN2v88internal12AstOptimizer23VisitWithEnterStatementEPNS0_18WithEnterStatementE
T _ZN2v88internal12AstOptimizer24VisitExpressionStatementEPNS0_19ExpressionStatementE
T _ZN2v88internal12AstOptimizer24VisitTryFinallyStatementEPNS0_19TryFinallyStatementE
T _ZN2v88internal12AstOptimizer25VisitCatchExtensionObjectEPNS0_20CatchExtensionObjectE
T _ZN2v88internal12AstOptimizer31VisitFunctionBoilerplateLiteralEPNS0_26FunctionBoilerplateLiteralE
T _ZN2v88internal12AstOptimizer8OptimizeEPNS0_8ZoneListIPNS0_9StatementEEE
T _ZN2v88internal12AstOptimizer9VisitCallEPNS0_4CallE
T _ZN2v88internal12AstOptimizer9VisitSlotEPNS0_4SlotE
T _ZN2v88internal12Bootstrapper10InitializeEb
T _ZN2v88internal12Bootstrapper12ArchiveStateEPc
T _ZN2v88internal12Bootstrapper12DetachGlobalENS0_6HandleINS0_7ContextEEE
T _ZN2v88internal12Bootstrapper12RestoreStateEPc
T _ZN2v88internal12Bootstrapper14ReattachGlobalENS0_6HandleINS0_7ContextEEENS2_INS0_6ObjectEEE
T _ZN2v88internal12Bootstrapper17CreateEnvironmentENS0_6HandleINS0_6ObjectEEENS_6HandleINS_14ObjectTemplateEEEPNS_22ExtensionConfigurationE
T _ZN2v88internal12Bootstrapper17InstallExtensionsENS0_6HandleINS0_7ContextEEEPNS_22ExtensionConfigurationE
T _ZN2v88internal12Bootstrapper19FreeThreadResourcesEv
T _ZN2v88internal12Bootstrapper19NativesSourceLookupEi
T _ZN2v88internal12Bootstrapper21ArchiveSpacePerThreadEv
T _ZN2v88internal12Bootstrapper24AllocateAutoDeletedArrayEi
T _ZN2v88internal12Bootstrapper7IterateEPNS0_13ObjectVisitorE
T _ZN2v88internal12Bootstrapper8TearDownEv
T _ZN2v88internal12CharacterSet12CanonicalizeEv
T _ZN2v88internal12CharacterSet6rangesEv
T _ZN2v88internal12CodeGenStateC1EPNS0_13CodeGeneratorE
T _ZN2v88internal12CodeGenStateC1EPNS0_13CodeGeneratorEPNS0_10JumpTargetES5_
T _ZN2v88internal12CodeGenStateC2EPNS0_13CodeGeneratorE
T _ZN2v88internal12CodeGenStateC2EPNS0_13CodeGeneratorEPNS0_10JumpTargetES5_
T _ZN2v88internal12CodeGenStateD1Ev
T _ZN2v88internal12CodeGenStateD2Ev
T _ZN2v88internal12DeferredCode13SaveRegistersEv
T _ZN2v88internal12DeferredCode16RestoreRegistersEv
T _ZN2v88internal12DeferredCodeC1Ev
T _ZN2v88internal12DeferredCodeC2Ev
T _ZN2v88internal12Deserializer10ReadObjectEiPNS0_5SpaceEPPNS0_6ObjectE
T _ZN2v88internal12Deserializer11DeserializeEv
T _ZN2v88internal12Deserializer13VisitPointersEPPNS0_6ObjectES4_
T _ZN2v88internal12Deserializer18DeserializePartialEPPNS0_6ObjectE
T _ZN2v88internal12Deserializer19GetAddressFromStartEi
B _ZN2v88internal12Deserializer27external_reference_decoder_E
T _ZN2v88internal12Deserializer8AllocateEiPNS0_5SpaceEi
T _ZN2v88internal12Deserializer9ReadChunkEPPNS0_6ObjectES4_iPh
T _ZN2v88internal12DeserializerC1EPNS0_18SnapshotByteSourceE
T _ZN2v88internal12DeserializerC2EPNS0_18SnapshotByteSourceE
T _ZN2v88internal12DeserializerD0Ev
T _ZN2v88internal12DeserializerD1Ev
T _ZN2v88internal12DeserializerD2Ev
T _ZN2v88internal12EmitNanCheckEPNS0_14MacroAssemblerEPNS0_5LabelENS0_9ConditionE
T _ZN2v88internal12ForStatement6AcceptEPNS0_10AstVisitorE
T _ZN2v88internal12FrameElement12ConstantListEv
T _ZN2v88internal12FreeListNode8set_sizeEi
T _ZN2v88internal12GetPrototypeENS0_6HandleINS0_6ObjectEEE
T _ZN2v88internal12GlobalObject15GetPropertyCellEPNS0_12LookupResultE
T _ZN2v88internal12GlobalObject18EnsurePropertyCellEPNS0_6StringE
T _ZN2v88internal12HeapIterator4InitEv
T _ZN2v88internal12HeapIterator4nextEv
T _ZN2v88internal12HeapIterator5resetEv
T _ZN2v88internal12HeapIterator8ShutdownEv
T _ZN2v88internal12HeapIteratorC1Ev
T _ZN2v88internal12HeapIteratorC2Ev
T _ZN2v88internal12HeapIteratorD0Ev
T _ZN2v88internal12HeapIteratorD1Ev
T _ZN2v88internal12HeapIteratorD2Ev
T _ZN2v88internal12IntToCStringEiNS0_6VectorIcEE
T _ZN2v88internal12KeyedStoreIC12GenerateMissEPNS0_14MacroAssemblerE
T _ZN2v88internal12KeyedStoreIC12UpdateCachesEPNS0_12LookupResultENS0_16InlineCacheStateENS0_6HandleINS0_8JSObjectEEENS5_INS0_6StringEEENS5_INS0_6ObjectEEE
T _ZN2v88internal12KeyedStoreIC15GenerateGenericEPNS0_14MacroAssemblerE
T _ZN2v88internal12KeyedStoreIC17PatchInlinedStoreEPhPNS0_6ObjectE
T _ZN2v88internal12KeyedStoreIC19ClearInlinedVersionEPh
T _ZN2v88internal12KeyedStoreIC19external_array_stubENS0_8JSObject12ElementsKindE
T _ZN2v88internal12KeyedStoreIC21GenerateExternalArrayEPNS0_14MacroAssemblerENS_17ExternalArrayTypeE
T _ZN2v88internal12KeyedStoreIC21RestoreInlinedVersionEPh
T _ZN2v88internal12KeyedStoreIC26GenerateRuntimeSetPropertyEPNS0_14MacroAssemblerE
T _ZN2v88internal12KeyedStoreIC5ClearEPhPNS0_4CodeE
T _ZN2v88internal12KeyedStoreIC5StoreENS0_16InlineCacheStateENS0_6HandleINS0_6ObjectEEES5_S5_
T _ZN2v88internal12PageIteratorC1EPNS0_10PagedSpaceENS1_4ModeE
T _ZN2v88internal12PageIteratorC2EPNS0_10PagedSpaceENS1_4ModeE
T _ZN2v88internal12RegExpEngine7CompileEPNS0_17RegExpCompileDataEbbNS0_6HandleINS0_6StringEEEb
T _ZN2v88internal12RegExpParser11ReportErrorENS0_6VectorIKcEE
T _ZN2v88internal12RegExpParser12ParsePatternEv
T _ZN2v88internal12RegExpParser14ParseClassAtomEPt
T _ZN2v88internal12RegExpParser14ParseHexEscapeEiPi
T _ZN2v88internal12RegExpParser15ScanForCapturesEv
T _ZN2v88internal12RegExpParser16ParseDisjunctionEv
T _ZN2v88internal12RegExpParser17ParseOctalLiteralEv
T _ZN2v88internal12RegExpParser19ParseCharacterClassEv
T _ZN2v88internal12RegExpParser23ParseBackReferenceIndexEPi
T _ZN2v88internal12RegExpParser23ParseIntervalQuantifierEPiS2_
T _ZN2v88internal12RegExpParser24ParseControlLetterEscapeEv
T _ZN2v88internal12RegExpParser25ParseClassCharacterEscapeEv
T _ZN2v88internal12RegExpParser4NextEv
T _ZN2v88internal12RegExpParser5ResetEi
T _ZN2v88internal12RegExpParser6simpleEv
T _ZN2v88internal12RegExpParser7AdvanceEi
T _ZN2v88internal12RegExpParser7AdvanceEv
T _ZN2v88internal12RegExpParserC1EPNS0_16FlatStringReaderEPNS0_6HandleINS0_6StringEEEb
T _ZN2v88internal12RegExpParserC2EPNS0_16FlatStringReaderEPNS0_6HandleINS0_6StringEEEb
T _ZN2v88internal12SetPrototypeENS0_6HandleINS0_10JSFunctionEEENS1_INS0_6ObjectEEE
T _ZN2v88internal12SetPrototypeENS0_6HandleINS0_8JSObjectEEENS1_INS0_6ObjectEEE
T _ZN2v88internal12ShadowTarget13StopShadowingEv
T _ZN2v88internal12ShadowTargetC1EPNS0_11BreakTargetE
T _ZN2v88internal12ShadowTargetC2EPNS0_11BreakTargetE
T _ZN2v88internal12StackHandler4CookEPNS0_4CodeE
T _ZN2v88internal12StackHandler6UncookEPNS0_4CodeE
T _ZN2v88internal12StoreIC_MissENS0_9ArgumentsE
T _ZN2v88internal12StringHasher12GetHashFieldEv
T _ZN2v88internal12StringStream11PrintObjectEPNS0_6ObjectE
T _ZN2v88internal12StringStream13PrintFunctionEPNS0_6ObjectES3_PPNS0_4CodeE
T _ZN2v88internal12StringStream13PrintUsingMapEPNS0_8JSObjectE
T _ZN2v88internal12StringStream14OutputToStdOutEv
T _ZN2v88internal12StringStream14PrintByteArrayEPNS0_9ByteArrayE
T _ZN2v88internal12StringStream14PrintPrototypeEPNS0_10JSFunctionEPNS0_6ObjectE
T _ZN2v88internal12StringStream15PrintFixedArrayEPNS0_10FixedArrayEj
T _ZN2v88internal12StringStream25ClearMentionedObjectCacheEv
T _ZN2v88internal12StringStream25PrintMentionedObjectCacheEv
T _ZN2v88internal12StringStream27PrintSecurityTokenIfChangedEPNS0_6ObjectE
T _ZN2v88internal12StringStream3AddENS0_6VectorIKcEE
T _ZN2v88internal12StringStream3AddENS0_6VectorIKcEENS2_INS0_6FmtElmEEE
T _ZN2v88internal12StringStream3AddEPKc
T _ZN2v88internal12StringStream3AddEPKcNS0_6FmtElmE
T _ZN2v88internal12StringStream3AddEPKcNS0_6FmtElmES4_
T _ZN2v88internal12StringStream3AddEPKcNS0_6FmtElmES4_S4_
T _ZN2v88internal12StringStream3AddEPKcNS0_6FmtElmES4_S4_S4_
T _ZN2v88internal12StringStream3LogEv
T _ZN2v88internal12StringStream3PutEPNS0_6StringE
T _ZN2v88internal12StringStream3PutEPNS0_6StringEii
T _ZN2v88internal12StringStream3PutEc
T _ZN2v88internal12StringStream8ToStringEv
T _ZN2v88internal12StringStream9PrintNameEPNS0_6ObjectE
T _ZN2v88internal12StubCompiler15CheckPrototypesEPNS0_8JSObjectENS0_8RegisterES3_S4_S4_PNS0_6StringEiPNS0_5LabelE
T _ZN2v88internal12StubCompiler15CompileCallMissENS0_4Code5FlagsE
T _ZN2v88internal12StubCompiler16GenerateLoadMissEPNS0_14MacroAssemblerENS0_4Code4KindE
T _ZN2v88internal12StubCompiler16GetCodeWithFlagsENS0_4Code5FlagsEPKc
T _ZN2v88internal12StubCompiler16GetCodeWithFlagsENS0_4Code5FlagsEPNS0_6StringE
T _ZN2v88internal12StubCompiler17CompileCallNormalENS0_4Code5FlagsE
T _ZN2v88internal12StubCompiler17GenerateLoadFieldEPNS0_8JSObjectES3_NS0_8RegisterES4_S4_iPNS0_6StringEPNS0_5LabelE
T _ZN2v88internal12StubCompiler18CompileLazyCompileENS0_4Code5FlagsE
T _ZN2v88internal12StubCompiler18GenerateStoreFieldEPNS0_14MacroAssemblerEPNS0_8JSObjectEiPNS0_3MapENS0_8RegisterES8_S8_PNS0_5LabelE
T _ZN2v88internal12StubCompiler20GenerateLoadCallbackEPNS0_8JSObjectES3_NS0_8RegisterES4_S4_S4_PNS0_12AccessorInfoEPNS0_6StringEPNS0_5LabelEPPNS0_7FailureE
T _ZN2v88internal12StubCompiler20GenerateLoadConstantEPNS0_8JSObjectES3_NS0_8RegisterES4_S4_PNS0_6ObjectEPNS0_6StringEPNS0_5LabelE
T _ZN2v88internal12StubCompiler21CompileCallDebugBreakENS0_4Code5FlagsE
T _ZN2v88internal12StubCompiler21CompileCallInitializeENS0_4Code5FlagsE
T _ZN2v88internal12StubCompiler21LookupPostInterceptorEPNS0_8JSObjectEPNS0_6StringEPNS0_12LookupResultE
T _ZN2v88internal12StubCompiler22CompileCallMegamorphicENS0_4Code5FlagsE
T _ZN2v88internal12StubCompiler23GenerateLoadArrayLengthEPNS0_14MacroAssemblerENS0_8RegisterES4_PNS0_5LabelE
T _ZN2v88internal12StubCompiler23GenerateLoadInterceptorEPNS0_8JSObjectES3_PNS0_12LookupResultENS0_8RegisterES6_S6_S6_PNS0_6StringEPNS0_5LabelE
T _ZN2v88internal12StubCompiler24GenerateFastPropertyLoadEPNS0_14MacroAssemblerENS0_8RegisterES4_PNS0_8JSObjectEi
T _ZN2v88internal12StubCompiler24GenerateLoadStringLengthEPNS0_14MacroAssemblerENS0_8RegisterES4_S4_PNS0_5LabelE
T _ZN2v88internal12StubCompiler25CompileCallPreMonomorphicENS0_4Code5FlagsE
T _ZN2v88internal12StubCompiler29CompileCallDebugPrepareStepInENS0_4Code5FlagsE
T _ZN2v88internal12StubCompiler29GenerateLoadFunctionPrototypeEPNS0_14MacroAssemblerENS0_8RegisterES4_S4_PNS0_5LabelE
T _ZN2v88internal12StubCompiler35GenerateLoadGlobalFunctionPrototypeEPNS0_14MacroAssemblerEiNS0_8RegisterE
T _ZN2v88internal12ThisFunction6AcceptEPNS0_10AstVisitorE
T _ZN2v88internal12ThreadHandle10InitializeENS1_4KindE
T _ZN2v88internal12ThreadHandleC1ENS1_4KindE
T _ZN2v88internal12ThreadHandleC2ENS1_4KindE
T _ZN2v88internal12ThreadHandleD1Ev
T _ZN2v88internal12ThreadHandleD2Ev
T _ZN2v88internal12VirtualFrame10DebugBreakEv
T _ZN2v88internal12VirtualFrame11CallRuntimeENS0_7Runtime10FunctionIdEi
T _ZN2v88internal12VirtualFrame11CallRuntimeEPNS0_7Runtime8FunctionEi
T _ZN2v88internal12VirtualFrame12SetElementAtEiPNS0_6ResultE
T _ZN2v88internal12VirtualFrame13CopyElementAtEiNS0_10NumberInfo4TypeE
T _ZN2v88internal12VirtualFrame13InvokeBuiltinENS0_8Builtins10JavaScriptENS0_13InvokeJSFlagsEi
T _ZN2v88internal12VirtualFrame13SyncElementAtEi
T _ZN2v88internal12VirtualFrame14CallCodeObjectENS0_6HandleINS0_4CodeEEENS0_9RelocInfo4ModeEi
T _ZN2v88internal12VirtualFrame14ForgetElementsEi
T _ZN2v88internal12VirtualFrame14PrepareForCallEii
T _ZN2v88internal12VirtualFrame14PrepareMergeToEPS1_
T _ZN2v88internal12VirtualFrame14PushTryHandlerE11HandlerType
T _ZN2v88internal12VirtualFrame14SpillElementAtEi
T _ZN2v88internal12VirtualFrame15PushFrameSlotAtEi
T _ZN2v88internal12VirtualFrame15TakeFrameSlotAtEi
T _ZN2v88internal12VirtualFrame16EmitPushMultipleEii
T _ZN2v88internal12VirtualFrame16PrepareForReturnEv
T _ZN2v88internal12VirtualFrame16SpillAnyRegisterEv
T _ZN2v88internal12VirtualFrame18AllocateStackSlotsEv
T _ZN2v88internal12VirtualFrame18StoreToFrameSlotAtEi
T _ZN2v88internal12VirtualFrame19SaveContextRegisterEv
T _ZN2v88internal12VirtualFrame20SyncElementByPushingEi
T _ZN2v88internal12VirtualFrame21InvalidateFrameSlotAtEi
T _ZN2v88internal12VirtualFrame22RestoreContextRegisterEv
T _ZN2v88internal12VirtualFrame23PushReceiverSlotAddressEv
T _ZN2v88internal12VirtualFrame26MergeMoveMemoryToRegistersEPS1_
T _ZN2v88internal12VirtualFrame26MergeMoveRegistersToMemoryEPS1_
T _ZN2v88internal12VirtualFrame28SyncElementBelowStackPointerEi
T _ZN2v88internal12VirtualFrame29MergeMoveRegistersToRegistersEPS1_
T _ZN2v88internal12VirtualFrame3NipEi
T _ZN2v88internal12VirtualFrame3PopEv
T _ZN2v88internal12VirtualFrame4DropEi
T _ZN2v88internal12VirtualFrame4ExitEv
T _ZN2v88internal12VirtualFrame4PushENS0_6HandleINS0_6ObjectEEE
T _ZN2v88internal12VirtualFrame4PushENS0_8RegisterENS0_10NumberInfo4TypeE
T _ZN2v88internal12VirtualFrame5EnterEv
T _ZN2v88internal12VirtualFrame6AdjustEi
T _ZN2v88internal12VirtualFrame6EqualsEPS1_
T _ZN2v88internal12VirtualFrame7EmitPopENS0_8RegisterE
T _ZN2v88internal12VirtualFrame7MergeToEPS1_
T _ZN2v88internal12VirtualFrame8EmitPushENS0_8RegisterE
T _ZN2v88internal12VirtualFrame8SpillAllEv
T _ZN2v88internal12VirtualFrame9SyncRangeEii
T _ZN2v88internal12VirtualFrameC1EPS1_
T _ZN2v88internal12VirtualFrameC1Ev
T _ZN2v88internal12VirtualFrameC2EPS1_
T _ZN2v88internal12VirtualFrameC2Ev
T _ZN2v88internal12WeightScalerC1EPNS0_13UsageComputerEf
T _ZN2v88internal12WeightScalerC2EPNS0_13UsageComputerEf
T _ZN2v88internal12WeightScalerD1Ev
T _ZN2v88internal12WeightScalerD2Ev
T _ZN2v88internal13AssertionNode11EatsAtLeastEii
T _ZN2v88internal13AssertionNode20GetQuickCheckDetailsEPNS0_17QuickCheckDetailsEPNS0_14RegExpCompilerEib
T _ZN2v88internal13AssertionNode24ComputeFirstCharacterSetEi
T _ZN2v88internal13AssertionNode4EmitEPNS0_14RegExpCompilerEPNS0_5TraceE
T _ZN2v88internal13AssertionNode6AcceptEPNS0_11NodeVisitorE
T _ZN2v88internal13CodeGenerator10CheckStackEv
T _ZN2v88internal13CodeGenerator10ComparisonENS0_9ConditionEPNS0_10ExpressionES4_b
T _ZN2v88internal13CodeGenerator10LoadGlobalEv
T _ZN2v88internal13CodeGenerator10VisitBlockEPNS0_5BlockE
T _ZN2v88internal13CodeGenerator10VisitThrowEPNS0_5ThrowE
T _ZN2v88internal13CodeGenerator11DeleteFrameEv
T _ZN2v88internal13CodeGenerator11GenerateLogEPNS0_8ZoneListIPNS0_10ExpressionEEE
T _ZN2v88internal13CodeGenerator11SlotOperandEPNS0_4SlotENS0_8RegisterE
T _ZN2v88internal13CodeGenerator11StoreToSlotEPNS0_4SlotENS0_9InitStateE
T _ZN2v88internal13CodeGenerator12LoadFromSlotEPNS0_4SlotENS0_11TypeofStateE
T _ZN2v88internal13CodeGenerator12SmiOperationENS0_5Token5ValueENS0_6HandleINS0_6ObjectEEEb13OverwriteMode
T _ZN2v88internal13CodeGenerator12VisitCallNewEPNS0_7CallNewE
T _ZN2v88internal13CodeGenerator12VisitLiteralEPNS0_7LiteralE
T _ZN2v88internal13CodeGenerator13EmitKeyedLoadEb
T _ZN2v88internal13CodeGenerator13GenerateIsSmiEPNS0_8ZoneListIPNS0_10ExpressionEEE
T _ZN2v88internal13CodeGenerator13LoadConditionEPNS0_10ExpressionEPNS0_10JumpTargetES5_b
T _ZN2v88internal13CodeGenerator13LoadReferenceEPNS0_9ReferenceE
T _ZN2v88internal13CodeGenerator13VisitPropertyEPNS0_8PropertyE
T _ZN2v88internal13CodeGenerator14DeclareGlobalsENS0_6HandleINS0_10FixedArrayEEE
T _ZN2v88internal13CodeGenerator15GenerateClassOfEPNS0_8ZoneListIPNS0_10ExpressionEEE
T _ZN2v88internal13CodeGenerator15GenerateIsArrayEPNS0_8ZoneListIPNS0_10ExpressionEEE
T _ZN2v88internal13CodeGenerator15GenerateMathCosEPNS0_8ZoneListIPNS0_10ExpressionEEE
T _ZN2v88internal13CodeGenerator15GenerateMathSinEPNS0_8ZoneListIPNS0_10ExpressionEEE
T _ZN2v88internal13CodeGenerator15GenerateValueOfEPNS0_8ZoneListIPNS0_10ExpressionEEE
T _ZN2v88internal13CodeGenerator15ProcessDeferredEv
T _ZN2v88internal13CodeGenerator15RecordPositionsEPNS0_14MacroAssemblerEi
T _ZN2v88internal13CodeGenerator15UnloadReferenceEPNS0_9ReferenceE
T _ZN2v88internal13CodeGenerator15VisitAssignmentEPNS0_10AssignmentE
T _ZN2v88internal13CodeGenerator15VisitStatementsEPNS0_8ZoneListIPNS0_9StatementEEE
T _ZN2v88internal13CodeGenerator16AnalyzeConditionEPNS0_10ExpressionE
T _ZN2v88internal13CodeGenerator16GenerateIsObjectEPNS0_8ZoneListIPNS0_10ExpressionEEE
T _ZN2v88internal13CodeGenerator16GenerateIsRegExpEPNS0_8ZoneListIPNS0_10ExpressionEEE
T _ZN2v88internal13CodeGenerator16MakeCodeEpilogueEPNS0_14MacroAssemblerENS0_4Code5FlagsEPNS0_15CompilationInfoE
T _ZN2v88internal13CodeGenerator16MakeCodePrologueEPNS0_15CompilationInfoE
T _ZN2v88internal13CodeGenerator16VisitCallRuntimeEPNS0_11CallRuntimeE
T _ZN2v88internal13CodeGenerator16VisitConditionalEPNS0_11ConditionalE
T _ZN2v88internal13CodeGenerator16VisitDeclarationEPNS0_11DeclarationE
T _ZN2v88internal13CodeGenerator16VisitIfStatementEPNS0_11IfStatementE
T _ZN2v88internal13CodeGenerator17CallWithArgumentsEPNS0_8ZoneListIPNS0_10ExpressionEEENS0_17CallFunctionFlagsEi
T _ZN2v88internal13CodeGenerator17GenerateStringAddEPNS0_8ZoneListIPNS0_10ExpressionEEE
T _ZN2v88internal13CodeGenerator17GenerateSubStringEPNS0_8ZoneListIPNS0_10ExpressionEEE
T _ZN2v88internal13CodeGenerator17VisitArrayLiteralEPNS0_12ArrayLiteralE
T _ZN2v88internal13CodeGenerator17VisitForStatementEPNS0_12ForStatementE
T _ZN2v88internal13CodeGenerator17VisitThisFunctionEPNS0_12ThisFunctionE
D _ZN2v88internal13CodeGenerator17kInlineRuntimeLUTE
T _ZN2v88internal13CodeGenerator18GenerateIsFunctionEPNS0_8ZoneListIPNS0_10ExpressionEEE
T _ZN2v88internal13CodeGenerator18GenerateRegExpExecEPNS0_8ZoneListIPNS0_10ExpressionEEE
T _ZN2v88internal13CodeGenerator18GenerateSetValueOfEPNS0_8ZoneListIPNS0_10ExpressionEEE
T _ZN2v88internal13CodeGenerator18LoadGlobalReceiverENS0_8RegisterE
T _ZN2v88internal13CodeGenerator18VisitObjectLiteralEPNS0_13ObjectLiteralE
T _ZN2v88internal13CodeGenerator18VisitRegExpLiteralEPNS0_13RegExpLiteralE
T _ZN2v88internal13CodeGenerator18VisitVariableProxyEPNS0_13VariableProxyE
T _ZN2v88internal13CodeGenerator19ProcessDeclarationsEPNS0_8ZoneListIPNS0_11DeclarationEEE
T _ZN2v88internal13CodeGenerator19VisitBreakStatementEPNS0_14BreakStatementE
T _ZN2v88internal13CodeGenerator19VisitCountOperationEPNS0_14CountOperationE
T _ZN2v88internal13CodeGenerator19VisitEmptyStatementEPNS0_14EmptyStatementE
T _ZN2v88internal13CodeGenerator19VisitForInStatementEPNS0_14ForInStatementE
T _ZN2v88internal13CodeGenerator19VisitUnaryOperationEPNS0_14UnaryOperationE
T _ZN2v88internal13CodeGenerator19VisitWhileStatementEPNS0_14WhileStatementE
T _ZN2v88internal13CodeGenerator20FindInlineRuntimeLUTENS0_6HandleINS0_6StringEEE
T _ZN2v88internal13CodeGenerator20GenerateObjectEqualsEPNS0_8ZoneListIPNS0_10ExpressionEEE
T _ZN2v88internal13CodeGenerator20LoadTypeofExpressionEPNS0_10ExpressionE
T _ZN2v88internal13CodeGenerator20VisitBinaryOperationEPNS0_15BinaryOperationE
T _ZN2v88internal13CodeGenerator20VisitFunctionLiteralEPNS0_15FunctionLiteralE
T _ZN2v88internal13CodeGenerator20VisitReturnStatementEPNS0_15ReturnStatementE
T _ZN2v88internal13CodeGenerator20VisitSwitchStatementEPNS0_15SwitchStatementE
T _ZN2v88internal13CodeGenerator21CodeForReturnPositionEPNS0_15FunctionLiteralE
T _ZN2v88internal13CodeGenerator21CodeForSourcePositionEi
T _ZN2v88internal13CodeGenerator21ComputeCallInitializeEiNS0_10InLoopFlagE
T _ZN2v88internal13CodeGenerator21GenerateStringCompareEPNS0_8ZoneListIPNS0_10ExpressionEEE
T _ZN2v88internal13CodeGenerator21VisitCompareOperationEPNS0_16CompareOperationE
T _ZN2v88internal13CodeGenerator21VisitDoWhileStatementEPNS0_16DoWhileStatementE
T _ZN2v88internal13CodeGenerator22GenerateFastCharCodeAtEPNS0_8ZoneListIPNS0_10ExpressionEEE
T _ZN2v88internal13CodeGenerator22GenerateNumberToStringEPNS0_8ZoneListIPNS0_10ExpressionEEE
T _ZN2v88internal13CodeGenerator22GenericBinaryOperationENS0_5Token5ValueE13OverwriteModei
T _ZN2v88internal13CodeGenerator22InstantiateBoilerplateENS0_6HandleINS0_10JSFunctionEEE
T _ZN2v88internal13CodeGenerator22VisitContinueStatementEPNS0_17ContinueStatementE
T _ZN2v88internal13CodeGenerator22VisitDebuggerStatementEPNS0_17DebuggerStatementE
T _ZN2v88internal13CodeGenerator22VisitTryCatchStatementEPNS0_17TryCatchStatementE
T _ZN2v88internal13CodeGenerator22VisitWithExitStatementEPNS0_17WithExitStatementE
T _ZN2v88internal13CodeGenerator23CodeForFunctionPositionEPNS0_15FunctionLiteralE
T _ZN2v88internal13CodeGenerator23GenerateArgumentsAccessEPNS0_8ZoneListIPNS0_10ExpressionEEE
T _ZN2v88internal13CodeGenerator23GenerateArgumentsLengthEPNS0_8ZoneListIPNS0_10ExpressionEEE
T _ZN2v88internal13CodeGenerator23GenerateIsConstructCallEPNS0_8ZoneListIPNS0_10ExpressionEEE
T _ZN2v88internal13CodeGenerator23PatchInlineRuntimeEntryENS0_6HandleINS0_6StringEEERKNS1_16InlineRuntimeLUTEPS5_
T _ZN2v88internal13CodeGenerator23VisitWithEnterStatementEPNS0_18WithEnterStatementE
T _ZN2v88internal13CodeGenerator24CodeForStatementPositionEPNS0_9StatementE
T _ZN2v88internal13CodeGenerator24GenerateIsNonNegativeSmiEPNS0_8ZoneListIPNS0_10ExpressionEEE
T _ZN2v88internal13CodeGenerator24VisitExpressionStatementEPNS0_19ExpressionStatementE
T _ZN2v88internal13CodeGenerator24VisitTryFinallyStatementEPNS0_19TryFinallyStatementE
T _ZN2v88internal13CodeGenerator25CheckForInlineRuntimeCallEPNS0_11CallRuntimeE
T _ZN2v88internal13CodeGenerator25GenerateRandomPositiveSmiEPNS0_8ZoneListIPNS0_10ExpressionEEE
T _ZN2v88internal13CodeGenerator25VisitCatchExtensionObjectEPNS0_20CatchExtensionObjectE
T _ZN2v88internal13CodeGenerator28GenerateIsUndetectableObjectEPNS0_8ZoneListIPNS0_10ExpressionEEE
T _ZN2v88internal13CodeGenerator31CodeForDoWhileConditionPositionEPNS0_16DoWhileStatementE
T _ZN2v88internal13CodeGenerator31VisitFunctionBoilerplateLiteralEPNS0_26FunctionBoilerplateLiteralE
T _ZN2v88internal13CodeGenerator33ContextSlotOperandCheckExtensionsEPNS0_4SlotENS0_8RegisterES4_PNS0_10JumpTargetE
T _ZN2v88internal13CodeGenerator33LoadFromGlobalSlotCheckExtensionsEPNS0_4SlotENS0_11TypeofStateENS0_8RegisterES5_PNS0_10JumpTargetE
T _ZN2v88internal13CodeGenerator4LoadEPNS0_10ExpressionE
T _ZN2v88internal13CodeGenerator5scopeEv
T _ZN2v88internal13CodeGenerator6BranchEbPNS0_10JumpTargetE
T _ZN2v88internal13CodeGenerator8GenerateEPNS0_15CompilationInfoE
T _ZN2v88internal13CodeGenerator8MakeCodeEPNS0_15CompilationInfoE
T _ZN2v88internal13CodeGenerator8SetFrameEPNS0_12VirtualFrameEPNS0_12RegisterFileE
T _ZN2v88internal13CodeGenerator9ToBooleanEPNS0_10JumpTargetES3_
T _ZN2v88internal13CodeGenerator9VisitCallEPNS0_4CallE
T _ZN2v88internal13CodeGenerator9VisitSlotEPNS0_4SlotE
T _ZN2v88internal13CodeGeneratorC1EPNS0_14MacroAssemblerE
T _ZN2v88internal13CodeGeneratorC2EPNS0_14MacroAssemblerE
T _ZN2v88internal13DebuggerAgent12CloseSessionEv
T _ZN2v88internal13DebuggerAgent13CreateSessionEPNS0_6SocketE
T _ZN2v88internal13DebuggerAgent15DebuggerMessageERKNS_5Debug7MessageE
T _ZN2v88internal13DebuggerAgent15OnSessionClosedEPNS0_20DebuggerAgentSessionE
T _ZN2v88internal13DebuggerAgent18WaitUntilListeningEv
T _ZN2v88internal13DebuggerAgent3RunEv
T _ZN2v88internal13DebuggerAgent8ShutdownEv
B _ZN2v88internal13DebuggerAgent9instance_E
T _ZN2v88internal13DeleteElementENS0_6HandleINS0_8JSObjectEEEj
T _ZN2v88internal13DispatchTable3GetEt
R _ZN2v88internal13DispatchTable6Config6kNoKeyE
B _ZN2v88internal13DispatchTable6Config8kNoValueE
T _ZN2v88internal13DispatchTable8AddRangeENS0_14CharacterRangeEi
D _ZN2v88internal13FLAG_debuggerE
B _ZN2v88internal13FLAG_trace_gcE
T _ZN2v88internal13FlattenStringENS0_6HandleINS0_6StringEEE
T _ZN2v88internal13GlobalHandles11IsNearDeathEPPNS0_6ObjectE
T _ZN2v88internal13GlobalHandles11RecordStatsEPNS0_9HeapStatsE
B _ZN2v88internal13GlobalHandles11first_free_E
T _ZN2v88internal13GlobalHandles12ObjectGroupsEv
T _ZN2v88internal13GlobalHandles13ClearWeaknessEPPNS0_6ObjectE
T _ZN2v88internal13GlobalHandles15IterateAllRootsEPNS0_13ObjectVisitorE
T _ZN2v88internal13GlobalHandles16IterateWeakRootsEPFvPNS0_6ObjectEPvEPFvNS_10PersistentINS_5ValueEEES4_E
T _ZN2v88internal13GlobalHandles16IterateWeakRootsEPNS0_13ObjectVisitorE
T _ZN2v88internal13GlobalHandles18IterateStrongRootsEPNS0_13ObjectVisitorE
T _ZN2v88internal13GlobalHandles18RemoveObjectGroupsEv
B _ZN2v88internal13GlobalHandles18first_deallocated_E
T _ZN2v88internal13GlobalHandles19IdentifyWeakHandlesEPFbPPNS0_6ObjectEE
B _ZN2v88internal13GlobalHandles23number_of_weak_handles_E
T _ZN2v88internal13GlobalHandles31PostGarbageCollectionProcessingEv
B _ZN2v88internal13GlobalHandles37number_of_global_object_weak_handles_E
B _ZN2v88internal13GlobalHandles5head_E
T _ZN2v88internal13GlobalHandles6CreateEPNS0_6ObjectE
T _ZN2v88internal13GlobalHandles6IsWeakEPPNS0_6ObjectE
T _ZN2v88internal13GlobalHandles7DestroyEPPNS0_6ObjectE
T _ZN2v88internal13GlobalHandles8AddGroupEPPPNS0_6ObjectEj
T _ZN2v88internal13GlobalHandles8MakeWeakEPPNS0_6ObjectEPvPFvNS_10PersistentINS_5ValueEEES5_E
T _ZN2v88internal13GlobalHandles8TearDownEv
T _ZN2v88internal13HeapSortPairsEPNS0_10FixedArrayES2_i
T _ZN2v88internal13OProfileAgent10InitializeEv
T _ZN2v88internal13OProfileAgent22CreateNativeCodeRegionEPKcPKvj
T _ZN2v88internal13OProfileAgent22CreateNativeCodeRegionEPNS0_6StringEPKvj
T _ZN2v88internal13OProfileAgent22CreateNativeCodeRegionEPNS0_6StringES3_iPKvj
T _ZN2v88internal13OProfileAgent8TearDownEv
T _ZN2v88internal13ObjectLiteral6AcceptEPNS0_10AstVisitorE
T _ZN2v88internal13ObjectLiteral8Property18IsCompileTimeValueEv
T _ZN2v88internal13ObjectLiteral8PropertyC1EPNS0_7LiteralEPNS0_10ExpressionE
T _ZN2v88internal13ObjectLiteral8PropertyC1EbPNS0_15FunctionLiteralE
T _ZN2v88internal13ObjectLiteral8PropertyC2EPNS0_7LiteralEPNS0_10ExpressionE
T _ZN2v88internal13ObjectLiteral8PropertyC2EbPNS0_15FunctionLiteralE
T _ZN2v88internal13ObjectVisitor15VisitCodeTargetEPNS0_9RelocInfoE
T _ZN2v88internal13ObjectVisitor16VisitDebugTargetEPNS0_9RelocInfoE
B _ZN2v88internal13OffsetsVector22static_offsets_vector_E
T _ZN2v88internal13ParserFactory8NewScopeEPNS0_5ScopeENS2_4TypeEb
T _ZN2v88internal13ParserMessageD1Ev
T _ZN2v88internal13ParserMessageD2Ev
T _ZN2v88internal13RegExpBuilder10FlushTermsEv
T _ZN2v88internal13RegExpBuilder12AddAssertionEPNS0_10RegExpTreeE
T _ZN2v88internal13RegExpBuilder12AddCharacterEt
T _ZN2v88internal13RegExpBuilder14NewAlternativeEv
T _ZN2v88internal13RegExpBuilder15FlushCharactersEv
T _ZN2v88internal13RegExpBuilder19AddQuantifierToAtomEiiNS0_16RegExpQuantifier4TypeE
T _ZN2v88internal13RegExpBuilder7AddAtomEPNS0_10RegExpTreeE
T _ZN2v88internal13RegExpBuilder8AddEmptyEv
T _ZN2v88internal13RegExpBuilder8ToRegExpEv
T _ZN2v88internal13RegExpBuilder9FlushTextEv
T _ZN2v88internal13RegExpBuilderC1Ev
T _ZN2v88internal13RegExpBuilderC2Ev
T _ZN2v88internal13RegExpCapture10IsAnchoredEv
T _ZN2v88internal13RegExpCapture16CaptureRegistersEv
T _ZN2v88internal13RegExpCapture6AcceptEPNS0_13RegExpVisitorEPv
T _ZN2v88internal13RegExpCapture6ToNodeEPNS0_10RegExpTreeEiPNS0_14RegExpCompilerEPNS0_10RegExpNodeE
T _ZN2v88internal13RegExpCapture6ToNodeEPNS0_14RegExpCompilerEPNS0_10RegExpNodeE
T _ZN2v88internal13RegExpCapture9AsCaptureEv
T _ZN2v88internal13RegExpCapture9IsCaptureEv
T _ZN2v88internal13RegExpLiteral6AcceptEPNS0_10AstVisitorE
T _ZN2v88internal13RelocIterator15AdvanceReadDataEv
T _ZN2v88internal13RelocIterator31AdvanceReadVariableLengthPCJumpEv
T _ZN2v88internal13RelocIterator4nextEv
T _ZN2v88internal13RelocIteratorC1EPNS0_4CodeEi
T _ZN2v88internal13RelocIteratorC1ERKNS0_8CodeDescEi
T _ZN2v88internal13RelocIteratorC2EPNS0_4CodeEi
T _ZN2v88internal13RelocIteratorC2ERKNS0_8CodeDescEi
T _ZN2v88internal13SpaceIterator14CreateIteratorEv
T _ZN2v88internal13SpaceIterator4nextEv
T _ZN2v88internal13SpaceIterator8has_nextEv
T _ZN2v88internal13SpaceIteratorC1Ev
T _ZN2v88internal13SpaceIteratorC2Ev
T _ZN2v88internal13SpaceIteratorD0Ev
T _ZN2v88internal13SpaceIteratorD1Ev
T _ZN2v88internal13SpaceIteratorD2Ev
T _ZN2v88internal13StringAddStub8GenerateEPNS0_14MacroAssemblerE
T _ZN2v88internal13StringBuilder10AddPaddingEci
T _ZN2v88internal13StringBuilder12AddFormattedEPKcz
T _ZN2v88internal13StringBuilder12AddSubstringEPKci
T _ZN2v88internal13StringBuilder8FinalizeEv
T _ZN2v88internal13StringBuilder9AddStringEPKc
T _ZN2v88internal13StringBuilderC1Ei
T _ZN2v88internal13StringBuilderC2Ei
T _ZN2v88internal13SubStringStub8GenerateEPNS0_14MacroAssemblerE
T _ZN2v88internal13ThreadManager10IsArchivedEv
B _ZN2v88internal13ThreadManager12mutex_owner_E
T _ZN2v88internal13ThreadManager13ArchiveThreadEv
T _ZN2v88internal13ThreadManager13RestoreThreadEv
T _ZN2v88internal13ThreadManager18TerminateExecutionEi
T _ZN2v88internal13ThreadManager19FreeThreadResourcesEv
T _ZN2v88internal13ThreadManager19MarkCompactEpilogueEb
T _ZN2v88internal13ThreadManager19MarkCompactPrologueEb
T _ZN2v88internal13ThreadManager20EagerlyArchiveThreadEv
B _ZN2v88internal13ThreadManager23lazily_archived_thread_E
B _ZN2v88internal13ThreadManager29lazily_archived_thread_state_E
T _ZN2v88internal13ThreadManager4LockEv
T _ZN2v88internal13ThreadManager5HasIdEv
T _ZN2v88internal13ThreadManager6UnlockEv
B _ZN2v88internal13ThreadManager6mutex_E
T _ZN2v88internal13ThreadManager7IterateEPNS0_13ObjectVisitorE
T _ZN2v88internal13ThreadManager8AssignIdEv
B _ZN2v88internal13ThreadManager8last_id_E
T _ZN2v88internal13ThreadManager9CurrentIdEv
T _ZN2v88internal13UsageComputer10RecordUsesEPNS0_8UseCountE
T _ZN2v88internal13UsageComputer10VisitBlockEPNS0_5BlockE
T _ZN2v88internal13UsageComputer10VisitThrowEPNS0_5ThrowE
T _ZN2v88internal13UsageComputer12VisitCallNewEPNS0_7CallNewE
T _ZN2v88internal13UsageComputer12VisitLiteralEPNS0_7LiteralE
T _ZN2v88internal13UsageComputer13VisitPropertyEPNS0_8PropertyE
T _ZN2v88internal13UsageComputer13VisitVariableEPNS0_8VariableE
T _ZN2v88internal13UsageComputer15VisitAssignmentEPNS0_10AssignmentE
T _ZN2v88internal13UsageComputer16VisitCallRuntimeEPNS0_11CallRuntimeE
T _ZN2v88internal13UsageComputer16VisitConditionalEPNS0_11ConditionalE
T _ZN2v88internal13UsageComputer16VisitDeclarationEPNS0_11DeclarationE
T _ZN2v88internal13UsageComputer16VisitIfStatementEPNS0_11IfStatementE
T _ZN2v88internal13UsageComputer17VisitArrayLiteralEPNS0_12ArrayLiteralE
T _ZN2v88internal13UsageComputer17VisitForStatementEPNS0_12ForStatementE
T _ZN2v88internal13UsageComputer17VisitThisFunctionEPNS0_12ThisFunctionE
T _ZN2v88internal13UsageComputer18VisitObjectLiteralEPNS0_13ObjectLiteralE
T _ZN2v88internal13UsageComputer18VisitRegExpLiteralEPNS0_13RegExpLiteralE
T _ZN2v88internal13UsageComputer18VisitVariableProxyEPNS0_13VariableProxyE
T _ZN2v88internal13UsageComputer19VisitBreakStatementEPNS0_14BreakStatementE
T _ZN2v88internal13UsageComputer19VisitCountOperationEPNS0_14CountOperationE
T _ZN2v88internal13UsageComputer19VisitEmptyStatementEPNS0_14EmptyStatementE
T _ZN2v88internal13UsageComputer19VisitForInStatementEPNS0_14ForInStatementE
T _ZN2v88internal13UsageComputer19VisitUnaryOperationEPNS0_14UnaryOperationE
T _ZN2v88internal13UsageComputer19VisitWhileStatementEPNS0_14WhileStatementE
T _ZN2v88internal13UsageComputer20VisitBinaryOperationEPNS0_15BinaryOperationE
T _ZN2v88internal13UsageComputer20VisitFunctionLiteralEPNS0_15FunctionLiteralE
T _ZN2v88internal13UsageComputer20VisitReturnStatementEPNS0_15ReturnStatementE
T _ZN2v88internal13UsageComputer20VisitSwitchStatementEPNS0_15SwitchStatementE
T _ZN2v88internal13UsageComputer21VisitCompareOperationEPNS0_16CompareOperationE
T _ZN2v88internal13UsageComputer21VisitDoWhileStatementEPNS0_16DoWhileStatementE
T _ZN2v88internal13UsageComputer22VisitContinueStatementEPNS0_17ContinueStatementE
T _ZN2v88internal13UsageComputer22VisitDebuggerStatementEPNS0_17DebuggerStatementE
T _ZN2v88internal13UsageComputer22VisitTryCatchStatementEPNS0_17TryCatchStatementE
T _ZN2v88internal13UsageComputer22VisitWithExitStatementEPNS0_17WithExitStatementE
T _ZN2v88internal13UsageComputer23VisitWithEnterStatementEPNS0_18WithEnterStatementE
T _ZN2v88internal13UsageComputer24VisitExpressionStatementEPNS0_19ExpressionStatementE
T _ZN2v88internal13UsageComputer24VisitTryFinallyStatementEPNS0_19TryFinallyStatementE
T _ZN2v88internal13UsageComputer25VisitCatchExtensionObjectEPNS0_20CatchExtensionObjectE
T _ZN2v88internal13UsageComputer31VisitFunctionBoilerplateLiteralEPNS0_26FunctionBoilerplateLiteralE
T _ZN2v88internal13UsageComputer4ReadEPNS0_10ExpressionE
T _ZN2v88internal13UsageComputer5WriteEPNS0_10ExpressionE
T _ZN2v88internal13UsageComputer8ReadListEPNS0_8ZoneListIPNS0_10ExpressionEEE
T _ZN2v88internal13UsageComputer8ReadListEPNS0_8ZoneListIPNS0_13ObjectLiteral8PropertyEEE
T _ZN2v88internal13UsageComputer8TraverseEPNS0_7AstNodeE
T _ZN2v88internal13UsageComputer9VisitCallEPNS0_4CallE
T _ZN2v88internal13UsageComputer9VisitSlotEPNS0_4SlotE
T _ZN2v88internal13UsageComputerC1Eib
T _ZN2v88internal13UsageComputerC2Eib
T _ZN2v88internal13UsageComputerD0Ev
T _ZN2v88internal13UsageComputerD1Ev
T _ZN2v88internal13UsageComputerD2Ev
T _ZN2v88internal13VariableProxy6AcceptEPNS0_10AstVisitorE
T _ZN2v88internal13VariableProxy6BindToEPNS0_8VariableE
T _ZN2v88internal13VariableProxyC1ENS0_6HandleINS0_6StringEEEbb
T _ZN2v88internal13VariableProxyC1Eb
T _ZN2v88internal13VariableProxyC2ENS0_6HandleINS0_6StringEEEbb
T _ZN2v88internal13VariableProxyC2Eb
T _ZN2v88internal13VirtualMemory10IsReservedEv
T _ZN2v88internal13VirtualMemory6CommitEPvjb
T _ZN2v88internal13VirtualMemory8UncommitEPvj
T _ZN2v88internal13VirtualMemoryC1Ej
T _ZN2v88internal13VirtualMemoryC2Ej
T _ZN2v88internal13VirtualMemoryD1Ev
T _ZN2v88internal13VirtualMemoryD2Ev
W _ZN2v88internal13ZoneSplayTreeINS0_13DispatchTable6ConfigEE5SplayERKt
W _ZN2v88internal13ZoneSplayTreeINS0_13DispatchTable6ConfigEE6InsertERKtPNS4_7LocatorE
W _ZN2v88internal13ZoneSplayTreeINS0_13DispatchTable6ConfigEE7ForEachINS0_16AddDispatchRangeEEEvPT_
W _ZN2v88internal13ZoneSplayTreeINS0_13DispatchTable6ConfigEE7ForEachINS0_22CharacterRangeSplitterEEEvPT_
B _ZN2v88internal13kLdrPCPatternE
B _ZN2v88internal13top_addressesE
T _ZN2v88internal14BreakPointInfo13SetBreakPointENS0_6HandleIS1_EENS2_INS0_6ObjectEEE
T _ZN2v88internal14BreakPointInfo15ClearBreakPointENS0_6HandleIS1_EENS2_INS0_6ObjectEEE
T _ZN2v88internal14BreakPointInfo18GetBreakPointCountEv
T _ZN2v88internal14BreakPointInfo19HasBreakPointObjectENS0_6HandleIS1_EENS2_INS0_6ObjectEEE
T _ZN2v88internal14BreakStatement6AcceptEPNS0_10AstVisitorE
T _ZN2v88internal14CharacterRange11IsCanonicalEPNS0_8ZoneListIS1_EE
T _ZN2v88internal14CharacterRange12CanonicalizeEPNS0_8ZoneListIS1_EE
T _ZN2v88internal14CharacterRange13GetWordBoundsEv
T _ZN2v88internal14CharacterRange14AddClassEscapeEtPNS0_8ZoneListIS1_EE
T _ZN2v88internal14CharacterRange18AddCaseEquivalentsEPNS0_8ZoneListIS1_EEb
T _ZN2v88internal14CharacterRange21WordCharacterRelationEPNS0_8ZoneListIS1_EE
T _ZN2v88internal14CharacterRange5MergeEPNS0_8ZoneListIS1_EES4_S4_S4_S4_
T _ZN2v88internal14CharacterRange5SplitEPNS0_8ZoneListIS1_EENS0_6VectorIKtEEPS4_S8_
T _ZN2v88internal14CharacterRange6NegateEPNS0_8ZoneListIS1_EES4_
T _ZN2v88internal14CommandMessage3NewERKNS0_6VectorItEEPNS_5Debug10ClientDataE
T _ZN2v88internal14CommandMessage7DisposeEv
T _ZN2v88internal14CommandMessageC1ERKNS0_6VectorItEEPNS_5Debug10ClientDataE
T _ZN2v88internal14CommandMessageC1Ev
T _ZN2v88internal14CommandMessageC2ERKNS0_6VectorItEEPNS_5Debug10ClientDataE
T _ZN2v88internal14CommandMessageC2Ev
T _ZN2v88internal14CommandMessageD1Ev
T _ZN2v88internal14CommandMessageD2Ev
T _ZN2v88internal14CountOperation6AcceptEPNS0_10AstVisitorE
T _ZN2v88internal14DeletePropertyENS0_6HandleINS0_8JSObjectEEENS1_INS0_6StringEEE
T _ZN2v88internal14EmptyStatement6AcceptEPNS0_10AstVisitorE
T _ZN2v88internal14EnsureCompiledENS0_6HandleINS0_18SharedFunctionInfoEEENS0_18ClearExceptionFlagE
B _ZN2v88internal14FLAG_expose_gcE
B _ZN2v88internal14FLAG_gc_globalE
B _ZN2v88internal14FLAG_trace_simE
T _ZN2v88internal14ForInStatement6AcceptEPNS0_10AstVisitorE
T _ZN2v88internal14HistogramTimer4StopEv
T _ZN2v88internal14HistogramTimer5StartEv
T _ZN2v88internal14InstanceofStub8GenerateEPNS0_14MacroAssemblerE
D _ZN2v88internal14KeywordMatcher13first_states_E
T _ZN2v88internal14KeywordMatcher4StepEi
T _ZN2v88internal14LinuxSemaphore4WaitEi
T _ZN2v88internal14LinuxSemaphore4WaitEv
T _ZN2v88internal14LoopChoiceNode11EatsAtLeastEii
T _ZN2v88internal14LoopChoiceNode18AddLoopAlternativeENS0_18GuardedAlternativeE
T _ZN2v88internal14LoopChoiceNode20GetQuickCheckDetailsEPNS0_17QuickCheckDetailsEPNS0_14RegExpCompilerEib
T _ZN2v88internal14LoopChoiceNode22AddContinueAlternativeENS0_18GuardedAlternativeE
T _ZN2v88internal14LoopChoiceNode24ComputeFirstCharacterSetEi
T _ZN2v88internal14LoopChoiceNode4EmitEPNS0_14RegExpCompilerEPNS0_5TraceE
T _ZN2v88internal14LoopChoiceNode6AcceptEPNS0_11NodeVisitorE
T _ZN2v88internal14MacroAssembler10AlignStackEi
T _ZN2v88internal14MacroAssembler10DebugBreakEv
T _ZN2v88internal14MacroAssembler10EnterFrameENS0_10StackFrame4TypeE
T _ZN2v88internal14MacroAssembler10InvokeCodeENS0_6HandleINS0_4CodeEEERKNS0_14ParameterCountES7_NS0_9RelocInfo4ModeE10InvokeFlag
T _ZN2v88internal14MacroAssembler10InvokeCodeENS0_8RegisterERKNS0_14ParameterCountES5_10InvokeFlag
T _ZN2v88internal14MacroAssembler10LeaveFrameENS0_10StackFrame4TypeE
T _ZN2v88internal14MacroAssembler10SetCounterEPNS0_12StatsCounterEiNS0_8RegisterES4_
T _ZN2v88internal14MacroAssembler10StubReturnEi
T _ZN2v88internal14MacroAssembler11CallRuntimeENS0_7Runtime10FunctionIdEi
T _ZN2v88internal14MacroAssembler11CallRuntimeEPNS0_7Runtime8FunctionEi
T _ZN2v88internal14MacroAssembler11LoadContextENS0_8RegisterEi
T _ZN2v88internal14MacroAssembler11RecordWriteENS0_8RegisterES2_S2_
T _ZN2v88internal14MacroAssembler12SmiJumpTableENS0_8RegisterENS0_6VectorIPNS0_5LabelEEE
T _ZN2v88internal14MacroAssembler12TailCallStubEPNS0_8CodeStubENS0_9ConditionE
T _ZN2v88internal14MacroAssembler13InvokeBuiltinENS0_8Builtins10JavaScriptENS0_13InvokeJSFlagsE
T _ZN2v88internal14MacroAssembler13JumpToRuntimeERKNS0_17ExternalReferenceE
T _ZN2v88internal14MacroAssembler13PopTryHandlerEv
T _ZN2v88internal14MacroAssembler14EnterExitFrameENS0_9ExitFrame4ModeE
T _ZN2v88internal14MacroAssembler14InvokeFunctionENS0_8RegisterERKNS0_14ParameterCountE10InvokeFlag
T _ZN2v88internal14MacroAssembler14InvokeFunctionEPNS0_10JSFunctionERKNS0_14ParameterCountE10InvokeFlag
T _ZN2v88internal14MacroAssembler14InvokePrologueERKNS0_14ParameterCountES4_NS0_6HandleINS0_4CodeEEENS0_8RegisterEPNS0_5LabelE10InvokeFlag
T _ZN2v88internal14MacroAssembler14LeaveExitFrameENS0_9ExitFrame4ModeE
T _ZN2v88internal14MacroAssembler14PushTryHandlerE12CodeLocation11HandlerType
T _ZN2v88internal14MacroAssembler15GetBuiltinEntryENS0_8RegisterENS0_8Builtins10JavaScriptE
T _ZN2v88internal14MacroAssembler15JumpIfEitherSmiENS0_8RegisterES2_PNS0_5LabelE
T _ZN2v88internal14MacroAssembler15StackLimitCheckEPNS0_5LabelE
T _ZN2v88internal14MacroAssembler15TailCallRuntimeERKNS0_17ExternalReferenceEii
T _ZN2v88internal14MacroAssembler16DecrementCounterEPNS0_12StatsCounterEiNS0_8RegisterES4_
T _ZN2v88internal14MacroAssembler16IllegalOperationEi
T _ZN2v88internal14MacroAssembler16IncrementCounterEPNS0_12StatsCounterEiNS0_8RegisterES4_
T _ZN2v88internal14MacroAssembler16JumpIfNotBothSmiENS0_8RegisterES2_PNS0_5LabelE
T _ZN2v88internal14MacroAssembler17CompareObjectTypeENS0_8RegisterES2_S2_NS0_12InstanceTypeE
T _ZN2v88internal14MacroAssembler18AllocateInNewSpaceENS0_8RegisterES2_S2_S2_PNS0_5LabelE15AllocationFlags
T _ZN2v88internal14MacroAssembler18AllocateInNewSpaceEiNS0_8RegisterES2_S2_PNS0_5LabelE15AllocationFlags
T _ZN2v88internal14MacroAssembler19AllocateAsciiStringENS0_8RegisterES2_S2_S2_S2_PNS0_5LabelE
T _ZN2v88internal14MacroAssembler19CompareInstanceTypeENS0_8RegisterES2_NS0_12InstanceTypeE
T _ZN2v88internal14MacroAssembler19GetLeastBitsFromSmiENS0_8RegisterES2_i
T _ZN2v88internal14MacroAssembler21AllocateTwoByteStringENS0_8RegisterES2_S2_S2_S2_PNS0_5LabelE
T _ZN2v88internal14MacroAssembler21CallExternalReferenceERKNS0_17ExternalReferenceEi
T _ZN2v88internal14MacroAssembler21SaveRegistersToMemoryEj
T _ZN2v88internal14MacroAssembler22CheckAccessGlobalProxyENS0_8RegisterES2_PNS0_5LabelE
T _ZN2v88internal14MacroAssembler23AllocateAsciiConsStringENS0_8RegisterES2_S2_S2_PNS0_5LabelE
T _ZN2v88internal14MacroAssembler23TryGetFunctionPrototypeENS0_8RegisterES2_S2_PNS0_5LabelE
T _ZN2v88internal14MacroAssembler24UndoAllocationInNewSpaceENS0_8RegisterES2_
T _ZN2v88internal14MacroAssembler25AllocateTwoByteConsStringENS0_8RegisterES2_S2_S2_PNS0_5LabelE
T _ZN2v88internal14MacroAssembler26RestoreRegistersFromMemoryEj
T _ZN2v88internal14MacroAssembler30CopyRegistersFromMemoryToStackENS0_8RegisterEj
T _ZN2v88internal14MacroAssembler30CopyRegistersFromStackToMemoryENS0_8RegisterES2_j
T _ZN2v88internal14MacroAssembler33IntegerToDoubleConversionWithVFP3ENS0_8RegisterES2_S2_
T _ZN2v88internal14MacroAssembler35JumpIfNotBothSequentialAsciiStringsENS0_8RegisterES2_S2_S2_PNS0_5LabelE
T _ZN2v88internal14MacroAssembler3RetENS0_9ConditionE
T _ZN2v88internal14MacroAssembler42JumpIfNonSmisNotBothSequentialAsciiStringsENS0_8RegisterES2_S2_S2_PNS0_5LabelE
T _ZN2v88internal14MacroAssembler4CallENS0_6HandleINS0_4CodeEEENS0_9RelocInfo4ModeENS0_9ConditionE
T _ZN2v88internal14MacroAssembler4CallENS0_8RegisterENS0_9ConditionE
T _ZN2v88internal14MacroAssembler4CallEPNS0_5LabelE
T _ZN2v88internal14MacroAssembler4CallEPhNS0_9RelocInfo4ModeENS0_9ConditionE
T _ZN2v88internal14MacroAssembler4CallEiNS0_9RelocInfo4ModeENS0_9ConditionE
T _ZN2v88internal14MacroAssembler4DropEiNS0_9ConditionE
T _ZN2v88internal14MacroAssembler4JumpENS0_6HandleINS0_4CodeEEENS0_9RelocInfo4ModeENS0_9ConditionE
T _ZN2v88internal14MacroAssembler4JumpENS0_8RegisterENS0_9ConditionE
T _ZN2v88internal14MacroAssembler4JumpEPhNS0_9RelocInfo4ModeENS0_9ConditionE
T _ZN2v88internal14MacroAssembler4JumpEiNS0_9RelocInfo4ModeENS0_9ConditionE
T _ZN2v88internal14MacroAssembler4MoveENS0_8RegisterENS0_6HandleINS0_6ObjectEEE
T _ZN2v88internal14MacroAssembler5AbortEPKc
T _ZN2v88internal14MacroAssembler5CheckENS0_9ConditionEPKc
T _ZN2v88internal14MacroAssembler6AssertENS0_9ConditionEPKc
T _ZN2v88internal14MacroAssembler8CallStubEPNS0_8CodeStubENS0_9ConditionE
T _ZN2v88internal14MacroAssembler8CheckMapENS0_8RegisterES2_NS0_6HandleINS0_3MapEEEPNS0_5LabelEb
T _ZN2v88internal14MacroAssembler8LoadRootENS0_8RegisterENS0_4Heap13RootListIndexENS0_9ConditionE
T _ZN2v88internal14MacroAssembler9CheckMapsEPNS0_8JSObjectENS0_8RegisterES3_S4_S4_PNS0_5LabelE
T _ZN2v88internal14MacroAssemblerC1EPvi
T _ZN2v88internal14MacroAssemblerC2EPvi
T _ZN2v88internal14MessageHandler10GetMessageENS0_6HandleINS0_6ObjectEEE
T _ZN2v88internal14MessageHandler13ReportMessageEPKc
T _ZN2v88internal14MessageHandler13ReportMessageEPNS0_15MessageLocationENS0_6HandleINS0_6ObjectEEE
T _ZN2v88internal14MessageHandler17MakeMessageObjectEPKcPNS0_15MessageLocationENS0_6VectorINS0_6HandleINS0_6ObjectEEEEENS7_INS0_6StringEEE
T _ZN2v88internal14MessageHandler19GetLocalizedMessageENS0_6HandleINS0_6ObjectEEE
T _ZN2v88internal14MessageHandler20DefaultMessageReportEPKNS0_15MessageLocationENS0_6HandleINS0_6ObjectEEE
T _ZN2v88internal14ParserRecorder10LogMessageENS0_7Scanner8LocationEPKcNS0_6VectorIS5_EE
T _ZN2v88internal14ParserRecorder10ReadStringEPjPi
T _ZN2v88internal14ParserRecorder11LogFunctionEi
T _ZN2v88internal14ParserRecorder11WriteStringENS0_6VectorIKcEE
T _ZN2v88internal14ParserRecorderC1Ev
T _ZN2v88internal14ParserRecorderC2Ev
T _ZN2v88internal14RegExpCompiler8AssembleEPNS0_20RegExpMacroAssemblerEPNS0_10RegExpNodeEiNS0_6HandleINS0_6StringEEE
T _ZN2v88internal14RegExpCompilerC1Eibb
T _ZN2v88internal14RegExpCompilerC2Eibb
T _ZN2v88internal14RegExpUnparser10VisitEmptyEPNS0_11RegExpEmptyEPv
T _ZN2v88internal14RegExpUnparser12VisitCaptureEPNS0_13RegExpCaptureEPv
T _ZN2v88internal14RegExpUnparser14VisitAssertionEPNS0_15RegExpAssertionEPv
T _ZN2v88internal14RegExpUnparser14VisitLookaheadEPNS0_15RegExpLookaheadEPv
T _ZN2v88internal14RegExpUnparser15VisitQuantifierEPNS0_16RegExpQuantifierEPv
T _ZN2v88internal14RegExpUnparser16VisitAlternativeEPNS0_17RegExpAlternativeEPv
T _ZN2v88internal14RegExpUnparser16VisitDisjunctionEPNS0_17RegExpDisjunctionEPv
T _ZN2v88internal14RegExpUnparser18VisitBackReferenceEPNS0_19RegExpBackReferenceEPv
T _ZN2v88internal14RegExpUnparser19VisitCharacterClassEPNS0_20RegExpCharacterClassEPv
T _ZN2v88internal14RegExpUnparser19VisitCharacterRangeENS0_14CharacterRangeE
T _ZN2v88internal14RegExpUnparser9VisitAtomEPNS0_10RegExpAtomEPv
T _ZN2v88internal14RegExpUnparser9VisitTextEPNS0_10RegExpTextEPv
T _ZN2v88internal14RegExpUnparserC1Ev
T _ZN2v88internal14RegExpUnparserC2Ev
T _ZN2v88internal14ScriptDataImpl10EntryCountEv
T _ZN2v88internal14ScriptDataImpl11ReadAddressEi
T _ZN2v88internal14ScriptDataImpl11SanityCheckEv
T _ZN2v88internal14ScriptDataImpl12BuildMessageEv
T _ZN2v88internal14ScriptDataImpl14GetFunctionEndEi
T _ZN2v88internal14ScriptDataImpl15MessageLocationEv
T _ZN2v88internal14ScriptDataImpl3nthEi
T _ZN2v88internal14ScriptDataImpl4DataEv
T _ZN2v88internal14ScriptDataImpl4ReadEi
T _ZN2v88internal14ScriptDataImpl6LengthEv
T _ZN2v88internal14ScriptDataImpl8HasErrorEv
T _ZN2v88internal14ScriptDataImpl9BuildArgsEv
T _ZN2v88internal14ScriptDataImplD0Ev
T _ZN2v88internal14ScriptDataImplD1Ev
T _ZN2v88internal14ScriptDataImplD2Ev
T _ZN2v88internal14StackCheckStub8GenerateEPNS0_14MacroAssemblerE
T _ZN2v88internal14StringStubBase22GenerateCopyCharactersEPNS0_14MacroAssemblerENS0_8RegisterES4_S4_S4_b
T _ZN2v88internal14StringStubBase26GenerateCopyCharactersLongEPNS0_14MacroAssemblerENS0_8RegisterES4_S4_S4_S4_S4_S4_S4_i
T _ZN2v88internal14StringToDoubleEPKcid
T _ZN2v88internal14StringToDoubleEPNS0_6StringEid
T _ZN2v88internal14TemporaryScopeC1EPNS0_6ParserE
T _ZN2v88internal14TemporaryScopeC2EPNS0_6ParserE
T _ZN2v88internal14TemporaryScopeD1Ev
T _ZN2v88internal14TemporaryScopeD2Ev
T _ZN2v88internal14ThreadLocalTop10InitializeEv
T _ZN2v88internal14ThreadLocalTop15TryCatchHandlerEv
T _ZN2v88internal14UnaryOperation6AcceptEPNS0_10AstVisitorE
T _ZN2v88internal14WhileStatement6AcceptEPNS0_10AstVisitorE
T _ZN2v88internal15BinaryOperation6AcceptEPNS0_10AstVisitorE
T _ZN2v88internal15ComputeCallMissEi
B _ZN2v88internal15ContextSwitcher10singleton_E
T _ZN2v88internal15ContextSwitcher14StopPreemptionEv
T _ZN2v88internal15ContextSwitcher15StartPreemptionEi
T _ZN2v88internal15ContextSwitcher18PreemptionReceivedEv
T _ZN2v88internal15ContextSwitcher3RunEv
T _ZN2v88internal15ContextSwitcherC1Ei
T _ZN2v88internal15ContextSwitcherC2Ei
T _ZN2v88internal15CustomArguments15IterateInstanceEPNS0_13ObjectVisitorE
T _ZN2v88internal15DescriptorArray10CopyInsertEPNS0_10DescriptorENS0_14TransitionFlagE
T _ZN2v88internal15DescriptorArray12BinarySearchEPNS0_6StringEii
T _ZN2v88internal15DescriptorArray12LinearSearchEPNS0_6StringEi
T _ZN2v88internal15DescriptorArray12SetEnumCacheEPNS0_10FixedArrayES3_
T _ZN2v88internal15DescriptorArray17RemoveTransitionsEv
T _ZN2v88internal15DescriptorArray4SortEv
T _ZN2v88internal15DescriptorArray8AllocateEi
T _ZN2v88internal15DoubleToCStringEdNS0_6VectorIcEE
T _ZN2v88internal15ExecutionAccessC1Ev
T _ZN2v88internal15ExecutionAccessC2Ev
T _ZN2v88internal15ExecutionAccessD1Ev
T _ZN2v88internal15ExecutionAccessD2Ev
B _ZN2v88internal15FLAG_debug_codeE
D _ZN2v88internal15FLAG_debug_infoE
D _ZN2v88internal15FLAG_inline_newE
B _ZN2v88internal15FLAG_preemptionE
T _ZN2v88internal15FunctionLiteral21AllowsLazyCompilationEv
T _ZN2v88internal15FunctionLiteral6AcceptEPNS0_10AstVisitorE
T _ZN2v88internal15MemoryAllocator11CommitBlockEPhjNS0_13ExecutabilityE
T _ZN2v88internal15MemoryAllocator11CommitPagesEPhjPNS0_10PagedSpaceEPi
T _ZN2v88internal15MemoryAllocator11DeleteChunkEi
T _ZN2v88internal15MemoryAllocator13AllocatePagesEiPiPNS0_10PagedSpaceE
T _ZN2v88internal15MemoryAllocator13FreeRawMemoryEPvj
T _ZN2v88internal15MemoryAllocator13UncommitBlockEPhj
B _ZN2v88internal15MemoryAllocator14initial_chunk_E
B _ZN2v88internal15MemoryAllocator15free_chunk_ids_E
B _ZN2v88internal15MemoryAllocator15max_nof_chunks_E
T _ZN2v88internal15MemoryAllocator17AllocateRawMemoryEjPjNS0_13ExecutabilityE
T _ZN2v88internal15MemoryAllocator19ReserveInitialChunkEj
T _ZN2v88internal15MemoryAllocator22InitializePagesInChunkEiiPNS0_10PagedSpaceE
T _ZN2v88internal15MemoryAllocator23FindLastPageInSameChunkEPNS0_4PageE
T _ZN2v88internal15MemoryAllocator24FindFirstPageInSameChunkEPNS0_4PageE
T _ZN2v88internal15MemoryAllocator3PopEv
T _ZN2v88internal15MemoryAllocator4PushEi
B _ZN2v88internal15MemoryAllocator4top_E
T _ZN2v88internal15MemoryAllocator5SetupEi
B _ZN2v88internal15MemoryAllocator5size_E
B _ZN2v88internal15MemoryAllocator7chunks_E
T _ZN2v88internal15MemoryAllocator8TearDownEv
T _ZN2v88internal15MemoryAllocator8ZapBlockEPhj
T _ZN2v88internal15MemoryAllocator9FreePagesEPNS0_4PageE
B _ZN2v88internal15MemoryAllocator9capacity_E
T _ZN2v88internal15RegExpAssertion10IsAnchoredEv
T _ZN2v88internal15RegExpAssertion11AsAssertionEv
T _ZN2v88internal15RegExpAssertion11IsAssertionEv
T _ZN2v88internal15RegExpAssertion6AcceptEPNS0_13RegExpVisitorEPv
T _ZN2v88internal15RegExpAssertion6ToNodeEPNS0_14RegExpCompilerEPNS0_10RegExpNodeE
T _ZN2v88internal15RegExpLookahead10IsAnchoredEv
T _ZN2v88internal15RegExpLookahead11AsLookaheadEv
T _ZN2v88internal15RegExpLookahead11IsLookaheadEv
T _ZN2v88internal15RegExpLookahead16CaptureRegistersEv
T _ZN2v88internal15RegExpLookahead6AcceptEPNS0_13RegExpVisitorEPv
T _ZN2v88internal15RegExpLookahead6ToNodeEPNS0_14RegExpCompilerEPNS0_10RegExpNodeE
T _ZN2v88internal15RelocInfoWriter5WriteEPKNS0_9RelocInfoE
T _ZN2v88internal15ReturnStatement6AcceptEPNS0_10AstVisitorE
T _ZN2v88internal15SwitchStatement6AcceptEPNS0_10AstVisitorE
T _ZN2v88internal15TargetCollector9AddTargetEPNS0_11BreakTargetE
T _ZN2v88internal16AddDispatchRange4CallEiNS0_13DispatchTable5EntryE
T _ZN2v88internal16CallFunctionStub8GenerateEPNS0_14MacroAssemblerE
T _ZN2v88internal16CallStubCompiler16CompileCallFieldEPNS0_8JSObjectES3_iPNS0_6StringE
T _ZN2v88internal16CallStubCompiler17CompileCallGlobalEPNS0_8JSObjectEPNS0_12GlobalObjectEPNS0_20JSGlobalPropertyCellEPNS0_10JSFunctionEPNS0_6StringE
T _ZN2v88internal16CallStubCompiler19CompileCallConstantEPNS0_6ObjectEPNS0_8JSObjectEPNS0_10JSFunctionEPNS0_6StringENS0_12StubCompiler9CheckTypeE
T _ZN2v88internal16CallStubCompiler22CompileCallInterceptorEPNS0_8JSObjectES3_PNS0_6StringE
T _ZN2v88internal16CallStubCompiler7GetCodeENS0_12PropertyTypeEPNS0_6StringE
T _ZN2v88internal16CompareOperation6AcceptEPNS0_10AstVisitorE
T _ZN2v88internal16CompilationCache10LookupEvalENS0_6HandleINS0_6StringEEENS2_INS0_7ContextEEEb
T _ZN2v88internal16CompilationCache12LookupRegExpENS0_6HandleINS0_6StringEEENS0_8JSRegExp5FlagsE
T _ZN2v88internal16CompilationCache12LookupScriptENS0_6HandleINS0_6StringEEENS2_INS0_6ObjectEEEii
T _ZN2v88internal16CompilationCache19MarkCompactPrologueEv
T _ZN2v88internal16CompilationCache5ClearEv
T _ZN2v88internal16CompilationCache6EnableEv
T _ZN2v88internal16CompilationCache7DisableEv
T _ZN2v88internal16CompilationCache7IterateEPNS0_13ObjectVisitorE
T _ZN2v88internal16CompilationCache7PutEvalENS0_6HandleINS0_6StringEEENS2_INS0_7ContextEEEbNS2_INS0_10JSFunctionEEE
T _ZN2v88internal16CompilationCache9PutRegExpENS0_6HandleINS0_6StringEEENS0_8JSRegExp5FlagsENS2_INS0_10FixedArrayEEE
T _ZN2v88internal16CompilationCache9PutScriptENS0_6HandleINS0_6StringEEENS2_INS0_10JSFunctionEEE
T _ZN2v88internal16CompileTimeValue11GetElementsENS0_6HandleINS0_10FixedArrayEEE
T _ZN2v88internal16CompileTimeValue18IsCompileTimeValueEPNS0_10ExpressionE
T _ZN2v88internal16CompileTimeValue7GetTypeENS0_6HandleINS0_10FixedArrayEEE
T _ZN2v88internal16CompileTimeValue8GetValueEPNS0_10ExpressionE
T _ZN2v88internal16ContextSlotCache5ClearEv
B _ZN2v88internal16ContextSlotCache5keys_E
T _ZN2v88internal16ContextSlotCache6LookupEPNS0_4CodeEPNS0_6StringEPNS0_8Variable4ModeE
T _ZN2v88internal16ContextSlotCache6UpdateEPNS0_4CodeEPNS0_6StringENS0_8Variable4ModeEi
B _ZN2v88internal16ContextSlotCache7values_E
T _ZN2v88internal16DoWhileStatement6AcceptEPNS0_10AstVisitorE
T _ZN2v88internal16EncodeFreeRegionEPhi
T _ZN2v88internal16ExternalIntArray8SetValueEjPNS0_6ObjectE
D _ZN2v88internal16FLAG_enable_cmovE
D _ZN2v88internal16FLAG_enable_sahfE
D _ZN2v88internal16FLAG_enable_sse2E
D _ZN2v88internal16FLAG_enable_sse3E
D _ZN2v88internal16FLAG_enable_vfp3E
D _ZN2v88internal16FLAG_gc_intervalE
B _ZN2v88internal16FLAG_stop_sim_atE
T _ZN2v88internal16FlatStringReader21PostGarbageCollectionEv
T _ZN2v88internal16FlatStringReaderC1ENS0_6HandleINS0_6StringEEE
T _ZN2v88internal16FlatStringReaderC1ENS0_6VectorIKcEE
T _ZN2v88internal16FlatStringReaderC2ENS0_6HandleINS0_6StringEEE
T _ZN2v88internal16FlatStringReaderC2ENS0_6VectorIKcEE
T _ZN2v88internal16ForceSetPropertyENS0_6HandleINS0_8JSObjectEEENS1_INS0_6ObjectEEES5_18PropertyAttributes
T _ZN2v88internal16FuncNameInferrer17MakeNameFromStackEv
T _ZN2v88internal16FuncNameInferrer17PushEnclosingNameENS0_6HandleINS0_6StringEEE
T _ZN2v88internal16FuncNameInferrer19InferFunctionsNamesEv
T _ZN2v88internal16FuncNameInferrer23MakeNameFromStackHelperEiNS0_6HandleINS0_6StringEEE
T _ZN2v88internal16GetScriptWrapperENS0_6HandleINS0_6ScriptEEE
T _ZN2v88internal16KeyedLoadIC_MissENS0_9ArgumentsE
B _ZN2v88internal16KeyedLookupCache14field_offsets_E
T _ZN2v88internal16KeyedLookupCache5ClearEv
B _ZN2v88internal16KeyedLookupCache5keys_E
T _ZN2v88internal16KeyedLookupCache6LookupEPNS0_3MapEPNS0_6StringE
T _ZN2v88internal16KeyedLookupCache6UpdateEPNS0_3MapEPNS0_6StringEi
T _ZN2v88internal16LargeObjectChunk12ChunkSizeForEi
T _ZN2v88internal16LargeObjectChunk3NewEiPjNS0_13ExecutabilityE
T _ZN2v88internal16LargeObjectSpace10FindObjectEPh
T _ZN2v88internal16LargeObjectSpace11AllocateRawEi
T _ZN2v88internal16LargeObjectSpace11IterateRSetEPFvPPNS0_10HeapObjectEE
T _ZN2v88internal16LargeObjectSpace12ReserveSpaceEi
T _ZN2v88internal16LargeObjectSpace15AllocateRawCodeEi
T _ZN2v88internal16LargeObjectSpace19AllocateRawInternalEiiNS0_13ExecutabilityE
T _ZN2v88internal16LargeObjectSpace19FreeUnmarkedObjectsEv
T _ZN2v88internal16LargeObjectSpace21AllocateRawFixedArrayEi
T _ZN2v88internal16LargeObjectSpace5SetupEv
T _ZN2v88internal16LargeObjectSpace8ContainsEPNS0_10HeapObjectE
T _ZN2v88internal16LargeObjectSpace8TearDownEv
T _ZN2v88internal16LargeObjectSpace9ClearRSetEv
T _ZN2v88internal16LargeObjectSpaceC1ENS0_15AllocationSpaceE
T _ZN2v88internal16LargeObjectSpaceC2ENS0_15AllocationSpaceE
T _ZN2v88internal16LivenessAnalyzer10VisitBlockEPNS0_5BlockE
T _ZN2v88internal16LivenessAnalyzer10VisitThrowEPNS0_5ThrowE
T _ZN2v88internal16LivenessAnalyzer12VisitCallNewEPNS0_7CallNewE
T _ZN2v88internal16LivenessAnalyzer12VisitLiteralEPNS0_7LiteralE
T _ZN2v88internal16LivenessAnalyzer13VisitPropertyEPNS0_8PropertyE
T _ZN2v88internal16LivenessAnalyzer15VisitAssignmentEPNS0_10AssignmentE
T _ZN2v88internal16LivenessAnalyzer15VisitStatementsEPNS0_8ZoneListIPNS0_9StatementEEE
T _ZN2v88internal16LivenessAnalyzer16VisitCallRuntimeEPNS0_11CallRuntimeE
T _ZN2v88internal16LivenessAnalyzer16VisitConditionalEPNS0_11ConditionalE
T _ZN2v88internal16LivenessAnalyzer16VisitDeclarationEPNS0_11DeclarationE
T _ZN2v88internal16LivenessAnalyzer16VisitIfStatementEPNS0_11IfStatementE
T _ZN2v88internal16LivenessAnalyzer17VisitArrayLiteralEPNS0_12ArrayLiteralE
T _ZN2v88internal16LivenessAnalyzer17VisitForStatementEPNS0_12ForStatementE
T _ZN2v88internal16LivenessAnalyzer17VisitThisFunctionEPNS0_12ThisFunctionE
T _ZN2v88internal16LivenessAnalyzer18VisitObjectLiteralEPNS0_13ObjectLiteralE
T _ZN2v88internal16LivenessAnalyzer18VisitRegExpLiteralEPNS0_13RegExpLiteralE
T _ZN2v88internal16LivenessAnalyzer18VisitVariableProxyEPNS0_13VariableProxyE
T _ZN2v88internal16LivenessAnalyzer19VisitBreakStatementEPNS0_14BreakStatementE
T _ZN2v88internal16LivenessAnalyzer19VisitCountOperationEPNS0_14CountOperationE
T _ZN2v88internal16LivenessAnalyzer19VisitEmptyStatementEPNS0_14EmptyStatementE
T _ZN2v88internal16LivenessAnalyzer19VisitForInStatementEPNS0_14ForInStatementE
T _ZN2v88internal16LivenessAnalyzer19VisitUnaryOperationEPNS0_14UnaryOperationE
T _ZN2v88internal16LivenessAnalyzer19VisitWhileStatementEPNS0_14WhileStatementE
T _ZN2v88internal16LivenessAnalyzer20VisitBinaryOperationEPNS0_15BinaryOperationE
T _ZN2v88internal16LivenessAnalyzer20VisitFunctionLiteralEPNS0_15FunctionLiteralE
T _ZN2v88internal16LivenessAnalyzer20VisitReturnStatementEPNS0_15ReturnStatementE
T _ZN2v88internal16LivenessAnalyzer20VisitSwitchStatementEPNS0_15SwitchStatementE
T _ZN2v88internal16LivenessAnalyzer21VisitCompareOperationEPNS0_16CompareOperationE
T _ZN2v88internal16LivenessAnalyzer21VisitDoWhileStatementEPNS0_16DoWhileStatementE
T _ZN2v88internal16LivenessAnalyzer22VisitContinueStatementEPNS0_17ContinueStatementE
T _ZN2v88internal16LivenessAnalyzer22VisitDebuggerStatementEPNS0_17DebuggerStatementE
T _ZN2v88internal16LivenessAnalyzer22VisitTryCatchStatementEPNS0_17TryCatchStatementE
T _ZN2v88internal16LivenessAnalyzer22VisitWithExitStatementEPNS0_17WithExitStatementE
T _ZN2v88internal16LivenessAnalyzer23VisitWithEnterStatementEPNS0_18WithEnterStatementE
T _ZN2v88internal16LivenessAnalyzer24VisitExpressionStatementEPNS0_19ExpressionStatementE
T _ZN2v88internal16LivenessAnalyzer24VisitTryFinallyStatementEPNS0_19TryFinallyStatementE
T _ZN2v88internal16LivenessAnalyzer25VisitCatchExtensionObjectEPNS0_20CatchExtensionObjectE
T _ZN2v88internal16LivenessAnalyzer31VisitFunctionBoilerplateLiteralEPNS0_26FunctionBoilerplateLiteralE
T _ZN2v88internal16LivenessAnalyzer7AnalyzeEPNS0_15FunctionLiteralE
T _ZN2v88internal16LivenessAnalyzer9RecordDefEPNS0_8VariableEPNS0_10ExpressionE
T _ZN2v88internal16LivenessAnalyzer9RecordUseEPNS0_8VariableEPNS0_10ExpressionE
T _ZN2v88internal16LivenessAnalyzer9VisitCallEPNS0_4CallE
T _ZN2v88internal16LivenessAnalyzer9VisitSlotEPNS0_4SlotE
T _ZN2v88internal16LoadStubCompiler16CompileLoadFieldEPNS0_8JSObjectES3_iPNS0_6StringE
T _ZN2v88internal16LoadStubCompiler17CompileLoadGlobalEPNS0_8JSObjectEPNS0_12GlobalObjectEPNS0_20JSGlobalPropertyCellEPNS0_6StringEb
T _ZN2v88internal16LoadStubCompiler19CompileLoadCallbackEPNS0_6StringEPNS0_8JSObjectES5_PNS0_12AccessorInfoE
T _ZN2v88internal16LoadStubCompiler19CompileLoadConstantEPNS0_8JSObjectES3_PNS0_6ObjectEPNS0_6StringE
T _ZN2v88internal16LoadStubCompiler22CompileLoadInterceptorEPNS0_8JSObjectES3_PNS0_6StringE
T _ZN2v88internal16LoadStubCompiler7GetCodeENS0_12PropertyTypeEPNS0_6StringE
T _ZN2v88internal16NumberDictionary11AtNumberPutEjPNS0_6ObjectE
T _ZN2v88internal16NumberDictionary14AddNumberEntryEjPNS0_6ObjectENS0_15PropertyDetailsE
T _ZN2v88internal16NumberDictionary18UpdateMaxNumberKeyEj
T _ZN2v88internal16NumberDictionary19RemoveNumberEntriesEjj
T _ZN2v88internal16NumberDictionary3SetEjPNS0_6ObjectENS0_15PropertyDetailsE
T _ZN2v88internal16OldSpaceFreeList15RebuildSizeListEv
T _ZN2v88internal16OldSpaceFreeList4FreeEPhi
T _ZN2v88internal16OldSpaceFreeList5ResetEv
T _ZN2v88internal16OldSpaceFreeList8AllocateEiPi
T _ZN2v88internal16OldSpaceFreeListC1ENS0_15AllocationSpaceE
T _ZN2v88internal16OldSpaceFreeListC2ENS0_15AllocationSpaceE
T _ZN2v88internal16RegExpCEntryStub8GenerateEPNS0_14MacroAssemblerE
T _ZN2v88internal16RegExpQuantifier12AsQuantifierEv
T _ZN2v88internal16RegExpQuantifier12IsQuantifierEv
T _ZN2v88internal16RegExpQuantifier16CaptureRegistersEv
T _ZN2v88internal16RegExpQuantifier6AcceptEPNS0_13RegExpVisitorEPv
T _ZN2v88internal16RegExpQuantifier6ToNodeEPNS0_14RegExpCompilerEPNS0_10RegExpNodeE
T _ZN2v88internal16RegExpQuantifier6ToNodeEiibPNS0_10RegExpTreeEPNS0_14RegExpCompilerEPNS0_10RegExpNodeEb
T _ZN2v88internal16SeqTwoByteString23SeqTwoByteStringGetDataEj
T _ZN2v88internal16SnapshotByteSink6PutIntEjPKc
T _ZN2v88internal16StringDictionary14CopyEnumKeysToEPNS0_10FixedArrayES3_
T _ZN2v88internal16StringDictionary28TransformPropertiesToFastForEPNS0_8JSObjectEi
T _ZN2v88internal16WriteCharsToFileEPKciP7__sFILE
T _ZN2v88internal17AstBuildingParser15ReportMessageAtENS0_7Scanner8LocationEPKcNS0_6VectorIS5_EE
T _ZN2v88internal17AstBuildingParser7DeclareENS0_6HandleINS0_6StringEEENS0_8Variable4ModeEPNS0_15FunctionLiteralEbPb
T _ZN2v88internal17BackReferenceNode11EatsAtLeastEii
T _ZN2v88internal17BackReferenceNode24ComputeFirstCharacterSetEi
T _ZN2v88internal17BackReferenceNode4EmitEPNS0_14RegExpCompilerEPNS0_5TraceE
T _ZN2v88internal17BackReferenceNode6AcceptEPNS0_11NodeVisitorE
T _ZN2v88internal17CompileLazyInLoopENS0_6HandleINS0_10JSFunctionEEENS1_INS0_6ObjectEEENS0_18ClearExceptionFlagE
T _ZN2v88internal17CompileLazySharedENS0_6HandleINS0_18SharedFunctionInfoEEENS0_18ClearExceptionFlagE
T _ZN2v88internal17ContinueStatement6AcceptEPNS0_10AstVisitorE
T _ZN2v88internal17DebugInfoListNodeC1EPNS0_9DebugInfoE
T _ZN2v88internal17DebugInfoListNodeC2EPNS0_9DebugInfoE
T _ZN2v88internal17DebugInfoListNodeD0Ev
T _ZN2v88internal17DebugInfoListNodeD1Ev
T _ZN2v88internal17DebugInfoListNodeD2Ev
T _ZN2v88internal17DebuggerAgentUtil10ReceiveAllEPKNS0_6SocketEPci
T _ZN2v88internal17DebuggerAgentUtil11SendMessageEPKNS0_6SocketENS0_6VectorItEE
T _ZN2v88internal17DebuggerAgentUtil11SendMessageEPKNS0_6SocketENS_6HandleINS_6StringEEE
T _ZN2v88internal17DebuggerAgentUtil14ReceiveMessageEPKNS0_6SocketE
D _ZN2v88internal17DebuggerAgentUtil14kContentLengthE
T _ZN2v88internal17DebuggerAgentUtil18SendConnectMessageEPKNS0_6SocketEPKc
B _ZN2v88internal17DebuggerAgentUtil18kContentLengthSizeE
T _ZN2v88internal17DebuggerStatement6AcceptEPNS0_10AstVisitorE
T _ZN2v88internal17ExternalByteArray8SetValueEjPNS0_6ObjectE
T _ZN2v88internal17ExternalReference11debug_breakEv
B _ZN2v88internal17ExternalReference11redirector_E
T _ZN2v88internal17ExternalReference13re_grow_stackEv
T _ZN2v88internal17ExternalReference13roots_addressEv
T _ZN2v88internal17ExternalReference14new_space_maskEv
T _ZN2v88internal17ExternalReference15compare_doublesEv
T _ZN2v88internal17ExternalReference15new_space_startEv
T _ZN2v88internal17ExternalReference19double_fp_operationENS0_5Token5ValueE
T _ZN2v88internal17ExternalReference19perform_gc_functionEv
T _ZN2v88internal17ExternalReference21re_word_character_mapEv
T _ZN2v88internal17ExternalReference22address_of_stack_limitEv
T _ZN2v88internal17ExternalReference23keyed_lookup_cache_keysEv
T _ZN2v88internal17ExternalReference23the_hole_value_locationEv
T _ZN2v88internal17ExternalReference24debug_step_in_fp_addressEv
T _ZN2v88internal17ExternalReference25handle_scope_next_addressEv
T _ZN2v88internal17ExternalReference26handle_scope_limit_addressEv
T _ZN2v88internal17ExternalReference26re_check_stack_guard_stateEv
T _ZN2v88internal17ExternalReference27address_of_real_stack_limitEv
T _ZN2v88internal17ExternalReference27scheduled_exception_addressEv
T _ZN2v88internal17ExternalReference28random_positive_smi_functionEv
T _ZN2v88internal17ExternalReference29address_of_regexp_stack_limitEv
T _ZN2v88internal17ExternalReference31handle_scope_extensions_addressEv
T _ZN2v88internal17ExternalReference32address_of_static_offsets_vectorEv
T _ZN2v88internal17ExternalReference32heap_always_allocate_scope_depthEv
T _ZN2v88internal17ExternalReference32keyed_lookup_cache_field_offsetsEv
T _ZN2v88internal17ExternalReference32new_space_allocation_top_addressEv
T _ZN2v88internal17ExternalReference32re_case_insensitive_compare_uc16Ev
T _ZN2v88internal17ExternalReference34new_space_allocation_limit_addressEv
T _ZN2v88internal17ExternalReference34transcendental_cache_array_addressEv
T _ZN2v88internal17ExternalReference35address_of_regexp_stack_memory_sizeEv
T _ZN2v88internal17ExternalReference38address_of_regexp_stack_memory_addressEv
T _ZN2v88internal17ExternalReferenceC1ENS0_3Top9AddressIdE
T _ZN2v88internal17ExternalReferenceC1ENS0_7Runtime10FunctionIdE
T _ZN2v88internal17ExternalReferenceC1ENS0_8Builtins11CFunctionIdE
T _ZN2v88internal17ExternalReferenceC1ENS0_8Builtins4NameE
T _ZN2v88internal17ExternalReferenceC1EPNS0_12StatsCounterE
T _ZN2v88internal17ExternalReferenceC1EPNS0_7Runtime8FunctionE
T _ZN2v88internal17ExternalReferenceC1EPNS_11ApiFunctionE
T _ZN2v88internal17ExternalReferenceC1ERKNS0_10IC_UtilityE
T _ZN2v88internal17ExternalReferenceC1ERKNS0_13Debug_AddressE
T _ZN2v88internal17ExternalReferenceC1ERKNS0_16SCTableReferenceE
T _ZN2v88internal17ExternalReferenceC2ENS0_3Top9AddressIdE
T _ZN2v88internal17ExternalReferenceC2ENS0_7Runtime10FunctionIdE
T _ZN2v88internal17ExternalReferenceC2ENS0_8Builtins11CFunctionIdE
T _ZN2v88internal17ExternalReferenceC2ENS0_8Builtins4NameE
T _ZN2v88internal17ExternalReferenceC2EPNS0_12StatsCounterE
T _ZN2v88internal17ExternalReferenceC2EPNS0_7Runtime8FunctionE
T _ZN2v88internal17ExternalReferenceC2EPNS_11ApiFunctionE
T _ZN2v88internal17ExternalReferenceC2ERKNS0_10IC_UtilityE
T _ZN2v88internal17ExternalReferenceC2ERKNS0_13Debug_AddressE
T _ZN2v88internal17ExternalReferenceC2ERKNS0_16SCTableReferenceE
D _ZN2v88internal17FLAG_collect_mapsE
D _ZN2v88internal17FLAG_enable_armv7E
D _ZN2v88internal17FLAG_enable_rdtscE
B _ZN2v88internal17FLAG_js_argumentsE
B _ZN2v88internal17FLAG_map_countersE
D _ZN2v88internal17FLAG_new_snapshotE
D _ZN2v88internal17FLAG_optimize_astE
T _ZN2v88internal17FastCodeGenerator10VisitBlockEPNS0_5BlockE
T _ZN2v88internal17FastCodeGenerator10VisitThrowEPNS0_5ThrowE
T _ZN2v88internal17FastCodeGenerator11context_regEv
T _ZN2v88internal17FastCodeGenerator12VisitCallNewEPNS0_7CallNewE
T _ZN2v88internal17FastCodeGenerator12VisitLiteralEPNS0_7LiteralE
T _ZN2v88internal17FastCodeGenerator12accumulator0Ev
T _ZN2v88internal17FastCodeGenerator12accumulator1Ev
T _ZN2v88internal17FastCodeGenerator12receiver_regEv
T _ZN2v88internal17FastCodeGenerator13VisitPropertyEPNS0_8PropertyE
T _ZN2v88internal17FastCodeGenerator15VisitAssignmentEPNS0_10AssignmentE
T _ZN2v88internal17FastCodeGenerator16EmitLoadReceiverEv
T _ZN2v88internal17FastCodeGenerator16VisitCallRuntimeEPNS0_11CallRuntimeE
T _ZN2v88internal17FastCodeGenerator16VisitConditionalEPNS0_11ConditionalE
T _ZN2v88internal17FastCodeGenerator16VisitDeclarationEPNS0_11DeclarationE
T _ZN2v88internal17FastCodeGenerator16VisitIfStatementEPNS0_11IfStatementE
T _ZN2v88internal17FastCodeGenerator17VisitArrayLiteralEPNS0_12ArrayLiteralE
T _ZN2v88internal17FastCodeGenerator17VisitForStatementEPNS0_12ForStatementE
T _ZN2v88internal17FastCodeGenerator17VisitThisFunctionEPNS0_12ThisFunctionE
T _ZN2v88internal17FastCodeGenerator18VisitObjectLiteralEPNS0_13ObjectLiteralE
T _ZN2v88internal17FastCodeGenerator18VisitRegExpLiteralEPNS0_13RegExpLiteralE
T _ZN2v88internal17FastCodeGenerator18VisitVariableProxyEPNS0_13VariableProxyE
T _ZN2v88internal17FastCodeGenerator19VisitBreakStatementEPNS0_14BreakStatementE
T _ZN2v88internal17FastCodeGenerator19VisitCountOperationEPNS0_14CountOperationE
T _ZN2v88internal17FastCodeGenerator19VisitEmptyStatementEPNS0_14EmptyStatementE
T _ZN2v88internal17FastCodeGenerator19VisitForInStatementEPNS0_14ForInStatementE
T _ZN2v88internal17FastCodeGenerator19VisitUnaryOperationEPNS0_14UnaryOperationE
T _ZN2v88internal17FastCodeGenerator19VisitWhileStatementEPNS0_14WhileStatementE
T _ZN2v88internal17FastCodeGenerator20EmitThisPropertyLoadENS0_6HandleINS0_6StringEEE
T _ZN2v88internal17FastCodeGenerator20VisitBinaryOperationEPNS0_15BinaryOperationE
T _ZN2v88internal17FastCodeGenerator20VisitFunctionLiteralEPNS0_15FunctionLiteralE
T _ZN2v88internal17FastCodeGenerator20VisitReturnStatementEPNS0_15ReturnStatementE
T _ZN2v88internal17FastCodeGenerator20VisitSwitchStatementEPNS0_15SwitchStatementE
T _ZN2v88internal17FastCodeGenerator21EmitThisPropertyStoreENS0_6HandleINS0_6StringEEE
T _ZN2v88internal17FastCodeGenerator21VisitCompareOperationEPNS0_16CompareOperationE
T _ZN2v88internal17FastCodeGenerator21VisitDoWhileStatementEPNS0_16DoWhileStatementE
T _ZN2v88internal17FastCodeGenerator22EmitGlobalVariableLoadENS0_6HandleINS0_6ObjectEEE
T _ZN2v88internal17FastCodeGenerator22VisitContinueStatementEPNS0_17ContinueStatementE
T _ZN2v88internal17FastCodeGenerator22VisitDebuggerStatementEPNS0_17DebuggerStatementE
T _ZN2v88internal17FastCodeGenerator22VisitTryCatchStatementEPNS0_17TryCatchStatementE
T _ZN2v88internal17FastCodeGenerator22VisitWithExitStatementEPNS0_17WithExitStatementE
T _ZN2v88internal17FastCodeGenerator23VisitWithEnterStatementEPNS0_18WithEnterStatementE
T _ZN2v88internal17FastCodeGenerator24VisitExpressionStatementEPNS0_19ExpressionStatementE
T _ZN2v88internal17FastCodeGenerator24VisitTryFinallyStatementEPNS0_19TryFinallyStatementE
T _ZN2v88internal17FastCodeGenerator25VisitCatchExtensionObjectEPNS0_20CatchExtensionObjectE
T _ZN2v88internal17FastCodeGenerator31VisitFunctionBoilerplateLiteralEPNS0_26FunctionBoilerplateLiteralE
T _ZN2v88internal17FastCodeGenerator8GenerateEPNS0_15CompilationInfoE
T _ZN2v88internal17FastCodeGenerator8MakeCodeEPNS0_15CompilationInfoE
T _ZN2v88internal17FastCodeGenerator8scratch0Ev
T _ZN2v88internal17FastCodeGenerator8scratch1Ev
T _ZN2v88internal17FastCodeGenerator9EmitBitOrEv
T _ZN2v88internal17FastCodeGenerator9VisitCallEPNS0_4CallE
T _ZN2v88internal17FastCodeGenerator9VisitSlotEPNS0_4SlotE
T _ZN2v88internal17FixedSizeFreeList4FreeEPh
T _ZN2v88internal17FixedSizeFreeList5ResetEv
T _ZN2v88internal17FixedSizeFreeList8AllocateEv
T _ZN2v88internal17FixedSizeFreeListC1ENS0_15AllocationSpaceEi
T _ZN2v88internal17FixedSizeFreeListC2ENS0_15AllocationSpaceEi
T _ZN2v88internal17FullCodeGenerator10SlotOffsetEPNS0_4SlotE
T _ZN2v88internal17FullCodeGenerator10TryFinally4ExitEi
T _ZN2v88internal17FullCodeGenerator10VisitBlockEPNS0_5BlockE
T _ZN2v88internal17FullCodeGenerator10VisitThrowEPNS0_5ThrowE
T _ZN2v88internal17FullCodeGenerator12DropAndApplyEiNS0_10Expression7ContextENS0_8RegisterE
T _ZN2v88internal17FullCodeGenerator12EmitBinaryOpENS0_5Token5ValueENS0_10Expression7ContextE
T _ZN2v88internal17FullCodeGenerator12VisitCallNewEPNS0_7CallNewE
T _ZN2v88internal17FullCodeGenerator12VisitLiteralEPNS0_7LiteralE
T _ZN2v88internal17FullCodeGenerator13VisitPropertyEPNS0_8PropertyE
T _ZN2v88internal17FullCodeGenerator14DeclareGlobalsENS0_6HandleINS0_10FixedArrayEEE
T _ZN2v88internal17FullCodeGenerator14EmitCallWithICEPNS0_4CallENS0_6HandleINS0_6ObjectEEENS0_9RelocInfo4ModeE
T _ZN2v88internal17FullCodeGenerator14EmitSlotSearchEPNS0_4SlotENS0_8RegisterE
T _ZN2v88internal17FullCodeGenerator15VisitAssignmentEPNS0_10AssignmentE
T _ZN2v88internal17FullCodeGenerator15result_registerEv
T _ZN2v88internal17FullCodeGenerator16EmitCallWithStubEPNS0_4CallE
T _ZN2v88internal17FullCodeGenerator16EmitVariableLoadEPNS0_8VariableENS0_10Expression7ContextE
T _ZN2v88internal17FullCodeGenerator16ExitFinallyBlockEv
T _ZN2v88internal17FullCodeGenerator16LoadContextFieldENS0_8RegisterEi
T _ZN2v88internal17FullCodeGenerator16VisitCallRuntimeEPNS0_11CallRuntimeE
T _ZN2v88internal17FullCodeGenerator16VisitConditionalEPNS0_11ConditionalE
T _ZN2v88internal17FullCodeGenerator16VisitDeclarationEPNS0_11DeclarationE
T _ZN2v88internal17FullCodeGenerator16VisitIfStatementEPNS0_11IfStatementE
T _ZN2v88internal17FullCodeGenerator16context_registerEv
T _ZN2v88internal17FullCodeGenerator17EnterFinallyBlockEv
T _ZN2v88internal17FullCodeGenerator17SetReturnPositionEPNS0_15FunctionLiteralE
T _ZN2v88internal17FullCodeGenerator17SetSourcePositionEi
T _ZN2v88internal17FullCodeGenerator17StoreToFrameFieldEiNS0_8RegisterE
T _ZN2v88internal17FullCodeGenerator17VisitArrayLiteralEPNS0_12ArrayLiteralE
T _ZN2v88internal17FullCodeGenerator17VisitDeclarationsEPNS0_8ZoneListIPNS0_11DeclarationEEE
T _ZN2v88internal17FullCodeGenerator17VisitForStatementEPNS0_12ForStatementE
T _ZN2v88internal17FullCodeGenerator17VisitThisFunctionEPNS0_12ThisFunctionE
T _ZN2v88internal17FullCodeGenerator18EmitReturnSequenceEi
T _ZN2v88internal17FullCodeGenerator18VisitObjectLiteralEPNS0_13ObjectLiteralE
T _ZN2v88internal17FullCodeGenerator18VisitRegExpLiteralEPNS0_13RegExpLiteralE
T _ZN2v88internal17FullCodeGenerator18VisitVariableProxyEPNS0_13VariableProxyE
T _ZN2v88internal17FullCodeGenerator19SetFunctionPositionEPNS0_15FunctionLiteralE
T _ZN2v88internal17FullCodeGenerator19VisitBreakStatementEPNS0_14BreakStatementE
T _ZN2v88internal17FullCodeGenerator19VisitCountOperationEPNS0_14CountOperationE
T _ZN2v88internal17FullCodeGenerator19VisitEmptyStatementEPNS0_14EmptyStatementE
T _ZN2v88internal17FullCodeGenerator19VisitForInStatementEPNS0_14ForInStatementE
T _ZN2v88internal17FullCodeGenerator19VisitUnaryOperationEPNS0_14UnaryOperationE
T _ZN2v88internal17FullCodeGenerator19VisitWhileStatementEPNS0_14WhileStatementE
T _ZN2v88internal17FullCodeGenerator20EmitLogicalOperationEPNS0_15BinaryOperationE
T _ZN2v88internal17FullCodeGenerator20SetStatementPositionEPNS0_9StatementE
T _ZN2v88internal17FullCodeGenerator20SetStatementPositionEi
T _ZN2v88internal17FullCodeGenerator20VisitBinaryOperationEPNS0_15BinaryOperationE
T _ZN2v88internal17FullCodeGenerator20VisitFunctionLiteralEPNS0_15FunctionLiteralE
T _ZN2v88internal17FullCodeGenerator20VisitReturnStatementEPNS0_15ReturnStatementE
T _ZN2v88internal17FullCodeGenerator20VisitSwitchStatementEPNS0_15SwitchStatementE
T _ZN2v88internal17FullCodeGenerator21EmitKeyedPropertyLoadEPNS0_8PropertyE
T _ZN2v88internal17FullCodeGenerator21EmitNamedPropertyLoadEPNS0_8PropertyE
T _ZN2v88internal17FullCodeGenerator21VisitCompareOperationEPNS0_16CompareOperationE
T _ZN2v88internal17FullCodeGenerator21VisitDoWhileStatementEPNS0_16DoWhileStatementE
T _ZN2v88internal17FullCodeGenerator22EmitVariableAssignmentEPNS0_8VariableENS0_10Expression7ContextE
T _ZN2v88internal17FullCodeGenerator22VisitContinueStatementEPNS0_17ContinueStatementE
T _ZN2v88internal17FullCodeGenerator22VisitDebuggerStatementEPNS0_17DebuggerStatementE
T _ZN2v88internal17FullCodeGenerator22VisitTryCatchStatementEPNS0_17TryCatchStatementE
T _ZN2v88internal17FullCodeGenerator22VisitWithExitStatementEPNS0_17WithExitStatementE
T _ZN2v88internal17FullCodeGenerator23VisitWithEnterStatementEPNS0_18WithEnterStatementE
T _ZN2v88internal17FullCodeGenerator24VisitExpressionStatementEPNS0_19ExpressionStatementE
T _ZN2v88internal17FullCodeGenerator24VisitTryFinallyStatementEPNS0_19TryFinallyStatementE
T _ZN2v88internal17FullCodeGenerator25VisitCatchExtensionObjectEPNS0_20CatchExtensionObjectE
T _ZN2v88internal17FullCodeGenerator27EmitKeyedPropertyAssignmentEPNS0_10AssignmentE
T _ZN2v88internal17FullCodeGenerator27EmitNamedPropertyAssignmentEPNS0_10AssignmentE
T _ZN2v88internal17FullCodeGenerator31VisitFunctionBoilerplateLiteralEPNS0_26FunctionBoilerplateLiteralE
T _ZN2v88internal17FullCodeGenerator4MoveENS0_8RegisterEPNS0_4SlotE
T _ZN2v88internal17FullCodeGenerator4MoveEPNS0_4SlotENS0_8RegisterES4_S4_
T _ZN2v88internal17FullCodeGenerator5ApplyENS0_10Expression7ContextENS0_8RegisterE
T _ZN2v88internal17FullCodeGenerator5ApplyENS0_10Expression7ContextEPNS0_4SlotE
T _ZN2v88internal17FullCodeGenerator5ApplyENS0_10Expression7ContextEPNS0_5LabelES5_
T _ZN2v88internal17FullCodeGenerator5ApplyENS0_10Expression7ContextEPNS0_7LiteralE
T _ZN2v88internal17FullCodeGenerator6DoTestENS0_10Expression7ContextE
T _ZN2v88internal17FullCodeGenerator8ApplyTOSENS0_10Expression7ContextE
T _ZN2v88internal17FullCodeGenerator8GenerateEPNS0_15CompilationInfoENS1_4ModeE
T _ZN2v88internal17FullCodeGenerator8MakeCodeEPNS0_15CompilationInfoE
T _ZN2v88internal17FullCodeGenerator8TryCatch4ExitEi
T _ZN2v88internal17FullCodeGenerator9VisitCallEPNS0_4CallE
T _ZN2v88internal17FullCodeGenerator9VisitSlotEPNS0_4SlotE
T _ZN2v88internal17JSCallerSavedCodeEi
T _ZN2v88internal17KeyedStoreIC_MissENS0_9ArgumentsE
T _ZN2v88internal17NativesCollectionILNS0_10NativeTypeE0EE13GetScriptNameEi
T _ZN2v88internal17NativesCollectionILNS0_10NativeTypeE0EE15GetScriptSourceEi
T _ZN2v88internal17NativesCollectionILNS0_10NativeTypeE0EE16GetBuiltinsCountEv
T _ZN2v88internal17NativesCollectionILNS0_10NativeTypeE0EE16GetDebuggerCountEv
T _ZN2v88internal17NativesCollectionILNS0_10NativeTypeE0EE8GetIndexEPKc
T _ZN2v88internal17NormalizeElementsENS0_6HandleINS0_8JSObjectEEE
T _ZN2v88internal17PartialSerializer15SerializeObjectEPNS0_6ObjectENS0_10Serializer23ReferenceRepresentationE
T _ZN2v88internal17PartialSerializer25PartialSnapshotCacheIndexEPNS0_10HeapObjectE
T _ZN2v88internal17PartialSerializer9RootIndexEPNS0_10HeapObjectE
T _ZN2v88internal17PartialSerializer9SerializeEPPNS0_6ObjectE
T _ZN2v88internal17QuickCheckDetails11RationalizeEb
T _ZN2v88internal17QuickCheckDetails5ClearEv
T _ZN2v88internal17QuickCheckDetails5MergeEPS1_i
T _ZN2v88internal17QuickCheckDetails7AdvanceEib
T _ZN2v88internal17ReadCharsFromFileEPKcPiib
T _ZN2v88internal17RegExpAlternative10IsAnchoredEv
T _ZN2v88internal17RegExpAlternative13AsAlternativeEv
T _ZN2v88internal17RegExpAlternative13IsAlternativeEv
T _ZN2v88internal17RegExpAlternative16CaptureRegistersEv
T _ZN2v88internal17RegExpAlternative6AcceptEPNS0_13RegExpVisitorEPv
T _ZN2v88internal17RegExpAlternative6ToNodeEPNS0_14RegExpCompilerEPNS0_10RegExpNodeE
T _ZN2v88internal17RegExpAlternativeC1EPNS0_8ZoneListIPNS0_10RegExpTreeEEE
T _ZN2v88internal17RegExpAlternativeC2EPNS0_8ZoneListIPNS0_10RegExpTreeEEE
T _ZN2v88internal17RegExpDisjunction10IsAnchoredEv
T _ZN2v88internal17RegExpDisjunction13AsDisjunctionEv
T _ZN2v88internal17RegExpDisjunction13IsDisjunctionEv
T _ZN2v88internal17RegExpDisjunction16CaptureRegistersEv
T _ZN2v88internal17RegExpDisjunction6AcceptEPNS0_13RegExpVisitorEPv
T _ZN2v88internal17RegExpDisjunction6ToNodeEPNS0_14RegExpCompilerEPNS0_10RegExpNodeE
T _ZN2v88internal17RegExpDisjunctionC1EPNS0_8ZoneListIPNS0_10RegExpTreeEEE
T _ZN2v88internal17RegExpDisjunctionC2EPNS0_8ZoneListIPNS0_10RegExpTreeEEE
T _ZN2v88internal17RegisterAllocator23AllocateWithoutSpillingEv
T _ZN2v88internal17RegisterAllocator8AllocateENS0_8RegisterE
T _ZN2v88internal17RegisterAllocator8AllocateEv
T _ZN2v88internal17RoundUpToPowerOf2Ej
T _ZN2v88internal17SemiSpaceIterator10InitializeEPNS0_8NewSpaceEPhS4_PFiPNS0_10HeapObjectEE
T _ZN2v88internal17SemiSpaceIteratorC1EPNS0_8NewSpaceE
T _ZN2v88internal17SemiSpaceIteratorC1EPNS0_8NewSpaceEPFiPNS0_10HeapObjectEE
T _ZN2v88internal17SemiSpaceIteratorC1EPNS0_8NewSpaceEPh
T _ZN2v88internal17SemiSpaceIteratorC2EPNS0_8NewSpaceE
T _ZN2v88internal17SemiSpaceIteratorC2EPNS0_8NewSpaceEPFiPNS0_10HeapObjectEE
T _ZN2v88internal17SemiSpaceIteratorC2EPNS0_8NewSpaceEPh
T _ZN2v88internal17StackFrameLocator19FindJavaScriptFrameEi
T _ZN2v88internal17StartupSerializer15SerializeObjectEPNS0_6ObjectENS0_10Serializer23ReferenceRepresentationE
T _ZN2v88internal17StartupSerializer23SerializeWeakReferencesEv
T _ZN2v88internal17StartupSerializer25SerializeStrongReferencesEv
T _ZN2v88internal17StatsCounterTimer4StopEv
T _ZN2v88internal17StatsCounterTimer5StartEv
T _ZN2v88internal17StoreStubCompiler17CompileStoreFieldEPNS0_8JSObjectEiPNS0_3MapEPNS0_6StringE
T _ZN2v88internal17StoreStubCompiler18CompileStoreGlobalEPNS0_12GlobalObjectEPNS0_20JSGlobalPropertyCellEPNS0_6StringE
T _ZN2v88internal17StoreStubCompiler20CompileStoreCallbackEPNS0_8JSObjectEPNS0_12AccessorInfoEPNS0_6StringE
T _ZN2v88internal17StoreStubCompiler23CompileStoreInterceptorEPNS0_8JSObjectEPNS0_6StringE
T _ZN2v88internal17StoreStubCompiler7GetCodeENS0_12PropertyTypeEPNS0_6StringE
T _ZN2v88internal17StringCompareStub31GenerateCompareFlatAsciiStringsEPNS0_14MacroAssemblerENS0_8RegisterES4_S4_S4_S4_S4_
T _ZN2v88internal17StringCompareStub8GenerateEPNS0_14MacroAssemblerE
T _ZN2v88internal17StringInputBuffer4SeekEj
T _ZN2v88internal17TryCatchStatement6AcceptEPNS0_10AstVisitorE
T _ZN2v88internal17WithExitStatement6AcceptEPNS0_10AstVisitorE
T _ZN2v88internal18AddKeysFromJSArrayENS0_6HandleINS0_10FixedArrayEEENS1_INS0_7JSArrayEEE
T _ZN2v88internal18ApiGetterEntryStub14GetCustomCacheEPPNS0_4CodeE
T _ZN2v88internal18ApiGetterEntryStub14SetCustomCacheEPNS0_4CodeE
T _ZN2v88internal18BootstrapperActive12ArchiveStateEPc
T _ZN2v88internal18BootstrapperActive12RestoreStateEPc
T _ZN2v88internal18BootstrapperActive21ArchiveSpacePerThreadEv
B _ZN2v88internal18BootstrapperActive8nesting_E
B _ZN2v88internal18CodeGeneratorScope4top_E
T _ZN2v88internal18ComputeIntegerHashEj
T _ZN2v88internal18ComputeLazyCompileEi
T _ZN2v88internal18ExternalFloatArray8SetValueEjPNS0_6ObjectE
T _ZN2v88internal18ExternalShortArray8SetValueEjPNS0_6ObjectE
D _ZN2v88internal18FLAG_debugger_portE
B _ZN2v88internal18FLAG_dump_countersE
B _ZN2v88internal18FLAG_fast_compilerE
D _ZN2v88internal18FLAG_full_compilerE
B _ZN2v88internal18FLAG_never_compactE
B _ZN2v88internal18FLAG_trace_bailoutE
B _ZN2v88internal18FLAG_trace_regexpsE
T _ZN2v88internal18FastNewClosureStub8GenerateEPNS0_14MacroAssemblerE
T _ZN2v88internal18FastNewContextStub8GenerateEPNS0_14MacroAssemblerE
T _ZN2v88internal18GenericUnaryOpStub7GetNameEv
T _ZN2v88internal18GenericUnaryOpStub8GenerateEPNS0_14MacroAssemblerE
T _ZN2v88internal18GuardedAlternative8AddGuardEPNS0_5GuardE
T _ZN2v88internal18HeapObjectIterator10InitializeEPhS2_PFiPNS0_10HeapObjectEE
T _ZN2v88internal18HeapObjectIterator12FromNextPageEv
T _ZN2v88internal18HeapObjectIteratorC1EPNS0_10PagedSpaceE
T _ZN2v88internal18HeapObjectIteratorC1EPNS0_10PagedSpaceEPFiPNS0_10HeapObjectEE
T _ZN2v88internal18HeapObjectIteratorC1EPNS0_10PagedSpaceEPh
T _ZN2v88internal18HeapObjectIteratorC1EPNS0_10PagedSpaceEPhPFiPNS0_10HeapObjectEE
T _ZN2v88internal18HeapObjectIteratorC2EPNS0_10PagedSpaceE
T _ZN2v88internal18HeapObjectIteratorC2EPNS0_10PagedSpaceEPFiPNS0_10HeapObjectEE
T _ZN2v88internal18HeapObjectIteratorC2EPNS0_10PagedSpaceEPh
T _ZN2v88internal18HeapObjectIteratorC2EPNS0_10PagedSpaceEPhPFiPNS0_10HeapObjectEE
T _ZN2v88internal18InitScriptLineEndsENS0_6HandleINS0_6ScriptEEE
T _ZN2v88internal18SharedFunctionInfo13GetSourceCodeEv
T _ZN2v88internal18SharedFunctionInfo13HasSourceCodeEv
T _ZN2v88internal18SharedFunctionInfo15SourceCodePrintEPNS0_12StringStreamEi
T _ZN2v88internal18SharedFunctionInfo21CalculateInstanceSizeEv
T _ZN2v88internal18SharedFunctionInfo27CalculateInObjectPropertiesEv
T _ZN2v88internal18SharedFunctionInfo28CanGenerateInlineConstructorEPNS0_6ObjectE
T _ZN2v88internal18SharedFunctionInfo29GetThisPropertyAssignmentNameEi
T _ZN2v88internal18SharedFunctionInfo29SharedFunctionInfoIterateBodyEPNS0_13ObjectVisitorE
T _ZN2v88internal18SharedFunctionInfo30SetThisPropertyAssignmentsInfoEbPNS0_10FixedArrayE
T _ZN2v88internal18SharedFunctionInfo32ClearThisPropertyAssignmentsInfoEv
T _ZN2v88internal18SharedFunctionInfo32IsThisPropertyAssignmentArgumentEi
T _ZN2v88internal18SharedFunctionInfo33GetThisPropertyAssignmentArgumentEi
T _ZN2v88internal18SharedFunctionInfo33GetThisPropertyAssignmentConstantEi
T _ZN2v88internal18StackFrameIterator12SingletonForENS0_10StackFrame4TypeE
T _ZN2v88internal18StackFrameIterator12SingletonForENS0_10StackFrame4TypeEPNS2_5StateE
T _ZN2v88internal18StackFrameIterator18AdvanceWithHandlerEv
T _ZN2v88internal18StackFrameIterator21AdvanceWithoutHandlerEv
T _ZN2v88internal18StackFrameIterator5ResetEv
T _ZN2v88internal18StackFrameIteratorC1EPNS0_14ThreadLocalTopE
T _ZN2v88internal18StackFrameIteratorC1EbPhS2_
T _ZN2v88internal18StackFrameIteratorC1Ev
T _ZN2v88internal18StackFrameIteratorC2EPNS0_14ThreadLocalTopE
T _ZN2v88internal18StackFrameIteratorC2EbPhS2_
T _ZN2v88internal18StackFrameIteratorC2Ev
T _ZN2v88internal18WithEnterStatement6AcceptEPNS0_10AstVisitorE
T _ZN2v88internal19ArgumentsAccessStub17GenerateNewObjectEPNS0_14MacroAssemblerE
T _ZN2v88internal19ArgumentsAccessStub18GenerateReadLengthEPNS0_14MacroAssemblerE
T _ZN2v88internal19ArgumentsAccessStub19GenerateReadElementEPNS0_14MacroAssemblerE
T _ZN2v88internal19ArgumentsAccessStub8GenerateEPNS0_14MacroAssemblerE
T _ZN2v88internal19CommandMessageQueue3GetEv
T _ZN2v88internal19CommandMessageQueue3PutERKNS0_14CommandMessageE
T _ZN2v88internal19CommandMessageQueue6ExpandEv
T _ZN2v88internal19CommandMessageQueueC1Ei
T _ZN2v88internal19CommandMessageQueueC2Ei
T _ZN2v88internal19CommandMessageQueueD1Ev
T _ZN2v88internal19CommandMessageQueueD2Ev
T _ZN2v88internal19CompilationSubCache3AgeEv
T _ZN2v88internal19CompilationSubCache5ClearEv
T _ZN2v88internal19CompilationSubCache7IterateEPNS0_13ObjectVisitorE
T _ZN2v88internal19CompilationSubCache8GetTableEi
T _ZN2v88internal19CompiledReplacement5ApplyEPNS0_24ReplacementStringBuilderEiiNS0_6HandleINS0_7JSArrayEEE
T _ZN2v88internal19CompiledReplacement7CompileENS0_6HandleINS0_6StringEEEii
T _ZN2v88internal19ConvertToDoubleStub8GenerateEPNS0_14MacroAssemblerE
T _ZN2v88internal19ExpressionStatement6AcceptEPNS0_10AstVisitorE
T _ZN2v88internal19ExternalAsciiString22ExternalAsciiStringGetEi
T _ZN2v88internal19ExternalAsciiString28ExternalAsciiStringReadBlockEPjS2_j
T _ZN2v88internal19ExternalAsciiString30ExternalAsciiStringIterateBodyEPNS0_13ObjectVisitorE
B _ZN2v88internal19ExternalStringTable18new_space_strings_E
B _ZN2v88internal19ExternalStringTable18old_space_strings_E
T _ZN2v88internal19ExternalStringTable7CleanUpEv
T _ZN2v88internal19ExternalStringTable8TearDownEv
B _ZN2v88internal19FLAG_always_compactE
B _ZN2v88internal19FLAG_debugger_agentE
D _ZN2v88internal19FLAG_defer_negationE
T _ZN2v88internal19ForceDeletePropertyENS0_6HandleINS0_8JSObjectEEENS1_INS0_6ObjectEEE
T _ZN2v88internal19GenericBinaryOpStub21HandleNonSmiBitwiseOpEPNS0_14MacroAssemblerE
T _ZN2v88internal19GenericBinaryOpStub7GetNameEv
T _ZN2v88internal19GenericBinaryOpStub8GenerateEPNS0_14MacroAssemblerE
T _ZN2v88internal19GetEnumPropertyKeysENS0_6HandleINS0_8JSObjectEEEb
T _ZN2v88internal19GetHiddenPropertiesENS0_6HandleINS0_8JSObjectEEEb
T _ZN2v88internal19GetScriptLineNumberENS0_6HandleINS0_6ScriptEEEi
T _ZN2v88internal19HeapStringAllocator4growEPj
T _ZN2v88internal19HeapStringAllocator8allocateEj
T _ZN2v88internal19LargeObjectIterator4nextEv
T _ZN2v88internal19LargeObjectIteratorC1EPNS0_16LargeObjectSpaceE
T _ZN2v88internal19LargeObjectIteratorC1EPNS0_16LargeObjectSpaceEPFiPNS0_10HeapObjectEE
T _ZN2v88internal19LargeObjectIteratorC2EPNS0_16LargeObjectSpaceE
T _ZN2v88internal19LargeObjectIteratorC2EPNS0_16LargeObjectSpaceEPFiPNS0_10HeapObjectEE
T _ZN2v88internal19NormalizePropertiesENS0_6HandleINS0_8JSObjectEEENS0_25PropertyNormalizationModeEi
B _ZN2v88internal19PreallocatedStorage10free_list_E
B _ZN2v88internal19PreallocatedStorage12in_use_list_E
B _ZN2v88internal19PreallocatedStorage13preallocated_E
T _ZN2v88internal19PreallocatedStorage3NewEj
T _ZN2v88internal19PreallocatedStorage4InitEj
T _ZN2v88internal19PreallocatedStorage6DeleteEPv
T _ZN2v88internal19PreallocatedStorage6LinkToEPS1_
T _ZN2v88internal19PreallocatedStorage6UnlinkEv
T _ZN2v88internal19PreallocatedStorageC1Ej
T _ZN2v88internal19PreallocatedStorageC2Ej
T _ZN2v88internal19RegExpBackReference15AsBackReferenceEv
T _ZN2v88internal19RegExpBackReference15IsBackReferenceEv
T _ZN2v88internal19RegExpBackReference6AcceptEPNS0_13RegExpVisitorEPv
T _ZN2v88internal19RegExpBackReference6ToNodeEPNS0_14RegExpCompilerEPNS0_10RegExpNodeE
T _ZN2v88internal19TranscendentalCache5ClearEv
B _ZN2v88internal19TranscendentalCache7caches_E
T _ZN2v88internal19TranscendentalCacheC1ENS1_4TypeE
T _ZN2v88internal19TranscendentalCacheC2ENS1_4TypeE
T _ZN2v88internal19TryFinallyStatement6AcceptEPNS0_10AstVisitorE
T _ZN2v88internal20AnalyzeVariableUsageEPNS0_15FunctionLiteralE
T _ZN2v88internal20CatchExtensionObject6AcceptEPNS0_10AstVisitorE
T _ZN2v88internal20CompilationCacheEval3PutENS0_6HandleINS0_6StringEEENS2_INS0_7ContextEEENS2_INS0_10JSFunctionEEE
T _ZN2v88internal20CompilationCacheEval6LookupENS0_6HandleINS0_6StringEEENS2_INS0_7ContextEEE
T _ZN2v88internal20DebuggerAgentSession15DebuggerMessageENS0_6VectorItEE
T _ZN2v88internal20DebuggerAgentSession3RunEv
T _ZN2v88internal20DebuggerAgentSession8ShutdownEv
T _ZN2v88internal20DoubleToFixedCStringEdi
T _ZN2v88internal20DoubleToRadixCStringEdi
B _ZN2v88internal20FLAG_expose_debug_asE
B _ZN2v88internal20FLAG_remote_debuggerE
B _ZN2v88internal20FLAG_trace_exceptionE
T _ZN2v88internal20JSGlobalPropertyCell31JSGlobalPropertyCellIterateBodyEPNS0_13ObjectVisitorE
T _ZN2v88internal20LoadCallbackPropertyENS0_9ArgumentsE
T _ZN2v88internal20MarkCompactCollector11SweepSpacesEv
T _ZN2v88internal20MarkCompactCollector12RebuildRSetsEv
T _ZN2v88internal20MarkCompactCollector14CollectGarbageEv
T _ZN2v88internal20MarkCompactCollector14UpdatePointersEv
T _ZN2v88internal20MarkCompactCollector15MarkLiveObjectsEv
T _ZN2v88internal20MarkCompactCollector15MarkMapContentsEPNS0_3MapE
T _ZN2v88internal20MarkCompactCollector15MarkSymbolTableEv
T _ZN2v88internal20MarkCompactCollector15RelocateObjectsEv
T _ZN2v88internal20MarkCompactCollector16MarkObjectGroupsEv
T _ZN2v88internal20MarkCompactCollector17EmptyMarkingStackEPNS0_14MarkingVisitorE
T _ZN2v88internal20MarkCompactCollector17RelocateMapObjectEPNS0_10HeapObjectE
T _ZN2v88internal20MarkCompactCollector17RelocateNewObjectEPNS0_10HeapObjectE
B _ZN2v88internal20MarkCompactCollector17force_compaction_E
T _ZN2v88internal20MarkCompactCollector18CreateBackPointersEv
T _ZN2v88internal20MarkCompactCollector18DeallocateMapBlockEPhi
T _ZN2v88internal20MarkCompactCollector18IterateLiveObjectsEPNS0_10PagedSpaceEPFiPNS0_10HeapObjectEE
T _ZN2v88internal20MarkCompactCollector18IterateLiveObjectsEPNS0_8NewSpaceEPFiPNS0_10HeapObjectEE
T _ZN2v88internal20MarkCompactCollector18MarkUnmarkedObjectEPNS0_10HeapObjectE
T _ZN2v88internal20MarkCompactCollector18RefillMarkingStackEv
T _ZN2v88internal20MarkCompactCollector18RelocateCellObjectEPNS0_10HeapObjectE
T _ZN2v88internal20MarkCompactCollector18RelocateCodeObjectEPNS0_10HeapObjectE
T _ZN2v88internal20MarkCompactCollector19DeallocateCellBlockEPhi
T _ZN2v88internal20MarkCompactCollector19DeallocateCodeBlockEPhi
T _ZN2v88internal20MarkCompactCollector19MarkDescriptorArrayEPNS0_15DescriptorArrayE
T _ZN2v88internal20MarkCompactCollector19ProcessMarkingStackEPNS0_14MarkingVisitorE
T _ZN2v88internal20MarkCompactCollector19ProcessObjectGroupsEPNS0_14MarkingVisitorE
B _ZN2v88internal20MarkCompactCollector19compact_on_next_gc_E
T _ZN2v88internal20MarkCompactCollector20IsUnmarkedHeapObjectEPPNS0_6ObjectE
T _ZN2v88internal20MarkCompactCollector20ReportDeleteIfNeededEPNS0_10HeapObjectE
T _ZN2v88internal20MarkCompactCollector21RelocateOldDataObjectEPNS0_10HeapObjectE
T _ZN2v88internal20MarkCompactCollector21SweepLargeObjectSpaceEv
T _ZN2v88internal20MarkCompactCollector22DeallocateOldDataBlockEPhi
B _ZN2v88internal20MarkCompactCollector22compacting_collection_E
B _ZN2v88internal20MarkCompactCollector22previous_marked_count_E
T _ZN2v88internal20MarkCompactCollector23ClearNonLiveTransitionsEv
T _ZN2v88internal20MarkCompactCollector24RelocateOldPointerObjectEPNS0_10HeapObjectE
T _ZN2v88internal20MarkCompactCollector25DeallocateOldPointerBlockEPhi
T _ZN2v88internal20MarkCompactCollector25EncodeForwardingAddressesEv
T _ZN2v88internal20MarkCompactCollector25IterateLiveObjectsInRangeEPhS2_PFiPNS0_10HeapObjectEE
T _ZN2v88internal20MarkCompactCollector25UpdatePointersInNewObjectEPNS0_10HeapObjectE
T _ZN2v88internal20MarkCompactCollector25UpdatePointersInOldObjectEPNS0_10HeapObjectE
T _ZN2v88internal20MarkCompactCollector30GetForwardingAddressInOldSpaceEPNS0_10HeapObjectE
T _ZN2v88internal20MarkCompactCollector35EncodeForwardingAddressesInNewSpaceEv
W _ZN2v88internal20MarkCompactCollector37EncodeForwardingAddressesInPagedSpaceIXadL_ZNS0_22MCAllocateFromMapSpaceEPNS0_10HeapObjectEiEEXadL_ZNS0_19IgnoreNonLiveObjectES4_EEEEvPNS0_10PagedSpaceE
W _ZN2v88internal20MarkCompactCollector37EncodeForwardingAddressesInPagedSpaceIXadL_ZNS0_23MCAllocateFromCellSpaceEPNS0_10HeapObjectEiEEXadL_ZNS0_19IgnoreNonLiveObjectES4_EEEEvPNS0_10PagedSpaceE
W _ZN2v88internal20MarkCompactCollector37EncodeForwardingAddressesInPagedSpaceIXadL_ZNS0_23MCAllocateFromCodeSpaceEPNS0_10HeapObjectEiEEXadL_ZNS1_20ReportDeleteIfNeededES4_EEEEvPNS0_10PagedSpaceE
W _ZN2v88internal20MarkCompactCollector37EncodeForwardingAddressesInPagedSpaceIXadL_ZNS0_26MCAllocateFromOldDataSpaceEPNS0_10HeapObjectEiEEXadL_ZNS0_19IgnoreNonLiveObjectES4_EEEEvPNS0_10PagedSpaceE
W _ZN2v88internal20MarkCompactCollector37EncodeForwardingAddressesInPagedSpaceIXadL_ZNS0_29MCAllocateFromOldPointerSpaceEPNS0_10HeapObjectEiEEXadL_ZNS1_20ReportDeleteIfNeededES4_EEEEvPNS0_10PagedSpaceE
T _ZN2v88internal20MarkCompactCollector6FinishEv
T _ZN2v88internal20MarkCompactCollector7PrepareEPNS0_8GCTracerE
B _ZN2v88internal20MarkCompactCollector7tracer_E
T _ZN2v88internal20MarkCompactCollector9MarkRootsEPNS0_18RootMarkingVisitorE
T _ZN2v88internal20RegExpCharacterClass11is_standardEv
T _ZN2v88internal20RegExpCharacterClass12AppendToTextEPNS0_10RegExpTextE
T _ZN2v88internal20RegExpCharacterClass16AsCharacterClassEv
T _ZN2v88internal20RegExpCharacterClass16IsCharacterClassEv
T _ZN2v88internal20RegExpCharacterClass6AcceptEPNS0_13RegExpVisitorEPv
T _ZN2v88internal20RegExpCharacterClass6ToNodeEPNS0_14RegExpCompilerEPNS0_10RegExpNodeE
T _ZN2v88internal20RegExpMacroAssembler16CanReadUnalignedEv
T _ZN2v88internal20RegExpMacroAssemblerC1Ev
T _ZN2v88internal20RegExpMacroAssemblerC2Ev
T _ZN2v88internal20RegExpMacroAssemblerD0Ev
T _ZN2v88internal20RegExpMacroAssemblerD1Ev
T _ZN2v88internal20RegExpMacroAssemblerD2Ev
T _ZN2v88internal20SetPrototypePropertyENS0_6HandleINS0_10JSFunctionEEENS1_INS0_8JSObjectEEE
T _ZN2v88internal21BreakLocationIterator10SetOneShotEv
T _ZN2v88internal21BreakLocationIterator12ClearOneShotEv
T _ZN2v88internal21BreakLocationIterator12IsDebugBreakEv
T _ZN2v88internal21BreakLocationIterator13HasBreakPointEv
T _ZN2v88internal21BreakLocationIterator13PrepareStepInEv
T _ZN2v88internal21BreakLocationIterator13SetBreakPointENS0_6HandleINS0_6ObjectEEE
T _ZN2v88internal21BreakLocationIterator13SetDebugBreakEv
T _ZN2v88internal21BreakLocationIterator15ClearBreakPointENS0_6HandleINS0_6ObjectEEE
T _ZN2v88internal21BreakLocationIterator15ClearDebugBreakEv
T _ZN2v88internal21BreakLocationIterator17BreakPointObjectsEv
T _ZN2v88internal21BreakLocationIterator17SetDebugBreakAtICEv
T _ZN2v88internal21BreakLocationIterator18ClearAllDebugBreakEv
T _ZN2v88internal21BreakLocationIterator19ClearDebugBreakAtICEv
T _ZN2v88internal21BreakLocationIterator19IsDebuggerStatementEv
T _ZN2v88internal21BreakLocationIterator20IsDebugBreakAtReturnEv
T _ZN2v88internal21BreakLocationIterator21SetDebugBreakAtReturnEv
T _ZN2v88internal21BreakLocationIterator23ClearDebugBreakAtReturnEv
T _ZN2v88internal21BreakLocationIterator28FindBreakLocationFromAddressEPh
T _ZN2v88internal21BreakLocationIterator29FindBreakLocationFromPositionEi
T _ZN2v88internal21BreakLocationIterator4NextEi
T _ZN2v88internal21BreakLocationIterator4NextEv
T _ZN2v88internal21BreakLocationIterator5ResetEv
T _ZN2v88internal21BreakLocationIterator9RinfoNextEv
T _ZN2v88internal21BreakLocationIteratorC1ENS0_6HandleINS0_9DebugInfoEEENS0_16BreakLocatorTypeE
T _ZN2v88internal21BreakLocationIteratorC2ENS0_6HandleINS0_9DebugInfoEEENS0_16BreakLocatorTypeE
T _ZN2v88internal21BreakLocationIteratorD0Ev
T _ZN2v88internal21BreakLocationIteratorD1Ev
T _ZN2v88internal21BreakLocationIteratorD2Ev
T _ZN2v88internal21CompilationCacheTable10LookupEvalEPNS0_6StringEPNS0_7ContextE
T _ZN2v88internal21CompilationCacheTable12LookupRegExpEPNS0_6StringENS0_8JSRegExp5FlagsE
T _ZN2v88internal21CompilationCacheTable3PutEPNS0_6StringEPNS0_6ObjectE
T _ZN2v88internal21CompilationCacheTable6LookupEPNS0_6StringE
T _ZN2v88internal21CompilationCacheTable7PutEvalEPNS0_6StringEPNS0_7ContextEPNS0_6ObjectE
T _ZN2v88internal21CompilationCacheTable9PutRegExpEPNS0_6StringENS0_8JSRegExp5FlagsEPNS0_10FixedArrayE
T _ZN2v88internal21ConstructStubCompiler20CompileConstructStubEPNS0_18SharedFunctionInfoE
T _ZN2v88internal21ConstructStubCompiler7GetCodeEv
T _ZN2v88internal21DescriptorLookupCache5ClearEv
B _ZN2v88internal21DescriptorLookupCache5keys_E
B _ZN2v88internal21DescriptorLookupCache8results_E
T _ZN2v88internal21ExternalTwoByteString24ExternalTwoByteStringGetEi
T _ZN2v88internal21ExternalTwoByteString28ExternalTwoByteStringGetDataEj
T _ZN2v88internal21ExternalTwoByteString32ExternalTwoByteStringIterateBodyEPNS0_13ObjectVisitorE
T _ZN2v88internal21ExternalTwoByteString40ExternalTwoByteStringReadBlockIntoBufferEPNS0_6String15ReadBlockBufferEPjj
B _ZN2v88internal21FLAG_remote_debuggingE
D _ZN2v88internal21FLAG_testing_int_flagE
B _ZN2v88internal21FLAG_trace_debug_jsonE
B _ZN2v88internal21FLAG_trace_gc_verboseE
T _ZN2v88internal21KeyedLoadStubCompiler16CompileLoadFieldEPNS0_6StringEPNS0_8JSObjectES5_i
T _ZN2v88internal21KeyedLoadStubCompiler19CompileLoadCallbackEPNS0_6StringEPNS0_8JSObjectES5_PNS0_12AccessorInfoE
T _ZN2v88internal21KeyedLoadStubCompiler19CompileLoadConstantEPNS0_6StringEPNS0_8JSObjectES5_PNS0_6ObjectE
T _ZN2v88internal21KeyedLoadStubCompiler22CompileLoadArrayLengthEPNS0_6StringE
T _ZN2v88internal21KeyedLoadStubCompiler22CompileLoadInterceptorEPNS0_8JSObjectES3_PNS0_6StringE
T _ZN2v88internal21KeyedLoadStubCompiler23CompileLoadStringLengthEPNS0_6StringE
T _ZN2v88internal21KeyedLoadStubCompiler28CompileLoadFunctionPrototypeEPNS0_6StringE
T _ZN2v88internal21KeyedLoadStubCompiler7GetCodeENS0_12PropertyTypeEPNS0_6StringE
T _ZN2v88internal21PosixMemoryMappedFileD0Ev
T _ZN2v88internal21PosixMemoryMappedFileD1Ev
T _ZN2v88internal21PosixMemoryMappedFileD2Ev
T _ZN2v88internal21SafeStringInputBuffer4SeekEj
T _ZN2v88internal21SetNormalizedPropertyENS0_6HandleINS0_8JSObjectEEENS1_INS0_6StringEEENS1_INS0_6ObjectEEENS0_15PropertyDetailsE
T _ZN2v88internal21StoreCallbackPropertyENS0_9ArgumentsE
B _ZN2v88internal21VariableProxySentinel11this_proxy_E
B _ZN2v88internal21VariableProxySentinel17identifier_proxy_E
D _ZN2v88internal22AssertNoZoneAllocation17allow_allocation_E
T _ZN2v88internal22CharacterRangeSplitter4CallEtNS0_13DispatchTable5EntryE
T _ZN2v88internal22CompilationCacheRegExp3PutENS0_6HandleINS0_6StringEEENS0_8JSRegExp5FlagsENS2_INS0_10FixedArrayEEE
T _ZN2v88internal22CompilationCacheRegExp6LookupENS0_6HandleINS0_6StringEEENS0_8JSRegExp5FlagsE
T _ZN2v88internal22CompilationCacheScript3PutENS0_6HandleINS0_6StringEEENS2_INS0_10JSFunctionEEE
T _ZN2v88internal22CompilationCacheScript6LookupENS0_6HandleINS0_6StringEEENS2_INS0_6ObjectEEEii
T _ZN2v88internal22CompilationCacheScript9HasOriginENS0_6HandleINS0_10JSFunctionEEENS2_INS0_6ObjectEEEii
T _ZN2v88internal22ExternalReferenceTable13PopulateTableEv
T _ZN2v88internal22ExternalReferenceTable3AddEPhNS0_8TypeCodeEtPKc
T _ZN2v88internal22ExternalReferenceTable9AddFromIdENS0_8TypeCodeEtPKc
B _ZN2v88internal22ExternalReferenceTable9instance_E
D _ZN2v88internal22FLAG_cleanup_ics_at_gcE
D _ZN2v88internal22FLAG_compilation_cacheE
B _ZN2v88internal22FLAG_emit_branch_hintsE
B _ZN2v88internal22FLAG_expose_natives_asE
D _ZN2v88internal22FLAG_stack_trace_limitE
D _ZN2v88internal22FLAG_testing_bool_flagE
D _ZN2v88internal22FLAG_testing_prng_seedE
D _ZN2v88internal22FLAG_usage_computationE
D _ZN2v88internal22FLAG_use_big_map_spaceE
T _ZN2v88internal22GetKeysInFixedArrayForENS0_6HandleINS0_8JSObjectEEENS0_17KeyCollectionTypeE
T _ZN2v88internal22HandleScopeImplementer11IterateThisEPNS0_13ObjectVisitorE
T _ZN2v88internal22HandleScopeImplementer13ArchiveThreadEPc
T _ZN2v88internal22HandleScopeImplementer13RestoreThreadEPc
T _ZN2v88internal22HandleScopeImplementer19ArchiveThreadHelperEPc
T _ZN2v88internal22HandleScopeImplementer19FreeThreadResourcesEv
T _ZN2v88internal22HandleScopeImplementer19RestoreThreadHelperEPc
T _ZN2v88internal22HandleScopeImplementer21ArchiveSpacePerThreadEv
T _ZN2v88internal22HandleScopeImplementer7IterateEPNS0_13ObjectVisitorE
T _ZN2v88internal22HandleScopeImplementer7IterateEPNS0_13ObjectVisitorEPc
T _ZN2v88internal22HandleScopeImplementer8instanceEv
T _ZN2v88internal22KeyedStoreStubCompiler17CompileStoreFieldEPNS0_8JSObjectEiPNS0_3MapEPNS0_6StringE
T _ZN2v88internal22KeyedStoreStubCompiler7GetCodeENS0_12PropertyTypeEPNS0_6StringE
W _ZN2v88internal22MCAllocateFromNewSpaceEPNS0_10HeapObjectEi
T _ZN2v88internal22SafeStackFrameIterator13IsValidCallerEPNS0_10StackFrameE
T _ZN2v88internal22SafeStackFrameIterator17CanIterateHandlesEPNS0_10StackFrameEPNS0_12StackHandlerE
T _ZN2v88internal22SafeStackFrameIterator5ResetEv
T _ZN2v88internal22SafeStackFrameIterator7AdvanceEv
T _ZN2v88internal22SafeStackFrameIteratorC1EPhS2_S2_S2_
T _ZN2v88internal22SafeStackFrameIteratorC2EPhS2_S2_S2_
T _ZN2v88internal22SerializerDeserializer20SetSnapshotCacheSizeEi
B _ZN2v88internal22SerializerDeserializer23partial_snapshot_cache_E
B _ZN2v88internal22SerializerDeserializer30partial_snapshot_cache_length_E
T _ZN2v88internal22SerializerDeserializer7IterateEPNS0_13ObjectVisitorE
B _ZN2v88internal23FLAG_max_new_space_sizeE
B _ZN2v88internal23FLAG_max_old_space_sizeE
D _ZN2v88internal23FLAG_testing_float_flagE
T _ZN2v88internal23LiveEditFunctionTracker18RecordFunctionCodeENS0_6HandleINS0_4CodeEEE
T _ZN2v88internal23LiveEditFunctionTracker19RecordFunctionScopeEPNS0_5ScopeE
T _ZN2v88internal23LiveEditFunctionTracker8IsActiveEv
T _ZN2v88internal23LiveEditFunctionTrackerC1EPNS0_15FunctionLiteralE
T _ZN2v88internal23LiveEditFunctionTrackerC2EPNS0_15FunctionLiteralE
T _ZN2v88internal23LiveEditFunctionTrackerD1Ev
T _ZN2v88internal23LiveEditFunctionTrackerD2Ev
B _ZN2v88internal23NativeAllocationChecker22allocation_disallowed_E
T _ZN2v88internal23NegativeSubmatchSuccess4EmitEPNS0_14RegExpCompilerEPNS0_5TraceE
T _ZN2v88internal23RegExpMacroAssemblerARM11PopRegisterEi
T _ZN2v88internal23RegExpMacroAssemblerARM11SetRegisterEii
T _ZN2v88internal23RegExpMacroAssemblerARM12CheckAtStartEPNS0_5LabelE
T _ZN2v88internal23RegExpMacroAssemblerARM12IfRegisterGEEiiPNS0_5LabelE
T _ZN2v88internal23RegExpMacroAssemblerARM12IfRegisterLTEiiPNS0_5LabelE
T _ZN2v88internal23RegExpMacroAssemblerARM12PushRegisterEiNS0_20RegExpMacroAssembler14StackCheckFlagE
T _ZN2v88internal23RegExpMacroAssemblerARM13CheckPositionEiPNS0_5LabelE
T _ZN2v88internal23RegExpMacroAssemblerARM13PushBacktrackEPNS0_5LabelE
T _ZN2v88internal23RegExpMacroAssemblerARM14CheckCharacterEjPNS0_5LabelE
T _ZN2v88internal23RegExpMacroAssemblerARM14ClearRegistersEii
T _ZN2v88internal23RegExpMacroAssemblerARM14ImplementationEv
T _ZN2v88internal23RegExpMacroAssemblerARM15AdvanceRegisterEii
T _ZN2v88internal23RegExpMacroAssemblerARM15CheckCharactersENS0_6VectorIKtEEiPNS0_5LabelEb
T _ZN2v88internal23RegExpMacroAssemblerARM15CheckGreedyLoopEPNS0_5LabelE
T _ZN2v88internal23RegExpMacroAssemblerARM15CheckNotAtStartEPNS0_5LabelE
T _ZN2v88internal23RegExpMacroAssemblerARM15CheckPreemptionEv
T _ZN2v88internal23RegExpMacroAssemblerARM15CheckStackLimitEv
T _ZN2v88internal23RegExpMacroAssemblerARM15IfRegisterEqPosEiPNS0_5LabelE
T _ZN2v88internal23RegExpMacroAssemblerARM16CheckCharacterGTEtPNS0_5LabelE
T _ZN2v88internal23RegExpMacroAssemblerARM16CheckCharacterLTEtPNS0_5LabelE
T _ZN2v88internal23RegExpMacroAssemblerARM17BranchOrBacktrackENS0_9ConditionEPNS0_5LabelE
T _ZN2v88internal23RegExpMacroAssemblerARM17CheckNotCharacterEjPNS0_5LabelE
T _ZN2v88internal23RegExpMacroAssemblerARM17register_locationEi
T _ZN2v88internal23RegExpMacroAssemblerARM17stack_limit_slackEv
T _ZN2v88internal23RegExpMacroAssemblerARM18PopCurrentPositionEv
T _ZN2v88internal23RegExpMacroAssemblerARM19PushCurrentPositionEv
T _ZN2v88internal23RegExpMacroAssemblerARM20CheckStackGuardStateEPPhPNS0_4CodeES2_
T _ZN2v88internal23RegExpMacroAssemblerARM20LoadCurrentCharacterEiPNS0_5LabelEbi
T _ZN2v88internal23RegExpMacroAssemblerARM21CheckNotBackReferenceEiPNS0_5LabelE
T _ZN2v88internal23RegExpMacroAssemblerARM22AdvanceCurrentPositionEi
T _ZN2v88internal23RegExpMacroAssemblerARM22CheckCharacterAfterAndEjjPNS0_5LabelE
T _ZN2v88internal23RegExpMacroAssemblerARM22CheckNotRegistersEqualEiiPNS0_5LabelE
T _ZN2v88internal23RegExpMacroAssemblerARM24CallCheckStackGuardStateENS0_8RegisterE
T _ZN2v88internal23RegExpMacroAssemblerARM25CheckNotCharacterAfterAndEjjPNS0_5LabelE
T _ZN2v88internal23RegExpMacroAssemblerARM25EmitBacktrackConstantPoolEv
T _ZN2v88internal23RegExpMacroAssemblerARM26CheckSpecialCharacterClassEtPNS0_5LabelE
T _ZN2v88internal23RegExpMacroAssemblerARM27WriteStackPointerToRegisterEi
T _ZN2v88internal23RegExpMacroAssemblerARM28ReadStackPointerFromRegisterEi
T _ZN2v88internal23RegExpMacroAssemblerARM29GetBacktrackConstantPoolEntryEv
T _ZN2v88internal23RegExpMacroAssemblerARM29LoadCurrentCharacterUncheckedEii
T _ZN2v88internal23RegExpMacroAssemblerARM30CheckNotCharacterAfterMinusAndEtttPNS0_5LabelE
T _ZN2v88internal23RegExpMacroAssemblerARM30WriteCurrentPositionToRegisterEii
T _ZN2v88internal23RegExpMacroAssemblerARM31CheckNotBackReferenceIgnoreCaseEiPNS0_5LabelE
T _ZN2v88internal23RegExpMacroAssemblerARM31ReadCurrentPositionFromRegisterEi
T _ZN2v88internal23RegExpMacroAssemblerARM4BindEPNS0_5LabelE
T _ZN2v88internal23RegExpMacroAssemblerARM4FailEv
T _ZN2v88internal23RegExpMacroAssemblerARM4GoToEPNS0_5LabelE
T _ZN2v88internal23RegExpMacroAssemblerARM7GetCodeENS0_6HandleINS0_6StringEEE
T _ZN2v88internal23RegExpMacroAssemblerARM7SucceedEv
T _ZN2v88internal23RegExpMacroAssemblerARM9BacktrackEv
T _ZN2v88internal23RegExpMacroAssemblerARMC1ENS0_26NativeRegExpMacroAssembler4ModeEi
T _ZN2v88internal23RegExpMacroAssemblerARMC2ENS0_26NativeRegExpMacroAssembler4ModeEi
T _ZN2v88internal23RegExpMacroAssemblerARMD0Ev
T _ZN2v88internal23RegExpMacroAssemblerARMD1Ev
T _ZN2v88internal23RegExpMacroAssemblerARMD2Ev
T _ZN2v88internal23StackTraceFrameIterator12IsValidFrameEv
T _ZN2v88internal23StackTraceFrameIterator7AdvanceEv
T _ZN2v88internal23StackTraceFrameIteratorC1Ev
T _ZN2v88internal23StackTraceFrameIteratorC2Ev
B _ZN2v88internal23kGCExtensionDeclarationE
T _ZN2v88internal24AstBuildingParserFactory14EmptyStatementEv
T _ZN2v88internal24AstBuildingParserFactory8NewScopeEPNS0_5ScopeENS2_4TypeEb
T _ZN2v88internal24DispatchTableConstructor10AddInverseEPNS0_8ZoneListINS0_14CharacterRangeEEE
T _ZN2v88internal24DispatchTableConstructor10BuildTableEPNS0_10ChoiceNodeE
T _ZN2v88internal24DispatchTableConstructor11VisitActionEPNS0_10ActionNodeE
T _ZN2v88internal24DispatchTableConstructor11VisitChoiceEPNS0_10ChoiceNodeE
T _ZN2v88internal24DispatchTableConstructor14VisitAssertionEPNS0_13AssertionNodeE
T _ZN2v88internal24DispatchTableConstructor18VisitBackReferenceEPNS0_17BackReferenceNodeE
T _ZN2v88internal24DispatchTableConstructor8VisitEndEPNS0_7EndNodeE
T _ZN2v88internal24DispatchTableConstructor9VisitTextEPNS0_8TextNodeE
T _ZN2v88internal24DoubleToPrecisionCStringEdi
T _ZN2v88internal24ExternalReferenceDecoderC1Ev
T _ZN2v88internal24ExternalReferenceDecoderC2Ev
T _ZN2v88internal24ExternalReferenceDecoderD1Ev
T _ZN2v88internal24ExternalReferenceDecoderD2Ev
T _ZN2v88internal24ExternalReferenceEncoder3PutEPhi
T _ZN2v88internal24ExternalReferenceEncoderC1Ev
T _ZN2v88internal24ExternalReferenceEncoderC2Ev
T _ZN2v88internal24ExternalUnsignedIntArray8SetValueEjPNS0_6ObjectE
D _ZN2v88internal24FLAG_debugger_auto_breakE
D _ZN2v88internal24FLAG_max_map_space_pagesE
D _ZN2v88internal24FLAG_min_preparse_lengthE
D _ZN2v88internal24FLAG_regexp_entry_nativeE
D _ZN2v88internal24FLAG_regexp_optimizationE
D _ZN2v88internal24FLAG_testing_string_flagE
T _ZN2v88internal24FastCodeGenSyntaxChecker10VisitBlockEPNS0_5BlockE
T _ZN2v88internal24FastCodeGenSyntaxChecker10VisitThrowEPNS0_5ThrowE
T _ZN2v88internal24FastCodeGenSyntaxChecker12VisitCallNewEPNS0_7CallNewE
T _ZN2v88internal24FastCodeGenSyntaxChecker12VisitLiteralEPNS0_7LiteralE
T _ZN2v88internal24FastCodeGenSyntaxChecker13VisitPropertyEPNS0_8PropertyE
T _ZN2v88internal24FastCodeGenSyntaxChecker15VisitAssignmentEPNS0_10AssignmentE
T _ZN2v88internal24FastCodeGenSyntaxChecker15VisitStatementsEPNS0_8ZoneListIPNS0_9StatementEEE
T _ZN2v88internal24FastCodeGenSyntaxChecker16VisitCallRuntimeEPNS0_11CallRuntimeE
T _ZN2v88internal24FastCodeGenSyntaxChecker16VisitConditionalEPNS0_11ConditionalE
T _ZN2v88internal24FastCodeGenSyntaxChecker16VisitDeclarationEPNS0_11DeclarationE
T _ZN2v88internal24FastCodeGenSyntaxChecker16VisitIfStatementEPNS0_11IfStatementE
T _ZN2v88internal24FastCodeGenSyntaxChecker17VisitArrayLiteralEPNS0_12ArrayLiteralE
T _ZN2v88internal24FastCodeGenSyntaxChecker17VisitDeclarationsEPNS0_8ZoneListIPNS0_11DeclarationEEE
T _ZN2v88internal24FastCodeGenSyntaxChecker17VisitForStatementEPNS0_12ForStatementE
T _ZN2v88internal24FastCodeGenSyntaxChecker17VisitThisFunctionEPNS0_12ThisFunctionE
T _ZN2v88internal24FastCodeGenSyntaxChecker18VisitObjectLiteralEPNS0_13ObjectLiteralE
T _ZN2v88internal24FastCodeGenSyntaxChecker18VisitRegExpLiteralEPNS0_13RegExpLiteralE
T _ZN2v88internal24FastCodeGenSyntaxChecker18VisitVariableProxyEPNS0_13VariableProxyE
T _ZN2v88internal24FastCodeGenSyntaxChecker19VisitBreakStatementEPNS0_14BreakStatementE
T _ZN2v88internal24FastCodeGenSyntaxChecker19VisitCountOperationEPNS0_14CountOperationE
T _ZN2v88internal24FastCodeGenSyntaxChecker19VisitEmptyStatementEPNS0_14EmptyStatementE
T _ZN2v88internal24FastCodeGenSyntaxChecker19VisitForInStatementEPNS0_14ForInStatementE
T _ZN2v88internal24FastCodeGenSyntaxChecker19VisitUnaryOperationEPNS0_14UnaryOperationE
T _ZN2v88internal24FastCodeGenSyntaxChecker19VisitWhileStatementEPNS0_14WhileStatementE
T _ZN2v88internal24FastCodeGenSyntaxChecker20VisitBinaryOperationEPNS0_15BinaryOperationE
T _ZN2v88internal24FastCodeGenSyntaxChecker20VisitFunctionLiteralEPNS0_15FunctionLiteralE
T _ZN2v88internal24FastCodeGenSyntaxChecker20VisitReturnStatementEPNS0_15ReturnStatementE
T _ZN2v88internal24FastCodeGenSyntaxChecker20VisitSwitchStatementEPNS0_15SwitchStatementE
T _ZN2v88internal24FastCodeGenSyntaxChecker21VisitCompareOperationEPNS0_16CompareOperationE
T _ZN2v88internal24FastCodeGenSyntaxChecker21VisitDoWhileStatementEPNS0_16DoWhileStatementE
T _ZN2v88internal24FastCodeGenSyntaxChecker22VisitContinueStatementEPNS0_17ContinueStatementE
T _ZN2v88internal24FastCodeGenSyntaxChecker22VisitDebuggerStatementEPNS0_17DebuggerStatementE
T _ZN2v88internal24FastCodeGenSyntaxChecker22VisitTryCatchStatementEPNS0_17TryCatchStatementE
T _ZN2v88internal24FastCodeGenSyntaxChecker22VisitWithExitStatementEPNS0_17WithExitStatementE
T _ZN2v88internal24FastCodeGenSyntaxChecker23VisitWithEnterStatementEPNS0_18WithEnterStatementE
T _ZN2v88internal24FastCodeGenSyntaxChecker24VisitExpressionStatementEPNS0_19ExpressionStatementE
T _ZN2v88internal24FastCodeGenSyntaxChecker24VisitTryFinallyStatementEPNS0_19TryFinallyStatementE
T _ZN2v88internal24FastCodeGenSyntaxChecker25VisitCatchExtensionObjectEPNS0_20CatchExtensionObjectE
T _ZN2v88internal24FastCodeGenSyntaxChecker31VisitFunctionBoilerplateLiteralEPNS0_26FunctionBoilerplateLiteralE
T _ZN2v88internal24FastCodeGenSyntaxChecker5CheckEPNS0_15CompilationInfoE
T _ZN2v88internal24FastCodeGenSyntaxChecker9VisitCallEPNS0_4CallE
T _ZN2v88internal24FastCodeGenSyntaxChecker9VisitSlotEPNS0_4SlotE
T _ZN2v88internal24FullCodeGenSyntaxChecker10VisitBlockEPNS0_5BlockE
T _ZN2v88internal24FullCodeGenSyntaxChecker10VisitThrowEPNS0_5ThrowE
T _ZN2v88internal24FullCodeGenSyntaxChecker12VisitCallNewEPNS0_7CallNewE
T _ZN2v88internal24FullCodeGenSyntaxChecker12VisitLiteralEPNS0_7LiteralE
T _ZN2v88internal24FullCodeGenSyntaxChecker13VisitPropertyEPNS0_8PropertyE
T _ZN2v88internal24FullCodeGenSyntaxChecker15VisitAssignmentEPNS0_10AssignmentE
T _ZN2v88internal24FullCodeGenSyntaxChecker15VisitStatementsEPNS0_8ZoneListIPNS0_9StatementEEE
T _ZN2v88internal24FullCodeGenSyntaxChecker16VisitCallRuntimeEPNS0_11CallRuntimeE
T _ZN2v88internal24FullCodeGenSyntaxChecker16VisitConditionalEPNS0_11ConditionalE
T _ZN2v88internal24FullCodeGenSyntaxChecker16VisitDeclarationEPNS0_11DeclarationE
T _ZN2v88internal24FullCodeGenSyntaxChecker16VisitIfStatementEPNS0_11IfStatementE
T _ZN2v88internal24FullCodeGenSyntaxChecker17VisitArrayLiteralEPNS0_12ArrayLiteralE
T _ZN2v88internal24FullCodeGenSyntaxChecker17VisitDeclarationsEPNS0_8ZoneListIPNS0_11DeclarationEEE
T _ZN2v88internal24FullCodeGenSyntaxChecker17VisitForStatementEPNS0_12ForStatementE
T _ZN2v88internal24FullCodeGenSyntaxChecker17VisitThisFunctionEPNS0_12ThisFunctionE
T _ZN2v88internal24FullCodeGenSyntaxChecker18VisitObjectLiteralEPNS0_13ObjectLiteralE
T _ZN2v88internal24FullCodeGenSyntaxChecker18VisitRegExpLiteralEPNS0_13RegExpLiteralE
T _ZN2v88internal24FullCodeGenSyntaxChecker18VisitVariableProxyEPNS0_13VariableProxyE
T _ZN2v88internal24FullCodeGenSyntaxChecker19VisitBreakStatementEPNS0_14BreakStatementE
T _ZN2v88internal24FullCodeGenSyntaxChecker19VisitCountOperationEPNS0_14CountOperationE
T _ZN2v88internal24FullCodeGenSyntaxChecker19VisitEmptyStatementEPNS0_14EmptyStatementE
T _ZN2v88internal24FullCodeGenSyntaxChecker19VisitForInStatementEPNS0_14ForInStatementE
T _ZN2v88internal24FullCodeGenSyntaxChecker19VisitUnaryOperationEPNS0_14UnaryOperationE
T _ZN2v88internal24FullCodeGenSyntaxChecker19VisitWhileStatementEPNS0_14WhileStatementE
T _ZN2v88internal24FullCodeGenSyntaxChecker20VisitBinaryOperationEPNS0_15BinaryOperationE
T _ZN2v88internal24FullCodeGenSyntaxChecker20VisitFunctionLiteralEPNS0_15FunctionLiteralE
T _ZN2v88internal24FullCodeGenSyntaxChecker20VisitReturnStatementEPNS0_15ReturnStatementE
T _ZN2v88internal24FullCodeGenSyntaxChecker20VisitSwitchStatementEPNS0_15SwitchStatementE
T _ZN2v88internal24FullCodeGenSyntaxChecker21VisitCompareOperationEPNS0_16CompareOperationE
T _ZN2v88internal24FullCodeGenSyntaxChecker21VisitDoWhileStatementEPNS0_16DoWhileStatementE
T _ZN2v88internal24FullCodeGenSyntaxChecker22VisitContinueStatementEPNS0_17ContinueStatementE
T _ZN2v88internal24FullCodeGenSyntaxChecker22VisitDebuggerStatementEPNS0_17DebuggerStatementE
T _ZN2v88internal24FullCodeGenSyntaxChecker22VisitTryCatchStatementEPNS0_17TryCatchStatementE
T _ZN2v88internal24FullCodeGenSyntaxChecker22VisitWithExitStatementEPNS0_17WithExitStatementE
T _ZN2v88internal24FullCodeGenSyntaxChecker23VisitWithEnterStatementEPNS0_18WithEnterStatementE
T _ZN2v88internal24FullCodeGenSyntaxChecker24VisitExpressionStatementEPNS0_19ExpressionStatementE
T _ZN2v88internal24FullCodeGenSyntaxChecker24VisitTryFinallyStatementEPNS0_19TryFinallyStatementE
T _ZN2v88internal24FullCodeGenSyntaxChecker25VisitCatchExtensionObjectEPNS0_20CatchExtensionObjectE
T _ZN2v88internal24FullCodeGenSyntaxChecker31VisitFunctionBoilerplateLiteralEPNS0_26FunctionBoilerplateLiteralE
T _ZN2v88internal24FullCodeGenSyntaxChecker5CheckEPNS0_15FunctionLiteralE
T _ZN2v88internal24FullCodeGenSyntaxChecker9VisitCallEPNS0_4CallE
T _ZN2v88internal24FullCodeGenSyntaxChecker9VisitSlotEPNS0_4SlotE
B _ZN2v88internal24PreallocatedMemoryThread11the_thread_E
B _ZN2v88internal24PreallocatedMemoryThread21data_ready_semaphore_E
B _ZN2v88internal24PreallocatedMemoryThread24wait_for_ever_semaphore_E
B _ZN2v88internal24PreallocatedMemoryThread5data_E
B _ZN2v88internal24PreallocatedMemoryThread7length_E
T _ZN2v88internal24SetExpectedNofPropertiesENS0_6HandleINS0_10JSFunctionEEEi
T _ZN2v88internal24StoreInterceptorPropertyENS0_9ArgumentsE
T _ZN2v88internal24TwoByteStringUTF16Buffer10InitializeENS0_6HandleINS0_21ExternalTwoByteStringEEE
T _ZN2v88internal24TwoByteStringUTF16Buffer11SeekForwardEi
T _ZN2v88internal24TwoByteStringUTF16Buffer7AdvanceEv
T _ZN2v88internal24TwoByteStringUTF16Buffer8PushBackEi
T _ZN2v88internal24TwoByteStringUTF16BufferC1Ev
T _ZN2v88internal24TwoByteStringUTF16BufferC2Ev
B _ZN2v88internal24post_gc_processing_countE
T _ZN2v88internal25ExternalUnsignedByteArray8SetValueEjPNS0_6ObjectE
B _ZN2v88internal25FLAG_allow_natives_syntaxE
B _ZN2v88internal25FLAG_always_fast_compilerE
B _ZN2v88internal25FLAG_always_full_compilerE
B _ZN2v88internal25FLAG_native_code_countersE
D _ZN2v88internal25FLAG_push_pop_eliminationE
D _ZN2v88internal25FLAG_stack_trace_on_abortE
T _ZN2v88internal25FastCloneShallowArrayStub8GenerateEPNS0_14MacroAssemblerE
T _ZN2v88internal25ReinitializeJSGlobalProxyENS0_6HandleINS0_10JSFunctionEEENS1_INS0_13JSGlobalProxyEEE
T _ZN2v88internal25TransformToFastPropertiesENS0_6HandleINS0_8JSObjectEEEi
B _ZN2v88internal25ValidLeftHandSideSentinel9instance_E
T _ZN2v88internal26CharacterStreamUTF16Buffer10InitializeENS0_6HandleINS0_6StringEEEPN7unibrow15CharacterStreamE
T _ZN2v88internal26CharacterStreamUTF16Buffer11SeekForwardEi
T _ZN2v88internal26CharacterStreamUTF16Buffer7AdvanceEv
T _ZN2v88internal26CharacterStreamUTF16Buffer8PushBackEi
T _ZN2v88internal26CharacterStreamUTF16BufferC1Ev
T _ZN2v88internal26CharacterStreamUTF16BufferC2Ev
T _ZN2v88internal26DeferredInlineSmiOperation8GenerateEv
T _ZN2v88internal26DoubleToExponentialCStringEdi
T _ZN2v88internal26ExternalUnsignedShortArray8SetValueEjPNS0_6ObjectE
D _ZN2v88internal26FLAG_use_idle_notificationE
T _ZN2v88internal26FunctionBoilerplateLiteral6AcceptEPNS0_10AstVisitorE
T _ZN2v88internal26GetKeysForNamedInterceptorENS0_6HandleINS0_8JSObjectEEES3_
T _ZN2v88internal26GetPropertyWithInterceptorENS0_6HandleINS0_8JSObjectEEES3_NS1_INS0_6StringEEEP18PropertyAttributes
T _ZN2v88internal26LockingCommandMessageQueue3GetEv
T _ZN2v88internal26LockingCommandMessageQueue3PutERKNS0_14CommandMessageE
T _ZN2v88internal26LockingCommandMessageQueue5ClearEv
T _ZN2v88internal26LockingCommandMessageQueueC1Ei
T _ZN2v88internal26LockingCommandMessageQueueC2Ei
T _ZN2v88internal26LockingCommandMessageQueueD1Ev
T _ZN2v88internal26LockingCommandMessageQueueD2Ev
T _ZN2v88internal26NativeRegExpMacroAssembler16CanReadUnalignedEv
D _ZN2v88internal26NativeRegExpMacroAssembler18word_character_mapE
T _ZN2v88internal26NativeRegExpMacroAssembler23StringCharacterPositionEPNS0_6StringEi
T _ZN2v88internal26NativeRegExpMacroAssembler26CaseInsensitiveCompareUC16EPhS2_j
T _ZN2v88internal26NativeRegExpMacroAssembler5MatchENS0_6HandleINS0_4CodeEEENS2_INS0_6StringEEEPiii
T _ZN2v88internal26NativeRegExpMacroAssembler7ExecuteEPNS0_4CodeEPNS0_6StringEiPKhS7_Pi
T _ZN2v88internal26NativeRegExpMacroAssembler9GrowStackEPhPS2_
T _ZN2v88internal26NativeRegExpMacroAssemblerC1Ev
T _ZN2v88internal26NativeRegExpMacroAssemblerC2Ev
T _ZN2v88internal26NativeRegExpMacroAssemblerD0Ev
T _ZN2v88internal26NativeRegExpMacroAssemblerD1Ev
T _ZN2v88internal26NativeRegExpMacroAssemblerD2Ev
T _ZN2v88internal26SetPropertyWithInterceptorENS0_6HandleINS0_8JSObjectEEENS1_INS0_6StringEEENS1_INS0_6ObjectEEE18PropertyAttributes
T _ZN2v88internal26WriteInt32ToHeapNumberStub8GenerateEPNS0_14MacroAssemblerE
B _ZN2v88internal26preallocated_message_spaceE
T _ZN2v88internal27DebuggerAgentMessageHandlerERKNS_5Debug7MessageE
W _ZN2v88internal27JavaScriptFrameIteratorTempINS0_18StackFrameIteratorEE7AdvanceEv
W _ZN2v88internal27JavaScriptFrameIteratorTempINS0_18StackFrameIteratorEEC1ENS0_10StackFrame2IdE
T _ZN2v88internal27MessageDispatchHelperThread3RunEv
T _ZN2v88internal27MessageDispatchHelperThread8ScheduleEv
T _ZN2v88internal27MessageDispatchHelperThreadC1Ev
T _ZN2v88internal27MessageDispatchHelperThreadC2Ev
T _ZN2v88internal27MessageDispatchHelperThreadD0Ev
T _ZN2v88internal27MessageDispatchHelperThreadD1Ev
T _ZN2v88internal27MessageDispatchHelperThreadD2Ev
T _ZN2v88internal27NegativeLookaheadChoiceNode11EatsAtLeastEii
T _ZN2v88internal27NegativeLookaheadChoiceNode20GetQuickCheckDetailsEPNS0_17QuickCheckDetailsEPNS0_14RegExpCompilerEib
T _ZN2v88internal27NegativeLookaheadChoiceNode24ComputeFirstCharacterSetEi
T _ZN2v88internal27NoAllocationStringAllocator4growEPj
T _ZN2v88internal27NoAllocationStringAllocatorC1EPcj
T _ZN2v88internal27NoAllocationStringAllocatorC2EPcj
T _ZN2v88internal27SharedStoreIC_ExtendStorageENS0_9ArgumentsE
T _ZN2v88internal28GetKeysForIndexedInterceptorENS0_6HandleINS0_8JSObjectEEES3_
T _ZN2v88internal29NativesExternalStringResourceC1EPKc
T _ZN2v88internal29NativesExternalStringResourceC2EPKc
T _ZN2v88internal2IC11ComputeModeEv
T _ZN2v88internal2IC14ReferenceErrorEPKcNS0_6HandleINS0_6StringEEE
T _ZN2v88internal2IC19OriginalCodeAddressEv
T _ZN2v88internal2IC20AddressFromUtilityIdENS1_9UtilityIdE
T _ZN2v88internal2IC5ClearEPh
T _ZN2v88internal2IC9StateFromEPNS0_4CodeEPNS0_6ObjectE
T _ZN2v88internal2IC9TypeErrorEPKcNS0_6HandleINS0_6ObjectEEENS4_INS0_6StringEEE
T _ZN2v88internal2ICC1ENS1_10FrameDepthE
T _ZN2v88internal2ICC2ENS1_10FrameDepthE
T _ZN2v88internal2OS10DebugBreakEv
T _ZN2v88internal2OS10PrintErrorEPKcz
T _ZN2v88internal2OS11CreateMutexEv
T _ZN2v88internal2OS11GetUserTimeEPjS2_
T _ZN2v88internal2OS11VPrintErrorEPKcSt9__va_list
T _ZN2v88internal2OS12CreateSocketEv
T _ZN2v88internal2OS13LocalTimezoneEd
T _ZN2v88internal2OS15CreateSemaphoreEi
T _ZN2v88internal2OS15LocalTimeOffsetEv
D _ZN2v88internal2OS15LogFileOpenModeE
T _ZN2v88internal2OS16ArmCpuHasFeatureENS0_10CpuFeatureE
T _ZN2v88internal2OS16MemoryMappedFile6createEPKciPv
T _ZN2v88internal2OS17AllocateAlignmentEv
T _ZN2v88internal2OS17TimeCurrentMillisEv
T _ZN2v88internal2OS21DaylightSavingsOffsetEd
T _ZN2v88internal2OS23IsOutsideAllocatedSpaceEPv
T _ZN2v88internal2OS24ActivationFrameAlignmentEv
T _ZN2v88internal2OS25LogSharedLibraryAddressesEv
T _ZN2v88internal2OS28CpuFeaturesImpliedByPlatformEv
T _ZN2v88internal2OS4FreeEPvj
T _ZN2v88internal2OS5AbortEv
T _ZN2v88internal2OS5FOpenEPKcS3_
T _ZN2v88internal2OS5PrintEPKcz
T _ZN2v88internal2OS5SetupEv
T _ZN2v88internal2OS5SleepEi
T _ZN2v88internal2OS5TicksEv
T _ZN2v88internal2OS6StrChrEPci
T _ZN2v88internal2OS6VPrintEPKcSt9__va_list
T _ZN2v88internal2OS7StrNCpyENS0_6VectorIcEEPKcj
T _ZN2v88internal2OS8AllocateEjPjb
T _ZN2v88internal2OS8SNPrintFENS0_6VectorIcEEPKcz
T _ZN2v88internal2OS9StackWalkENS0_6VectorINS1_10StackFrameEEE
T _ZN2v88internal2OS9VSNPrintFENS0_6VectorIcEEPKcSt9__va_list
T _ZN2v88internal2OS9nan_valueEv
T _ZN2v88internal2V810InitializeEPNS0_12DeserializerE
B _ZN2v88internal2V811is_running_E
T _ZN2v88internal2V813SetFatalErrorEv
B _ZN2v88internal2V815has_been_setup_E
T _ZN2v88internal2V816IdleNotificationEv
B _ZN2v88internal2V816has_fatal_error_E
T _ZN2v88internal2V817RandomPositiveSmiEv
B _ZN2v88internal2V818has_been_disposed_E
T _ZN2v88internal2V823FatalProcessOutOfMemoryEPKc
T _ZN2v88internal2V86RandomEv
T _ZN2v88internal2V88TearDownEv
B _ZN2v88internal2d0E
D _ZN2v88internal2d1E
D _ZN2v88internal2d2E
D _ZN2v88internal2d3E
D _ZN2v88internal2d4E
D _ZN2v88internal2d5E
D _ZN2v88internal2d6E
D _ZN2v88internal2d7E
D _ZN2v88internal2d8E
D _ZN2v88internal2d9E
D _ZN2v88internal2fpE
D _ZN2v88internal2ipE
D _ZN2v88internal2lrE
D _ZN2v88internal2pcE
B _ZN2v88internal2r0E
D _ZN2v88internal2r1E
D _ZN2v88internal2r2E
D _ZN2v88internal2r3E
D _ZN2v88internal2r4E
D _ZN2v88internal2r5E
D _ZN2v88internal2r6E
D _ZN2v88internal2r7E
D _ZN2v88internal2r8E
D _ZN2v88internal2r9E
B _ZN2v88internal2s0E
D _ZN2v88internal2s1E
D _ZN2v88internal2s2E
D _ZN2v88internal2s3E
D _ZN2v88internal2s4E
D _ZN2v88internal2s5E
D _ZN2v88internal2s6E
D _ZN2v88internal2s7E
D _ZN2v88internal2s8E
D _ZN2v88internal2s9E
D _ZN2v88internal2spE
B _ZN2v88internal31FLAG_preallocate_message_memoryE
B _ZN2v88internal31FLAG_print_push_pop_eliminationE
D _ZN2v88internal31FLAG_testing_serialization_fileE
T _ZN2v88internal31LoadPropertyWithInterceptorOnlyENS0_9ArgumentsE
W _ZN2v88internal32EncodeForwardingAddressesInRangeIXadL_ZNS0_22MCAllocateFromMapSpaceEPNS0_10HeapObjectEiEEXadL_ZNS0_35EncodeForwardingAddressInPagedSpaceES3_iPNS0_6ObjectEPiEEXadL_ZNS0_19IgnoreNonLiveObjectES3_EEEEvPhS7_S6_
W _ZN2v88internal32EncodeForwardingAddressesInRangeIXadL_ZNS0_22MCAllocateFromNewSpaceEPNS0_10HeapObjectEiEEXadL_ZNS0_33EncodeForwardingAddressInNewSpaceES3_iPNS0_6ObjectEPiEEXadL_ZNS0_19IgnoreNonLiveObjectES3_EEEEvPhS7_S6_
W _ZN2v88internal32EncodeForwardingAddressesInRangeIXadL_ZNS0_23MCAllocateFromCellSpaceEPNS0_10HeapObjectEiEEXadL_ZNS0_35EncodeForwardingAddressInPagedSpaceES3_iPNS0_6ObjectEPiEEXadL_ZNS0_19IgnoreNonLiveObjectES3_EEEEvPhS7_S6_
W _ZN2v88internal32EncodeForwardingAddressesInRangeIXadL_ZNS0_23MCAllocateFromCodeSpaceEPNS0_10HeapObjectEiEEXadL_ZNS0_35EncodeForwardingAddressInPagedSpaceES3_iPNS0_6ObjectEPiEEXadL_ZNS0_20MarkCompactCollector20ReportDeleteIfNeededES3_EEEEvPhS8_S6_
W _ZN2v88internal32EncodeForwardingAddressesInRangeIXadL_ZNS0_26MCAllocateFromOldDataSpaceEPNS0_10HeapObjectEiEEXadL_ZNS0_35EncodeForwardingAddressInPagedSpaceES3_iPNS0_6ObjectEPiEEXadL_ZNS0_19IgnoreNonLiveObjectES3_EEEEvPhS7_S6_
W _ZN2v88internal32EncodeForwardingAddressesInRangeIXadL_ZNS0_29MCAllocateFromOldPointerSpaceEPNS0_10HeapObjectEiEEXadL_ZNS0_35EncodeForwardingAddressInPagedSpaceES3_iPNS0_6ObjectEPiEEXadL_ZNS0_20MarkCompactCollector20ReportDeleteIfNeededES3_EEEEvPhS8_S6_
T _ZN2v88internal32KeyedLoadPropertyWithInterceptorENS0_9ArgumentsE
D _ZN2v88internal33FLAG_cleanup_caches_in_maps_at_gcE
D _ZN2v88internal34FLAG_max_stack_trace_source_lengthE
T _ZN2v88internal34LoadPropertyWithInterceptorForCallENS0_9ArgumentsE
T _ZN2v88internal34LoadPropertyWithInterceptorForLoadENS0_9ArgumentsE
T _ZN2v88internal35IgnoreAttributesAndSetLocalPropertyENS0_6HandleINS0_8JSObjectEEENS1_INS0_6StringEEENS1_INS0_6ObjectEEE18PropertyAttributes
T _ZN2v88internal35LookupSingleCharacterStringFromCodeEj
T _ZN2v88internal36SetExpectedNofPropertiesFromEstimateENS0_6HandleINS0_10JSFunctionEEEi
T _ZN2v88internal36SetExpectedNofPropertiesFromEstimateENS0_6HandleINS0_18SharedFunctionInfoEEEi
D _ZN2v88internal37FLAG_canonicalize_object_literal_mapsE
T _ZN2v88internal3CPU10DebugBreakEv
T _ZN2v88internal3CPU11FlushICacheEPvj
T _ZN2v88internal3CPU5SetupEv
T _ZN2v88internal3Map12FindAccessorEPNS0_6StringE
T _ZN2v88internal3Map14MapIterateBodyEPNS0_13ObjectVisitorE
T _ZN2v88internal3Map15FindInCodeCacheEPNS0_6StringENS0_4Code5FlagsE
T _ZN2v88internal3Map15UpdateCodeCacheEPNS0_6StringEPNS0_4CodeE
T _ZN2v88internal3Map16IndexInCodeCacheEPNS0_4CodeE
T _ZN2v88internal3Map16PropertyIndexForEPNS0_6StringE
T _ZN2v88internal3Map18CreateBackPointersEv
T _ZN2v88internal3Map19CopyDropDescriptorsEv
T _ZN2v88internal3Map19CopyDropTransitionsEv
T _ZN2v88internal3Map19RemoveFromCodeCacheEi
T _ZN2v88internal3Map21NextFreePropertyIndexEv
T _ZN2v88internal3Map23ClearNonLiveTransitionsEPNS0_6ObjectE
T _ZN2v88internal3Map27NumberOfDescribedPropertiesEv
T _ZN2v88internal3Smi8SmiPrintEPNS0_12StringStreamE
T _ZN2v88internal3Smi8SmiPrintEv
T _ZN2v88internal3Top10InitializeEv
T _ZN2v88internal3Top10PrintStackEPNS0_12StringStreamE
T _ZN2v88internal3Top10PrintStackEv
T _ZN2v88internal3Top10StackTraceEv
T _ZN2v88internal3Top13ArchiveThreadEPc
T _ZN2v88internal3Top13RestoreThreadEPc
T _ZN2v88internal3Top13ScheduleThrowEPNS0_6ObjectE
T _ZN2v88internal3Top13StackOverflowEv
B _ZN2v88internal3Top13break_access_E
B _ZN2v88internal3Top13thread_local_E
T _ZN2v88internal3Top14MayNamedAccessEPNS0_8JSObjectEPNS0_6ObjectENS_10AccessTypeE
T _ZN2v88internal3Top14TraceExceptionEb
T _ZN2v88internal3Top14global_contextEv
T _ZN2v88internal3Top15ComputeLocationEPNS0_15MessageLocationE
T _ZN2v88internal3Top16MayIndexedAccessEPNS0_8JSObjectEjNS_10AccessTypeE
T _ZN2v88internal3Top16is_out_of_memoryEv
T _ZN2v88internal3Top18TerminateExecutionEv
T _ZN2v88internal3Top19MarkCompactEpilogueEb
T _ZN2v88internal3Top19MarkCompactEpilogueEbPNS0_14ThreadLocalTopE
T _ZN2v88internal3Top19MarkCompactEpilogueEbPc
T _ZN2v88internal3Top19MarkCompactPrologueEb
T _ZN2v88internal3Top19MarkCompactPrologueEbPNS0_14ThreadLocalTopE
T _ZN2v88internal3Top19MarkCompactPrologueEbPc
T _ZN2v88internal3Top19get_address_from_idENS1_9AddressIdE
T _ZN2v88internal3Top21InitializeThreadLocalEv
T _ZN2v88internal3Top21LookupSpecialFunctionEPNS0_8JSObjectES3_PNS0_10JSFunctionE
T _ZN2v88internal3Top21ReportPendingMessagesEv
T _ZN2v88internal3Top21ShouldReturnExceptionEPbb
T _ZN2v88internal3Top21ThrowIllegalOperationEv
D _ZN2v88internal3Top21kStackOverflowMessageE
T _ZN2v88internal3Top22PrintCurrentStackTraceEP7__sFILE
T _ZN2v88internal3Top23CanHaveSpecialFunctionsEPNS0_8JSObjectE
T _ZN2v88internal3Top23GetCallingGlobalContextEv
T _ZN2v88internal3Top23RegisterTryCatchHandlerEPNS_8TryCatchE
T _ZN2v88internal3Top23ReportFailedAccessCheckEPNS0_8JSObjectENS_10AccessTypeE
T _ZN2v88internal3Top23ReportUncaughtExceptionENS0_6HandleINS0_6ObjectEEEPNS0_15MessageLocationENS2_INS0_6StringEEE
T _ZN2v88internal3Top25PromoteScheduledExceptionEv
T _ZN2v88internal3Top25UnregisterTryCatchHandlerEPNS_8TryCatchE
T _ZN2v88internal3Top27OptionalRescheduleExceptionEb
T _ZN2v88internal3Top28SetFailedAccessCheckCallbackEPFvNS_5LocalINS_6ObjectEEENS_10AccessTypeENS2_INS_5ValueEEEE
T _ZN2v88internal3Top5ThrowEPNS0_6ObjectEPNS0_15MessageLocationE
T _ZN2v88internal3Top7DoThrowEPNS0_6ObjectEPNS0_15MessageLocationEPKc
T _ZN2v88internal3Top7IterateEPNS0_13ObjectVisitorE
T _ZN2v88internal3Top7IterateEPNS0_13ObjectVisitorEPNS0_14ThreadLocalTopE
T _ZN2v88internal3Top7IterateEPNS0_13ObjectVisitorEPc
T _ZN2v88internal3Top7ReThrowEPNS0_6ObjectEPNS0_15MessageLocationE
T _ZN2v88internal3Top8TearDownEv
B _ZN2v88internal3cr0E
D _ZN2v88internal3cr1E
D _ZN2v88internal3cr2E
D _ZN2v88internal3cr3E
D _ZN2v88internal3cr4E
D _ZN2v88internal3cr5E
D _ZN2v88internal3cr6E
D _ZN2v88internal3cr7E
D _ZN2v88internal3cr8E
D _ZN2v88internal3cr9E
D _ZN2v88internal3d10E
D _ZN2v88internal3d11E
D _ZN2v88internal3d12E
D _ZN2v88internal3d13E
D _ZN2v88internal3d14E
D _ZN2v88internal3d15E
D _ZN2v88internal3r10E
D _ZN2v88internal3s10E
D _ZN2v88internal3s11E
D _ZN2v88internal3s12E
D _ZN2v88internal3s13E
D _ZN2v88internal3s14E
D _ZN2v88internal3s15E
D _ZN2v88internal3s16E
D _ZN2v88internal3s17E
D _ZN2v88internal3s18E
D _ZN2v88internal3s19E
D _ZN2v88internal3s20E
D _ZN2v88internal3s21E
D _ZN2v88internal3s22E
D _ZN2v88internal3s23E
D _ZN2v88internal3s24E
D _ZN2v88internal3s25E
D _ZN2v88internal3s26E
D _ZN2v88internal3s27E
D _ZN2v88internal3s28E
D _ZN2v88internal3s29E
D _ZN2v88internal3s30E
D _ZN2v88internal3s31E
T _ZN2v88internal42OptimizedObjectForAddingMultiplePropertiesC1ENS0_6HandleINS0_8JSObjectEEEib
T _ZN2v88internal42OptimizedObjectForAddingMultiplePropertiesC2ENS0_6HandleINS0_8JSObjectEEEib
T _ZN2v88internal42OptimizedObjectForAddingMultiplePropertiesD1Ev
T _ZN2v88internal42OptimizedObjectForAddingMultiplePropertiesD2Ev
T _ZN2v88internal4Call6AcceptEPNS0_10AstVisitorE
B _ZN2v88internal4Call9sentinel_E
T _ZN2v88internal4Code14SourcePositionEPh
T _ZN2v88internal4Code15CodeIterateBodyEPNS0_13ObjectVisitorE
T _ZN2v88internal4Code23SourceStatementPositionEPh
T _ZN2v88internal4Code8CopyFromERKNS0_8CodeDescE
T _ZN2v88internal4Code8RelocateEi
T _ZN2v88internal4CopyENS0_6HandleINS0_8JSObjectEEE
T _ZN2v88internal4Heap10CreateCodeERKNS0_8CodeDescEPNS0_13ZoneScopeInfoENS0_4Code5FlagsENS0_6HandleINS0_6ObjectEEE
T _ZN2v88internal4Heap10DoScavengeEPNS0_13ObjectVisitorEPh
T _ZN2v88internal4Heap10UpdateRSetEPNS0_10HeapObjectE
B _ZN2v88internal4Heap10map_space_E
B _ZN2v88internal4Heap10new_space_E
T _ZN2v88internal4Heap11AllocateMapENS0_12InstanceTypeEi
T _ZN2v88internal4Heap11IterateRSetEPNS0_10PagedSpaceEPFvPPNS0_10HeapObjectEE
T _ZN2v88internal4Heap11MarkCompactEPNS0_8GCTracerE
T _ZN2v88internal4Heap11RecordStatsEPNS0_9HeapStatsE
B _ZN2v88internal4Heap11cell_space_E
B _ZN2v88internal4Heap11code_space_E
T _ZN2v88internal4Heap12CopyJSObjectEPNS0_8JSObjectE
T _ZN2v88internal4Heap12HasBeenSetupEv
T _ZN2v88internal4Heap12IterateRootsEPNS0_13ObjectVisitorENS0_9VisitModeE
T _ZN2v88internal4Heap12LookupSymbolENS0_6VectorIKcEE
T _ZN2v88internal4Heap12LookupSymbolEPNS0_6StringE
T _ZN2v88internal4Heap12RebuildRSetsEPNS0_10PagedSpaceE
T _ZN2v88internal4Heap12RebuildRSetsEPNS0_16LargeObjectSpaceE
T _ZN2v88internal4Heap12RebuildRSetsEv
T _ZN2v88internal4Heap12ReserveSpaceEiiiiiii
R _ZN2v88internal4Heap12struct_tableE
T _ZN2v88internal4Heap13AllocateProxyEPhNS0_13PretenureFlagE
T _ZN2v88internal4Heap13ConfigureHeapEii
T _ZN2v88internal4Heap13CreateOddballEPNS0_3MapEPKcPNS0_6ObjectE
T _ZN2v88internal4Heap13SizeOfObjectsEv
T _ZN2v88internal4Heap14AllocateStructENS0_12InstanceTypeE
T _ZN2v88internal4Heap14ClearRSetRangeEPhi
T _ZN2v88internal4Heap14CollectGarbageEiNS0_15AllocationSpaceE
T _ZN2v88internal4Heap14CopyFixedArrayEPNS0_10FixedArrayE
T _ZN2v88internal4Heap14FindCodeObjectEPh
T _ZN2v88internal4Heap14NumberToStringEPNS0_6ObjectE
T _ZN2v88internal4Heap14SetStackLimitsEv
B _ZN2v88internal4Heap14hidden_symbol_E
T _ZN2v88internal4Heap15CommittedMemoryEv
T _ZN2v88internal4Heap15PerformScavengeEv
T _ZN2v88internal4Heap15ScavengePointerEPPNS0_10HeapObjectE
B _ZN2v88internal4Heap15old_data_space_E
T _ZN2v88internal4Heap16AllocateFunctionEPNS0_3MapEPNS0_18SharedFunctionInfoEPNS0_6ObjectENS0_13PretenureFlagE
T _ZN2v88internal4Heap16AllocateJSObjectEPNS0_10JSFunctionENS0_13PretenureFlagE
T _ZN2v88internal4Heap16CreateApiObjectsEv
T _ZN2v88internal4Heap16CreateCEntryStubEv
T _ZN2v88internal4Heap16CreateFixedStubsEv
T _ZN2v88internal4Heap16IdleNotificationEv
T _ZN2v88internal4Heap16IterateRSetRangeEPhS2_S2_PFvPPNS0_10HeapObjectEE
T _ZN2v88internal4Heap16IterateWeakRootsEPNS0_13ObjectVisitorENS0_9VisitModeE
T _ZN2v88internal4Heap16NumberFromDoubleEdNS0_13PretenureFlagE
B _ZN2v88internal4Heap16code_range_size_E
T _ZN2v88internal4Heap17AllocateByteArrayEi
T _ZN2v88internal4Heap17AllocateByteArrayEiNS0_13PretenureFlagE
T _ZN2v88internal4Heap17AllocateHashTableEi
T _ZN2v88internal4Heap17AllocateSubStringEPNS0_6StringEii
T _ZN2v88internal4Heap17CollectAllGarbageEb
T _ZN2v88internal4Heap17CreateInitialMapsEv
T _ZN2v88internal4Heap17CreateJSEntryStubEv
T _ZN2v88internal4Heap17PromotedSpaceSizeEv
R _ZN2v88internal4Heap17string_type_tableE
T _ZN2v88internal4Heap18AllocateConsStringEPNS0_6StringES3_
T _ZN2v88internal4Heap18AllocateFixedArrayEi
T _ZN2v88internal4Heap18AllocateFixedArrayEiNS0_13PretenureFlagE
T _ZN2v88internal4Heap18AllocateHeapNumberEd
T _ZN2v88internal4Heap18AllocateHeapNumberEdNS0_13PretenureFlagE
T _ZN2v88internal4Heap18AllocateInitialMapEPNS0_10JSFunctionE
T _ZN2v88internal4Heap18AllocatePartialMapENS0_12InstanceTypeEi
T _ZN2v88internal4Heap18AllocatePixelArrayEiPhNS0_13PretenureFlagE
T _ZN2v88internal4Heap18IterateStrongRootsEPNS0_13ObjectVisitorENS0_9VisitModeE
T _ZN2v88internal4Heap18ScavengeObjectSlowEPPNS0_10HeapObjectES3_
T _ZN2v88internal4Heap18SymbolMapForStringEPNS0_6StringE
B _ZN2v88internal4Heap18old_gen_exhausted_E
B _ZN2v88internal4Heap18old_pointer_space_E
T _ZN2v88internal4Heap19AllocateWithContextEPNS0_7ContextEPNS0_8JSObjectEb
T _ZN2v88internal4Heap19MarkCompactEpilogueEb
T _ZN2v88internal4Heap19MarkCompactPrologueEb
T _ZN2v88internal4Heap19NewNumberFromDoubleEdNS0_13PretenureFlagE
D _ZN2v88internal4Heap19max_semispace_size_E
T _ZN2v88internal4Heap20AllocateGlobalObjectEPNS0_10JSFunctionE
T _ZN2v88internal4Heap20ConfigureHeapDefaultEv
T _ZN2v88internal4Heap20CreateFillerObjectAtEPhi
T _ZN2v88internal4Heap20CreateInitialObjectsEv
T _ZN2v88internal4Heap20GetNumberStringCacheEPNS0_6ObjectE
T _ZN2v88internal4Heap20LookupSymbolIfExistsEPNS0_6StringEPS3_
T _ZN2v88internal4Heap20SetNumberStringCacheEPNS0_6ObjectEPNS0_6StringE
T _ZN2v88internal4Heap21AllocateExternalArrayEiNS_17ExternalArrayTypeEPvNS0_13PretenureFlagE
T _ZN2v88internal4Heap21AllocateGlobalContextEv
T _ZN2v88internal4Heap21AllocateRawFixedArrayEi
T _ZN2v88internal4Heap21NotifyContextDisposedEv
T _ZN2v88internal4Heap21SmiOrNumberFromDoubleEdbNS0_13PretenureFlagE
D _ZN2v88internal4Heap21constant_symbol_tableE
T _ZN2v88internal4Heap22AllocateInternalSymbolEPN7unibrow15CharacterStreamEij
T _ZN2v88internal4Heap22AllocateRawAsciiStringEiNS0_13PretenureFlagE
T _ZN2v88internal4Heap22AllocateStringFromUtf8ENS0_6VectorIKcEENS0_13PretenureFlagE
T _ZN2v88internal4Heap22CreateRegExpCEntryStubEv
T _ZN2v88internal4Heap22FlushNumberStringCacheEv
T _ZN2v88internal4Heap22SelectGarbageCollectorENS0_15AllocationSpaceE
T _ZN2v88internal4Heap23AllocateArgumentsObjectEPNS0_6ObjectEi
T _ZN2v88internal4Heap23AllocateEmptyFixedArrayEv
T _ZN2v88internal4Heap23AllocateFunctionContextEiPNS0_10JSFunctionE
T _ZN2v88internal4Heap23AllocateJSObjectFromMapEPNS0_3MapENS0_13PretenureFlagE
T _ZN2v88internal4Heap23AllocateStringFromAsciiENS0_6VectorIKcEENS0_13PretenureFlagE
T _ZN2v88internal4Heap23MapForExternalArrayTypeENS_17ExternalArrayTypeE
D _ZN2v88internal4Heap23initial_semispace_size_E
T _ZN2v88internal4Heap24AllocateRawTwoByteStringEiNS0_13PretenureFlagE
T _ZN2v88internal4Heap24PerformGarbageCollectionENS0_15AllocationSpaceENS0_16GarbageCollectorEPNS0_8GCTracerE
D _ZN2v88internal4Heap24max_old_generation_size_E
D _ZN2v88internal4Heap24old_gen_promotion_limit_E
B _ZN2v88internal4Heap24reserved_semispace_size_E
T _ZN2v88internal4Heap25AllocateFunctionPrototypeEPNS0_10JSFunctionE
T _ZN2v88internal4Heap25AllocateStringFromTwoByteENS0_6VectorIKtEENS0_13PretenureFlagE
T _ZN2v88internal4Heap25GarbageCollectionEpilogueEv
T _ZN2v88internal4Heap25GarbageCollectionPrologueEv
T _ZN2v88internal4Heap25InitializeJSObjectFromMapEPNS0_8JSObjectEPNS0_10FixedArrayEPNS0_3MapE
T _ZN2v88internal4Heap25ReinitializeJSGlobalProxyEPNS0_10JSFunctionEPNS0_13JSGlobalProxyE
B _ZN2v88internal4Heap25context_disposed_pending_E
D _ZN2v88internal4Heap25old_gen_allocation_limit_E
T _ZN2v88internal4Heap26AllocateSharedFunctionInfoEPNS0_6ObjectE
T _ZN2v88internal4Heap26CreateJSConstructEntryStubEv
T _ZN2v88internal4Heap26EnsureFromSpaceIsCommittedEv
T _ZN2v88internal4Heap26PromotedExternalMemorySizeEv
B _ZN2v88internal4Heap26external_allocation_limit_E
T _ZN2v88internal4Heap27AllocateFixedArrayWithHolesEi
T _ZN2v88internal4Heap27InitializeNumberStringCacheEv
T _ZN2v88internal4Heap27ScavengeExternalStringTableEv
T _ZN2v88internal4Heap28AllocateJSGlobalPropertyCellEPNS0_6ObjectE
B _ZN2v88internal4Heap28always_allocate_scope_depth_E
B _ZN2v88internal4Heap28global_gc_epilogue_callback_E
B _ZN2v88internal4Heap28global_gc_prologue_callback_E
T _ZN2v88internal4Heap29RootIndexForExternalArrayTypeENS_17ExternalArrayTypeE
B _ZN2v88internal4Heap30linear_allocation_scope_depth_E
B _ZN2v88internal4Heap30survived_since_last_expansion_E
T _ZN2v88internal4Heap31AllocateExternalStringFromAsciiEPNS_6String27ExternalAsciiStringResourceE
T _ZN2v88internal4Heap33AllocateExternalStringFromTwoByteEPNS_6String22ExternalStringResourceE
T _ZN2v88internal4Heap34CollectAllGarbageIfContextDisposedEv
T _ZN2v88internal4Heap35LookupSingleCharacterStringFromCodeEt
B _ZN2v88internal4Heap36amount_of_external_allocated_memory_E
B _ZN2v88internal4Heap54amount_of_external_allocated_memory_at_last_global_gc_E
T _ZN2v88internal4Heap5SetupEb
T _ZN2v88internal4Heap6ShrinkEv
B _ZN2v88internal4Heap6roots_E
T _ZN2v88internal4Heap7InSpaceEPNS0_10HeapObjectENS0_15AllocationSpaceE
T _ZN2v88internal4Heap7InSpaceEPhNS0_15AllocationSpaceE
T _ZN2v88internal4Heap8AllocateEPNS0_3MapENS0_15AllocationSpaceE
T _ZN2v88internal4Heap8CapacityEv
T _ZN2v88internal4Heap8ContainsEPNS0_10HeapObjectE
T _ZN2v88internal4Heap8ContainsEPh
T _ZN2v88internal4Heap8CopyCodeEPNS0_4CodeE
T _ZN2v88internal4Heap8ScavengeEv
T _ZN2v88internal4Heap8TearDownEv
T _ZN2v88internal4Heap9AvailableEv
B _ZN2v88internal4Heap9gc_count_E
B _ZN2v88internal4Heap9gc_state_E
B _ZN2v88internal4Heap9lo_space_E
B _ZN2v88internal4Heap9mc_count_E
W _ZN2v88internal4ListINS0_11TextElementENS0_24ZoneListAllocationPolicyEE3AddERKS2_
W _ZN2v88internal4ListINS0_11TextElementENS0_24ZoneListAllocationPolicyEE6ResizeEi
W _ZN2v88internal4ListINS0_12FrameElementENS0_24ZoneListAllocationPolicyEE3AddERKS2_
W _ZN2v88internal4ListINS0_12FrameElementENS0_24ZoneListAllocationPolicyEE6ResizeEi
W _ZN2v88internal4ListINS0_12FrameElementENS0_25FreeStoreAllocationPolicyEE6ResizeEi
T _ZN2v88internal4ListINS0_12FrameElementENS0_25FreeStoreAllocationPolicyEE9ResizeAddERKS2_
W _ZN2v88internal4ListINS0_14CharacterRangeENS0_24ZoneListAllocationPolicyEE3AddERKS2_
W _ZN2v88internal4ListINS0_14CharacterRangeENS0_24ZoneListAllocationPolicyEE6ResizeEi
W _ZN2v88internal4ListINS0_18GuardedAlternativeENS0_24ZoneListAllocationPolicyEE6ResizeEi
W _ZN2v88internal4ListINS0_19CompiledReplacement15ReplacementPartENS0_24ZoneListAllocationPolicyEE3AddERKS3_
W _ZN2v88internal4ListINS0_19CompiledReplacement15ReplacementPartENS0_24ZoneListAllocationPolicyEE6ResizeEi
W _ZN2v88internal4ListINS0_22ExternalReferenceTable22ExternalReferenceEntryENS0_25FreeStoreAllocationPolicyEE3AddERKS3_
W _ZN2v88internal4ListINS0_22ExternalReferenceTable22ExternalReferenceEntryENS0_25FreeStoreAllocationPolicyEE6ResizeEi
W _ZN2v88internal4ListINS0_5LabelENS0_24ZoneListAllocationPolicyEE6ResizeEi
W _ZN2v88internal4ListINS0_6HandleINS0_6ObjectEEENS0_24ZoneListAllocationPolicyEE3AddERKS4_
W _ZN2v88internal4ListINS0_6HandleINS0_6ObjectEEENS0_24ZoneListAllocationPolicyEE6ResizeEi
W _ZN2v88internal4ListINS0_6HandleINS0_6StringEEENS0_19PreallocatedStorageEE3AddERKS4_
W _ZN2v88internal4ListINS0_6HandleINS0_6StringEEENS0_19PreallocatedStorageEE6ResizeEi
W _ZN2v88internal4ListINS0_6HandleINS0_6StringEEENS0_24ZoneListAllocationPolicyEE3AddERKS4_
W _ZN2v88internal4ListINS0_6HandleINS0_6StringEEENS0_24ZoneListAllocationPolicyEE6ResizeEi
W _ZN2v88internal4ListINS0_6HandleINS0_6StringEEENS0_25FreeStoreAllocationPolicyEE3AddERKS4_
W _ZN2v88internal4ListINS0_6HandleINS0_6StringEEENS0_25FreeStoreAllocationPolicyEE6ResizeEi
W _ZN2v88internal4ListINS0_6HandleINS0_8JSObjectEEENS0_25FreeStoreAllocationPolicyEE6ResizeEi
W _ZN2v88internal4ListINS0_8Variable4ModeENS0_19PreallocatedStorageEE3AddERKS3_
W _ZN2v88internal4ListINS0_8Variable4ModeENS0_19PreallocatedStorageEE6ResizeEi
W _ZN2v88internal4ListINS0_8Variable4ModeENS0_24ZoneListAllocationPolicyEE3AddERKS3_
W _ZN2v88internal4ListINS0_8Variable4ModeENS0_24ZoneListAllocationPolicyEE6ResizeEi
W _ZN2v88internal4ListINS0_8Variable4ModeENS0_25FreeStoreAllocationPolicyEE3AddERKS3_
W _ZN2v88internal4ListINS0_8Variable4ModeENS0_25FreeStoreAllocationPolicyEE6ResizeEi
W _ZN2v88internal4ListINS0_9CodeRange9FreeBlockENS0_25FreeStoreAllocationPolicyEE3AddERKS3_
W _ZN2v88internal4ListINS0_9CodeRange9FreeBlockENS0_25FreeStoreAllocationPolicyEE6ResizeEi
W _ZN2v88internal4ListIPKcNS0_25FreeStoreAllocationPolicyEE3AddERKS3_
W _ZN2v88internal4ListIPKcNS0_25FreeStoreAllocationPolicyEE6ResizeEi
W _ZN2v88internal4ListIPNS0_10CaseClauseENS0_24ZoneListAllocationPolicyEE6ResizeEi
W _ZN2v88internal4ListIPNS0_10ExpressionENS0_24ZoneListAllocationPolicyEE3AddERKS3_
W _ZN2v88internal4ListIPNS0_10ExpressionENS0_24ZoneListAllocationPolicyEE6ResizeEi
W _ZN2v88internal4ListIPNS0_10HeapObjectENS0_19PreallocatedStorageEE6ResizeEi
W _ZN2v88internal4ListIPNS0_10RegExpNodeENS0_24ZoneListAllocationPolicyEE3AddERKS3_
W _ZN2v88internal4ListIPNS0_10RegExpNodeENS0_24ZoneListAllocationPolicyEE6ResizeEi
W _ZN2v88internal4ListIPNS0_10RegExpNodeENS0_25FreeStoreAllocationPolicyEE6ResizeEi
W _ZN2v88internal4ListIPNS0_10RegExpTreeENS0_24ZoneListAllocationPolicyEE3AddERKS3_
W _ZN2v88internal4ListIPNS0_10RegExpTreeENS0_24ZoneListAllocationPolicyEE6ResizeEi
W _ZN2v88internal4ListIPNS0_11BreakTargetENS0_24ZoneListAllocationPolicyEE6ResizeEi
W _ZN2v88internal4ListIPNS0_11DeclarationENS0_24ZoneListAllocationPolicyEE6ResizeEi
W _ZN2v88internal4ListIPNS0_11ObjectGroupENS0_25FreeStoreAllocationPolicyEE6ResizeEi
W _ZN2v88internal4ListIPNS0_12DeferredCodeENS0_25FreeStoreAllocationPolicyEE6ResizeEi
W _ZN2v88internal4ListIPNS0_12FrameElementENS0_24ZoneListAllocationPolicyEE3AddERKS3_
W _ZN2v88internal4ListIPNS0_12FrameElementENS0_24ZoneListAllocationPolicyEE6ResizeEi
W _ZN2v88internal4ListIPNS0_12ShadowTargetENS0_25FreeStoreAllocationPolicyEE3AddERKS3_
W _ZN2v88internal4ListIPNS0_12ShadowTargetENS0_25FreeStoreAllocationPolicyEE6ResizeEi
W _ZN2v88internal4ListIPNS0_12VirtualFrameENS0_24ZoneListAllocationPolicyEE3AddERKS3_
W _ZN2v88internal4ListIPNS0_12VirtualFrameENS0_24ZoneListAllocationPolicyEE6ResizeEi
W _ZN2v88internal4ListIPNS0_13ObjectLiteral8PropertyENS0_24ZoneListAllocationPolicyEE6ResizeEi
W _ZN2v88internal4ListIPNS0_13RegExpCaptureENS0_24ZoneListAllocationPolicyEE6ResizeEi
W _ZN2v88internal4ListIPNS0_13VariableProxyENS0_24ZoneListAllocationPolicyEE6ResizeEi
W _ZN2v88internal4ListIPNS0_13ZoneSplayTreeINS0_13DispatchTable6ConfigEE4NodeENS0_24ZoneListAllocationPolicyEE3AddERKS7_
W _ZN2v88internal4ListIPNS0_13ZoneSplayTreeINS0_13DispatchTable6ConfigEE4NodeENS0_24ZoneListAllocationPolicyEE6ResizeEi
W _ZN2v88internal4ListIPNS0_14DefinitionInfoENS0_24ZoneListAllocationPolicyEE6ResizeEi
W _ZN2v88internal4ListIPNS0_15CompilationInfo7BailoutENS0_25FreeStoreAllocationPolicyEE6ResizeEi
W _ZN2v88internal4ListIPNS0_15FunctionLiteralENS0_24ZoneListAllocationPolicyEE6ResizeEi
W _ZN2v88internal4ListIPNS0_21AlternativeGenerationENS0_24ZoneListAllocationPolicyEE3AddERKS3_
W _ZN2v88internal4ListIPNS0_21AlternativeGenerationENS0_24ZoneListAllocationPolicyEE6ResizeEi
W _ZN2v88internal4ListIPNS0_5GuardENS0_24ZoneListAllocationPolicyEE6ResizeEi
W _ZN2v88internal4ListIPNS0_5ScopeENS0_24ZoneListAllocationPolicyEE6ResizeEi
W _ZN2v88internal4ListIPNS0_6ObjectENS0_25FreeStoreAllocationPolicyEE3AddERKS3_
W _ZN2v88internal4ListIPNS0_6ObjectENS0_25FreeStoreAllocationPolicyEE6ResizeEi
W _ZN2v88internal4ListIPNS0_6OutSetENS0_24ZoneListAllocationPolicyEE6ResizeEi
W _ZN2v88internal4ListIPNS0_8VariableENS0_19PreallocatedStorageEE3AddERKS3_
W _ZN2v88internal4ListIPNS0_8VariableENS0_19PreallocatedStorageEE6ResizeEi
W _ZN2v88internal4ListIPNS0_8VariableENS0_24ZoneListAllocationPolicyEE3AddERKS3_
W _ZN2v88internal4ListIPNS0_8VariableENS0_24ZoneListAllocationPolicyEE6ResizeEi
W _ZN2v88internal4ListIPNS0_8VariableENS0_25FreeStoreAllocationPolicyEE3AddERKS3_
W _ZN2v88internal4ListIPNS0_8VariableENS0_25FreeStoreAllocationPolicyEE6ResizeEi
W _ZN2v88internal4ListIPNS0_9StatementENS0_24ZoneListAllocationPolicyEE3AddERKS3_
W _ZN2v88internal4ListIPNS0_9StatementENS0_24ZoneListAllocationPolicyEE6ResizeEi
W _ZN2v88internal4ListIPPNS0_6ObjectENS0_25FreeStoreAllocationPolicyEE6ResizeEi
W _ZN2v88internal4ListIPcNS0_25FreeStoreAllocationPolicyEE3AddERKS2_
W _ZN2v88internal4ListIPcNS0_25FreeStoreAllocationPolicyEE6ResizeEi
W _ZN2v88internal4ListIPhNS0_25FreeStoreAllocationPolicyEE3AddERKS2_
W _ZN2v88internal4ListIPhNS0_25FreeStoreAllocationPolicyEE6ResizeEi
W _ZN2v88internal4ListIiNS0_24ZoneListAllocationPolicyEE3AddERKi
W _ZN2v88internal4ListIiNS0_24ZoneListAllocationPolicyEE6ResizeEi
W _ZN2v88internal4ListIiNS0_25FreeStoreAllocationPolicyEE6ResizeEi
W _ZN2v88internal4ListIjNS0_24ZoneListAllocationPolicyEE3AddERKj
W _ZN2v88internal4ListIjNS0_24ZoneListAllocationPolicyEE6ResizeEi
W _ZN2v88internal4ListIjNS0_25FreeStoreAllocationPolicyEE3AddERKj
W _ZN2v88internal4ListIjNS0_25FreeStoreAllocationPolicyEE6ResizeEi
W _ZN2v88internal4ListItNS0_24ZoneListAllocationPolicyEE6ResizeEi
T _ZN2v88internal4Slot6AcceptEPNS0_10AstVisitorE
D _ZN2v88internal4Zone18zone_excess_limit_E
B _ZN2v88internal4Zone24segment_bytes_allocated_E
B _ZN2v88internal4Zone6limit_E
T _ZN2v88internal4Zone9DeleteAllEv
T _ZN2v88internal4Zone9NewExpandEi
B _ZN2v88internal4Zone9position_E
D _ZN2v88internal4cr10E
D _ZN2v88internal4cr11E
D _ZN2v88internal4cr12E
D _ZN2v88internal4cr13E
D _ZN2v88internal4cr14E
D _ZN2v88internal4cr15E
T _ZN2v88internal5Block6AcceptEPNS0_10AstVisitorE
T _ZN2v88internal5Debug10ThreadInitEv
B _ZN2v88internal5Debug10registers_E
T _ZN2v88internal5Debug11ClearStepInEv
T _ZN2v88internal5Debug11IsBreakStubEPNS0_4CodeE
T _ZN2v88internal5Debug11PrepareStepENS0_10StepActionEi
T _ZN2v88internal5Debug12ArchiveDebugEPc
T _ZN2v88internal5Debug12ClearOneShotEv
T _ZN2v88internal5Debug12ClearStepOutEv
T _ZN2v88internal5Debug12GetDebugInfoENS0_6HandleINS0_18SharedFunctionInfoEEE
T _ZN2v88internal5Debug12HandleStepInENS0_6HandleINS0_10JSFunctionEEENS2_INS0_6ObjectEEEPhb
T _ZN2v88internal5Debug12HasDebugInfoENS0_6HandleINS0_18SharedFunctionInfoEEE
T _ZN2v88internal5Debug12IsDebugBreakEPh
T _ZN2v88internal5Debug12RestoreDebugEPc
T _ZN2v88internal5Debug13ClearStepNextEv
T _ZN2v88internal5Debug13ClearSteppingEv
T _ZN2v88internal5Debug13IsDebugGlobalEPNS0_12GlobalObjectE
T _ZN2v88internal5Debug13SetBreakPointENS0_6HandleINS0_18SharedFunctionInfoEEEiNS2_INS0_6ObjectEEE
B _ZN2v88internal5Debug13script_cache_E
B _ZN2v88internal5Debug13thread_local_E
T _ZN2v88internal5Debug14ActivateStepInEPNS0_10StackFrameE
T _ZN2v88internal5Debug14FindDebugBreakENS0_6HandleINS0_4CodeEEENS0_9RelocInfo4ModeE
B _ZN2v88internal5Debug14debug_context_E
B _ZN2v88internal5Debug14disable_break_E
T _ZN2v88internal5Debug15ActivateStepOutEPNS0_10StackFrameE
T _ZN2v88internal5Debug15CheckBreakPointENS0_6HandleINS0_6ObjectEEE
T _ZN2v88internal5Debug15ClearBreakPointENS0_6HandleINS0_6ObjectEEE
T _ZN2v88internal5Debug15EnsureDebugInfoENS0_6HandleINS0_18SharedFunctionInfoEEE
T _ZN2v88internal5Debug15RemoveDebugInfoENS0_6HandleINS0_9DebugInfoEEE
T _ZN2v88internal5Debug16CheckBreakPointsENS0_6HandleINS0_6ObjectEEE
T _ZN2v88internal5Debug16ClearMirrorCacheEv
T _ZN2v88internal5Debug16FloodWithOneShotENS0_6HandleINS0_18SharedFunctionInfoEEE
T _ZN2v88internal5Debug16GetLoadedScriptsEv
T _ZN2v88internal5Debug16StepNextContinueEPNS0_21BreakLocationIteratorEPNS0_15JavaScriptFrameE
B _ZN2v88internal5Debug16debug_info_list_E
T _ZN2v88internal5Debug17CreateScriptCacheEv
T _ZN2v88internal5Debug17IsSourceBreakStubEPNS0_4CodeE
B _ZN2v88internal5Debug17has_break_points_E
T _ZN2v88internal5Debug18DestroyScriptCacheEv
T _ZN2v88internal5Debug19ClearAllBreakPointsEv
T _ZN2v88internal5Debug19HandleWeakDebugInfoENS_10PersistentINS_5ValueEEEPv
T _ZN2v88internal5Debug19SetAfterBreakTargetEPNS0_15JavaScriptFrameE
B _ZN2v88internal5Debug19break_on_exception_E
B _ZN2v88internal5Debug19debug_break_return_E
T _ZN2v88internal5Debug20IsDebugBreakAtReturnEPNS0_9RelocInfoE
T _ZN2v88internal5Debug21ArchiveSpacePerThreadEv
T _ZN2v88internal5Debug21CompileDebuggerScriptEi
T _ZN2v88internal5Debug22AddScriptToScriptCacheENS0_6HandleINS0_6ScriptEEE
T _ZN2v88internal5Debug22AfterGarbageCollectionEv
T _ZN2v88internal5Debug22ChangeBreakOnExceptionENS0_18ExceptionBreakTypeEb
T _ZN2v88internal5Debug23FloodHandlerWithOneShotEv
T _ZN2v88internal5Debug23GetSourceBreakLocationsENS0_6HandleINS0_18SharedFunctionInfoEEE
T _ZN2v88internal5Debug24GenerateCallICDebugBreakEPNS0_14MacroAssemblerE
T _ZN2v88internal5Debug24GenerateLoadICDebugBreakEPNS0_14MacroAssemblerE
T _ZN2v88internal5Debug24GenerateReturnDebugBreakEPNS0_14MacroAssemblerE
T _ZN2v88internal5Debug25GenerateStoreICDebugBreakEPNS0_14MacroAssemblerE
T _ZN2v88internal5Debug25PreemptionWhileInDebuggerEv
D _ZN2v88internal5Debug28break_on_uncaught_exception_E
T _ZN2v88internal5Debug29GenerateKeyedLoadICDebugBreakEPNS0_14MacroAssemblerE
T _ZN2v88internal5Debug30GenerateKeyedStoreICDebugBreakEPNS0_14MacroAssemblerE
T _ZN2v88internal5Debug31GenerateConstructCallDebugBreakEPNS0_14MacroAssemblerE
T _ZN2v88internal5Debug33GenerateStubNoRegistersDebugBreakEPNS0_14MacroAssemblerE
T _ZN2v88internal5Debug4LoadEv
T _ZN2v88internal5Debug5BreakENS0_9ArgumentsE
T _ZN2v88internal5Debug5SetupEb
T _ZN2v88internal5Debug6UnloadEv
T _ZN2v88internal5Debug7IterateEPNS0_13ObjectVisitorE
T _ZN2v88internal5Debug8NewBreakENS0_10StackFrame2IdE
T _ZN2v88internal5Debug8SetBreakENS0_10StackFrame2IdEi
T _ZN2v88internal5FlushEv
T _ZN2v88internal5Scope10InitializeEb
T _ZN2v88internal5Scope11LocalLookupENS0_6HandleINS0_6StringEEE
T _ZN2v88internal5Scope12AddParameterEPNS0_8VariableE
T _ZN2v88internal5Scope12DeclareLocalENS0_6HandleINS0_6StringEEENS0_8Variable4ModeE
T _ZN2v88internal5Scope12MustAllocateEPNS0_8VariableE
T _ZN2v88internal5Scope12NewTemporaryENS0_6HandleINS0_6StringEEE
T _ZN2v88internal5Scope13DeclareGlobalENS0_6HandleINS0_6StringEEE
T _ZN2v88internal5Scope13NewUnresolvedENS0_6HandleINS0_6StringEEEb
T _ZN2v88internal5Scope14AddDeclarationEPNS0_11DeclarationE
T _ZN2v88internal5Scope15LookupRecursiveENS0_6HandleINS0_6StringEEEbPPNS0_8VariableE
T _ZN2v88internal5Scope15ResolveVariableEPS1_NS0_6HandleINS0_7ContextEEEPNS0_13VariableProxyE
T _ZN2v88internal5Scope16AllocateHeapSlotEPNS0_8VariableE
T _ZN2v88internal5Scope16RemoveUnresolvedEPNS0_13VariableProxyE
T _ZN2v88internal5Scope17AllocateStackSlotEPNS0_8VariableE
T _ZN2v88internal5Scope17AllocateVariablesENS0_6HandleINS0_7ContextEEE
T _ZN2v88internal5Scope18ContextChainLengthEPS1_
T _ZN2v88internal5Scope18DeclareFunctionVarENS0_6HandleINS0_6StringEEE
T _ZN2v88internal5Scope18PropagateScopeInfoEbb
W _ZN2v88internal5Scope20CollectUsedVariablesINS0_19PreallocatedStorageEEEvPNS0_4ListIPNS0_8VariableET_EE
W _ZN2v88internal5Scope20CollectUsedVariablesINS0_24ZoneListAllocationPolicyEEEvPNS0_4ListIPNS0_8VariableET_EE
W _ZN2v88internal5Scope20CollectUsedVariablesINS0_25FreeStoreAllocationPolicyEEEvPNS0_4ListIPNS0_8VariableET_EE
T _ZN2v88internal5Scope21HasArgumentsParameterEv
T _ZN2v88internal5Scope21MustAllocateInContextEPNS0_8VariableE
T _ZN2v88internal5Scope23AllocateParameterLocalsEv
T _ZN2v88internal5Scope23SetIllegalRedeclarationEPNS0_10ExpressionE
T _ZN2v88internal5Scope25AllocateNonParameterLocalEPNS0_8VariableE
T _ZN2v88internal5Scope25VisitIllegalRedeclarationEPNS0_10AstVisitorE
T _ZN2v88internal5Scope26AllocateNonParameterLocalsEv
T _ZN2v88internal5Scope27ResolveVariablesRecursivelyEPS1_NS0_6HandleINS0_7ContextEEE
T _ZN2v88internal5Scope28AllocateVariablesRecursivelyEv
T _ZN2v88internal5Scope6LookupENS0_6HandleINS0_6StringEEE
T _ZN2v88internal5Scope8NonLocalENS0_6HandleINS0_6StringEEENS0_8Variable4ModeE
T _ZN2v88internal5ScopeC1ENS1_4TypeE
T _ZN2v88internal5ScopeC1EPS1_NS1_4TypeE
T _ZN2v88internal5ScopeC2ENS1_4TypeE
T _ZN2v88internal5ScopeC2EPS1_NS1_4TypeE
T _ZN2v88internal5Throw6AcceptEPNS0_10AstVisitorE
D _ZN2v88internal5Token11precedence_E
D _ZN2v88internal5Token5name_E
D _ZN2v88internal5Token7string_E
T _ZN2v88internal5Trace12mentions_regEi
T _ZN2v88internal5Trace14DeferredAction8MentionsEi
T _ZN2v88internal5Trace17GetStoredPositionEiPi
T _ZN2v88internal5Trace21FindAffectedRegistersEPNS0_6OutSetE
T _ZN2v88internal5Trace22PerformDeferredActionsEPNS0_20RegExpMacroAssemblerEiRNS0_6OutSetEPS4_S6_
T _ZN2v88internal5Trace24RestoreAffectedRegistersEPNS0_20RegExpMacroAssemblerEiRNS0_6OutSetES5_
T _ZN2v88internal5Trace26InvalidateCurrentCharacterEv
T _ZN2v88internal5Trace29AdvanceCurrentPositionInTraceEiPNS0_14RegExpCompilerE
T _ZN2v88internal5Trace5FlushEPNS0_14RegExpCompilerEPNS0_10RegExpNodeE
T _ZN2v88internal6CallIC12GenerateMissEPNS0_14MacroAssemblerEi
T _ZN2v88internal6CallIC12LoadFunctionENS0_16InlineCacheStateENS0_6HandleINS0_6ObjectEEENS3_INS0_6StringEEE
T _ZN2v88internal6CallIC12UpdateCachesEPNS0_12LookupResultENS0_16InlineCacheStateENS0_6HandleINS0_6ObjectEEENS5_INS0_6StringEEE
T _ZN2v88internal6CallIC14GenerateNormalEPNS0_14MacroAssemblerEi
T _ZN2v88internal6CallIC16ReceiverToObjectENS0_6HandleINS0_6ObjectEEE
T _ZN2v88internal6CallIC17TryCallAsFunctionEPNS0_6ObjectE
T _ZN2v88internal6CallIC19GenerateMegamorphicEPNS0_14MacroAssemblerEi
T _ZN2v88internal6CallIC5ClearEPhPNS0_4CodeE
B _ZN2v88internal6FLAG_hE
T _ZN2v88internal6LoadIC12GenerateMissEPNS0_14MacroAssemblerE
T _ZN2v88internal6LoadIC12UpdateCachesEPNS0_12LookupResultENS0_16InlineCacheStateENS0_6HandleINS0_6ObjectEEENS5_INS0_6StringEEE
T _ZN2v88internal6LoadIC14GenerateNormalEPNS0_14MacroAssemblerE
T _ZN2v88internal6LoadIC16PatchInlinedLoadEPhPNS0_6ObjectEi
T _ZN2v88internal6LoadIC19ClearInlinedVersionEPh
T _ZN2v88internal6LoadIC19GenerateArrayLengthEPNS0_14MacroAssemblerE
T _ZN2v88internal6LoadIC19GenerateMegamorphicEPNS0_14MacroAssemblerE
T _ZN2v88internal6LoadIC20GenerateStringLengthEPNS0_14MacroAssemblerE
T _ZN2v88internal6LoadIC25GenerateFunctionPrototypeEPNS0_14MacroAssemblerE
T _ZN2v88internal6LoadIC4LoadENS0_16InlineCacheStateENS0_6HandleINS0_6ObjectEEENS3_INS0_6StringEEE
T _ZN2v88internal6LoadIC5ClearEPhPNS0_4CodeE
T _ZN2v88internal6Logger10DebugEventEPKcNS0_6VectorItEE
T _ZN2v88internal6Logger10LogRuntimeENS0_6VectorIKcEEPNS0_7JSArrayE
T _ZN2v88internal6Logger11DeleteEventEPKcPv
T _ZN2v88internal6Logger11HandleEventEPKcPPNS0_6ObjectE
T _ZN2v88internal6Logger11StringEventEPKcS3_
T _ZN2v88internal6Logger12ApiEntryCallEPKc
T _ZN2v88internal6Logger13CallbackEventEPNS0_6StringEPh
T _ZN2v88internal6Logger13CodeMoveEventEPhS2_
T _ZN2v88internal6Logger13ResourceEventEPKcS3_
T _ZN2v88internal6Logger15ApiObjectAccessEPKcPNS0_8JSObjectE
T _ZN2v88internal6Logger15CodeCreateEventENS1_16LogEventsAndTagsEPNS0_4CodeEPKc
T _ZN2v88internal6Logger15CodeCreateEventENS1_16LogEventsAndTagsEPNS0_4CodeEPNS0_6StringE
T _ZN2v88internal6Logger15CodeCreateEventENS1_16LogEventsAndTagsEPNS0_4CodeEPNS0_6StringES6_i
T _ZN2v88internal6Logger15CodeCreateEventENS1_16LogEventsAndTagsEPNS0_4CodeEi
T _ZN2v88internal6Logger15CodeDeleteEventEPh
T _ZN2v88internal6Logger15HeapSampleStatsEPKcS3_ii
T _ZN2v88internal6Logger16SuspectReadEventEPNS0_6StringEPNS0_6ObjectE
T _ZN2v88internal6Logger17FunctionMoveEventEPhS2_
T _ZN2v88internal6Logger18HeapSampleEndEventEPKcS3_
T _ZN2v88internal6Logger18RegExpCompileEventENS0_6HandleINS0_8JSRegExpEEEb
T _ZN2v88internal6Logger18SharedLibraryEventEPKcjj
T _ZN2v88internal6Logger18SharedLibraryEventEPKwjj
T _ZN2v88internal6Logger19FunctionCreateEventEPNS0_10JSFunctionE
T _ZN2v88internal6Logger19FunctionDeleteEventEPh
T _ZN2v88internal6Logger19GetterCallbackEventEPNS0_6StringEPh
T _ZN2v88internal6Logger19HeapSampleItemEventEPKcii
T _ZN2v88internal6Logger19SetterCallbackEventEPNS0_6StringEPh
T _ZN2v88internal6Logger20HeapSampleBeginEventEPKcS3_
T _ZN2v88internal6Logger21ApiNamedSecurityCheckEPNS0_6ObjectE
T _ZN2v88internal6Logger21RegExpCodeCreateEventEPNS0_4CodeEPNS0_6StringE
T _ZN2v88internal6Logger21SnapshotPositionEventEPhi
T _ZN2v88internal6Logger22ApiNamedPropertyAccessEPKcPNS0_8JSObjectEPNS0_6ObjectE
T _ZN2v88internal6Logger23ApiIndexedSecurityCheckEj
T _ZN2v88internal6Logger24ApiIndexedPropertyAccessEPKcPNS0_8JSObjectEj
T _ZN2v88internal6Logger24EnableSlidingStateWindowEv
T _ZN2v88internal6Logger25HeapSampleJSProducerEventEPKcPPh
T _ZN2v88internal6Logger26HeapSampleJSRetainersEventEPKcS3_
T _ZN2v88internal6Logger28HeapSampleJSConstructorEventEPKcii
T _ZN2v88internal6Logger5SetupEv
T _ZN2v88internal6Logger8DebugTagEPKc
T _ZN2v88internal6Logger8IntEventEPKci
T _ZN2v88internal6Logger8NewEventEPKcPvj
T _ZN2v88internal6Logger8TearDownEv
T _ZN2v88internal6Object10ShortPrintEPNS0_12StringStreamE
T _ZN2v88internal6Object10ShortPrintEv
T _ZN2v88internal6Object11GetPropertyEPS1_PNS0_12LookupResultEPNS0_6StringEP18PropertyAttributes
T _ZN2v88internal6Object12GetPrototypeEv
T _ZN2v88internal6Object22GetElementWithReceiverEPS1_j
T _ZN2v88internal6Object23GetPropertyWithCallbackEPS1_S2_PNS0_6StringES2_
T _ZN2v88internal6Object23GetPropertyWithReceiverEPS1_PNS0_6StringEP18PropertyAttributes
T _ZN2v88internal6Object28GetPropertyWithDefinedGetterEPS1_PNS0_10JSFunctionE
T _ZN2v88internal6Object6LookupEPNS0_6StringEPNS0_12LookupResultE
T _ZN2v88internal6Object8ToObjectEPNS0_7ContextE
T _ZN2v88internal6Object8ToObjectEv
T _ZN2v88internal6Object9ToBooleanEv
T _ZN2v88internal6OutSet3GetEj
T _ZN2v88internal6OutSet3SetEj
T _ZN2v88internal6OutSet6ExtendEj
T _ZN2v88internal6Parser10ParseBlockEPNS0_8ZoneListINS0_6HandleINS0_6StringEEEEEPb
T _ZN2v88internal6Parser10WithHelperEPNS0_10ExpressionEPNS0_8ZoneListINS0_6HandleINS0_6StringEEEEEbPb
T _ZN2v88internal6Parser12ParseProgramENS0_6HandleINS0_6StringEEEPN7unibrow15CharacterStreamEb
T _ZN2v88internal6Parser13NewThrowErrorENS0_6HandleINS0_6StringEEES4_NS0_6VectorINS2_INS0_6ObjectEEEEE
T _ZN2v88internal6Parser13ReportMessageEPKcNS0_6VectorIS3_EE
T _ZN2v88internal6Parser14ParseArgumentsEPb
T _ZN2v88internal6Parser14ParseJsonArrayEPb
T _ZN2v88internal6Parser14ParseJsonValueEPb
T _ZN2v88internal6Parser14ParseNewPrefixEPNS0_13PositionStackEPb
T _ZN2v88internal6Parser14ParseStatementEPNS0_8ZoneListINS0_6HandleINS0_6StringEEEEEPb
T _ZN2v88internal6Parser15ExpectSemicolonEPb
T _ZN2v88internal6Parser15ParseCaseClauseEPbS2_
T _ZN2v88internal6Parser15ParseExpressionEbPb
T _ZN2v88internal6Parser15ParseIdentifierEPb
T _ZN2v88internal6Parser15ParseJsonObjectEPb
T _ZN2v88internal6Parser15PreParseProgramENS0_6HandleINS0_6StringEEEPN7unibrow15CharacterStreamE
T _ZN2v88internal6Parser16GetLiteralNumberEd
T _ZN2v88internal6Parser16NewNumberLiteralEd
T _ZN2v88internal6Parser16ParseIfStatementEPNS0_8ZoneListINS0_6HandleINS0_6StringEEEEEPb
T _ZN2v88internal6Parser16ParseV8IntrinsicEPb
T _ZN2v88internal6Parser17GetLiteralTheHoleEv
T _ZN2v88internal6Parser17LookupBreakTargetENS0_6HandleINS0_6StringEEEPb
T _ZN2v88internal6Parser17NewThrowTypeErrorENS0_6HandleINS0_6StringEEENS2_INS0_6ObjectEEES6_
T _ZN2v88internal6Parser17ParseArrayLiteralEPb
T _ZN2v88internal6Parser17ParseForStatementEPNS0_8ZoneListINS0_6HandleINS0_6StringEEEEEPb
T _ZN2v88internal6Parser17ParseTryStatementEPb
T _ZN2v88internal6Parser17RegisterTargetUseEPNS0_11BreakTargetEPNS0_6TargetE
T _ZN2v88internal6Parser18ParseNewExpressionEPb
T _ZN2v88internal6Parser18ParseObjectLiteralEPb
T _ZN2v88internal6Parser18ParseRegExpLiteralEbPb
T _ZN2v88internal6Parser18ParseWithStatementEPNS0_8ZoneListINS0_6HandleINS0_6StringEEEEEPb
T _ZN2v88internal6Parser19GetBoilerplateValueEPNS0_10ExpressionE
T _ZN2v88internal6Parser19GetLiteralUndefinedEv
T _ZN2v88internal6Parser19NewThrowSyntaxErrorENS0_6HandleINS0_6StringEEENS2_INS0_6ObjectEEE
T _ZN2v88internal6Parser19ParseBreakStatementEPNS0_8ZoneListINS0_6HandleINS0_6StringEEEEEPb
T _ZN2v88internal6Parser19ParseSourceElementsEPNS0_15ZoneListWrapperINS0_9StatementEEEiPb
T _ZN2v88internal6Parser19ParseThrowStatementEPb
T _ZN2v88internal6Parser19ParseWhileStatementEPNS0_8ZoneListINS0_6HandleINS0_6StringEEEEEPb
T _ZN2v88internal6Parser20LookupContinueTargetENS0_6HandleINS0_6StringEEEPb
T _ZN2v88internal6Parser20ParseFunctionLiteralENS0_6HandleINS0_6StringEEEiNS1_19FunctionLiteralTypeEPb
T _ZN2v88internal6Parser20ParseReturnStatementEPb
T _ZN2v88internal6Parser20ParseSwitchStatementEPNS0_8ZoneListINS0_6HandleINS0_6StringEEEEEPb
T _ZN2v88internal6Parser20ParseUnaryExpressionEPb
T _ZN2v88internal6Parser21IsBoilerplatePropertyEPNS0_13ObjectLiteral8PropertyE
T _ZN2v88internal6Parser21ParseBinaryExpressionEibPb
T _ZN2v88internal6Parser21ParseDoWhileStatementEPNS0_8ZoneListINS0_6HandleINS0_6StringEEEEEPb
T _ZN2v88internal6Parser21ParseMemberExpressionEPb
T _ZN2v88internal6Parser21ReportUnexpectedTokenENS0_5Token5ValueE
T _ZN2v88internal6Parser22NewThrowReferenceErrorENS0_6HandleINS0_6StringEEE
T _ZN2v88internal6Parser22ParseContinueStatementEPb
T _ZN2v88internal6Parser22ParseDebuggerStatementEPb
T _ZN2v88internal6Parser22ParseNativeDeclarationEPb
T _ZN2v88internal6Parser22ParsePostfixExpressionEPb
T _ZN2v88internal6Parser22ParsePrimaryExpressionEPb
T _ZN2v88internal6Parser22ParseVariableStatementEPb
T _ZN2v88internal6Parser24ParseFunctionDeclarationEPb
T _ZN2v88internal6Parser24TargetStackContainsLabelENS0_6HandleINS0_6StringEEE
T _ZN2v88internal6Parser25ParseAssignmentExpressionEbPb
T _ZN2v88internal6Parser25ParseIdentifierOrGetOrSetEPbS2_S2_
T _ZN2v88internal6Parser25ParseVariableDeclarationsEbPPNS0_10ExpressionEPb
T _ZN2v88internal6Parser26ParseConditionalExpressionEbPb
T _ZN2v88internal6Parser27ParseLeftHandSideExpressionEPb
T _ZN2v88internal6Parser34ParseExpressionOrLabelledStatementEPNS0_8ZoneListINS0_6HandleINS0_6StringEEEEEPb
T _ZN2v88internal6Parser36BuildArrayLiteralBoilerplateLiteralsEPNS0_8ZoneListIPNS0_10ExpressionEEENS0_6HandleINS0_10FixedArrayEEEPbPi
T _ZN2v88internal6Parser36BuildObjectLiteralConstantPropertiesEPNS0_8ZoneListIPNS0_13ObjectLiteral8PropertyEEENS0_6HandleINS0_10FixedArrayEEEPbPi
T _ZN2v88internal6Parser36ParseMemberWithNewPrefixesExpressionEPNS0_13PositionStackEPb
T _ZN2v88internal6Parser5CheckENS0_5Token5ValueE
T _ZN2v88internal6Parser6ExpectENS0_5Token5ValueEPb
T _ZN2v88internal6Parser9ParseJsonENS0_6HandleINS0_6StringEEEPN7unibrow15CharacterStreamE
T _ZN2v88internal6Parser9ParseJsonEPb
T _ZN2v88internal6Parser9ParseLazyENS0_6HandleINS0_6StringEEES4_ib
T _ZN2v88internal6ParserC1ENS0_6HandleINS0_6ScriptEEEbPNS_9ExtensionENS0_10ParserModeEPNS0_13ParserFactoryEPNS0_9ParserLogEPNS0_14ScriptDataImplE
T _ZN2v88internal6ParserC2ENS0_6HandleINS0_6ScriptEEEbPNS_9ExtensionENS0_10ParserModeEPNS0_13ParserFactoryEPNS0_9ParserLogEPNS0_14ScriptDataImplE
T _ZN2v88internal6PrintFEPKcz
T _ZN2v88internal6Result11number_infoEv
T _ZN2v88internal6Result12ConstantListEv
T _ZN2v88internal6Result15set_number_infoENS0_10NumberInfo4TypeE
T _ZN2v88internal6ResultC1ENS0_8RegisterENS0_10NumberInfo4TypeE
T _ZN2v88internal6ResultC2ENS0_8RegisterENS0_10NumberInfo4TypeE
T _ZN2v88internal6Socket4HToNEj
T _ZN2v88internal6Socket4HToNEt
T _ZN2v88internal6Socket4NToHEj
T _ZN2v88internal6Socket4NToHEt
T _ZN2v88internal6Socket5SetupEv
T _ZN2v88internal6Socket9LastErrorEv
T _ZN2v88internal6StrDupEPKc
T _ZN2v88internal6String10LooksValidEv
T _ZN2v88internal6String10SlowEqualsEPS1_
T _ZN2v88internal6String10TryFlattenEv
T _ZN2v88internal6String10Utf8LengthEv
W _ZN2v88internal6String11WriteToFlatIcEEvPS1_PT_ii
W _ZN2v88internal6String11WriteToFlatItEEvPS1_PT_ii
T _ZN2v88internal6String12MakeExternalEPNS_6String22ExternalStringResourceE
T _ZN2v88internal6String12MakeExternalEPNS_6String27ExternalAsciiStringResourceE
T _ZN2v88internal6String12ToUC16VectorEv
T _ZN2v88internal6String13ToAsciiVectorEv
T _ZN2v88internal6String13ToWideCStringENS0_14RobustnessFlagE
T _ZN2v88internal6String14GetTwoByteDataEj
T _ZN2v88internal6String14GetTwoByteDataEv
T _ZN2v88internal6String16ComputeHashFieldEPN7unibrow15CharacterStreamEi
T _ZN2v88internal6String16SlowAsArrayIndexEPj
T _ZN2v88internal6String16StringShortPrintEPNS0_12StringStreamE
T _ZN2v88internal6String17ComputeAndSetHashEv
T _ZN2v88internal6String17ComputeArrayIndexEPN7unibrow15CharacterStreamEPji
T _ZN2v88internal6String18MarkAsUndetectableEv
T _ZN2v88internal6String19ReadBlockIntoBufferEPS1_PNS1_15ReadBlockBufferEPjj
T _ZN2v88internal6String7PrintOnEP7__sFILE
T _ZN2v88internal6String9IsEqualToENS0_6VectorIKcEE
T _ZN2v88internal6String9ReadBlockEPPS1_PhjPjS5_
T _ZN2v88internal6String9ReadBlockEPS1_PhjPjS4_
T _ZN2v88internal6String9SubStringEii
T _ZN2v88internal6String9ToCStringENS0_14AllowNullsFlagENS0_14RobustnessFlagEPi
T _ZN2v88internal6String9ToCStringENS0_14AllowNullsFlagENS0_14RobustnessFlagEiiPi
T _ZN2v88internal6Thread14GetThreadLocalENS1_15LocalStorageKeyE
T _ZN2v88internal6Thread14SetThreadLocalENS1_15LocalStorageKeyEPv
T _ZN2v88internal6Thread20CreateThreadLocalKeyEv
T _ZN2v88internal6Thread20DeleteThreadLocalKeyENS1_15LocalStorageKeyE
T _ZN2v88internal6Thread4JoinEv
T _ZN2v88internal6Thread5StartEv
T _ZN2v88internal6Thread8YieldCPUEv
T _ZN2v88internal6ThreadC1Ev
T _ZN2v88internal6ThreadC2Ev
T _ZN2v88internal6ThreadD0Ev
T _ZN2v88internal6ThreadD1Ev
T _ZN2v88internal6ThreadD2Ev
T _ZN2v88internal6moduloEdd
D _ZN2v88internal6no_regE
T _ZN2v88internal7CallNew6AcceptEPNS0_10AstVisitorE
T _ZN2v88internal7Context12global_proxyEv
T _ZN2v88internal7Context14global_contextEv
T _ZN2v88internal7Context16set_global_proxyEPNS0_8JSObjectE
T _ZN2v88internal7Context25GlobalIfNotShadowedByEvalENS0_6HandleINS0_6StringEEE
T _ZN2v88internal7Context6LookupENS0_6HandleINS0_6StringEEENS0_18ContextLookupFlagsEPiP18PropertyAttributes
T _ZN2v88internal7Context8builtinsEv
T _ZN2v88internal7EndNode4EmitEPNS0_14RegExpCompilerEPNS0_5TraceE
T _ZN2v88internal7EndNode6AcceptEPNS0_11NodeVisitorE
T _ZN2v88internal7Factory10NewJSArrayEiNS0_13PretenureFlagE
T _ZN2v88internal7Factory11NewFunctionENS0_6HandleINS0_6StringEEENS0_12InstanceTypeEiNS2_INS0_4CodeEEEb
T _ZN2v88internal7Factory11NewFunctionENS0_6HandleINS0_6StringEEENS2_INS0_6ObjectEEE
T _ZN2v88internal7Factory11NewJSObjectENS0_6HandleINS0_10JSFunctionEEENS0_13PretenureFlagE
T _ZN2v88internal7Factory11NewMapCacheEi
T _ZN2v88internal7Factory12LookupSymbolENS0_6VectorIKcEE
T _ZN2v88internal7Factory12NewByteArrayEiNS0_13PretenureFlagE
T _ZN2v88internal7Factory12NewDebugInfoENS0_6HandleINS0_18SharedFunctionInfoEEE
T _ZN2v88internal7Factory12NewEvalErrorEPKcNS0_6VectorINS0_6HandleINS0_6ObjectEEEEE
T _ZN2v88internal7Factory12NewSubStringENS0_6HandleINS0_6StringEEEii
T _ZN2v88internal7Factory12NewTypeErrorENS0_6HandleINS0_6StringEEE
T _ZN2v88internal7Factory12NewTypeErrorEPKcNS0_6VectorINS0_6HandleINS0_6ObjectEEEEE
T _ZN2v88internal7Factory13AddToMapCacheENS0_6HandleINS0_7ContextEEENS2_INS0_10FixedArrayEEENS2_INS0_3MapEEE
T _ZN2v88internal7Factory13NewConsStringENS0_6HandleINS0_6StringEEES4_
T _ZN2v88internal7Factory13NewFixedArrayEiNS0_13PretenureFlagE
T _ZN2v88internal7Factory13NewPixelArrayEiPhNS0_13PretenureFlagE
T _ZN2v88internal7Factory13NewRangeErrorENS0_6HandleINS0_6StringEEE
T _ZN2v88internal7Factory13NewRangeErrorEPKcNS0_6VectorINS0_6HandleINS0_6ObjectEEEEE
T _ZN2v88internal7Factory14CopyFixedArrayENS0_6HandleINS0_10FixedArrayEEE
T _ZN2v88internal7Factory14NewSyntaxErrorENS0_6HandleINS0_6StringEEE
T _ZN2v88internal7Factory14NewSyntaxErrorEPKcNS0_6HandleINS0_7JSArrayEEE
T _ZN2v88internal7Factory14NewWithContextENS0_6HandleINS0_7ContextEEENS2_INS0_8JSObjectEEEb
T _ZN2v88internal7Factory14NumberToStringENS0_6HandleINS0_6ObjectEEE
T _ZN2v88internal7Factory15NewAccessorInfoEv
T _ZN2v88internal7Factory15NewGlobalObjectENS0_6HandleINS0_10JSFunctionEEE
T _ZN2v88internal7Factory16NewExternalArrayEiNS_17ExternalArrayTypeEPvNS0_13PretenureFlagE
T _ZN2v88internal7Factory16NewGlobalContextEv
T _ZN2v88internal7Factory16NewNeanderObjectEv
T _ZN2v88internal7Factory16NewNumberFromIntEi
T _ZN2v88internal7Factory16SymbolFromStringENS0_6HandleINS0_6StringEEE
T _ZN2v88internal7Factory17ConfigureInstanceENS0_6HandleINS0_20FunctionTemplateInfoEEENS2_INS0_8JSObjectEEEPb
T _ZN2v88internal7Factory17CreateApiFunctionENS0_6HandleINS0_20FunctionTemplateInfoEEENS1_15ApiInstanceTypeE
T _ZN2v88internal7Factory17NewFunctionHelperENS0_6HandleINS0_6StringEEENS2_INS0_6ObjectEEE
T _ZN2v88internal7Factory17NewNumberFromUintEj
T _ZN2v88internal7Factory17NewReferenceErrorENS0_6HandleINS0_6StringEEE
T _ZN2v88internal7Factory17NewReferenceErrorEPKcNS0_6VectorINS0_6HandleINS0_6ObjectEEEEE
T _ZN2v88internal7Factory17NewStringFromUtf8ENS0_6VectorIKcEENS0_13PretenureFlagE
T _ZN2v88internal7Factory17SetRegExpAtomDataENS0_6HandleINS0_8JSRegExpEEENS3_4TypeENS2_INS0_6StringEEENS3_5FlagsENS2_INS0_6ObjectEEE
T _ZN2v88internal7Factory18NewArgumentsObjectENS0_6HandleINS0_6ObjectEEEi
T _ZN2v88internal7Factory18NewDescriptorArrayEi
T _ZN2v88internal7Factory18NewFunctionContextEiNS0_6HandleINS0_10JSFunctionEEE
T _ZN2v88internal7Factory18NewJSObjectFromMapENS0_6HandleINS0_3MapEEE
T _ZN2v88internal7Factory18NewStringFromAsciiENS0_6VectorIKcEENS0_13PretenureFlagE
T _ZN2v88internal7Factory19NewNumberDictionaryEi
T _ZN2v88internal7Factory19NewRawTwoByteStringEiNS0_13PretenureFlagE
T _ZN2v88internal7Factory19NewStringDictionaryEi
T _ZN2v88internal7Factory20NewFunctionPrototypeENS0_6HandleINS0_10JSFunctionEEE
T _ZN2v88internal7Factory20NewStringFromTwoByteENS0_6VectorIKtEENS0_13PretenureFlagE
T _ZN2v88internal7Factory21DictionaryAtNumberPutENS0_6HandleINS0_16NumberDictionaryEEEjNS2_INS0_6ObjectEEE
T _ZN2v88internal7Factory21NewSharedFunctionInfoENS0_6HandleINS0_6StringEEE
T _ZN2v88internal7Factory21SetRegExpIrregexpDataENS0_6HandleINS0_8JSRegExpEEENS3_4TypeENS2_INS0_6StringEEENS3_5FlagsEi
T _ZN2v88internal7Factory22CopyMapDropDescriptorsENS0_6HandleINS0_3MapEEE
T _ZN2v88internal7Factory22CopyMapDropTransitionsENS0_6HandleINS0_3MapEEE
T _ZN2v88internal7Factory22NewFixedArrayWithHolesEi
T _ZN2v88internal7Factory22NewFunctionBoilerplateENS0_6HandleINS0_6StringEEE
T _ZN2v88internal7Factory22NewFunctionBoilerplateENS0_6HandleINS0_6StringEEEiNS2_INS0_4CodeEEE
T _ZN2v88internal7Factory22NewJSArrayWithElementsENS0_6HandleINS0_10FixedArrayEEENS0_13PretenureFlagE
T _ZN2v88internal7Factory24NewFunctionWithPrototypeENS0_6HandleINS0_6StringEEENS0_12InstanceTypeEiNS2_INS0_8JSObjectEEENS2_INS0_4CodeEEEb
T _ZN2v88internal7Factory25CopyAppendProxyDescriptorENS0_6HandleINS0_15DescriptorArrayEEENS2_INS0_6StringEEENS2_INS0_6ObjectEEE18PropertyAttributes
T _ZN2v88internal7Factory25ObjectLiteralMapFromCacheENS0_6HandleINS0_7ContextEEENS2_INS0_10FixedArrayEEE
T _ZN2v88internal7Factory26NewExternalStringFromAsciiEPNS_6String27ExternalAsciiStringResourceE
T _ZN2v88internal7Factory26NewFunctionFromBoilerplateENS0_6HandleINS0_10JSFunctionEEENS2_INS0_7ContextEEENS0_13PretenureFlagE
T _ZN2v88internal7Factory28NewExternalStringFromTwoByteEPNS_6String22ExternalStringResourceE
T _ZN2v88internal7Factory29CopyAppendCallbackDescriptorsENS0_6HandleINS0_15DescriptorArrayEEENS2_INS0_6ObjectEEE
T _ZN2v88internal7Factory30BaseNewFunctionFromBoilerplateENS0_6HandleINS0_10JSFunctionEEENS2_INS0_3MapEEENS0_13PretenureFlagE
T _ZN2v88internal7Factory6NewMapENS0_12InstanceTypeEi
T _ZN2v88internal7Factory7CopyMapENS0_6HandleINS0_3MapEEEi
T _ZN2v88internal7Factory7NewCodeERKNS0_8CodeDescEPNS0_13ZoneScopeInfoENS0_4Code5FlagsENS0_6HandleINS0_6ObjectEEE
T _ZN2v88internal7Factory8CopyCodeENS0_6HandleINS0_4CodeEEE
T _ZN2v88internal7Factory8NewErrorENS0_6HandleINS0_6StringEEE
T _ZN2v88internal7Factory8NewErrorEPKcNS0_6HandleINS0_6StringEEE
T _ZN2v88internal7Factory8NewErrorEPKcNS0_6VectorINS0_6HandleINS0_6ObjectEEEEE
T _ZN2v88internal7Factory8NewErrorEPKcS3_NS0_6HandleINS0_7JSArrayEEE
T _ZN2v88internal7Factory8NewErrorEPKcS3_NS0_6VectorINS0_6HandleINS0_6ObjectEEEEE
T _ZN2v88internal7Factory8NewProxyEPKNS0_18AccessorDescriptorE
T _ZN2v88internal7Factory8NewProxyEPhNS0_13PretenureFlagE
T _ZN2v88internal7Factory8ToObjectENS0_6HandleINS0_6ObjectEEE
T _ZN2v88internal7Factory8ToObjectENS0_6HandleINS0_6ObjectEEENS2_INS0_7ContextEEE
T _ZN2v88internal7Factory9NewNumberEdNS0_13PretenureFlagE
T _ZN2v88internal7Factory9NewScriptENS0_6HandleINS0_6StringEEE
T _ZN2v88internal7Factory9NewStructENS0_12InstanceTypeE
T _ZN2v88internal7Failure12FailurePrintEPNS0_12StringStreamE
T _ZN2v88internal7Failure12FailurePrintEv
T _ZN2v88internal7Failure12RetryAfterGCEiNS0_15AllocationSpaceE
T _ZN2v88internal7Genesis11CreateRootsEv
T _ZN2v88internal7Genesis13CompileNativeENS0_6VectorIKcEENS0_6HandleINS0_6StringEEE
T _ZN2v88internal7Genesis14CompileBuiltinEi
T _ZN2v88internal7Genesis14InstallNativesEv
T _ZN2v88internal7Genesis14TransferObjectENS0_6HandleINS0_8JSObjectEEES4_
T _ZN2v88internal7Genesis16CreateNewGlobalsENS_6HandleINS_14ObjectTemplateEEENS0_6HandleINS0_6ObjectEEEPNS5_INS0_12GlobalObjectEEE
T _ZN2v88internal7Genesis16InitializeGlobalENS0_6HandleINS0_12GlobalObjectEEENS2_INS0_10JSFunctionEEE
T _ZN2v88internal7Genesis16InstallExtensionEPKc
T _ZN2v88internal7Genesis16InstallExtensionEPNS_19RegisteredExtensionE
T _ZN2v88internal7Genesis17HookUpGlobalProxyENS0_6HandleINS0_12GlobalObjectEEENS2_INS0_13JSGlobalProxyEEE
T _ZN2v88internal7Genesis17HookUpInnerGlobalENS0_6HandleINS0_12GlobalObjectEEE
T _ZN2v88internal7Genesis17InstallExtensionsENS0_6HandleINS0_7ContextEEEPNS_22ExtensionConfigurationE
T _ZN2v88internal7Genesis17InstallJSBuiltinsENS0_6HandleINS0_16JSBuiltinsObjectEEE
T _ZN2v88internal7Genesis18AddSpecialFunctionENS0_6HandleINS0_8JSObjectEEEPKcNS2_INS0_4CodeEEE
T _ZN2v88internal7Genesis18ConfigureApiObjectENS0_6HandleINS0_8JSObjectEEENS2_INS0_18ObjectTemplateInfoEEE
T _ZN2v88internal7Genesis19CompileScriptCachedENS0_6VectorIKcEENS0_6HandleINS0_6StringEEEPNS0_15SourceCodeCacheEPNS_9ExtensionENS5_INS0_7ContextEEEb
T _ZN2v88internal7Genesis19CreateEmptyFunctionEv
T _ZN2v88internal7Genesis21InstallSpecialObjectsENS0_6HandleINS0_7ContextEEE
T _ZN2v88internal7Genesis22ConfigureGlobalObjectsENS_6HandleINS_14ObjectTemplateEEE
T _ZN2v88internal7Genesis22InstallNativeFunctionsEv
T _ZN2v88internal7Genesis23TransferNamedPropertiesENS0_6HandleINS0_8JSObjectEEES4_
T _ZN2v88internal7Genesis25BuildSpecialFunctionTableEv
T _ZN2v88internal7Genesis25TransferIndexedPropertiesENS0_6HandleINS0_8JSObjectEEES4_
T _ZN2v88internal7Genesis33ComputeFunctionInstanceDescriptorEbb
T _ZN2v88internal7Genesis37MakeFunctionInstancePrototypeWritableEv
T _ZN2v88internal7GenesisC1ENS0_6HandleINS0_6ObjectEEENS_6HandleINS_14ObjectTemplateEEEPNS_22ExtensionConfigurationE
T _ZN2v88internal7GenesisC2ENS0_6HandleINS0_6ObjectEEENS_6HandleINS_14ObjectTemplateEEEPNS_22ExtensionConfigurationE
T _ZN2v88internal7HashMap10InitializeEj
B _ZN2v88internal7HashMap16DefaultAllocatorE
T _ZN2v88internal7HashMap5ClearEv
T _ZN2v88internal7HashMap5ProbeEPvj
T _ZN2v88internal7HashMap6LookupEPvjb
T _ZN2v88internal7HashMap6RemoveEPvj
T _ZN2v88internal7HashMap6ResizeEv
T _ZN2v88internal7HashMapC1EPFbPvS2_EPNS0_9AllocatorEj
T _ZN2v88internal7HashMapC1Ev
T _ZN2v88internal7HashMapC2EPFbPvS2_EPNS0_9AllocatorEj
T _ZN2v88internal7HashMapC2Ev
T _ZN2v88internal7HashMapD1Ev
T _ZN2v88internal7HashMapD2Ev
T _ZN2v88internal7JSArray10InitializeEi
T _ZN2v88internal7JSArray28JSArrayUpdateLengthFromIndexEjPNS0_6ObjectE
T _ZN2v88internal7JSArray6ExpandEi
T _ZN2v88internal7Literal6AcceptEPNS0_10AstVisitorE
T _ZN2v88internal7MakeASTEbNS0_6HandleINS0_6ScriptEEEPNS_9ExtensionEPNS0_14ScriptDataImplEb
T _ZN2v88internal7NumRegsEj
T _ZN2v88internal7Oddball10InitializeEPKcPNS0_6ObjectE
T _ZN2v88internal7Oddball18OddballIterateBodyEPNS0_13ObjectVisitorE
T _ZN2v88internal7OperandC1ENS0_6HandleINS0_6ObjectEEE
T _ZN2v88internal7OperandC1ENS0_8RegisterENS0_7ShiftOpES2_
T _ZN2v88internal7OperandC1ENS0_8RegisterENS0_7ShiftOpEi
T _ZN2v88internal7OperandC2ENS0_6HandleINS0_6ObjectEEE
T _ZN2v88internal7OperandC2ENS0_8RegisterENS0_7ShiftOpES2_
T _ZN2v88internal7OperandC2ENS0_8RegisterENS0_7ShiftOpEi
T _ZN2v88internal7Runtime11StringMatchENS0_6HandleINS0_6StringEEES4_i
T _ZN2v88internal7Runtime13FunctionForIdENS1_10FunctionIdE
T _ZN2v88internal7Runtime15FunctionForNameEPKc
T _ZN2v88internal7Runtime15IsUpperCaseCharEt
T _ZN2v88internal7Runtime17GetObjectPropertyENS0_6HandleINS0_6ObjectEEES4_
T _ZN2v88internal7Runtime17SetObjectPropertyENS0_6HandleINS0_6ObjectEEES4_S4_18PropertyAttributes
T _ZN2v88internal7Runtime18GetElementOrCharAtENS0_6HandleINS0_6ObjectEEEj
T _ZN2v88internal7Runtime22ForceSetObjectPropertyENS0_6HandleINS0_8JSObjectEEENS2_INS0_6ObjectEEES6_18PropertyAttributes
T _ZN2v88internal7Runtime25ForceDeleteObjectPropertyENS0_6HandleINS0_8JSObjectEEENS2_INS0_6ObjectEEE
T _ZN2v88internal7Runtime30FindSharedFunctionInfoInScriptENS0_6HandleINS0_6ScriptEEEi
T _ZN2v88internal7Runtime9PerformGCEPNS0_6ObjectE
T _ZN2v88internal7Scanner10ScanEscapeEv
T _ZN2v88internal7Scanner10ScanNumberEb
T _ZN2v88internal7Scanner10ScanStringEv
T _ZN2v88internal7Scanner11SeekForwardEi
T _ZN2v88internal7Scanner12IsIdentifierEPN7unibrow15CharacterStreamE
T _ZN2v88internal7Scanner12StartLiteralEv
T _ZN2v88internal7Scanner13ScanHexEscapeEii
B _ZN2v88internal7Scanner13kIsWhiteSpaceE
B _ZN2v88internal7Scanner13utf8_decoder_E
T _ZN2v88internal7Scanner14AddCharAdvanceEv
T _ZN2v88internal7Scanner14ScanIdentifierEv
T _ZN2v88internal7Scanner14ScanJavaScriptEv
T _ZN2v88internal7Scanner14ScanJsonNumberEv
T _ZN2v88internal7Scanner14ScanJsonStringEv
T _ZN2v88internal7Scanner15ScanHtmlCommentEv
T _ZN2v88internal7Scanner15ScanOctalEscapeEii
T _ZN2v88internal7Scanner15ScanRegExpFlagsEv
T _ZN2v88internal7Scanner16TerminateLiteralEv
T _ZN2v88internal7Scanner17ScanDecimalDigitsEv
T _ZN2v88internal7Scanner17ScanRegExpPatternEb
B _ZN2v88internal7Scanner17kIsIdentifierPartE
B _ZN2v88internal7Scanner17kIsLineTerminatorE
T _ZN2v88internal7Scanner18ScanJsonIdentifierEPKcNS0_5Token5ValueE
T _ZN2v88internal7Scanner18SkipJsonWhiteSpaceEv
B _ZN2v88internal7Scanner18kIsIdentifierStartE
T _ZN2v88internal7Scanner20SkipMultiLineCommentEv
T _ZN2v88internal7Scanner21SkipSingleLineCommentEv
T _ZN2v88internal7Scanner24SkipJavaScriptWhiteSpaceEv
T _ZN2v88internal7Scanner27ScanIdentifierUnicodeEscapeEv
T _ZN2v88internal7Scanner4InitENS0_6HandleINS0_6StringEEEPN7unibrow15CharacterStreamEiNS0_14ParserLanguageE
T _ZN2v88internal7Scanner4NextEv
T _ZN2v88internal7Scanner7AddCharEi
T _ZN2v88internal7Scanner8ScanJsonEv
T _ZN2v88internal7Scanner9SubStringEii
T _ZN2v88internal7ScannerC1ENS0_10ParserModeE
T _ZN2v88internal7ScannerC2ENS0_10ParserModeE
B _ZN2v88internal7Segment16bytes_allocated_E
B _ZN2v88internal7Segment5head_E
T _ZN2v88internal7StoreIC12GenerateMissEPNS0_14MacroAssemblerE
T _ZN2v88internal7StoreIC12UpdateCachesEPNS0_12LookupResultENS0_16InlineCacheStateENS0_6HandleINS0_8JSObjectEEENS5_INS0_6StringEEENS5_INS0_6ObjectEEE
T _ZN2v88internal7StoreIC19GenerateMegamorphicEPNS0_14MacroAssemblerE
T _ZN2v88internal7StoreIC5ClearEPhPNS0_4CodeE
T _ZN2v88internal7StoreIC5StoreENS0_16InlineCacheStateENS0_6HandleINS0_6ObjectEEENS3_INS0_6StringEEES5_
T _ZN2v88internal7StrNDupEPKci
D _ZN2v88internal7Version10candidate_E
D _ZN2v88internal7Version6build_E
D _ZN2v88internal7Version6major_E
D _ZN2v88internal7Version6minor_E
B _ZN2v88internal7Version6patch_E
D _ZN2v88internal7Version7soname_E
T _ZN2v88internal7Version9GetSONAMEENS0_6VectorIcEE
T _ZN2v88internal7Version9GetStringENS0_6VectorIcEE
T _ZN2v88internal7ceilingEd
D _ZN2v88internal7no_cregE
T _ZN2v88internal8Analysis11VisitActionEPNS0_10ActionNodeE
T _ZN2v88internal8Analysis11VisitChoiceEPNS0_10ChoiceNodeE
T _ZN2v88internal8Analysis14EnsureAnalyzedEPNS0_10RegExpNodeE
T _ZN2v88internal8Analysis14VisitAssertionEPNS0_13AssertionNodeE
T _ZN2v88internal8Analysis15VisitLoopChoiceEPNS0_14LoopChoiceNodeE
T _ZN2v88internal8Analysis18VisitBackReferenceEPNS0_17BackReferenceNodeE
T _ZN2v88internal8Analysis8VisitEndEPNS0_7EndNodeE
T _ZN2v88internal8Analysis9VisitTextEPNS0_8TextNodeE
D _ZN2v88internal8Builtins12c_functions_E
T _ZN2v88internal8Builtins15IterateBuiltinsEPNS0_13ObjectVisitorE
T _ZN2v88internal8Builtins16Generate_AdaptorEPNS0_14MacroAssemblerENS1_11CFunctionIdENS0_21BuiltinExtraArgumentsE
D _ZN2v88internal8Builtins16javascript_argc_E
D _ZN2v88internal8Builtins17javascript_names_E
T _ZN2v88internal8Builtins18Generate_ArrayCodeEPNS0_14MacroAssemblerE
T _ZN2v88internal8Builtins21Generate_FunctionCallEPNS0_14MacroAssemblerE
T _ZN2v88internal8Builtins22Generate_FunctionApplyEPNS0_14MacroAssemblerE
T _ZN2v88internal8Builtins24Generate_JSConstructCallEPNS0_14MacroAssemblerE
T _ZN2v88internal8Builtins26Generate_JSEntryTrampolineEPNS0_14MacroAssemblerE
T _ZN2v88internal8Builtins27Generate_ArrayConstructCodeEPNS0_14MacroAssemblerE
T _ZN2v88internal8Builtins27Generate_JSConstructStubApiEPNS0_14MacroAssemblerE
T _ZN2v88internal8Builtins31Generate_JSConstructStubGenericEPNS0_14MacroAssemblerE
T _ZN2v88internal8Builtins35Generate_ArgumentsAdaptorTrampolineEPNS0_14MacroAssemblerE
T _ZN2v88internal8Builtins35Generate_JSConstructEntryTrampolineEPNS0_14MacroAssemblerE
T _ZN2v88internal8Builtins5SetupEb
T _ZN2v88internal8Builtins6LookupEPh
B _ZN2v88internal8Builtins6names_E
T _ZN2v88internal8Builtins8TearDownEv
B _ZN2v88internal8Builtins9builtins_E
T _ZN2v88internal8CodeStub10TryGetCodeEv
T _ZN2v88internal8CodeStub12GenerateCodeEPNS0_14MacroAssemblerE
T _ZN2v88internal8CodeStub15FindCodeInCacheEPPNS0_4CodeE
T _ZN2v88internal8CodeStub20RecordCodeGenerationEPNS0_4CodeEPNS0_14MacroAssemblerE
T _ZN2v88internal8CodeStub7GetCodeEv
T _ZN2v88internal8CodeStub9MajorNameENS1_5MajorEb
T _ZN2v88internal8Compiler11CompileEvalENS0_6HandleINS0_6StringEEENS2_INS0_7ContextEEEbNS1_15ValidationStateE
T _ZN2v88internal8Compiler11CompileLazyEPNS0_15CompilationInfoE
T _ZN2v88internal8Compiler15SetFunctionInfoENS0_6HandleINS0_10JSFunctionEEEPNS0_15FunctionLiteralEbNS2_INS0_6ScriptEEE
T _ZN2v88internal8Compiler16BuildBoilerplateEPNS0_15FunctionLiteralENS0_6HandleINS0_6ScriptEEEPNS0_10AstVisitorE
T _ZN2v88internal8Compiler7CompileENS0_6HandleINS0_6StringEEENS2_INS0_6ObjectEEEiiPNS_9ExtensionEPNS0_14ScriptDataImplES6_NS0_11NativesFlagE
D _ZN2v88internal8Counters10call_constE
D _ZN2v88internal8Counters10code_stubsE
D _ZN2v88internal8Counters10gc_contextE
D _ZN2v88internal8Counters10math_atan2E
D _ZN2v88internal8Counters10math_floorE
D _ZN2v88internal8Counters10math_roundE
D _ZN2v88internal8Counters10parse_lazyE
D _ZN2v88internal8Counters12compile_evalE
D _ZN2v88internal8Counters12compile_lazyE
D _ZN2v88internal8Counters12gc_compactorE
D _ZN2v88internal8Counters12gc_scavengerE
D _ZN2v88internal8Counters12pcre_mallocsE
D _ZN2v88internal8Counters14global_handlesE
D _ZN2v88internal8Counters14state_countersE
D _ZN2v88internal8Counters14usage_analysisE
D _ZN2v88internal8Counters15code_generationE
D _ZN2v88internal8Counters15enum_cache_hitsE
D _ZN2v88internal8Counters15reloc_info_sizeE
D _ZN2v88internal8Counters15script_wrappersE
D _ZN2v88internal8Counters15total_eval_sizeE
D _ZN2v88internal8Counters15total_load_sizeE
D _ZN2v88internal8Counters16ast_optimizationE
D _ZN2v88internal8Counters16keyed_load_fieldE
D _ZN2v88internal8Counters16memory_allocatedE
D _ZN2v88internal8Counters16reloc_info_countE
D _ZN2v88internal8Counters16total_parse_sizeE
D _ZN2v88internal8Counters17call_normal_stubsE
D _ZN2v88internal8Counters17enum_cache_missesE
D _ZN2v88internal8Counters17keyed_load_inlineE
D _ZN2v88internal8Counters17keyed_store_fieldE
D _ZN2v88internal8Counters17named_load_inlineE
D _ZN2v88internal8Counters17number_of_symbolsE
D _ZN2v88internal8Counters17regexp_cache_hitsE
D _ZN2v88internal8Counters17string_add_nativeE
D _ZN2v88internal8Counters17sub_string_nativeE
D _ZN2v88internal8Counters18arguments_adaptorsE
D _ZN2v88internal8Counters18call_global_inlineE
D _ZN2v88internal8Counters18keyed_store_inlineE
D _ZN2v88internal8Counters18string_add_runtimeE
D _ZN2v88internal8Counters18sub_string_runtimeE
D _ZN2v88internal8Counters18total_compile_sizeE
D _ZN2v88internal8Counters18zone_segment_bytesE
D _ZN2v88internal8Counters19alive_after_last_gcE
D _ZN2v88internal8Counters19call_const_fast_apiE
D _ZN2v88internal8Counters19compute_entry_frameE
D _ZN2v88internal8Counters19constructed_objectsE
D _ZN2v88internal8Counters19keyed_load_callbackE
D _ZN2v88internal8Counters19props_to_dictionaryE
D _ZN2v88internal8Counters19regexp_cache_missesE
D _ZN2v88internal8Counters19regexp_entry_nativeE
D _ZN2v88internal8Counters19variable_allocationE
D _ZN2v88internal8Counters20objs_since_last_fullE
D _ZN2v88internal8Counters20regexp_entry_runtimeE
D _ZN2v88internal8Counters21array_function_nativeE
D _ZN2v88internal8Counters21call_initialize_stubsE
D _ZN2v88internal8Counters21objs_since_last_youngE
D _ZN2v88internal8Counters21string_compare_nativeE
D _ZN2v88internal8Counters21symbol_table_capacityE
D _ZN2v88internal8Counters21total_stubs_code_sizeE
D _ZN2v88internal8Counters22array_function_runtimeE
D _ZN2v88internal8Counters22call_const_interceptorE
D _ZN2v88internal8Counters22call_megamorphic_stubsE
D _ZN2v88internal8Counters22compilation_cache_hitsE
D _ZN2v88internal8Counters22elements_to_dictionaryE
D _ZN2v88internal8Counters22gc_last_resort_from_jsE
D _ZN2v88internal8Counters22keyed_load_generic_smiE
D _ZN2v88internal8Counters22keyed_load_inline_missE
D _ZN2v88internal8Counters22keyed_load_interceptorE
D _ZN2v88internal8Counters22named_load_inline_missE
D _ZN2v88internal8Counters22string_compare_runtimeE
D _ZN2v88internal8Counters22total_preparse_skippedE
D _ZN2v88internal8Counters23call_global_inline_missE
D _ZN2v88internal8Counters23keyed_load_array_lengthE
D _ZN2v88internal8Counters23keyed_load_generic_slowE
D _ZN2v88internal8Counters23keyed_store_inline_missE
D _ZN2v88internal8Counters23number_to_string_nativeE
D _ZN2v88internal8Counters24compilation_cache_missesE
D _ZN2v88internal8Counters24constructed_objects_stubE
D _ZN2v88internal8Counters24deferred_code_generationE
D _ZN2v88internal8Counters24keyed_load_string_lengthE
D _ZN2v88internal8Counters24named_load_global_inlineE
D _ZN2v88internal8Counters24number_to_string_runtimeE
D _ZN2v88internal8Counters24total_compiled_code_sizeE
D _ZN2v88internal8Counters24transcendental_cache_hitE
D _ZN2v88internal8Counters25call_premonomorphic_stubsE
D _ZN2v88internal8Counters25generic_binary_stub_callsE
D _ZN2v88internal8Counters25keyed_load_generic_symbolE
D _ZN2v88internal8Counters25named_store_global_inlineE
D _ZN2v88internal8Counters25transcendental_cache_missE
D _ZN2v88internal8Counters27constructed_objects_runtimeE
D _ZN2v88internal8Counters27gc_last_resort_from_handlesE
D _ZN2v88internal8Counters28contexts_created_by_snapshotE
D _ZN2v88internal8Counters28keyed_load_constant_functionE
D _ZN2v88internal8Counters29contexts_created_from_scratchE
D _ZN2v88internal8Counters29keyed_load_function_prototypeE
D _ZN2v88internal8Counters29named_load_global_inline_missE
D _ZN2v88internal8Counters29total_old_codegen_source_sizeE
D _ZN2v88internal8Counters30gc_compactor_caused_by_requestE
D _ZN2v88internal8Counters30generic_binary_stub_calls_regsE
D _ZN2v88internal8Counters30keyed_load_external_array_slowE
D _ZN2v88internal8Counters30named_store_global_inline_missE
D _ZN2v88internal8Counters30total_full_codegen_source_sizeE
D _ZN2v88internal8Counters31call_const_interceptor_fast_apiE
D _ZN2v88internal8Counters35gc_compactor_caused_by_weak_handlesE
D _ZN2v88internal8Counters36gc_compactor_caused_by_promoted_dataE
D _ZN2v88internal8Counters42gc_compactor_caused_by_oldspace_exhaustionE
D _ZN2v88internal8Counters5parseE
D _ZN2v88internal8Counters6for_inE
D _ZN2v88internal8Counters7compileE
D _ZN2v88internal8Counters8math_absE
D _ZN2v88internal8Counters8math_cosE
D _ZN2v88internal8Counters8math_expE
D _ZN2v88internal8Counters8math_logE
D _ZN2v88internal8Counters8math_powE
D _ZN2v88internal8Counters8math_sinE
D _ZN2v88internal8Counters8math_tanE
D _ZN2v88internal8Counters9math_acosE
D _ZN2v88internal8Counters9math_asinE
D _ZN2v88internal8Counters9math_atanE
D _ZN2v88internal8Counters9math_ceilE
D _ZN2v88internal8Counters9math_sqrtE
D _ZN2v88internal8Counters9pre_parseE
D _ZN2v88internal8Counters9rewritingE
T _ZN2v88internal8Debugger10StartAgentEPKcib
T _ZN2v88internal8Debugger11HasCommandsEv
T _ZN2v88internal8Debugger11OnExceptionENS0_6HandleINS0_6ObjectEEEb
T _ZN2v88internal8Debugger12MakeJSObjectENS0_6VectorIKcEEiPPPNS0_6ObjectEPb
T _ZN2v88internal8Debugger12OnDebugBreakENS0_6HandleINS0_6ObjectEEEb
T _ZN2v88internal8Debugger12WaitForAgentEv
T _ZN2v88internal8Debugger13OnNewFunctionENS0_6HandleINS0_10JSFunctionEEE
T _ZN2v88internal8Debugger14MakeBreakEventENS0_6HandleINS0_6ObjectEEES4_Pb
T _ZN2v88internal8Debugger14OnAfterCompileENS0_6HandleINS0_6ScriptEEENS2_INS0_10JSFunctionEEE
T _ZN2v88internal8Debugger14ProcessCommandENS0_6VectorIKtEEPNS_5Debug10ClientDataE
T _ZN2v88internal8Debugger14UnloadDebuggerEv
B _ZN2v88internal8Debugger14command_queue_E
T _ZN2v88internal8Debugger15OnBeforeCompileENS0_6HandleINS0_6ScriptEEE
B _ZN2v88internal8Debugger15event_listener_E
T _ZN2v88internal8Debugger16IsDebuggerActiveEv
T _ZN2v88internal8Debugger16ListenersChangedEv
T _ZN2v88internal8Debugger16MakeCompileEventENS0_6HandleINS0_6ScriptEEEbPb
T _ZN2v88internal8Debugger16SetEventListenerENS0_6HandleINS0_6ObjectEEES4_
B _ZN2v88internal8Debugger16debugger_access_E
B _ZN2v88internal8Debugger16message_handler_E
T _ZN2v88internal8Debugger17OnScriptCollectedEi
T _ZN2v88internal8Debugger17ProcessDebugEventENS_10DebugEventENS0_6HandleINS0_8JSObjectEEEb
T _ZN2v88internal8Debugger17SetMessageHandlerEPFvRKNS_5Debug7MessageEE
B _ZN2v88internal8Debugger17command_received_E
T _ZN2v88internal8Debugger18MakeExceptionEventENS0_6HandleINS0_6ObjectEEES4_bPb
T _ZN2v88internal8Debugger18MakeExecutionStateEPb
B _ZN2v88internal8Debugger18compiling_natives_E
T _ZN2v88internal8Debugger20InvokeMessageHandlerENS0_11MessageImplE
T _ZN2v88internal8Debugger20MakeNewFunctionEventENS0_6HandleINS0_6ObjectEEEPb
T _ZN2v88internal8Debugger20NotifyMessageHandlerENS_10DebugEventENS0_6HandleINS0_8JSObjectEEES5_b
B _ZN2v88internal8Debugger20event_listener_data_E
B _ZN2v88internal8Debugger20is_loading_debugger_E
D _ZN2v88internal8Debugger21host_dispatch_micros_E
T _ZN2v88internal8Debugger22SetHostDispatchHandlerEPFvvEi
B _ZN2v88internal8Debugger22host_dispatch_handler_E
B _ZN2v88internal8Debugger22never_unload_debugger_E
T _ZN2v88internal8Debugger24MakeScriptCollectedEventEiPb
B _ZN2v88internal8Debugger24debugger_unload_pending_E
B _ZN2v88internal8Debugger24dispatch_handler_access_E
T _ZN2v88internal8Debugger26CallMessageDispatchHandlerEv
T _ZN2v88internal8Debugger30SetDebugMessageDispatchHandlerEPFvvEb
B _ZN2v88internal8Debugger31debug_message_dispatch_handler_E
B _ZN2v88internal8Debugger31message_dispatch_helper_thread_E
T _ZN2v88internal8Debugger4CallENS0_6HandleINS0_10JSFunctionEEENS2_INS0_6ObjectEEEPb
B _ZN2v88internal8Debugger6agent_E
T _ZN2v88internal8Debugger9StopAgentEv
T _ZN2v88internal8FlagList13ResetAllFlagsEv
T _ZN2v88internal8FlagList18SetFlagsFromStringEPKci
T _ZN2v88internal8FlagList23SetFlagsFromCommandLineEPiPPcb
T _ZN2v88internal8FlagList4argvEv
T _ZN2v88internal8FlagList9PrintHelpEv
T _ZN2v88internal8GCTracer15CollectorStringEv
T _ZN2v88internal8GCTracerC1Ev
T _ZN2v88internal8GCTracerC2Ev
T _ZN2v88internal8GCTracerD1Ev
T _ZN2v88internal8GCTracerD2Ev
T _ZN2v88internal8HexValueEi
T _ZN2v88internal8JSObject10SetElementEjPNS0_6ObjectE
T _ZN2v88internal8JSObject10class_nameEv
T _ZN2v88internal8JSObject11AddPropertyEPNS0_6StringEPNS0_6ObjectE18PropertyAttributes
T _ZN2v88internal8JSObject11LocalLookupEPNS0_6StringEPNS0_12LookupResultE
T _ZN2v88internal8JSObject11SetPropertyEPNS0_12LookupResultEPNS0_6StringEPNS0_6ObjectE18PropertyAttributes
T _ZN2v88internal8JSObject11SetPropertyEPNS0_6StringEPNS0_6ObjectE18PropertyAttributes
T _ZN2v88internal8JSObject12IsSimpleEnumEv
T _ZN2v88internal8JSObject12SetPrototypeEPNS0_6ObjectEb
T _ZN2v88internal8JSObject13DeleteElementEjNS1_10DeleteModeE
T _ZN2v88internal8JSObject14DefineAccessorEPNS0_6StringEbPNS0_10JSFunctionE18PropertyAttributes
T _ZN2v88internal8JSObject14DeletePropertyEPNS0_6StringENS1_10DeleteModeE
T _ZN2v88internal8JSObject14LookupAccessorEPNS0_6StringEb
T _ZN2v88internal8JSObject14LookupCallbackEPNS0_6StringEPNS0_12LookupResultE
T _ZN2v88internal8JSObject14SetFastElementEjPNS0_6ObjectE
T _ZN2v88internal8JSObject15AddFastPropertyEPNS0_6StringEPNS0_6ObjectE18PropertyAttributes
T _ZN2v88internal8JSObject15AddSlowPropertyEPNS0_6StringEPNS0_6ObjectE18PropertyAttributes
T _ZN2v88internal8JSObject15HasLocalElementEj
T _ZN2v88internal8JSObject15SetFastElementsEPNS0_10FixedArrayE
T _ZN2v88internal8JSObject15SetSlowElementsEPNS0_6ObjectE
T _ZN2v88internal8JSObject16HasDenseElementsEv
T _ZN2v88internal8JSObject16ReferencesObjectEPNS0_6ObjectE
T _ZN2v88internal8JSObject16constructor_nameEv
T _ZN2v88internal8JSObject17NormalizeElementsEv
T _ZN2v88internal8JSObject17SetElementsLengthEPNS0_6ObjectE
T _ZN2v88internal8JSObject17SlowReverseLookupEPNS0_6ObjectE
T _ZN2v88internal8JSObject18DefineGetterSetterEPNS0_6StringE18PropertyAttributes
T _ZN2v88internal8JSObject18GetEnumElementKeysEPNS0_10FixedArrayE
T _ZN2v88internal8JSObject18JSObjectShortPrintEPNS0_12StringStreamE
T _ZN2v88internal8JSObject18LookupInDescriptorEPNS0_6StringEPNS0_12LookupResultE
T _ZN2v88internal8JSObject19GetLocalElementKeysEPNS0_10FixedArrayE18PropertyAttributes
T _ZN2v88internal8JSObject19GetNamedInterceptorEv
T _ZN2v88internal8JSObject19JSObjectIterateBodyEiPNS0_13ObjectVisitorE
T _ZN2v88internal8JSObject19NormalizePropertiesENS0_25PropertyNormalizationModeEi
T _ZN2v88internal8JSObject19ReplaceSlowPropertyEPNS0_6StringEPNS0_6ObjectE18PropertyAttributes
T _ZN2v88internal8JSObject20GetPropertyAttributeEPS1_PNS0_12LookupResultEPNS0_6StringEb
T _ZN2v88internal8JSObject20HasRealNamedPropertyEPNS0_6StringE
T _ZN2v88internal8JSObject20NumberOfEnumElementsEv
T _ZN2v88internal8JSObject21GetIndexedInterceptorEv
T _ZN2v88internal8JSObject21GetLocalPropertyNamesEPNS0_10FixedArrayEi
T _ZN2v88internal8JSObject21GetNormalizedPropertyEPNS0_12LookupResultE
T _ZN2v88internal8JSObject21NumberOfLocalElementsE18PropertyAttributes
T _ZN2v88internal8JSObject21SetNormalizedPropertyEPNS0_12LookupResultEPNS0_6ObjectE
T _ZN2v88internal8JSObject21SetNormalizedPropertyEPNS0_6StringEPNS0_6ObjectENS0_15PropertyDetailsE
T _ZN2v88internal8JSObject22GetElementWithReceiverEPS1_j
T _ZN2v88internal8JSObject22HasElementWithReceiverEPS1_j
T _ZN2v88internal8JSObject22HasRealElementPropertyEj
T _ZN2v88internal8JSObject22NumberOfEnumPropertiesEv
T _ZN2v88internal8JSObject22PrepareElementsForSortEj
T _ZN2v88internal8JSObject23AddFastPropertyUsingMapEPNS0_3MapEPNS0_6StringEPNS0_6ObjectE
T _ZN2v88internal8JSObject23LookupRealNamedPropertyEPNS0_6StringEPNS0_12LookupResultE
T _ZN2v88internal8JSObject23NumberOfLocalPropertiesE18PropertyAttributes
T _ZN2v88internal8JSObject23SetPropertyWithCallbackEPNS0_6ObjectEPNS0_6StringES3_PS1_
T _ZN2v88internal8JSObject24ConvertDescriptorToFieldEPNS0_6StringEPNS0_6ObjectE18PropertyAttributes
T _ZN2v88internal8JSObject24DeleteNormalizedPropertyEPNS0_6StringENS1_10DeleteModeE
T _ZN2v88internal8JSObject25GetElementPostInterceptorEPS1_j
T _ZN2v88internal8JSObject25GetElementWithInterceptorEPS1_j
T _ZN2v88internal8JSObject25GetLocalPropertyAttributeEPNS0_6StringE
T _ZN2v88internal8JSObject25HasElementPostInterceptorEPS1_j
T _ZN2v88internal8JSObject25HasElementWithInterceptorEPS1_j
T _ZN2v88internal8JSObject25SetElementWithInterceptorEjPNS0_6ObjectE
T _ZN2v88internal8JSObject25TransformToFastPropertiesEi
T _ZN2v88internal8JSObject26GetPropertyPostInterceptorEPS1_PNS0_6StringEP18PropertyAttributes
T _ZN2v88internal8JSObject26GetPropertyWithInterceptorEPS1_PNS0_6StringEP18PropertyAttributes
T _ZN2v88internal8JSObject26PrepareSlowElementsForSortEj
T _ZN2v88internal8JSObject26SetPropertyPostInterceptorEPNS0_6StringEPNS0_6ObjectE18PropertyAttributes
T _ZN2v88internal8JSObject26SetPropertyWithInterceptorEPNS0_6StringEPNS0_6ObjectE18PropertyAttributes
T _ZN2v88internal8JSObject27AddConstantFunctionPropertyEPNS0_6StringEPNS0_10JSFunctionE18PropertyAttributes
T _ZN2v88internal8JSObject27ShouldConvertToFastElementsEv
T _ZN2v88internal8JSObject27ShouldConvertToSlowElementsEi
T _ZN2v88internal8JSObject28DeleteElementPostInterceptorEjNS1_10DeleteModeE
T _ZN2v88internal8JSObject28DeleteElementWithInterceptorEj
T _ZN2v88internal8JSObject28HasRealNamedCallbackPropertyEPNS0_6StringE
T _ZN2v88internal8JSObject28LocalLookupRealNamedPropertyEPNS0_6StringEPNS0_12LookupResultE
T _ZN2v88internal8JSObject28SetElementWithoutInterceptorEjPNS0_6ObjectE
T _ZN2v88internal8JSObject28SetPropertyWithDefinedSetterEPNS0_10JSFunctionEPNS0_6ObjectE
T _ZN2v88internal8JSObject29DeletePropertyPostInterceptorEPNS0_6StringENS1_10DeleteModeE
T _ZN2v88internal8JSObject29DeletePropertyWithInterceptorEPNS0_6StringE
T _ZN2v88internal8JSObject31GetLocalPropertyPostInterceptorEPS1_PNS0_6StringEP18PropertyAttributes
T _ZN2v88internal8JSObject32GetPropertyAttributeWithReceiverEPS1_PNS0_6StringE
T _ZN2v88internal8JSObject32GetPropertyWithFailedAccessCheckEPNS0_6ObjectEPNS0_12LookupResultEPNS0_6StringEP18PropertyAttributes
T _ZN2v88internal8JSObject32LookupCallbackSetterInPrototypesEPNS0_6StringEPNS0_12LookupResultE
T _ZN2v88internal8JSObject32LookupCallbackSetterInPrototypesEj
T _ZN2v88internal8JSObject32SetPropertyWithFailedAccessCheckEPNS0_12LookupResultEPNS0_6StringEPNS0_6ObjectE
T _ZN2v88internal8JSObject35GetPropertyAttributePostInterceptorEPS1_PNS0_6StringEb
T _ZN2v88internal8JSObject35GetPropertyAttributeWithInterceptorEPS1_PNS0_6StringEb
T _ZN2v88internal8JSObject35IgnoreAttributesAndSetLocalPropertyEPNS0_6StringEPNS0_6ObjectE18PropertyAttributes
T _ZN2v88internal8JSObject35LookupRealNamedPropertyInPrototypesEPNS0_6StringEPNS0_12LookupResultE
T _ZN2v88internal8JSObject40ConvertDescriptorToFieldAndMapTransitionEPNS0_6StringEPNS0_6ObjectE18PropertyAttributes
T _ZN2v88internal8JSObject41GetPropertyAttributeWithFailedAccessCheckEPNS0_6ObjectEPNS0_12LookupResultEPNS0_6StringEb
T _ZN2v88internal8JSObject6LookupEPNS0_6StringEPNS0_12LookupResultE
T _ZN2v88internal8JSObject7IsDirtyEv
T _ZN2v88internal8Malloced23FatalProcessOutOfMemoryEv
T _ZN2v88internal8Malloced3NewEj
T _ZN2v88internal8Malloced6DeleteEPv
T _ZN2v88internal8MapCache3PutEPNS0_10FixedArrayEPNS0_3MapE
T _ZN2v88internal8MapCache6LookupEPNS0_10FixedArrayE
T _ZN2v88internal8MapSpace21PrepareForMarkCompactEb
T _ZN2v88internal8NewSpace12ReserveSpaceEi
T _ZN2v88internal8NewSpace19ResetAllocationInfoEv
T _ZN2v88internal8NewSpace21MCResetRelocationInfoEv
T _ZN2v88internal8NewSpace22MCCommitRelocationInfoEv
T _ZN2v88internal8NewSpace4FlipEv
T _ZN2v88internal8NewSpace4GrowEv
T _ZN2v88internal8NewSpace5SetupEPhi
T _ZN2v88internal8NewSpace6ShrinkEv
T _ZN2v88internal8NewSpace8TearDownEv
T _ZN2v88internal8OldSpace15SlowAllocateRawEi
T _ZN2v88internal8OldSpace18AllocateInNextPageEPNS0_4PageEi
T _ZN2v88internal8OldSpace21PrepareForMarkCompactEb
T _ZN2v88internal8OldSpace22MCCommitRelocationInfoEv
T _ZN2v88internal8OldSpace30PutRestOfCurrentPageOnFreeListEPNS0_4PageE
T _ZN2v88internal8PreParseENS0_6HandleINS0_6StringEEEPN7unibrow15CharacterStreamEPNS_9ExtensionE
B _ZN2v88internal8Property14this_property_E
T _ZN2v88internal8Property6AcceptEPNS0_10AstVisitorE
T _ZN2v88internal8ReadFileEPKcPbb
T _ZN2v88internal8ReadLineEPKc
T _ZN2v88internal8Rewriter7ProcessEPNS0_15FunctionLiteralE
T _ZN2v88internal8Rewriter8OptimizeEPNS0_15FunctionLiteralE
T _ZN2v88internal8Snapshot10InitializeEPKc
T _ZN2v88internal8Snapshot11DeserializeEPKhi
R _ZN2v88internal8Snapshot13context_data_E
R _ZN2v88internal8Snapshot13context_size_E
R _ZN2v88internal8Snapshot15map_space_used_E
R _ZN2v88internal8Snapshot15new_space_used_E
R _ZN2v88internal8Snapshot16cell_space_used_E
R _ZN2v88internal8Snapshot16code_space_used_E
R _ZN2v88internal8Snapshot16data_space_used_E
R _ZN2v88internal8Snapshot17large_space_used_E
R _ZN2v88internal8Snapshot19pointer_space_used_E
T _ZN2v88internal8Snapshot22NewContextFromSnapshotEv
R _ZN2v88internal8Snapshot5data_E
R _ZN2v88internal8Snapshot5size_E
T _ZN2v88internal8TenToTheEi
T _ZN2v88internal8TextNode11EatsAtLeastEii
T _ZN2v88internal8TextNode12TextEmitPassEPNS0_14RegExpCompilerENS1_16TextEmitPassTypeEbPNS0_5TraceEbPi
T _ZN2v88internal8TextNode16CalculateOffsetsEv
T _ZN2v88internal8TextNode19MakeCaseIndependentEb
T _ZN2v88internal8TextNode20GetQuickCheckDetailsEPNS0_17QuickCheckDetailsEPNS0_14RegExpCompilerEib
T _ZN2v88internal8TextNode20GreedyLoopTextLengthEv
T _ZN2v88internal8TextNode24ComputeFirstCharacterSetEi
T _ZN2v88internal8TextNode4EmitEPNS0_14RegExpCompilerEPNS0_5TraceE
T _ZN2v88internal8TextNode6AcceptEPNS0_11NodeVisitorE
T _ZN2v88internal8TextNode6LengthEv
T _ZN2v88internal8TextNode8SkipPassEib
T _ZN2v88internal8UseCount10RecordReadEi
T _ZN2v88internal8UseCount10RecordUsesEPS1_
T _ZN2v88internal8UseCount11RecordWriteEi
T _ZN2v88internal8UseCount12RecordAccessEi
T _ZN2v88internal8UseCountC1Ev
T _ZN2v88internal8UseCountC2Ev
T _ZN2v88internal8Variable10AsPropertyEv
T _ZN2v88internal8Variable10AsVariableEv
T _ZN2v88internal8Variable11Mode2StringENS1_4ModeE
T _ZN2v88internal8VariableC1EPNS0_5ScopeENS0_6HandleINS0_6StringEEENS1_4ModeEbNS1_4KindE
T _ZN2v88internal8VariableC2EPNS0_5ScopeENS0_6HandleINS0_6StringEEENS1_4ModeEbNS1_4KindE
B _ZN2v88internal8kMovLrPcE
D _ZN2v88internal9Accessors10ScriptDataE
D _ZN2v88internal9Accessors10ScriptNameE
D _ZN2v88internal9Accessors10ScriptTypeE
D _ZN2v88internal9Accessors11ArrayLengthE
T _ZN2v88internal9Accessors11ScriptGetIdEPNS0_6ObjectEPv
D _ZN2v88internal9Accessors12FunctionNameE
D _ZN2v88internal9Accessors12ScriptSourceE
D _ZN2v88internal9Accessors12StringLengthE
T _ZN2v88internal9Accessors13FlattenNumberEPNS0_6ObjectE
T _ZN2v88internal9Accessors13IllegalSetterEPNS0_8JSObjectEPNS0_6ObjectEPv
T _ZN2v88internal9Accessors13ScriptGetDataEPNS0_6ObjectEPv
T _ZN2v88internal9Accessors13ScriptGetNameEPNS0_6ObjectEPv
T _ZN2v88internal9Accessors13ScriptGetTypeEPNS0_6ObjectEPv
T _ZN2v88internal9Accessors14ArrayGetLengthEPNS0_6ObjectEPv
T _ZN2v88internal9Accessors14ArraySetLengthEPNS0_8JSObjectEPNS0_6ObjectEPv
D _ZN2v88internal9Accessors14FunctionCallerE
D _ZN2v88internal9Accessors14FunctionLengthE
D _ZN2v88internal9Accessors14ScriptLineEndsE
T _ZN2v88internal9Accessors15FunctionGetNameEPNS0_6ObjectEPv
D _ZN2v88internal9Accessors15ObjectPrototypeE
T _ZN2v88internal9Accessors15ScriptGetSourceEPNS0_6ObjectEPv
T _ZN2v88internal9Accessors15StringGetLengthEPNS0_6ObjectEPv
D _ZN2v88internal9Accessors16ScriptLineOffsetE
D _ZN2v88internal9Accessors17FunctionArgumentsE
T _ZN2v88internal9Accessors17FunctionGetCallerEPNS0_6ObjectEPv
T _ZN2v88internal9Accessors17FunctionGetLengthEPNS0_6ObjectEPv
D _ZN2v88internal9Accessors17FunctionPrototypeE
D _ZN2v88internal9Accessors17ScriptContextDataE
T _ZN2v88internal9Accessors17ScriptGetLineEndsEPNS0_6ObjectEPv
T _ZN2v88internal9Accessors18IllegalGetAccessorEPNS0_6ObjectEPv
T _ZN2v88internal9Accessors18ObjectGetPrototypeEPNS0_6ObjectEPv
T _ZN2v88internal9Accessors18ObjectSetPrototypeEPNS0_8JSObjectEPNS0_6ObjectEPv
D _ZN2v88internal9Accessors18ScriptColumnOffsetE
T _ZN2v88internal9Accessors19ReadOnlySetAccessorEPNS0_8JSObjectEPNS0_6ObjectEPv
T _ZN2v88internal9Accessors19ScriptGetLineOffsetEPNS0_6ObjectEPv
T _ZN2v88internal9Accessors20FunctionGetArgumentsEPNS0_6ObjectEPv
T _ZN2v88internal9Accessors20FunctionGetPrototypeEPNS0_6ObjectEPv
T _ZN2v88internal9Accessors20FunctionSetPrototypeEPNS0_8JSObjectEPNS0_6ObjectEPv
D _ZN2v88internal9Accessors20ScriptEvalFromScriptE
T _ZN2v88internal9Accessors20ScriptGetContextDataEPNS0_6ObjectEPv
D _ZN2v88internal9Accessors21ScriptCompilationTypeE
T _ZN2v88internal9Accessors21ScriptGetColumnOffsetEPNS0_6ObjectEPv
T _ZN2v88internal9Accessors23ScriptGetEvalFromScriptEPNS0_6ObjectEPv
T _ZN2v88internal9Accessors24ScriptGetCompilationTypeEPNS0_6ObjectEPv
D _ZN2v88internal9Accessors26ScriptEvalFromFunctionNameE
D _ZN2v88internal9Accessors28ScriptEvalFromScriptPositionE
T _ZN2v88internal9Accessors29ScriptGetEvalFromFunctionNameEPNS0_6ObjectEPv
T _ZN2v88internal9Accessors31ScriptGetEvalFromScriptPositionEPNS0_6ObjectEPv
D _ZN2v88internal9Accessors8ScriptIdE
T _ZN2v88internal9AllSpaces4nextEv
T _ZN2v88internal9Assembler10GrowBufferEv
T _ZN2v88internal9Assembler12label_at_putEPNS0_5LabelEi
T _ZN2v88internal9Assembler13RecordCommentEPKc
T _ZN2v88internal9Assembler13branch_offsetEPNS0_5LabelEb
T _ZN2v88internal9Assembler13target_at_putEii
T _ZN2v88internal9Assembler14CheckConstPoolEbb
T _ZN2v88internal9Assembler14RecordJSReturnEv
T _ZN2v88internal9Assembler14RecordPositionEi
T _ZN2v88internal9Assembler15RecordRelocInfoENS0_9RelocInfo4ModeEi
T _ZN2v88internal9Assembler17BlockConstPoolForEi
T _ZN2v88internal9Assembler1bEiNS0_9ConditionE
T _ZN2v88internal9Assembler22WriteRecordedPositionsEv
T _ZN2v88internal9Assembler23RecordStatementPositionEi
T _ZN2v88internal9Assembler2blEiNS0_9ConditionE
T _ZN2v88internal9Assembler2bxENS0_8RegisterENS0_9ConditionE
T _ZN2v88internal9Assembler33ImmediateFitsAddrMode1InstructionEi
T _ZN2v88internal9Assembler3adcENS0_8RegisterES2_RKNS0_7OperandENS0_4SBitENS0_9ConditionE
T _ZN2v88internal9Assembler3addENS0_8RegisterES2_RKNS0_7OperandENS0_4SBitENS0_9ConditionE
T _ZN2v88internal9Assembler3bicENS0_8RegisterES2_RKNS0_7OperandENS0_4SBitENS0_9ConditionE
T _ZN2v88internal9Assembler3blxENS0_8RegisterENS0_9ConditionE
T _ZN2v88internal9Assembler3blxEi
T _ZN2v88internal9Assembler3cdpENS0_11CoprocessorEiNS0_9CRegisterES3_S3_iNS0_9ConditionE
T _ZN2v88internal9Assembler3clzENS0_8RegisterES2_NS0_9ConditionE
T _ZN2v88internal9Assembler3cmnENS0_8RegisterERKNS0_7OperandENS0_9ConditionE
T _ZN2v88internal9Assembler3cmpENS0_8RegisterERKNS0_7OperandENS0_9ConditionE
T _ZN2v88internal9Assembler3eorENS0_8RegisterES2_RKNS0_7OperandENS0_4SBitENS0_9ConditionE
T _ZN2v88internal9Assembler3ldcENS0_11CoprocessorENS0_9CRegisterENS0_8RegisterEiNS0_5LFlagENS0_9ConditionE
T _ZN2v88internal9Assembler3ldcENS0_11CoprocessorENS0_9CRegisterERKNS0_10MemOperandENS0_5LFlagENS0_9ConditionE
T _ZN2v88internal9Assembler3ldmENS0_13BlockAddrModeENS0_8RegisterEjNS0_9ConditionE
T _ZN2v88internal9Assembler3ldrENS0_8RegisterERKNS0_10MemOperandENS0_9ConditionE
T _ZN2v88internal9Assembler3leaENS0_8RegisterERKNS0_10MemOperandENS0_4SBitENS0_9ConditionE
T _ZN2v88internal9Assembler3mcrENS0_11CoprocessorEiNS0_8RegisterENS0_9CRegisterES4_iNS0_9ConditionE
T _ZN2v88internal9Assembler3mlaENS0_8RegisterES2_S2_S2_NS0_4SBitENS0_9ConditionE
T _ZN2v88internal9Assembler3movENS0_8RegisterERKNS0_7OperandENS0_4SBitENS0_9ConditionE
T _ZN2v88internal9Assembler3mrcENS0_11CoprocessorEiNS0_8RegisterENS0_9CRegisterES4_iNS0_9ConditionE
T _ZN2v88internal9Assembler3mrsENS0_8RegisterENS0_9SRegisterENS0_9ConditionE
T _ZN2v88internal9Assembler3msrEjRKNS0_7OperandENS0_9ConditionE
T _ZN2v88internal9Assembler3mulENS0_8RegisterES2_S2_NS0_4SBitENS0_9ConditionE
T _ZN2v88internal9Assembler3mvnENS0_8RegisterERKNS0_7OperandENS0_4SBitENS0_9ConditionE
T _ZN2v88internal9Assembler3orrENS0_8RegisterES2_RKNS0_7OperandENS0_4SBitENS0_9ConditionE
T _ZN2v88internal9Assembler3rsbENS0_8RegisterES2_RKNS0_7OperandENS0_4SBitENS0_9ConditionE
T _ZN2v88internal9Assembler3rscENS0_8RegisterES2_RKNS0_7OperandENS0_4SBitENS0_9ConditionE
T _ZN2v88internal9Assembler3sbcENS0_8RegisterES2_RKNS0_7OperandENS0_4SBitENS0_9ConditionE
T _ZN2v88internal9Assembler3stcENS0_11CoprocessorENS0_9CRegisterENS0_8RegisterEiNS0_5LFlagENS0_9ConditionE
T _ZN2v88internal9Assembler3stcENS0_11CoprocessorENS0_9CRegisterERKNS0_10MemOperandENS0_5LFlagENS0_9ConditionE
T _ZN2v88internal9Assembler3stmENS0_13BlockAddrModeENS0_8RegisterEjNS0_9ConditionE
T _ZN2v88internal9Assembler3strENS0_8RegisterERKNS0_10MemOperandENS0_9ConditionE
T _ZN2v88internal9Assembler3subENS0_8RegisterES2_RKNS0_7OperandENS0_4SBitENS0_9ConditionE
T _ZN2v88internal9Assembler3swiEjNS0_9ConditionE
T _ZN2v88internal9Assembler3swpENS0_8RegisterES2_S2_NS0_9ConditionE
T _ZN2v88internal9Assembler3teqENS0_8RegisterERKNS0_7OperandENS0_9ConditionE
T _ZN2v88internal9Assembler3tstENS0_8RegisterERKNS0_7OperandENS0_9ConditionE
T _ZN2v88internal9Assembler4and_ENS0_8RegisterES2_RKNS0_7OperandENS0_4SBitENS0_9ConditionE
T _ZN2v88internal9Assembler4bindEPNS0_5LabelE
T _ZN2v88internal9Assembler4bkptEj
T _ZN2v88internal9Assembler4cdp2ENS0_11CoprocessorEiNS0_9CRegisterES3_S3_i
T _ZN2v88internal9Assembler4ldc2ENS0_11CoprocessorENS0_9CRegisterENS0_8RegisterEiNS0_5LFlagE
T _ZN2v88internal9Assembler4ldc2ENS0_11CoprocessorENS0_9CRegisterERKNS0_10MemOperandENS0_5LFlagE
T _ZN2v88internal9Assembler4ldrbENS0_8RegisterERKNS0_10MemOperandENS0_9ConditionE
T _ZN2v88internal9Assembler4ldrhENS0_8RegisterERKNS0_10MemOperandENS0_9ConditionE
T _ZN2v88internal9Assembler4mcr2ENS0_11CoprocessorEiNS0_8RegisterENS0_9CRegisterES4_i
T _ZN2v88internal9Assembler4mrc2ENS0_11CoprocessorEiNS0_8RegisterENS0_9CRegisterES4_i
T _ZN2v88internal9Assembler4nextEPNS0_5LabelE
T _ZN2v88internal9Assembler4stc2ENS0_11CoprocessorENS0_9CRegisterENS0_8RegisterEiNS0_5LFlagE
T _ZN2v88internal9Assembler4stc2ENS0_11CoprocessorENS0_9CRegisterERKNS0_10MemOperandENS0_5LFlagE
T _ZN2v88internal9Assembler4stopEPKc
T _ZN2v88internal9Assembler4strbENS0_8RegisterERKNS0_10MemOperandENS0_9ConditionE
T _ZN2v88internal9Assembler4strhENS0_8RegisterERKNS0_10MemOperandENS0_9ConditionE
T _ZN2v88internal9Assembler4swpbENS0_8RegisterES2_S2_NS0_9ConditionE
T _ZN2v88internal9Assembler4ubfxENS0_8RegisterES2_RKNS0_7OperandES5_NS0_9ConditionE
T _ZN2v88internal9Assembler4vaddENS0_13DwVfpRegisterES2_S2_NS0_9ConditionE
T _ZN2v88internal9Assembler4vcmpENS0_13DwVfpRegisterES2_NS0_4SBitENS0_9ConditionE
T _ZN2v88internal9Assembler4vcvtENS0_13DwVfpRegisterENS0_13SwVfpRegisterENS0_9ConditionE
T _ZN2v88internal9Assembler4vcvtENS0_13SwVfpRegisterENS0_13DwVfpRegisterENS0_9ConditionE
T _ZN2v88internal9Assembler4vdivENS0_13DwVfpRegisterES2_S2_NS0_9ConditionE
T _ZN2v88internal9Assembler4vldrENS0_13DwVfpRegisterENS0_8RegisterEiNS0_9ConditionE
T _ZN2v88internal9Assembler4vmovENS0_13DwVfpRegisterENS0_8RegisterES3_NS0_9ConditionE
T _ZN2v88internal9Assembler4vmovENS0_13SwVfpRegisterENS0_8RegisterENS0_9ConditionE
T _ZN2v88internal9Assembler4vmovENS0_8RegisterENS0_13SwVfpRegisterENS0_9ConditionE
T _ZN2v88internal9Assembler4vmovENS0_8RegisterES2_NS0_13DwVfpRegisterENS0_9ConditionE
T _ZN2v88internal9Assembler4vmrsENS0_8RegisterENS0_9ConditionE
T _ZN2v88internal9Assembler4vmulENS0_13DwVfpRegisterES2_S2_NS0_9ConditionE
T _ZN2v88internal9Assembler4vstrENS0_13DwVfpRegisterENS0_8RegisterEiNS0_9ConditionE
T _ZN2v88internal9Assembler4vsubENS0_13DwVfpRegisterES2_S2_NS0_9ConditionE
T _ZN2v88internal9Assembler5AlignEi
T _ZN2v88internal9Assembler5ldrsbENS0_8RegisterERKNS0_10MemOperandENS0_9ConditionE
T _ZN2v88internal9Assembler5ldrshENS0_8RegisterERKNS0_10MemOperandENS0_9ConditionE
T _ZN2v88internal9Assembler5printEPNS0_5LabelE
T _ZN2v88internal9Assembler5smlalENS0_8RegisterES2_S2_S2_NS0_4SBitENS0_9ConditionE
T _ZN2v88internal9Assembler5smullENS0_8RegisterES2_S2_S2_NS0_4SBitENS0_9ConditionE
T _ZN2v88internal9Assembler5umlalENS0_8RegisterES2_S2_S2_NS0_4SBitENS0_9ConditionE
T _ZN2v88internal9Assembler5umullENS0_8RegisterES2_S2_S2_NS0_4SBitENS0_9ConditionE
T _ZN2v88internal9Assembler7GetCodeEPNS0_8CodeDescE
T _ZN2v88internal9Assembler7bind_toEPNS0_5LabelEi
T _ZN2v88internal9Assembler7link_toEPNS0_5LabelES3_
T _ZN2v88internal9Assembler8addrmod1EiNS0_8RegisterES2_RKNS0_7OperandE
T _ZN2v88internal9Assembler8addrmod2EiNS0_8RegisterERKNS0_10MemOperandE
T _ZN2v88internal9Assembler8addrmod3EiNS0_8RegisterERKNS0_10MemOperandE
T _ZN2v88internal9Assembler8addrmod4EiNS0_8RegisterEj
T _ZN2v88internal9Assembler8addrmod5EiNS0_9CRegisterERKNS0_10MemOperandE
T _ZN2v88internal9Assembler9target_atEi
T _ZN2v88internal9AssemblerC1EPvi
T _ZN2v88internal9AssemblerC2EPvi
T _ZN2v88internal9AssemblerD1Ev
T _ZN2v88internal9AssemblerD2Ev
B _ZN2v88internal9CodeRange10free_list_E
B _ZN2v88internal9CodeRange11code_range_E
T _ZN2v88internal9CodeRange13FreeRawMemoryEPvj
B _ZN2v88internal9CodeRange16allocation_list_E
T _ZN2v88internal9CodeRange17AllocateRawMemoryEjPj
T _ZN2v88internal9CodeRange22GetNextAllocationBlockEj
T _ZN2v88internal9CodeRange23CompareFreeBlockAddressEPKNS1_9FreeBlockES4_
B _ZN2v88internal9CodeRange31current_allocation_block_index_E
T _ZN2v88internal9CodeRange5SetupEj
T _ZN2v88internal9CodeRange8TearDownEv
T _ZN2v88internal9DebugInfo13HasBreakPointEi
T _ZN2v88internal9DebugInfo13SetBreakPointENS0_6HandleIS1_EEiiiNS2_INS0_6ObjectEEE
T _ZN2v88internal9DebugInfo15ClearBreakPointENS0_6HandleIS1_EEiNS2_INS0_6ObjectEEE
T _ZN2v88internal9DebugInfo17GetBreakPointInfoEi
T _ZN2v88internal9DebugInfo18FindBreakPointInfoENS0_6HandleIS1_EENS2_INS0_6ObjectEEE
T _ZN2v88internal9DebugInfo18GetBreakPointCountEv
T _ZN2v88internal9DebugInfo20GetBreakPointObjectsEi
T _ZN2v88internal9DebugInfo22GetBreakPointInfoIndexEi
T _ZN2v88internal9Execution14ToDetailStringENS0_6HandleINS0_6ObjectEEEPb
T _ZN2v88internal9Execution16DebugBreakHelperEv
T _ZN2v88internal9Execution17ConfigureInstanceENS0_6HandleINS0_6ObjectEEES4_Pb
T _ZN2v88internal9Execution17GetStackTraceLineENS0_6HandleINS0_6ObjectEEENS2_INS0_10JSFunctionEEES4_S4_
T _ZN2v88internal9Execution17InstantiateObjectENS0_6HandleINS0_18ObjectTemplateInfoEEEPb
T _ZN2v88internal9Execution19GetFunctionDelegateENS0_6HandleINS0_6ObjectEEE
T _ZN2v88internal9Execution19InstantiateFunctionENS0_6HandleINS0_20FunctionTemplateInfoEEEPb
T _ZN2v88internal9Execution21ProcessDebugMesssagesEb
T _ZN2v88internal9Execution22GetConstructorDelegateENS0_6HandleINS0_6ObjectEEE
T _ZN2v88internal9Execution25HandleStackGuardInterruptEv
T _ZN2v88internal9Execution3NewENS0_6HandleINS0_10JSFunctionEEEiPPPNS0_6ObjectEPb
T _ZN2v88internal9Execution4CallENS0_6HandleINS0_10JSFunctionEEENS2_INS0_6ObjectEEEiPPPS5_Pb
T _ZN2v88internal9Execution6CharAtENS0_6HandleINS0_6StringEEEj
T _ZN2v88internal9Execution7NewDateEdPb
T _ZN2v88internal9Execution7ToInt32ENS0_6HandleINS0_6ObjectEEEPb
T _ZN2v88internal9Execution7TryCallENS0_6HandleINS0_10JSFunctionEEENS2_INS0_6ObjectEEEiPPPS5_Pb
T _ZN2v88internal9Execution8ToNumberENS0_6HandleINS0_6ObjectEEEPb
T _ZN2v88internal9Execution8ToObjectENS0_6HandleINS0_6ObjectEEEPb
T _ZN2v88internal9Execution8ToStringENS0_6HandleINS0_6ObjectEEEPb
T _ZN2v88internal9Execution8ToUint32ENS0_6HandleINS0_6ObjectEEEPb
T _ZN2v88internal9Execution9ToBooleanENS0_6HandleINS0_6ObjectEEE
T _ZN2v88internal9Execution9ToIntegerENS0_6HandleINS0_6ObjectEEEPb
T _ZN2v88internal9ExitFrame23GetStateForFramePointerEPhPNS0_10StackFrame5StateE
B _ZN2v88internal9FLAG_helpE
D _ZN2v88internal9FLAG_lazyE
W _ZN2v88internal9HashTableINS0_13MapCacheShapeEPNS0_12HashTableKeyEE10FirstProbeEjj
W _ZN2v88internal9HashTableINS0_13MapCacheShapeEPNS0_12HashTableKeyEE11SetCapacityEi
W _ZN2v88internal9HashTableINS0_13MapCacheShapeEPNS0_12HashTableKeyEE12ElementAddedEv
W _ZN2v88internal9HashTableINS0_13MapCacheShapeEPNS0_12HashTableKeyEE12EntryToIndexEi
W _ZN2v88internal9HashTableINS0_13MapCacheShapeEPNS0_12HashTableKeyEE13IteratePrefixEPNS0_13ObjectVisitorE
W _ZN2v88internal9HashTableINS0_13MapCacheShapeEPNS0_12HashTableKeyEE14ElementRemovedEv
W _ZN2v88internal9HashTableINS0_13MapCacheShapeEPNS0_12HashTableKeyEE14EnsureCapacityEiS4_
W _ZN2v88internal9HashTableINS0_13MapCacheShapeEPNS0_12HashTableKeyEE14GetProbeOffsetEj
W _ZN2v88internal9HashTableINS0_13MapCacheShapeEPNS0_12HashTableKeyEE15ElementsRemovedEi
W _ZN2v88internal9HashTableINS0_13MapCacheShapeEPNS0_12HashTableKeyEE15IterateElementsEPNS0_13ObjectVisitorE
W _ZN2v88internal9HashTableINS0_13MapCacheShapeEPNS0_12HashTableKeyEE16NumberOfElementsEv
W _ZN2v88internal9HashTableINS0_13MapCacheShapeEPNS0_12HashTableKeyEE18FindInsertionEntryEj
W _ZN2v88internal9HashTableINS0_13MapCacheShapeEPNS0_12HashTableKeyEE19SetNumberOfElementsEi
W _ZN2v88internal9HashTableINS0_13MapCacheShapeEPNS0_12HashTableKeyEE23NumberOfDeletedElementsEv
W _ZN2v88internal9HashTableINS0_13MapCacheShapeEPNS0_12HashTableKeyEE26SetNumberOfDeletedElementsEi
W _ZN2v88internal9HashTableINS0_13MapCacheShapeEPNS0_12HashTableKeyEE4castEPNS0_6ObjectE
W _ZN2v88internal9HashTableINS0_13MapCacheShapeEPNS0_12HashTableKeyEE5IsKeyEPNS0_6ObjectE
W _ZN2v88internal9HashTableINS0_13MapCacheShapeEPNS0_12HashTableKeyEE5KeyAtEi
W _ZN2v88internal9HashTableINS0_13MapCacheShapeEPNS0_12HashTableKeyEE8AllocateEi
W _ZN2v88internal9HashTableINS0_13MapCacheShapeEPNS0_12HashTableKeyEE8CapacityEv
W _ZN2v88internal9HashTableINS0_13MapCacheShapeEPNS0_12HashTableKeyEE8GetProbeEjjj
W _ZN2v88internal9HashTableINS0_13MapCacheShapeEPNS0_12HashTableKeyEE9FindEntryES4_
W _ZN2v88internal9HashTableINS0_13MapCacheShapeEPNS0_12HashTableKeyEE9NextProbeEjjj
W _ZN2v88internal9HashTableINS0_16SymbolTableShapeEPNS0_12HashTableKeyEE10FirstProbeEjj
W _ZN2v88internal9HashTableINS0_16SymbolTableShapeEPNS0_12HashTableKeyEE11SetCapacityEi
W _ZN2v88internal9HashTableINS0_16SymbolTableShapeEPNS0_12HashTableKeyEE12ElementAddedEv
W _ZN2v88internal9HashTableINS0_16SymbolTableShapeEPNS0_12HashTableKeyEE12EntryToIndexEi
W _ZN2v88internal9HashTableINS0_16SymbolTableShapeEPNS0_12HashTableKeyEE13IteratePrefixEPNS0_13ObjectVisitorE
W _ZN2v88internal9HashTableINS0_16SymbolTableShapeEPNS0_12HashTableKeyEE14ElementRemovedEv
W _ZN2v88internal9HashTableINS0_16SymbolTableShapeEPNS0_12HashTableKeyEE14EnsureCapacityEiS4_
W _ZN2v88internal9HashTableINS0_16SymbolTableShapeEPNS0_12HashTableKeyEE14GetProbeOffsetEj
W _ZN2v88internal9HashTableINS0_16SymbolTableShapeEPNS0_12HashTableKeyEE15ElementsRemovedEi
W _ZN2v88internal9HashTableINS0_16SymbolTableShapeEPNS0_12HashTableKeyEE15IterateElementsEPNS0_13ObjectVisitorE
W _ZN2v88internal9HashTableINS0_16SymbolTableShapeEPNS0_12HashTableKeyEE16NumberOfElementsEv
W _ZN2v88internal9HashTableINS0_16SymbolTableShapeEPNS0_12HashTableKeyEE18FindInsertionEntryEj
W _ZN2v88internal9HashTableINS0_16SymbolTableShapeEPNS0_12HashTableKeyEE19SetNumberOfElementsEi
W _ZN2v88internal9HashTableINS0_16SymbolTableShapeEPNS0_12HashTableKeyEE23NumberOfDeletedElementsEv
W _ZN2v88internal9HashTableINS0_16SymbolTableShapeEPNS0_12HashTableKeyEE26SetNumberOfDeletedElementsEi
W _ZN2v88internal9HashTableINS0_16SymbolTableShapeEPNS0_12HashTableKeyEE4castEPNS0_6ObjectE
W _ZN2v88internal9HashTableINS0_16SymbolTableShapeEPNS0_12HashTableKeyEE5IsKeyEPNS0_6ObjectE
W _ZN2v88internal9HashTableINS0_16SymbolTableShapeEPNS0_12HashTableKeyEE5KeyAtEi
W _ZN2v88internal9HashTableINS0_16SymbolTableShapeEPNS0_12HashTableKeyEE8AllocateEi
W _ZN2v88internal9HashTableINS0_16SymbolTableShapeEPNS0_12HashTableKeyEE8CapacityEv
W _ZN2v88internal9HashTableINS0_16SymbolTableShapeEPNS0_12HashTableKeyEE8GetProbeEjjj
W _ZN2v88internal9HashTableINS0_16SymbolTableShapeEPNS0_12HashTableKeyEE9FindEntryES4_
W _ZN2v88internal9HashTableINS0_16SymbolTableShapeEPNS0_12HashTableKeyEE9NextProbeEjjj
W _ZN2v88internal9HashTableINS0_21CompilationCacheShapeEPNS0_12HashTableKeyEE10FirstProbeEjj
W _ZN2v88internal9HashTableINS0_21CompilationCacheShapeEPNS0_12HashTableKeyEE11SetCapacityEi
W _ZN2v88internal9HashTableINS0_21CompilationCacheShapeEPNS0_12HashTableKeyEE12ElementAddedEv
W _ZN2v88internal9HashTableINS0_21CompilationCacheShapeEPNS0_12HashTableKeyEE12EntryToIndexEi
W _ZN2v88internal9HashTableINS0_21CompilationCacheShapeEPNS0_12HashTableKeyEE13IteratePrefixEPNS0_13ObjectVisitorE
W _ZN2v88internal9HashTableINS0_21CompilationCacheShapeEPNS0_12HashTableKeyEE14ElementRemovedEv
W _ZN2v88internal9HashTableINS0_21CompilationCacheShapeEPNS0_12HashTableKeyEE14EnsureCapacityEiS4_
W _ZN2v88internal9HashTableINS0_21CompilationCacheShapeEPNS0_12HashTableKeyEE14GetProbeOffsetEj
W _ZN2v88internal9HashTableINS0_21CompilationCacheShapeEPNS0_12HashTableKeyEE15ElementsRemovedEi
W _ZN2v88internal9HashTableINS0_21CompilationCacheShapeEPNS0_12HashTableKeyEE15IterateElementsEPNS0_13ObjectVisitorE
W _ZN2v88internal9HashTableINS0_21CompilationCacheShapeEPNS0_12HashTableKeyEE16NumberOfElementsEv
W _ZN2v88internal9HashTableINS0_21CompilationCacheShapeEPNS0_12HashTableKeyEE18FindInsertionEntryEj
W _ZN2v88internal9HashTableINS0_21CompilationCacheShapeEPNS0_12HashTableKeyEE19SetNumberOfElementsEi
W _ZN2v88internal9HashTableINS0_21CompilationCacheShapeEPNS0_12HashTableKeyEE23NumberOfDeletedElementsEv
W _ZN2v88internal9HashTableINS0_21CompilationCacheShapeEPNS0_12HashTableKeyEE26SetNumberOfDeletedElementsEi
W _ZN2v88internal9HashTableINS0_21CompilationCacheShapeEPNS0_12HashTableKeyEE4castEPNS0_6ObjectE
W _ZN2v88internal9HashTableINS0_21CompilationCacheShapeEPNS0_12HashTableKeyEE5IsKeyEPNS0_6ObjectE
W _ZN2v88internal9HashTableINS0_21CompilationCacheShapeEPNS0_12HashTableKeyEE5KeyAtEi
W _ZN2v88internal9HashTableINS0_21CompilationCacheShapeEPNS0_12HashTableKeyEE8AllocateEi
W _ZN2v88internal9HashTableINS0_21CompilationCacheShapeEPNS0_12HashTableKeyEE8CapacityEv
W _ZN2v88internal9HashTableINS0_21CompilationCacheShapeEPNS0_12HashTableKeyEE8GetProbeEjjj
W _ZN2v88internal9HashTableINS0_21CompilationCacheShapeEPNS0_12HashTableKeyEE9FindEntryES4_
W _ZN2v88internal9HashTableINS0_21CompilationCacheShapeEPNS0_12HashTableKeyEE9NextProbeEjjj
W _ZN2v88internal9HashTableINS0_21NumberDictionaryShapeEjE14EnsureCapacityEij
W _ZN2v88internal9HashTableINS0_21NumberDictionaryShapeEjE8AllocateEi
W _ZN2v88internal9HashTableINS0_21NumberDictionaryShapeEjE9FindEntryEj
W _ZN2v88internal9HashTableINS0_21StringDictionaryShapeEPNS0_6StringEE14EnsureCapacityEiS4_
W _ZN2v88internal9HashTableINS0_21StringDictionaryShapeEPNS0_6StringEE8AllocateEi
W _ZN2v88internal9HashTableINS0_21StringDictionaryShapeEPNS0_6StringEE9FindEntryES4_
D _ZN2v88internal9Internals10kProxyTypeE
D _ZN2v88internal9Internals13kJSObjectTypeE
D _ZN2v88internal9Internals19kFirstNonstringTypeE
T _ZN2v88internal9OldSpaces4nextEv
T _ZN2v88internal9PreParser15ReportMessageAtENS0_7Scanner8LocationEPKcNS0_6VectorIS5_EE
T _ZN2v88internal9PreParser7DeclareENS0_6HandleINS0_6StringEEENS0_8Variable4ModeEPNS0_15FunctionLiteralEbPb
T _ZN2v88internal9Processor10VisitBlockEPNS0_5BlockE
T _ZN2v88internal9Processor10VisitThrowEPNS0_5ThrowE
T _ZN2v88internal9Processor12VisitCallNewEPNS0_7CallNewE
T _ZN2v88internal9Processor12VisitLiteralEPNS0_7LiteralE
T _ZN2v88internal9Processor13VisitPropertyEPNS0_8PropertyE
T _ZN2v88internal9Processor15VisitAssignmentEPNS0_10AssignmentE
T _ZN2v88internal9Processor16VisitCallRuntimeEPNS0_11CallRuntimeE
T _ZN2v88internal9Processor16VisitConditionalEPNS0_11ConditionalE
T _ZN2v88internal9Processor16VisitDeclarationEPNS0_11DeclarationE
T _ZN2v88internal9Processor16VisitIfStatementEPNS0_11IfStatementE
T _ZN2v88internal9Processor17VisitArrayLiteralEPNS0_12ArrayLiteralE
T _ZN2v88internal9Processor17VisitForStatementEPNS0_12ForStatementE
T _ZN2v88internal9Processor17VisitThisFunctionEPNS0_12ThisFunctionE
T _ZN2v88internal9Processor18VisitObjectLiteralEPNS0_13ObjectLiteralE
T _ZN2v88internal9Processor18VisitRegExpLiteralEPNS0_13RegExpLiteralE
T _ZN2v88internal9Processor18VisitVariableProxyEPNS0_13VariableProxyE
T _ZN2v88internal9Processor19VisitBreakStatementEPNS0_14BreakStatementE
T _ZN2v88internal9Processor19VisitCountOperationEPNS0_14CountOperationE
T _ZN2v88internal9Processor19VisitEmptyStatementEPNS0_14EmptyStatementE
T _ZN2v88internal9Processor19VisitForInStatementEPNS0_14ForInStatementE
T _ZN2v88internal9Processor19VisitUnaryOperationEPNS0_14UnaryOperationE
T _ZN2v88internal9Processor19VisitWhileStatementEPNS0_14WhileStatementE
T _ZN2v88internal9Processor20VisitBinaryOperationEPNS0_15BinaryOperationE
T _ZN2v88internal9Processor20VisitFunctionLiteralEPNS0_15FunctionLiteralE
T _ZN2v88internal9Processor20VisitReturnStatementEPNS0_15ReturnStatementE
T _ZN2v88internal9Processor20VisitSwitchStatementEPNS0_15SwitchStatementE
T _ZN2v88internal9Processor21VisitCompareOperationEPNS0_16CompareOperationE
T _ZN2v88internal9Processor21VisitDoWhileStatementEPNS0_16DoWhileStatementE
T _ZN2v88internal9Processor22VisitContinueStatementEPNS0_17ContinueStatementE
T _ZN2v88internal9Processor22VisitDebuggerStatementEPNS0_17DebuggerStatementE
T _ZN2v88internal9Processor22VisitTryCatchStatementEPNS0_17TryCatchStatementE
T _ZN2v88internal9Processor22VisitWithExitStatementEPNS0_17WithExitStatementE
T _ZN2v88internal9Processor23VisitIterationStatementEPNS0_18IterationStatementE
T _ZN2v88internal9Processor23VisitWithEnterStatementEPNS0_18WithEnterStatementE
T _ZN2v88internal9Processor24VisitExpressionStatementEPNS0_19ExpressionStatementE
T _ZN2v88internal9Processor24VisitTryFinallyStatementEPNS0_19TryFinallyStatementE
T _ZN2v88internal9Processor25VisitCatchExtensionObjectEPNS0_20CatchExtensionObjectE
T _ZN2v88internal9Processor31VisitFunctionBoilerplateLiteralEPNS0_26FunctionBoilerplateLiteralE
T _ZN2v88internal9Processor7ProcessEPNS0_8ZoneListIPNS0_9StatementEEE
T _ZN2v88internal9Processor9VisitCallEPNS0_4CallE
T _ZN2v88internal9Processor9VisitSlotEPNS0_4SlotE
T _ZN2v88internal9ReadBytesEPKcPib
T _ZN2v88internal9Reference7GetNameEv
T _ZN2v88internal9Reference8GetValueEv
T _ZN2v88internal9Reference8SetValueENS0_9InitStateE
T _ZN2v88internal9ReferenceC1EPNS0_13CodeGeneratorEPNS0_10ExpressionEb
T _ZN2v88internal9ReferenceC2EPNS0_13CodeGeneratorEPNS0_10ExpressionEb
T _ZN2v88internal9ReferenceD1Ev
T _ZN2v88internal9ReferenceD2Ev
R _ZN2v88internal9RelocInfo10kApplyMaskE
T _ZN2v88internal9RelocInfo17PatchCodeWithCallEPhi
T _ZN2v88internal9RelocInfo9PatchCodeEPhi
W _ZN2v88internal9ScopeInfoINS0_19PreallocatedStorageEE14ParameterIndexEPNS0_4CodeEPNS0_6StringE
W _ZN2v88internal9ScopeInfoINS0_19PreallocatedStorageEE14StackSlotIndexEPNS0_4CodeEPNS0_6StringE
W _ZN2v88internal9ScopeInfoINS0_19PreallocatedStorageEE16ContextSlotIndexEPNS0_4CodeEPNS0_6StringEPNS0_8Variable4ModeE
W _ZN2v88internal9ScopeInfoINS0_19PreallocatedStorageEE16IterateScopeInfoEPNS0_4CodeEPNS0_13ObjectVisitorE
W _ZN2v88internal9ScopeInfoINS0_19PreallocatedStorageEE18NumberOfStackSlotsEPNS0_4CodeE
W _ZN2v88internal9ScopeInfoINS0_19PreallocatedStorageEE20NumberOfContextSlotsEPNS0_4CodeE
W _ZN2v88internal9ScopeInfoINS0_19PreallocatedStorageEE24FunctionContextSlotIndexEPNS0_4CodeEPNS0_6StringE
W _ZN2v88internal9ScopeInfoINS0_19PreallocatedStorageEE9CallsEvalEPNS0_4CodeE
W _ZN2v88internal9ScopeInfoINS0_19PreallocatedStorageEE9SerializeEPNS0_4CodeE
W _ZN2v88internal9ScopeInfoINS0_19PreallocatedStorageEEC1EPNS0_4CodeE
W _ZN2v88internal9ScopeInfoINS0_19PreallocatedStorageEEC1EPNS0_5ScopeE
W _ZN2v88internal9ScopeInfoINS0_19PreallocatedStorageEEC2EPNS0_4CodeE
W _ZN2v88internal9ScopeInfoINS0_19PreallocatedStorageEEC2EPNS0_5ScopeE
W _ZN2v88internal9ScopeInfoINS0_24ZoneListAllocationPolicyEE14ParameterIndexEPNS0_4CodeEPNS0_6StringE
W _ZN2v88internal9ScopeInfoINS0_24ZoneListAllocationPolicyEE14StackSlotIndexEPNS0_4CodeEPNS0_6StringE
W _ZN2v88internal9ScopeInfoINS0_24ZoneListAllocationPolicyEE16ContextSlotIndexEPNS0_4CodeEPNS0_6StringEPNS0_8Variable4ModeE
W _ZN2v88internal9ScopeInfoINS0_24ZoneListAllocationPolicyEE16IterateScopeInfoEPNS0_4CodeEPNS0_13ObjectVisitorE
W _ZN2v88internal9ScopeInfoINS0_24ZoneListAllocationPolicyEE18NumberOfStackSlotsEPNS0_4CodeE
W _ZN2v88internal9ScopeInfoINS0_24ZoneListAllocationPolicyEE20NumberOfContextSlotsEPNS0_4CodeE
W _ZN2v88internal9ScopeInfoINS0_24ZoneListAllocationPolicyEE24FunctionContextSlotIndexEPNS0_4CodeEPNS0_6StringE
W _ZN2v88internal9ScopeInfoINS0_24ZoneListAllocationPolicyEE9CallsEvalEPNS0_4CodeE
W _ZN2v88internal9ScopeInfoINS0_24ZoneListAllocationPolicyEE9SerializeEPNS0_4CodeE
W _ZN2v88internal9ScopeInfoINS0_24ZoneListAllocationPolicyEEC1EPNS0_4CodeE
W _ZN2v88internal9ScopeInfoINS0_24ZoneListAllocationPolicyEEC1EPNS0_5ScopeE
W _ZN2v88internal9ScopeInfoINS0_24ZoneListAllocationPolicyEEC2EPNS0_4CodeE
W _ZN2v88internal9ScopeInfoINS0_24ZoneListAllocationPolicyEEC2EPNS0_5ScopeE
W _ZN2v88internal9ScopeInfoINS0_25FreeStoreAllocationPolicyEE14ParameterIndexEPNS0_4CodeEPNS0_6StringE
W _ZN2v88internal9ScopeInfoINS0_25FreeStoreAllocationPolicyEE14StackSlotIndexEPNS0_4CodeEPNS0_6StringE
W _ZN2v88internal9ScopeInfoINS0_25FreeStoreAllocationPolicyEE16ContextSlotIndexEPNS0_4CodeEPNS0_6StringEPNS0_8Variable4ModeE
W _ZN2v88internal9ScopeInfoINS0_25FreeStoreAllocationPolicyEE16IterateScopeInfoEPNS0_4CodeEPNS0_13ObjectVisitorE
W _ZN2v88internal9ScopeInfoINS0_25FreeStoreAllocationPolicyEE18NumberOfStackSlotsEPNS0_4CodeE
W _ZN2v88internal9ScopeInfoINS0_25FreeStoreAllocationPolicyEE20NumberOfContextSlotsEPNS0_4CodeE
W _ZN2v88internal9ScopeInfoINS0_25FreeStoreAllocationPolicyEE24FunctionContextSlotIndexEPNS0_4CodeEPNS0_6StringE
W _ZN2v88internal9ScopeInfoINS0_25FreeStoreAllocationPolicyEE9CallsEvalEPNS0_4CodeE
W _ZN2v88internal9ScopeInfoINS0_25FreeStoreAllocationPolicyEE9SerializeEPNS0_4CodeE
W _ZN2v88internal9ScopeInfoINS0_25FreeStoreAllocationPolicyEEC1EPNS0_4CodeE
W _ZN2v88internal9ScopeInfoINS0_25FreeStoreAllocationPolicyEEC1EPNS0_5ScopeE
W _ZN2v88internal9ScopeInfoINS0_25FreeStoreAllocationPolicyEEC2EPNS0_4CodeE
W _ZN2v88internal9ScopeInfoINS0_25FreeStoreAllocationPolicyEEC2EPNS0_5ScopeE
T _ZN2v88internal9SemiSpace4GrowEv
T _ZN2v88internal9SemiSpace5SetupEPhii
T _ZN2v88internal9SemiSpace6CommitEv
T _ZN2v88internal9SemiSpace6GrowToEi
T _ZN2v88internal9SemiSpace8ShrinkToEi
T _ZN2v88internal9SemiSpace8TearDownEv
T _ZN2v88internal9SemiSpace8UncommitEv
T _ZN2v88internal9StubCache10InitializeEb
B _ZN2v88internal9StubCache10secondary_E
T _ZN2v88internal9StubCache13GenerateProbeEPNS0_14MacroAssemblerENS0_4Code5FlagsENS0_8RegisterES6_S6_S6_
T _ZN2v88internal9StubCache15ComputeCallMissEi
T _ZN2v88internal9StubCache16ComputeCallFieldEiNS0_10InLoopFlagEPNS0_6StringEPNS0_6ObjectEPNS0_8JSObjectEi
T _ZN2v88internal9StubCache16ComputeLoadFieldEPNS0_6StringEPNS0_8JSObjectES5_i
T _ZN2v88internal9StubCache17ComputeCallGlobalEiNS0_10InLoopFlagEPNS0_6StringEPNS0_8JSObjectEPNS0_12GlobalObjectEPNS0_20JSGlobalPropertyCellEPNS0_10JSFunctionE
T _ZN2v88internal9StubCache17ComputeCallNormalEiNS0_10InLoopFlagE
T _ZN2v88internal9StubCache17ComputeCallNormalEiNS0_10InLoopFlagEPNS0_6StringEPNS0_8JSObjectE
T _ZN2v88internal9StubCache17ComputeLoadGlobalEPNS0_6StringEPNS0_8JSObjectEPNS0_12GlobalObjectEPNS0_20JSGlobalPropertyCellEb
T _ZN2v88internal9StubCache17ComputeLoadNormalEPNS0_6StringEPNS0_8JSObjectE
T _ZN2v88internal9StubCache17ComputeStoreFieldEPNS0_6StringEPNS0_8JSObjectEiPNS0_3MapE
T _ZN2v88internal9StubCache18ComputeLazyCompileEi
T _ZN2v88internal9StubCache18ComputeStoreGlobalEPNS0_6StringEPNS0_12GlobalObjectEPNS0_20JSGlobalPropertyCellE
T _ZN2v88internal9StubCache18FindCallInitializeEiNS0_10InLoopFlagE
T _ZN2v88internal9StubCache19ComputeCallConstantEiNS0_10InLoopFlagEPNS0_6StringEPNS0_6ObjectEPNS0_8JSObjectEPNS0_10JSFunctionE
T _ZN2v88internal9StubCache19ComputeLoadCallbackEPNS0_6StringEPNS0_8JSObjectES5_PNS0_12AccessorInfoE
T _ZN2v88internal9StubCache19ComputeLoadConstantEPNS0_6StringEPNS0_8JSObjectES5_PNS0_6ObjectE
T _ZN2v88internal9StubCache20ComputeStoreCallbackEPNS0_6StringEPNS0_8JSObjectEPNS0_12AccessorInfoE
T _ZN2v88internal9StubCache21ComputeCallDebugBreakEi
T _ZN2v88internal9StubCache21ComputeCallInitializeEiNS0_10InLoopFlagE
T _ZN2v88internal9StubCache21ComputeKeyedLoadFieldEPNS0_6StringEPNS0_8JSObjectES5_i
T _ZN2v88internal9StubCache22ComputeCallInterceptorEiPNS0_6StringEPNS0_6ObjectEPNS0_8JSObjectE
T _ZN2v88internal9StubCache22ComputeCallMegamorphicEiNS0_10InLoopFlagE
T _ZN2v88internal9StubCache22ComputeKeyedStoreFieldEPNS0_6StringEPNS0_8JSObjectEiPNS0_3MapE
T _ZN2v88internal9StubCache22ComputeLoadInterceptorEPNS0_6StringEPNS0_8JSObjectES5_
T _ZN2v88internal9StubCache23ComputeStoreInterceptorEPNS0_6StringEPNS0_8JSObjectE
T _ZN2v88internal9StubCache24ComputeKeyedLoadCallbackEPNS0_6StringEPNS0_8JSObjectES5_PNS0_12AccessorInfoE
T _ZN2v88internal9StubCache24ComputeKeyedLoadConstantEPNS0_6StringEPNS0_8JSObjectES5_PNS0_6ObjectE
T _ZN2v88internal9StubCache25ComputeCallPreMonomorphicEiNS0_10InLoopFlagE
T _ZN2v88internal9StubCache27ComputeKeyedLoadArrayLengthEPNS0_6StringEPNS0_7JSArrayE
T _ZN2v88internal9StubCache27ComputeKeyedLoadInterceptorEPNS0_6StringEPNS0_8JSObjectES5_
T _ZN2v88internal9StubCache28ComputeKeyedLoadStringLengthEPNS0_6StringES3_
T _ZN2v88internal9StubCache29ComputeCallDebugPrepareStepInEi
T _ZN2v88internal9StubCache33ComputeKeyedLoadFunctionPrototypeEPNS0_6StringEPNS0_10JSFunctionE
T _ZN2v88internal9StubCache3SetEPNS0_6StringEPNS0_3MapEPNS0_4CodeE
T _ZN2v88internal9StubCache5ClearEv
B _ZN2v88internal9StubCache8primary_E
T _ZN2v88internal9SubStringENS0_6HandleINS0_6StringEEEii
T _ZN2v88internal9VarUseMap6LookupEPNS0_8VariableE
B _ZN2v88internal9ZoneScope8nesting_E
T _ZN2v89Exception10RangeErrorENS_6HandleINS_6StringEEE
T _ZN2v89Exception11SyntaxErrorENS_6HandleINS_6StringEEE
T _ZN2v89Exception14ReferenceErrorENS_6HandleINS_6StringEEE
T _ZN2v89Exception5ErrorENS_6HandleINS_6StringEEE
T _ZN2v89Exception9TypeErrorENS_6HandleINS_6StringEEE
T _ZN2v89ExtensionC1EPKcS2_iPS2_
T _ZN2v89ExtensionC2EPKcS2_iPS2_
T _ZN2v89Signature3NewENS_6HandleINS_16FunctionTemplateEEEiPS3_
T _ZN2v89UndefinedEv
T _ZN6Buffer10AsciiSliceERKN2v89ArgumentsE
T _ZN6Buffer10AsciiWriteERKN2v89ArgumentsE
T _ZN6Buffer10ByteLengthERKN2v89ArgumentsE
T _ZN6Buffer11BinarySliceERKN2v89ArgumentsE
T _ZN6Buffer11BinaryWriteERKN2v89ArgumentsE
B _ZN6Buffer20constructor_templateE
T _ZN6Buffer24InitializeObjectTemplateEN2v86HandleINS0_14ObjectTemplateEEE
T _ZN6Buffer3NewERKN2v89ArgumentsE
T _ZN6Buffer3NewEj
T _ZN6Buffer4CopyERKN2v89ArgumentsE
T _ZN6Buffer4dataEv
T _ZN6Buffer5SliceERKN2v89ArgumentsE
T _ZN6Buffer6UnpackERKN2v89ArgumentsE
T _ZN6Buffer7NewBlobEj
T _ZN6Buffer9Utf8SliceERKN2v89ArgumentsE
T _ZN6Buffer9Utf8WriteERKN2v89ArgumentsE
T _ZN6BufferC1EPS_jj
T _ZN6BufferC1Ej
T _ZN6BufferC2EPS_jj
T _ZN6BufferC2Ej
T _ZN6BufferD0Ev
T _ZN6BufferD1Ev
T _ZN6BufferD2Ev
T _ZN6google8protobuf10ReflectionD0Ev
T _ZN6google8protobuf10ReflectionD1Ev
T _ZN6google8protobuf10ReflectionD2Ev
T _ZN6google8protobuf10SimpleDtoaEd
T _ZN6google8protobuf10SimpleFtoaEf
T _ZN6google8protobuf10SimpleItoaEi
T _ZN6google8protobuf10SimpleItoaEj
T _ZN6google8protobuf10SimpleItoaEl
T _ZN6google8protobuf10SimpleItoaEm
T _ZN6google8protobuf10SimpleItoaEx
T _ZN6google8protobuf10SimpleItoaEy
T _ZN6google8protobuf10TextFormat13PrintToStringERKNS0_7MessageEPSs
T _ZN6google8protobuf10TextFormat15MergeFromStringERKSsPNS0_7MessageE
T _ZN6google8protobuf10TextFormat15ParseFromStringERKSsPNS0_7MessageE
T _ZN6google8protobuf10TextFormat18PrintUnknownFieldsERKNS0_15UnknownFieldSetEPNS0_2io20ZeroCopyOutputStreamE
T _ZN6google8protobuf10TextFormat23PrintFieldValueToStringERKNS0_7MessageEPKNS0_15FieldDescriptorEiPSs
T _ZN6google8protobuf10TextFormat25ParseFieldValueFromStringERKSsPKNS0_15FieldDescriptorEPNS0_7MessageE
T _ZN6google8protobuf10TextFormat26PrintUnknownFieldsToStringERKNS0_15UnknownFieldSetEPSs
T _ZN6google8protobuf10TextFormat5MergeEPNS0_2io19ZeroCopyInputStreamEPNS0_7MessageE
T _ZN6google8protobuf10TextFormat5ParseEPNS0_2io19ZeroCopyInputStreamEPNS0_7MessageE
T _ZN6google8protobuf10TextFormat5PrintERKNS0_7MessageEPNS0_2io20ZeroCopyOutputStreamE
T _ZN6google8protobuf10TextFormat6Parser14MergeUsingImplEPNS0_2io19ZeroCopyInputStreamEPNS0_7MessageEPNS2_10ParserImplE
T _ZN6google8protobuf10TextFormat6Parser15MergeFromStringERKSsPNS0_7MessageE
T _ZN6google8protobuf10TextFormat6Parser15ParseFromStringERKSsPNS0_7MessageE
T _ZN6google8protobuf10TextFormat6Parser25ParseFieldValueFromStringERKSsPKNS0_15FieldDescriptorEPNS0_7MessageE
T _ZN6google8protobuf10TextFormat6Parser5MergeEPNS0_2io19ZeroCopyInputStreamEPNS0_7MessageE
T _ZN6google8protobuf10TextFormat6Parser5ParseEPNS0_2io19ZeroCopyInputStreamEPNS0_7MessageE
T _ZN6google8protobuf10TextFormat6ParserC1Ev
T _ZN6google8protobuf10TextFormat6ParserC2Ev
T _ZN6google8protobuf10TextFormat6ParserD1Ev
T _ZN6google8protobuf10TextFormat6ParserD2Ev
T _ZN6google8protobuf10TextFormat7Printer10PrintFieldERKNS0_7MessageEPKNS0_10ReflectionEPKNS0_15FieldDescriptorERNS2_13TextGeneratorE
T _ZN6google8protobuf10TextFormat7Printer13PrintToStringERKNS0_7MessageEPSs
T _ZN6google8protobuf10TextFormat7Printer14PrintFieldNameERKNS0_7MessageEPKNS0_10ReflectionEPKNS0_15FieldDescriptorERNS2_13TextGeneratorE
T _ZN6google8protobuf10TextFormat7Printer15PrintFieldValueERKNS0_7MessageEPKNS0_10ReflectionEPKNS0_15FieldDescriptorEiRNS2_13TextGeneratorE
T _ZN6google8protobuf10TextFormat7Printer18PrintUnknownFieldsERKNS0_15UnknownFieldSetEPNS0_2io20ZeroCopyOutputStreamE
T _ZN6google8protobuf10TextFormat7Printer18PrintUnknownFieldsERKNS0_15UnknownFieldSetERNS2_13TextGeneratorE
T _ZN6google8protobuf10TextFormat7Printer23PrintFieldValueToStringERKNS0_7MessageEPKNS0_15FieldDescriptorEiPSs
T _ZN6google8protobuf10TextFormat7Printer23PrintShortRepeatedFieldERKNS0_7MessageEPKNS0_10ReflectionEPKNS0_15FieldDescriptorERNS2_13TextGeneratorE
T _ZN6google8protobuf10TextFormat7Printer26PrintUnknownFieldsToStringERKNS0_15UnknownFieldSetEPSs
T _ZN6google8protobuf10TextFormat7Printer5PrintERKNS0_7MessageEPNS0_2io20ZeroCopyOutputStreamE
T _ZN6google8protobuf10TextFormat7Printer5PrintERKNS0_7MessageERNS2_13TextGeneratorE
T _ZN6google8protobuf10TextFormat7PrinterC1Ev
T _ZN6google8protobuf10TextFormat7PrinterC2Ev
T _ZN6google8protobuf10TextFormat7PrinterD1Ev
T _ZN6google8protobuf10TextFormat7PrinterD2Ev
T _ZN6google8protobuf11EnumOptions10SharedCtorEv
T _ZN6google8protobuf11EnumOptions10SharedDtorEv
T _ZN6google8protobuf11EnumOptions10descriptorEv
T _ZN6google8protobuf11EnumOptions16default_instanceEv
B _ZN6google8protobuf11EnumOptions17default_instance_E
T _ZN6google8protobuf11EnumOptions21InitAsDefaultInstanceEv
T _ZN6google8protobuf11EnumOptions27MergePartialFromCodedStreamEPNS0_2io16CodedInputStreamE
R _ZN6google8protobuf11EnumOptions31kUninterpretedOptionFieldNumberE
T _ZN6google8protobuf11EnumOptions4SwapEPS1_
T _ZN6google8protobuf11EnumOptions5ClearEv
T _ZN6google8protobuf11EnumOptions8CopyFromERKNS0_7MessageE
T _ZN6google8protobuf11EnumOptions8CopyFromERKS1_
T _ZN6google8protobuf11EnumOptions9MergeFromERKNS0_7MessageE
T _ZN6google8protobuf11EnumOptions9MergeFromERKS1_
T _ZN6google8protobuf11EnumOptionsC1ERKS1_
T _ZN6google8protobuf11EnumOptionsC1Ev
T _ZN6google8protobuf11EnumOptionsC2ERKS1_
T _ZN6google8protobuf11EnumOptionsC2Ev
T _ZN6google8protobuf11EnumOptionsD0Ev
T _ZN6google8protobuf11EnumOptionsD1Ev
T _ZN6google8protobuf11EnumOptionsD2Ev
T _ZN6google8protobuf11FileOptions10SharedCtorEv
T _ZN6google8protobuf11FileOptions10SharedDtorEv
T _ZN6google8protobuf11FileOptions10descriptorEv
R _ZN6google8protobuf11FileOptions12LITE_RUNTIMEE
R _ZN6google8protobuf11FileOptions16OptimizeMode_MAXE
R _ZN6google8protobuf11FileOptions16OptimizeMode_MINE
T _ZN6google8protobuf11FileOptions16default_instanceEv
B _ZN6google8protobuf11FileOptions17default_instance_E
T _ZN6google8protobuf11FileOptions21InitAsDefaultInstanceEv
R _ZN6google8protobuf11FileOptions22OptimizeMode_ARRAYSIZEE
B _ZN6google8protobuf11FileOptions22_default_java_package_E
R _ZN6google8protobuf11FileOptions23kJavaPackageFieldNumberE
R _ZN6google8protobuf11FileOptions23kOptimizeForFieldNumberE
T _ZN6google8protobuf11FileOptions27MergePartialFromCodedStreamEPNS0_2io16CodedInputStreamE
R _ZN6google8protobuf11FileOptions29kCcGenericServicesFieldNumberE
R _ZN6google8protobuf11FileOptions29kJavaMultipleFilesFieldNumberE
R _ZN6google8protobuf11FileOptions29kPyGenericServicesFieldNumberE
B _ZN6google8protobuf11FileOptions30_default_java_outer_classname_E
R _ZN6google8protobuf11FileOptions30kJavaOuterClassnameFieldNumberE
R _ZN6google8protobuf11FileOptions31kJavaGenericServicesFieldNumberE
R _ZN6google8protobuf11FileOptions31kUninterpretedOptionFieldNumberE
T _ZN6google8protobuf11FileOptions4SwapEPS1_
T _ZN6google8protobuf11FileOptions5ClearEv
R _ZN6google8protobuf11FileOptions5SPEEDE
T _ZN6google8protobuf11FileOptions8CopyFromERKNS0_7MessageE
T _ZN6google8protobuf11FileOptions8CopyFromERKS1_
R _ZN6google8protobuf11FileOptions9CODE_SIZEE
T _ZN6google8protobuf11FileOptions9MergeFromERKNS0_7MessageE
T _ZN6google8protobuf11FileOptions9MergeFromERKS1_
T _ZN6google8protobuf11FileOptionsC1ERKS1_
T _ZN6google8protobuf11FileOptionsC1Ev
T _ZN6google8protobuf11FileOptionsC2ERKS1_
T _ZN6google8protobuf11FileOptionsC2Ev
T _ZN6google8protobuf11FileOptionsD0Ev
T _ZN6google8protobuf11FileOptionsD1Ev
T _ZN6google8protobuf11FileOptionsD2Ev
T _ZN6google8protobuf11JoinStringsERKSt6vectorISsSaISsEEPKcPSs
T _ZN6google8protobuf11LogSilencerC1Ev
T _ZN6google8protobuf11LogSilencerC2Ev
T _ZN6google8protobuf11LogSilencerD1Ev
T _ZN6google8protobuf11LogSilencerD2Ev
T _ZN6google8protobuf11MessageLite14ParseFromArrayEPKvi
T _ZN6google8protobuf11MessageLite15ParseFromStringERKSs
T _ZN6google8protobuf11MessageLite20MergeFromCodedStreamEPNS0_2io16CodedInputStreamE
T _ZN6google8protobuf11MessageLite20ParseFromCodedStreamEPNS0_2io16CodedInputStreamE
T _ZN6google8protobuf11MessageLite21ParsePartialFromArrayEPKvi
T _ZN6google8protobuf11MessageLite22ParsePartialFromStringERKSs
T _ZN6google8protobuf11MessageLite23ParseFromZeroCopyStreamEPNS0_2io19ZeroCopyInputStreamE
T _ZN6google8protobuf11MessageLite27ParsePartialFromCodedStreamEPNS0_2io16CodedInputStreamE
T _ZN6google8protobuf11MessageLite30ParseFromBoundedZeroCopyStreamEPNS0_2io19ZeroCopyInputStreamEi
T _ZN6google8protobuf11MessageLite30ParsePartialFromZeroCopyStreamEPNS0_2io19ZeroCopyInputStreamE
T _ZN6google8protobuf11MessageLite37ParsePartialFromBoundedZeroCopyStreamEPNS0_2io19ZeroCopyInputStreamEi
T _ZN6google8protobuf11MessageLiteD0Ev
T _ZN6google8protobuf11MessageLiteD1Ev
T _ZN6google8protobuf11MessageLiteD2Ev
T _ZN6google8protobuf11StripStringEPSsPKcc
T _ZN6google8protobuf11safe_strtofEPKcPf
T _ZN6google8protobuf12FieldOptions10SharedCtorEv
T _ZN6google8protobuf12FieldOptions10SharedDtorEv
T _ZN6google8protobuf12FieldOptions10descriptorEv
R _ZN6google8protobuf12FieldOptions12STRING_PIECEE
R _ZN6google8protobuf12FieldOptions15CType_ARRAYSIZEE
T _ZN6google8protobuf12FieldOptions16default_instanceEv
B _ZN6google8protobuf12FieldOptions17default_instance_E
R _ZN6google8protobuf12FieldOptions17kCtypeFieldNumberE
R _ZN6google8protobuf12FieldOptions18kPackedFieldNumberE
T _ZN6google8protobuf12FieldOptions21InitAsDefaultInstanceEv
R _ZN6google8protobuf12FieldOptions22kDeprecatedFieldNumberE
T _ZN6google8protobuf12FieldOptions27MergePartialFromCodedStreamEPNS0_2io16CodedInputStreamE
B _ZN6google8protobuf12FieldOptions30_default_experimental_map_key_E
R _ZN6google8protobuf12FieldOptions30kExperimentalMapKeyFieldNumberE
R _ZN6google8protobuf12FieldOptions31kUninterpretedOptionFieldNumberE
R _ZN6google8protobuf12FieldOptions4CORDE
T _ZN6google8protobuf12FieldOptions4SwapEPS1_
T _ZN6google8protobuf12FieldOptions5ClearEv
R _ZN6google8protobuf12FieldOptions6STRINGE
T _ZN6google8protobuf12FieldOptions8CopyFromERKNS0_7MessageE
T _ZN6google8protobuf12FieldOptions8CopyFromERKS1_
R _ZN6google8protobuf12FieldOptions9CType_MAXE
R _ZN6google8protobuf12FieldOptions9CType_MINE
T _ZN6google8protobuf12FieldOptions9MergeFromERKNS0_7MessageE
T _ZN6google8protobuf12FieldOptions9MergeFromERKS1_
T _ZN6google8protobuf12FieldOptionsC1ERKS1_
T _ZN6google8protobuf12FieldOptionsC1Ev
T _ZN6google8protobuf12FieldOptionsC2ERKS1_
T _ZN6google8protobuf12FieldOptionsC2Ev
T _ZN6google8protobuf12FieldOptionsD0Ev
T _ZN6google8protobuf12FieldOptionsD1Ev
T _ZN6google8protobuf12FieldOptionsD2Ev
T _ZN6google8protobuf12UnknownField6DeleteEv
T _ZN6google8protobuf12UnknownField8DeepCopyEv
T _ZN6google8protobuf13CEscapeStringEPKciPci
T _ZN6google8protobuf13FloatToBufferEfPc
T _ZN6google8protobuf13LocalizeRadixEPKcS2_
T _ZN6google8protobuf13MethodOptions10SharedCtorEv
T _ZN6google8protobuf13MethodOptions10SharedDtorEv
T _ZN6google8protobuf13MethodOptions10descriptorEv
T _ZN6google8protobuf13MethodOptions16default_instanceEv
B _ZN6google8protobuf13MethodOptions17default_instance_E
T _ZN6google8protobuf13MethodOptions21InitAsDefaultInstanceEv
T _ZN6google8protobuf13MethodOptions27MergePartialFromCodedStreamEPNS0_2io16CodedInputStreamE
R _ZN6google8protobuf13MethodOptions31kUninterpretedOptionFieldNumberE
T _ZN6google8protobuf13MethodOptions4SwapEPS1_
T _ZN6google8protobuf13MethodOptions5ClearEv
T _ZN6google8protobuf13MethodOptions8CopyFromERKNS0_7MessageE
T _ZN6google8protobuf13MethodOptions8CopyFromERKS1_
T _ZN6google8protobuf13MethodOptions9MergeFromERKNS0_7MessageE
T _ZN6google8protobuf13MethodOptions9MergeFromERKS1_
T _ZN6google8protobuf13MethodOptionsC1ERKS1_
T _ZN6google8protobuf13MethodOptionsC1Ev
T _ZN6google8protobuf13MethodOptionsC2ERKS1_
T _ZN6google8protobuf13MethodOptionsC2Ev
T _ZN6google8protobuf13MethodOptionsD0Ev
T _ZN6google8protobuf13MethodOptionsD1Ev
T _ZN6google8protobuf13MethodOptionsD2Ev
W _ZN6google8protobuf13RepeatedFieldIbE4SwapEPS2_
W _ZN6google8protobuf13RepeatedFieldIbE7ReserveEi
W _ZN6google8protobuf13RepeatedFieldIdE4SwapEPS2_
W _ZN6google8protobuf13RepeatedFieldIdE7ReserveEi
W _ZN6google8protobuf13RepeatedFieldIfE4SwapEPS2_
W _ZN6google8protobuf13RepeatedFieldIfE7ReserveEi
W _ZN6google8protobuf13RepeatedFieldIiE4SwapEPS2_
W _ZN6google8protobuf13RepeatedFieldIiE7ReserveEi
W _ZN6google8protobuf13RepeatedFieldIjE4SwapEPS2_
W _ZN6google8protobuf13RepeatedFieldIjE7ReserveEi
W _ZN6google8protobuf13RepeatedFieldIxE4SwapEPS2_
W _ZN6google8protobuf13RepeatedFieldIxE7ReserveEi
W _ZN6google8protobuf13RepeatedFieldIyE4SwapEPS2_
W _ZN6google8protobuf13RepeatedFieldIyE7ReserveEi
T _ZN6google8protobuf13SetLogHandlerEPFvNS0_8LogLevelEPKciRKSsE
T _ZN6google8protobuf13StringReplaceERKSsS2_S2_b
T _ZN6google8protobuf13StringReplaceERKSsS2_S2_bPSs
T _ZN6google8protobuf14DescriptorPool14ErrorCollectorD0Ev
T _ZN6google8protobuf14DescriptorPool14ErrorCollectorD1Ev
T _ZN6google8protobuf14DescriptorPool14ErrorCollectorD2Ev
T _ZN6google8protobuf14DescriptorPool14generated_poolEv
T _ZN6google8protobuf14DescriptorPool23internal_generated_poolEv
T _ZN6google8protobuf14DescriptorPool24InternalAddGeneratedFileEPKvi
T _ZN6google8protobuf14DescriptorPool25BuildFileCollectingErrorsERKNS0_19FileDescriptorProtoEPNS1_14ErrorCollectorE
T _ZN6google8protobuf14DescriptorPool31InternalDontEnforceDependenciesEv
T _ZN6google8protobuf14DescriptorPool6Tables10CheckpointEv
T _ZN6google8protobuf14DescriptorPool6Tables12AddExtensionEPKNS0_15FieldDescriptorE
T _ZN6google8protobuf14DescriptorPool6Tables13AllocateBytesEi
T _ZN6google8protobuf14DescriptorPool6Tables14AllocateStringERKSs
W _ZN6google8protobuf14DescriptorPool6Tables15AllocateMessageINS0_11EnumOptionsEEEPT_S6_
W _ZN6google8protobuf14DescriptorPool6Tables15AllocateMessageINS0_11FileOptionsEEEPT_S6_
W _ZN6google8protobuf14DescriptorPool6Tables15AllocateMessageINS0_12FieldOptionsEEEPT_S6_
W _ZN6google8protobuf14DescriptorPool6Tables15AllocateMessageINS0_13MethodOptionsEEEPT_S6_
W _ZN6google8protobuf14DescriptorPool6Tables15AllocateMessageINS0_14MessageOptionsEEEPT_S6_
W _ZN6google8protobuf14DescriptorPool6Tables15AllocateMessageINS0_14ServiceOptionsEEEPT_S6_
W _ZN6google8protobuf14DescriptorPool6Tables15AllocateMessageINS0_16EnumValueOptionsEEEPT_S6_
T _ZN6google8protobuf14DescriptorPool6Tables18AllocateFileTablesEv
T _ZN6google8protobuf14DescriptorPool6Tables7AddFileEPKNS0_14FileDescriptorE
T _ZN6google8protobuf14DescriptorPool6Tables8RollbackEv
T _ZN6google8protobuf14DescriptorPool6TablesC1Ev
T _ZN6google8protobuf14DescriptorPool6TablesC2Ev
T _ZN6google8protobuf14DescriptorPool6TablesD1Ev
T _ZN6google8protobuf14DescriptorPool6TablesD2Ev
T _ZN6google8protobuf14DescriptorPool9BuildFileERKNS0_19FileDescriptorProtoE
T _ZN6google8protobuf14DescriptorPoolC1EPKS1_
T _ZN6google8protobuf14DescriptorPoolC1EPNS0_18DescriptorDatabaseEPNS1_14ErrorCollectorE
T _ZN6google8protobuf14DescriptorPoolC1Ev
T _ZN6google8protobuf14DescriptorPoolC2EPKS1_
T _ZN6google8protobuf14DescriptorPoolC2EPNS0_18DescriptorDatabaseEPNS1_14ErrorCollectorE
T _ZN6google8protobuf14DescriptorPoolC2Ev
T _ZN6google8protobuf14DescriptorPoolD1Ev
T _ZN6google8protobuf14DescriptorPoolD2Ev
T _ZN6google8protobuf14DoubleToBufferEdPc
T _ZN6google8protobuf14DynamicMessage19CrossLinkPrototypesEv
T _ZN6google8protobuf14DynamicMessageC1EPKNS1_8TypeInfoE
T _ZN6google8protobuf14DynamicMessageC2EPKNS1_8TypeInfoE
T _ZN6google8protobuf14DynamicMessageD0Ev
T _ZN6google8protobuf14DynamicMessageD1Ev
T _ZN6google8protobuf14DynamicMessageD2Ev
T _ZN6google8protobuf14MessageFactory17generated_factoryEv
T _ZN6google8protobuf14MessageFactory29InternalRegisterGeneratedFileEPKcPFvRKSsE
T _ZN6google8protobuf14MessageFactory32InternalRegisterGeneratedMessageEPKNS0_10DescriptorEPKNS0_7MessageE
T _ZN6google8protobuf14MessageFactoryD0Ev
T _ZN6google8protobuf14MessageFactoryD1Ev
T _ZN6google8protobuf14MessageFactoryD2Ev
T _ZN6google8protobuf14MessageOptions10SharedCtorEv
T _ZN6google8protobuf14MessageOptions10SharedDtorEv
T _ZN6google8protobuf14MessageOptions10descriptorEv
T _ZN6google8protobuf14MessageOptions16default_instanceEv
B _ZN6google8protobuf14MessageOptions17default_instance_E
T _ZN6google8protobuf14MessageOptions21InitAsDefaultInstanceEv
T _ZN6google8protobuf14MessageOptions27MergePartialFromCodedStreamEPNS0_2io16CodedInputStreamE
R _ZN6google8protobuf14MessageOptions31kUninterpretedOptionFieldNumberE
R _ZN6google8protobuf14MessageOptions32kMessageSetWireFormatFieldNumberE
R _ZN6google8protobuf14MessageOptions40kNoStandardDescriptorAccessorFieldNumberE
T _ZN6google8protobuf14MessageOptions4SwapEPS1_
T _ZN6google8protobuf14MessageOptions5ClearEv
T _ZN6google8protobuf14MessageOptions8CopyFromERKNS0_7MessageE
T _ZN6google8protobuf14MessageOptions8CopyFromERKS1_
T _ZN6google8protobuf14MessageOptions9MergeFromERKNS0_7MessageE
T _ZN6google8protobuf14MessageOptions9MergeFromERKS1_
T _ZN6google8protobuf14MessageOptionsC1ERKS1_
T _ZN6google8protobuf14MessageOptionsC1Ev
T _ZN6google8protobuf14MessageOptionsC2ERKS1_
T _ZN6google8protobuf14MessageOptionsC2Ev
T _ZN6google8protobuf14MessageOptionsD0Ev
T _ZN6google8protobuf14MessageOptionsD1Ev
T _ZN6google8protobuf14MessageOptionsD2Ev
T _ZN6google8protobuf14NoLocaleStrtodEPKcPPc
T _ZN6google8protobuf14ServiceOptions10SharedCtorEv
T _ZN6google8protobuf14ServiceOptions10SharedDtorEv
T _ZN6google8protobuf14ServiceOptions10descriptorEv
T _ZN6google8protobuf14ServiceOptions16default_instanceEv
B _ZN6google8protobuf14ServiceOptions17default_instance_E
T _ZN6google8protobuf14ServiceOptions21InitAsDefaultInstanceEv
T _ZN6google8protobuf14ServiceOptions27MergePartialFromCodedStreamEPNS0_2io16CodedInputStreamE
R _ZN6google8protobuf14ServiceOptions31kUninterpretedOptionFieldNumberE
T _ZN6google8protobuf14ServiceOptions4SwapEPS1_
T _ZN6google8protobuf14ServiceOptions5ClearEv
T _ZN6google8protobuf14ServiceOptions8CopyFromERKNS0_7MessageE
T _ZN6google8protobuf14ServiceOptions8CopyFromERKS1_
T _ZN6google8protobuf14ServiceOptions9MergeFromERKNS0_7MessageE
T _ZN6google8protobuf14ServiceOptions9MergeFromERKS1_
T _ZN6google8protobuf14ServiceOptionsC1ERKS1_
T _ZN6google8protobuf14ServiceOptionsC1Ev
T _ZN6google8protobuf14ServiceOptionsC2ERKS1_
T _ZN6google8protobuf14ServiceOptionsC2Ev
T _ZN6google8protobuf14ServiceOptionsD0Ev
T _ZN6google8protobuf14ServiceOptionsD1Ev
T _ZN6google8protobuf14ServiceOptionsD2Ev
T _ZN6google8protobuf15CEscapeInternalEPKciPcibb
T _ZN6google8protobuf15DelocalizeRadixEPc
T _ZN6google8protobuf15DescriptorProto10SharedCtorEv
T _ZN6google8protobuf15DescriptorProto10SharedDtorEv
T _ZN6google8protobuf15DescriptorProto10descriptorEv
B _ZN6google8protobuf15DescriptorProto14_default_name_E
T _ZN6google8protobuf15DescriptorProto16default_instanceEv
R _ZN6google8protobuf15DescriptorProto16kNameFieldNumberE
B _ZN6google8protobuf15DescriptorProto17default_instance_E
R _ZN6google8protobuf15DescriptorProto17kFieldFieldNumberE
R _ZN6google8protobuf15DescriptorProto19kOptionsFieldNumberE
R _ZN6google8protobuf15DescriptorProto20kEnumTypeFieldNumberE
T _ZN6google8protobuf15DescriptorProto21InitAsDefaultInstanceEv
R _ZN6google8protobuf15DescriptorProto21kExtensionFieldNumberE
R _ZN6google8protobuf15DescriptorProto22kNestedTypeFieldNumberE
R _ZN6google8protobuf15DescriptorProto26kExtensionRangeFieldNumberE
T _ZN6google8protobuf15DescriptorProto27MergePartialFromCodedStreamEPNS0_2io16CodedInputStreamE
T _ZN6google8protobuf15DescriptorProto4SwapEPS1_
T _ZN6google8protobuf15DescriptorProto5ClearEv
T _ZN6google8protobuf15DescriptorProto8CopyFromERKNS0_7MessageE
T _ZN6google8protobuf15DescriptorProto8CopyFromERKS1_
T _ZN6google8protobuf15DescriptorProto9MergeFromERKNS0_7MessageE
T _ZN6google8protobuf15DescriptorProto9MergeFromERKS1_
T _ZN6google8protobuf15DescriptorProtoC1ERKS1_
T _ZN6google8protobuf15DescriptorProtoC1Ev
T _ZN6google8protobuf15DescriptorProtoC2ERKS1_
T _ZN6google8protobuf15DescriptorProtoC2Ev
T _ZN6google8protobuf15DescriptorProtoD0Ev
T _ZN6google8protobuf15DescriptorProtoD1Ev
T _ZN6google8protobuf15DescriptorProtoD2Ev
T _ZN6google8protobuf15FastHexToBufferEiPc
R _ZN6google8protobuf15FieldDescriptor10kMaxNumberE
D _ZN6google8protobuf15FieldDescriptor11kTypeToNameE
D _ZN6google8protobuf15FieldDescriptor12kLabelToNameE
R _ZN6google8protobuf15FieldDescriptor17kTypeToCppTypeMapE
R _ZN6google8protobuf15FieldDescriptor19kLastReservedNumberE
R _ZN6google8protobuf15FieldDescriptor20kFirstReservedNumberE
T _ZN6google8protobuf15UnknownFieldSet10AddFixed32Eij
T _ZN6google8protobuf15UnknownFieldSet10AddFixed64Eiy
T _ZN6google8protobuf15UnknownFieldSet13ClearFallbackEv
T _ZN6google8protobuf15UnknownFieldSet14ParseFromArrayEPKvi
T _ZN6google8protobuf15UnknownFieldSet18AddLengthDelimitedEi
T _ZN6google8protobuf15UnknownFieldSet20MergeFromCodedStreamEPNS0_2io16CodedInputStreamE
T _ZN6google8protobuf15UnknownFieldSet20ParseFromCodedStreamEPNS0_2io16CodedInputStreamE
T _ZN6google8protobuf15UnknownFieldSet23ParseFromZeroCopyStreamEPNS0_2io19ZeroCopyInputStreamE
T _ZN6google8protobuf15UnknownFieldSet8AddFieldERKNS0_12UnknownFieldE
T _ZN6google8protobuf15UnknownFieldSet8AddGroupEi
T _ZN6google8protobuf15UnknownFieldSet9AddVarintEiy
T _ZN6google8protobuf15UnknownFieldSet9MergeFromERKS1_
T _ZN6google8protobuf15UnknownFieldSetC1Ev
T _ZN6google8protobuf15UnknownFieldSetC2Ev
T _ZN6google8protobuf15UnknownFieldSetD1Ev
T _ZN6google8protobuf15UnknownFieldSetD2Ev
T _ZN6google8protobuf15strto32_adaptorEPKcPPci
T _ZN6google8protobuf16EnumValueOptions10SharedCtorEv
T _ZN6google8protobuf16EnumValueOptions10SharedDtorEv
T _ZN6google8protobuf16EnumValueOptions10descriptorEv
T _ZN6google8protobuf16EnumValueOptions16default_instanceEv
B _ZN6google8protobuf16EnumValueOptions17default_instance_E
T _ZN6google8protobuf16EnumValueOptions21InitAsDefaultInstanceEv
T _ZN6google8protobuf16EnumValueOptions27MergePartialFromCodedStreamEPNS0_2io16CodedInputStreamE
R _ZN6google8protobuf16EnumValueOptions31kUninterpretedOptionFieldNumberE
T _ZN6google8protobuf16EnumValueOptions4SwapEPS1_
T _ZN6google8protobuf16EnumValueOptions5ClearEv
T _ZN6google8protobuf16EnumValueOptions8CopyFromERKNS0_7MessageE
T _ZN6google8protobuf16EnumValueOptions8CopyFromERKS1_
T _ZN6google8protobuf16EnumValueOptions9MergeFromERKNS0_7MessageE
T _ZN6google8protobuf16EnumValueOptions9MergeFromERKS1_
T _ZN6google8protobuf16EnumValueOptionsC1ERKS1_
T _ZN6google8protobuf16EnumValueOptionsC1Ev
T _ZN6google8protobuf16EnumValueOptionsC2ERKS1_
T _ZN6google8protobuf16EnumValueOptionsC2Ev
T _ZN6google8protobuf16EnumValueOptionsD0Ev
T _ZN6google8protobuf16EnumValueOptionsD1Ev
T _ZN6google8protobuf16EnumValueOptionsD2Ev
T _ZN6google8protobuf16SplitStringUsingERKSsPKcPSt6vectorISsSaISsEE
T _ZN6google8protobuf16strtou32_adaptorEPKcPPci
T _ZN6google8protobuf17DescriptorBuilder10AddPackageERKSsRKNS0_7MessageEPKNS0_14FileDescriptorE
T _ZN6google8protobuf17DescriptorBuilder11BuildMethodERKNS0_21MethodDescriptorProtoEPKNS0_17ServiceDescriptorEPNS0_16MethodDescriptorE
T _ZN6google8protobuf17DescriptorBuilder11IsInPackageEPKNS0_14FileDescriptorERKSs
T _ZN6google8protobuf17DescriptorBuilder12BuildMessageERKNS0_15DescriptorProtoEPKNS0_10DescriptorEPS5_
T _ZN6google8protobuf17DescriptorBuilder12BuildServiceERKNS0_22ServiceDescriptorProtoEPKvPNS0_17ServiceDescriptorE
T _ZN6google8protobuf17DescriptorBuilder13CrossLinkEnumEPNS0_14EnumDescriptorERKNS0_19EnumDescriptorProtoE
T _ZN6google8protobuf17DescriptorBuilder13CrossLinkFileEPNS0_14FileDescriptorERKNS0_19FileDescriptorProtoE
T _ZN6google8protobuf17DescriptorBuilder14BuildEnumValueERKNS0_24EnumValueDescriptorProtoEPKNS0_14EnumDescriptorEPNS0_19EnumValueDescriptorE
T _ZN6google8protobuf17DescriptorBuilder14CrossLinkFieldEPNS0_15FieldDescriptorERKNS0_20FieldDescriptorProtoE
T _ZN6google8protobuf17DescriptorBuilder14ValidateMapKeyEPNS0_15FieldDescriptorERKNS0_20FieldDescriptorProtoE
T _ZN6google8protobuf17DescriptorBuilder15AllocateOptionsERKNS0_11FileOptionsEPNS0_14FileDescriptorE
T _ZN6google8protobuf17DescriptorBuilder15CrossLinkMethodEPNS0_16MethodDescriptorERKNS0_21MethodDescriptorProtoE
T _ZN6google8protobuf17DescriptorBuilder16CrossLinkMessageEPNS0_10DescriptorERKNS0_15DescriptorProtoE
T _ZN6google8protobuf17DescriptorBuilder16CrossLinkServiceEPNS0_17ServiceDescriptorERKNS0_22ServiceDescriptorProtoE
T _ZN6google8protobuf17DescriptorBuilder17OptionInterpreter14SetOptionValueEPKNS0_15FieldDescriptorEPNS0_15UnknownFieldSetE
T _ZN6google8protobuf17DescriptorBuilder17OptionInterpreter20ExamineIfOptionIsSetEPKPKNS0_15FieldDescriptorES7_S5_RKSsRKNS0_15UnknownFieldSetE
T _ZN6google8protobuf17DescriptorBuilder17OptionInterpreter21InterpretSingleOptionEPNS0_7MessageE
T _ZN6google8protobuf17DescriptorBuilder17OptionInterpreter22AddWithoutInterpretingERKNS0_19UninterpretedOptionEPNS0_7MessageE
T _ZN6google8protobuf17DescriptorBuilder17OptionInterpreter8SetInt32EiiNS0_15FieldDescriptor4TypeEPNS0_15UnknownFieldSetE
T _ZN6google8protobuf17DescriptorBuilder17OptionInterpreter8SetInt64EixNS0_15FieldDescriptor4TypeEPNS0_15UnknownFieldSetE
T _ZN6google8protobuf17DescriptorBuilder17OptionInterpreter9SetUInt32EijNS0_15FieldDescriptor4TypeEPNS0_15UnknownFieldSetE
T _ZN6google8protobuf17DescriptorBuilder17OptionInterpreter9SetUInt64EiyNS0_15FieldDescriptor4TypeEPNS0_15UnknownFieldSetE
T _ZN6google8protobuf17DescriptorBuilder17OptionInterpreterC1EPS1_
T _ZN6google8protobuf17DescriptorBuilder17OptionInterpreterC2EPS1_
T _ZN6google8protobuf17DescriptorBuilder17OptionInterpreterD1Ev
T _ZN6google8protobuf17DescriptorBuilder17OptionInterpreterD2Ev
T _ZN6google8protobuf17DescriptorBuilder18AddNotDefinedErrorERKSsRKNS0_7MessageENS0_14DescriptorPool14ErrorCollector13ErrorLocationES3_
T _ZN6google8protobuf17DescriptorBuilder18CrossLinkEnumValueEPNS0_19EnumValueDescriptorERKNS0_24EnumValueDescriptorProtoE
T _ZN6google8protobuf17DescriptorBuilder18NewPlaceholderFileERKSs
T _ZN6google8protobuf17DescriptorBuilder18ValidateSymbolNameERKSsS3_RKNS0_7MessageE
W _ZN6google8protobuf17DescriptorBuilder19AllocateOptionsImplINS0_10DescriptorEEEvRKSsS5_RKNT_11OptionsTypeEPS6_
W _ZN6google8protobuf17DescriptorBuilder19AllocateOptionsImplINS0_14EnumDescriptorEEEvRKSsS5_RKNT_11OptionsTypeEPS6_
W _ZN6google8protobuf17DescriptorBuilder19AllocateOptionsImplINS0_14FileDescriptorEEEvRKSsS5_RKNT_11OptionsTypeEPS6_
W _ZN6google8protobuf17DescriptorBuilder19AllocateOptionsImplINS0_15FieldDescriptorEEEvRKSsS5_RKNT_11OptionsTypeEPS6_
W _ZN6google8protobuf17DescriptorBuilder19AllocateOptionsImplINS0_16MethodDescriptorEEEvRKSsS5_RKNT_11OptionsTypeEPS6_
W _ZN6google8protobuf17DescriptorBuilder19AllocateOptionsImplINS0_17ServiceDescriptorEEEvRKSsS5_RKNT_11OptionsTypeEPS6_
W _ZN6google8protobuf17DescriptorBuilder19AllocateOptionsImplINS0_19EnumValueDescriptorEEEvRKSsS5_RKNT_11OptionsTypeEPS6_
T _ZN6google8protobuf17DescriptorBuilder19BuildExtensionRangeERKNS0_30DescriptorProto_ExtensionRangeEPKNS0_10DescriptorEPNS5_14ExtensionRangeE
T _ZN6google8protobuf17DescriptorBuilder19ValidateEnumOptionsEPNS0_14EnumDescriptorERKNS0_19EnumDescriptorProtoE
T _ZN6google8protobuf17DescriptorBuilder19ValidateFileOptionsEPNS0_14FileDescriptorERKNS0_19FileDescriptorProtoE
T _ZN6google8protobuf17DescriptorBuilder20ValidateFieldOptionsEPNS0_15FieldDescriptorERKNS0_20FieldDescriptorProtoE
T _ZN6google8protobuf17DescriptorBuilder21BuildFieldOrExtensionERKNS0_20FieldDescriptorProtoEPKNS0_10DescriptorEPNS0_15FieldDescriptorEb
T _ZN6google8protobuf17DescriptorBuilder21ValidateMethodOptionsEPNS0_16MethodDescriptorERKNS0_21MethodDescriptorProtoE
T _ZN6google8protobuf17DescriptorBuilder21ValidateQualifiedNameERKSs
T _ZN6google8protobuf17DescriptorBuilder22ValidateMessageOptionsEPNS0_10DescriptorERKNS0_15DescriptorProtoE
T _ZN6google8protobuf17DescriptorBuilder22ValidateServiceOptionsEPNS0_17ServiceDescriptorERKNS0_22ServiceDescriptorProtoE
T _ZN6google8protobuf17DescriptorBuilder24ValidateEnumValueOptionsEPNS0_19EnumValueDescriptorERKNS0_24EnumValueDescriptorProtoE
T _ZN6google8protobuf17DescriptorBuilder8AddErrorERKSsRKNS0_7MessageENS0_14DescriptorPool14ErrorCollector13ErrorLocationES3_
T _ZN6google8protobuf17DescriptorBuilder9BuildEnumERKNS0_19EnumDescriptorProtoEPKNS0_10DescriptorEPNS0_14EnumDescriptorE
T _ZN6google8protobuf17DescriptorBuilder9BuildFileERKNS0_19FileDescriptorProtoE
T _ZN6google8protobuf17DescriptorBuilderC1EPKNS0_14DescriptorPoolEPNS2_6TablesEPNS2_14ErrorCollectorE
T _ZN6google8protobuf17DescriptorBuilderC2EPKNS0_14DescriptorPoolEPNS2_6TablesEPNS2_14ErrorCollectorE
T _ZN6google8protobuf17DescriptorBuilderD1Ev
T _ZN6google8protobuf17DescriptorBuilderD2Ev
T _ZN6google8protobuf17FastHex32ToBufferEjPc
T _ZN6google8protobuf17FastHex64ToBufferEyPc
T _ZN6google8protobuf17FastInt32ToBufferEiPc
T _ZN6google8protobuf17FastInt64ToBufferExPc
T _ZN6google8protobuf17FileDescriptorSet10SharedCtorEv
T _ZN6google8protobuf17FileDescriptorSet10SharedDtorEv
T _ZN6google8protobuf17FileDescriptorSet10descriptorEv
T _ZN6google8protobuf17FileDescriptorSet16default_instanceEv
R _ZN6google8protobuf17FileDescriptorSet16kFileFieldNumberE
B _ZN6google8protobuf17FileDescriptorSet17default_instance_E
T _ZN6google8protobuf17FileDescriptorSet21InitAsDefaultInstanceEv
T _ZN6google8protobuf17FileDescriptorSet27MergePartialFromCodedStreamEPNS0_2io16CodedInputStreamE
T _ZN6google8protobuf17FileDescriptorSet4SwapEPS1_
T _ZN6google8protobuf17FileDescriptorSet5ClearEv
T _ZN6google8protobuf17FileDescriptorSet8CopyFromERKNS0_7MessageE
T _ZN6google8protobuf17FileDescriptorSet8CopyFromERKS1_
T _ZN6google8protobuf17FileDescriptorSet9MergeFromERKNS0_7MessageE
T _ZN6google8protobuf17FileDescriptorSet9MergeFromERKS1_
T _ZN6google8protobuf17FileDescriptorSetC1ERKS1_
T _ZN6google8protobuf17FileDescriptorSetC1Ev
T _ZN6google8protobuf17FileDescriptorSetC2ERKS1_
T _ZN6google8protobuf17FileDescriptorSetC2Ev
T _ZN6google8protobuf17FileDescriptorSetD0Ev
T _ZN6google8protobuf17FileDescriptorSetD1Ev
T _ZN6google8protobuf17FileDescriptorSetD2Ev
W _ZN6google8protobuf17STLDeleteElementsISt6vectorIPKNS0_19FileDescriptorProtoESaIS5_EEEEvPT_
W _ZN6google8protobuf17STLDeleteElementsISt6vectorIPNS0_20FileDescriptorTablesESaIS4_EEEEvPT_
W _ZN6google8protobuf17STLDeleteElementsISt6vectorIPNS0_7MessageESaIS4_EEEEvPT_
W _ZN6google8protobuf17STLDeleteElementsISt6vectorIPSsSaIS3_EEEEvPT_
T _ZN6google8protobuf18DescriptorDatabaseD0Ev
T _ZN6google8protobuf18DescriptorDatabaseD1Ev
T _ZN6google8protobuf18DescriptorDatabaseD2Ev
W _ZN6google8protobuf18InsertIfNotPresentISt3mapISsPKNS0_19FileDescriptorProtoESt4lessISsESaISt4pairIKSsS5_EEESsS5_EEbPT_RKT0_RKT1_
W _ZN6google8protobuf18InsertIfNotPresentISt3mapISsSt4pairIPKviESt4lessISsESaIS3_IKSsS6_EEESsS6_EEbPT_RKT0_RKT1_
W _ZN6google8protobuf18InsertIfNotPresentISt3mapISt4pairISsiEPKNS0_19FileDescriptorProtoESt4lessIS4_ESaIS3_IKS4_S7_EEES4_S7_EEbPT_RKT0_RKT1_
W _ZN6google8protobuf18InsertIfNotPresentISt3mapISt4pairISsiES3_IPKviESt4lessIS4_ESaIS3_IKS4_S7_EEES4_S7_EEbPT_RKT0_RKT1_
T _ZN6google8protobuf19EnumDescriptorProto10SharedCtorEv
T _ZN6google8protobuf19EnumDescriptorProto10SharedDtorEv
T _ZN6google8protobuf19EnumDescriptorProto10descriptorEv
B _ZN6google8protobuf19EnumDescriptorProto14_default_name_E
T _ZN6google8protobuf19EnumDescriptorProto16default_instanceEv
R _ZN6google8protobuf19EnumDescriptorProto16kNameFieldNumberE
B _ZN6google8protobuf19EnumDescriptorProto17default_instance_E
R _ZN6google8protobuf19EnumDescriptorProto17kValueFieldNumberE
R _ZN6google8protobuf19EnumDescriptorProto19kOptionsFieldNumberE
T _ZN6google8protobuf19EnumDescriptorProto21InitAsDefaultInstanceEv
T _ZN6google8protobuf19EnumDescriptorProto27MergePartialFromCodedStreamEPNS0_2io16CodedInputStreamE
T _ZN6google8protobuf19EnumDescriptorProto4SwapEPS1_
T _ZN6google8protobuf19EnumDescriptorProto5ClearEv
T _ZN6google8protobuf19EnumDescriptorProto8CopyFromERKNS0_7MessageE
T _ZN6google8protobuf19EnumDescriptorProto8CopyFromERKS1_
T _ZN6google8protobuf19EnumDescriptorProto9MergeFromERKNS0_7MessageE
T _ZN6google8protobuf19EnumDescriptorProto9MergeFromERKS1_
T _ZN6google8protobuf19EnumDescriptorProtoC1ERKS1_
T _ZN6google8protobuf19EnumDescriptorProtoC1Ev
T _ZN6google8protobuf19EnumDescriptorProtoC2ERKS1_
T _ZN6google8protobuf19EnumDescriptorProtoC2Ev
T _ZN6google8protobuf19EnumDescriptorProtoD0Ev
T _ZN6google8protobuf19EnumDescriptorProtoD1Ev
T _ZN6google8protobuf19EnumDescriptorProtoD2Ev
T _ZN6google8protobuf19FileDescriptorProto10SharedCtorEv
T _ZN6google8protobuf19FileDescriptorProto10SharedDtorEv
T _ZN6google8protobuf19FileDescriptorProto10descriptorEv
B _ZN6google8protobuf19FileDescriptorProto14_default_name_E
T _ZN6google8protobuf19FileDescriptorProto16default_instanceEv
R _ZN6google8protobuf19FileDescriptorProto16kNameFieldNumberE
B _ZN6google8protobuf19FileDescriptorProto17_default_package_E
B _ZN6google8protobuf19FileDescriptorProto17default_instance_E
R _ZN6google8protobuf19FileDescriptorProto19kOptionsFieldNumberE
R _ZN6google8protobuf19FileDescriptorProto19kPackageFieldNumberE
R _ZN6google8protobuf19FileDescriptorProto19kServiceFieldNumberE
R _ZN6google8protobuf19FileDescriptorProto20kEnumTypeFieldNumberE
T _ZN6google8protobuf19FileDescriptorProto21InitAsDefaultInstanceEv
R _ZN6google8protobuf19FileDescriptorProto21kExtensionFieldNumberE
R _ZN6google8protobuf19FileDescriptorProto22kDependencyFieldNumberE
R _ZN6google8protobuf19FileDescriptorProto23kMessageTypeFieldNumberE
T _ZN6google8protobuf19FileDescriptorProto27MergePartialFromCodedStreamEPNS0_2io16CodedInputStreamE
T _ZN6google8protobuf19FileDescriptorProto4SwapEPS1_
T _ZN6google8protobuf19FileDescriptorProto5ClearEv
T _ZN6google8protobuf19FileDescriptorProto8CopyFromERKNS0_7MessageE
T _ZN6google8protobuf19FileDescriptorProto8CopyFromERKS1_
T _ZN6google8protobuf19FileDescriptorProto9MergeFromERKNS0_7MessageE
T _ZN6google8protobuf19FileDescriptorProto9MergeFromERKS1_
T _ZN6google8protobuf19FileDescriptorProtoC1ERKS1_
T _ZN6google8protobuf19FileDescriptorProtoC1Ev
T _ZN6google8protobuf19FileDescriptorProtoC2ERKS1_
T _ZN6google8protobuf19FileDescriptorProtoC2Ev
T _ZN6google8protobuf19FileDescriptorProtoD0Ev
T _ZN6google8protobuf19FileDescriptorProtoD1Ev
T _ZN6google8protobuf19FileDescriptorProtoD2Ev
T _ZN6google8protobuf19UninterpretedOption10SharedCtorEv
T _ZN6google8protobuf19UninterpretedOption10SharedDtorEv
T _ZN6google8protobuf19UninterpretedOption10descriptorEv
T _ZN6google8protobuf19UninterpretedOption16default_instanceEv
R _ZN6google8protobuf19UninterpretedOption16kNameFieldNumberE
B _ZN6google8protobuf19UninterpretedOption17default_instance_E
T _ZN6google8protobuf19UninterpretedOption21InitAsDefaultInstanceEv
B _ZN6google8protobuf19UninterpretedOption22_default_string_value_E
R _ZN6google8protobuf19UninterpretedOption23kDoubleValueFieldNumberE
R _ZN6google8protobuf19UninterpretedOption23kStringValueFieldNumberE
B _ZN6google8protobuf19UninterpretedOption26_default_identifier_value_E
T _ZN6google8protobuf19UninterpretedOption27MergePartialFromCodedStreamEPNS0_2io16CodedInputStreamE
R _ZN6google8protobuf19UninterpretedOption27kIdentifierValueFieldNumberE
R _ZN6google8protobuf19UninterpretedOption28kNegativeIntValueFieldNumberE
R _ZN6google8protobuf19UninterpretedOption28kPositiveIntValueFieldNumberE
T _ZN6google8protobuf19UninterpretedOption4SwapEPS1_
T _ZN6google8protobuf19UninterpretedOption5ClearEv
T _ZN6google8protobuf19UninterpretedOption8CopyFromERKNS0_7MessageE
T _ZN6google8protobuf19UninterpretedOption8CopyFromERKS1_
T _ZN6google8protobuf19UninterpretedOption9MergeFromERKNS0_7MessageE
T _ZN6google8protobuf19UninterpretedOption9MergeFromERKS1_
T _ZN6google8protobuf19UninterpretedOptionC1ERKS1_
T _ZN6google8protobuf19UninterpretedOptionC1Ev
T _ZN6google8protobuf19UninterpretedOptionC2ERKS1_
T _ZN6google8protobuf19UninterpretedOptionC2Ev
T _ZN6google8protobuf19UninterpretedOptionD0Ev
T _ZN6google8protobuf19UninterpretedOptionD1Ev
T _ZN6google8protobuf19UninterpretedOptionD2Ev
T _ZN6google8protobuf20FieldDescriptorProto10SharedCtorEv
T _ZN6google8protobuf20FieldDescriptorProto10SharedDtorEv
R _ZN6google8protobuf20FieldDescriptorProto10TYPE_BYTESE
R _ZN6google8protobuf20FieldDescriptorProto10TYPE_FLOATE
R _ZN6google8protobuf20FieldDescriptorProto10TYPE_GROUPE
R _ZN6google8protobuf20FieldDescriptorProto10TYPE_INT32E
R _ZN6google8protobuf20FieldDescriptorProto10TYPE_INT64E
T _ZN6google8protobuf20FieldDescriptorProto10descriptorEv
R _ZN6google8protobuf20FieldDescriptorProto11TYPE_DOUBLEE
R _ZN6google8protobuf20FieldDescriptorProto11TYPE_SINT32E
R _ZN6google8protobuf20FieldDescriptorProto11TYPE_SINT64E
R _ZN6google8protobuf20FieldDescriptorProto11TYPE_STRINGE
R _ZN6google8protobuf20FieldDescriptorProto11TYPE_UINT32E
R _ZN6google8protobuf20FieldDescriptorProto11TYPE_UINT64E
R _ZN6google8protobuf20FieldDescriptorProto12TYPE_FIXED32E
R _ZN6google8protobuf20FieldDescriptorProto12TYPE_FIXED64E
R _ZN6google8protobuf20FieldDescriptorProto12TYPE_MESSAGEE
R _ZN6google8protobuf20FieldDescriptorProto13TYPE_SFIXED32E
R _ZN6google8protobuf20FieldDescriptorProto13TYPE_SFIXED64E
R _ZN6google8protobuf20FieldDescriptorProto14LABEL_OPTIONALE
R _ZN6google8protobuf20FieldDescriptorProto14LABEL_REPEATEDE
R _ZN6google8protobuf20FieldDescriptorProto14LABEL_REQUIREDE
R _ZN6google8protobuf20FieldDescriptorProto14Type_ARRAYSIZEE
B _ZN6google8protobuf20FieldDescriptorProto14_default_name_E
R _ZN6google8protobuf20FieldDescriptorProto15Label_ARRAYSIZEE
T _ZN6google8protobuf20FieldDescriptorProto16default_instanceEv
R _ZN6google8protobuf20FieldDescriptorProto16kNameFieldNumberE
R _ZN6google8protobuf20FieldDescriptorProto16kTypeFieldNumberE
B _ZN6google8protobuf20FieldDescriptorProto17default_instance_E
R _ZN6google8protobuf20FieldDescriptorProto17kLabelFieldNumberE
B _ZN6google8protobuf20FieldDescriptorProto18_default_extendee_E
R _ZN6google8protobuf20FieldDescriptorProto18kNumberFieldNumberE
B _ZN6google8protobuf20FieldDescriptorProto19_default_type_name_E
R _ZN6google8protobuf20FieldDescriptorProto19kOptionsFieldNumberE
R _ZN6google8protobuf20FieldDescriptorProto20kExtendeeFieldNumberE
R _ZN6google8protobuf20FieldDescriptorProto20kTypeNameFieldNumberE
T _ZN6google8protobuf20FieldDescriptorProto21InitAsDefaultInstanceEv
B _ZN6google8protobuf20FieldDescriptorProto23_default_default_value_E
R _ZN6google8protobuf20FieldDescriptorProto24kDefaultValueFieldNumberE
T _ZN6google8protobuf20FieldDescriptorProto27MergePartialFromCodedStreamEPNS0_2io16CodedInputStreamE
T _ZN6google8protobuf20FieldDescriptorProto4SwapEPS1_
T _ZN6google8protobuf20FieldDescriptorProto5ClearEv
T _ZN6google8protobuf20FieldDescriptorProto8CopyFromERKNS0_7MessageE
T _ZN6google8protobuf20FieldDescriptorProto8CopyFromERKS1_
R _ZN6google8protobuf20FieldDescriptorProto8Type_MAXE
R _ZN6google8protobuf20FieldDescriptorProto8Type_MINE
R _ZN6google8protobuf20FieldDescriptorProto9Label_MAXE
R _ZN6google8protobuf20FieldDescriptorProto9Label_MINE
T _ZN6google8protobuf20FieldDescriptorProto9MergeFromERKNS0_7MessageE
T _ZN6google8protobuf20FieldDescriptorProto9MergeFromERKS1_
R _ZN6google8protobuf20FieldDescriptorProto9TYPE_BOOLE
R _ZN6google8protobuf20FieldDescriptorProto9TYPE_ENUME
T _ZN6google8protobuf20FieldDescriptorProtoC1ERKS1_
T _ZN6google8protobuf20FieldDescriptorProtoC1Ev
T _ZN6google8protobuf20FieldDescriptorProtoC2ERKS1_
T _ZN6google8protobuf20FieldDescriptorProtoC2Ev
T _ZN6google8protobuf20FieldDescriptorProtoD0Ev
T _ZN6google8protobuf20FieldDescriptorProtoD1Ev
T _ZN6google8protobuf20FieldDescriptorProtoD2Ev
T _ZN6google8protobuf20FileDescriptorTables16AddFieldByNumberEPKNS0_15FieldDescriptorE
T _ZN6google8protobuf20FileDescriptorTables20AddEnumValueByNumberEPKNS0_19EnumValueDescriptorE
T _ZN6google8protobuf20FileDescriptorTables23AddFieldByStylizedNamesEPKNS0_15FieldDescriptorE
B _ZN6google8protobuf20FileDescriptorTables6kEmptyE
T _ZN6google8protobuf20FileDescriptorTablesC1Ev
T _ZN6google8protobuf20FileDescriptorTablesC2Ev
T _ZN6google8protobuf20FileDescriptorTablesD1Ev
T _ZN6google8protobuf20FileDescriptorTablesD2Ev
T _ZN6google8protobuf21DynamicMessageFactory12GetPrototypeEPKNS0_10DescriptorE
T _ZN6google8protobuf21DynamicMessageFactory18GetPrototypeNoLockEPKNS0_10DescriptorE
T _ZN6google8protobuf21DynamicMessageFactoryC1EPKNS0_14DescriptorPoolE
T _ZN6google8protobuf21DynamicMessageFactoryC1Ev
T _ZN6google8protobuf21DynamicMessageFactoryC2EPKNS0_14DescriptorPoolE
T _ZN6google8protobuf21DynamicMessageFactoryC2Ev
T _ZN6google8protobuf21DynamicMessageFactoryD0Ev
T _ZN6google8protobuf21DynamicMessageFactoryD1Ev
T _ZN6google8protobuf21DynamicMessageFactoryD2Ev
T _ZN6google8protobuf21FastInt32ToBufferLeftEiPc
T _ZN6google8protobuf21FastInt64ToBufferLeftExPc
T _ZN6google8protobuf21MethodDescriptorProto10SharedCtorEv
T _ZN6google8protobuf21MethodDescriptorProto10SharedDtorEv
T _ZN6google8protobuf21MethodDescriptorProto10descriptorEv
B _ZN6google8protobuf21MethodDescriptorProto14_default_name_E
T _ZN6google8protobuf21MethodDescriptorProto16default_instanceEv
R _ZN6google8protobuf21MethodDescriptorProto16kNameFieldNumberE
B _ZN6google8protobuf21MethodDescriptorProto17default_instance_E
R _ZN6google8protobuf21MethodDescriptorProto19kOptionsFieldNumberE
B _ZN6google8protobuf21MethodDescriptorProto20_default_input_type_E
T _ZN6google8protobuf21MethodDescriptorProto21InitAsDefaultInstanceEv
B _ZN6google8protobuf21MethodDescriptorProto21_default_output_type_E
R _ZN6google8protobuf21MethodDescriptorProto21kInputTypeFieldNumberE
R _ZN6google8protobuf21MethodDescriptorProto22kOutputTypeFieldNumberE
T _ZN6google8protobuf21MethodDescriptorProto27MergePartialFromCodedStreamEPNS0_2io16CodedInputStreamE
T _ZN6google8protobuf21MethodDescriptorProto4SwapEPS1_
T _ZN6google8protobuf21MethodDescriptorProto5ClearEv
T _ZN6google8protobuf21MethodDescriptorProto8CopyFromERKNS0_7MessageE
T _ZN6google8protobuf21MethodDescriptorProto8CopyFromERKS1_
T _ZN6google8protobuf21MethodDescriptorProto9MergeFromERKNS0_7MessageE
T _ZN6google8protobuf21MethodDescriptorProto9MergeFromERKS1_
T _ZN6google8protobuf21MethodDescriptorProtoC1ERKS1_
T _ZN6google8protobuf21MethodDescriptorProtoC1Ev
T _ZN6google8protobuf21MethodDescriptorProtoC2ERKS1_
T _ZN6google8protobuf21MethodDescriptorProtoC2Ev
T _ZN6google8protobuf21MethodDescriptorProtoD0Ev
T _ZN6google8protobuf21MethodDescriptorProtoD1Ev
T _ZN6google8protobuf21MethodDescriptorProtoD2Ev
T _ZN6google8protobuf21UnescapeCEscapeStringERKSs
T _ZN6google8protobuf21UnescapeCEscapeStringERKSsPSs
T _ZN6google8protobuf21UnescapeCEscapeStringERKSsPSsPSt6vectorISsSaISsEE
T _ZN6google8protobuf22DescriptorPoolDatabase14FindFileByNameERKSsPNS0_19FileDescriptorProtoE
T _ZN6google8protobuf22DescriptorPoolDatabase23FindAllExtensionNumbersERKSsPSt6vectorIiSaIiEE
T _ZN6google8protobuf22DescriptorPoolDatabase24FindFileContainingSymbolERKSsPNS0_19FileDescriptorProtoE
T _ZN6google8protobuf22DescriptorPoolDatabase27FindFileContainingExtensionERKSsiPNS0_19FileDescriptorProtoE
T _ZN6google8protobuf22DescriptorPoolDatabaseC1ERKNS0_14DescriptorPoolE
T _ZN6google8protobuf22DescriptorPoolDatabaseC2ERKNS0_14DescriptorPoolE
T _ZN6google8protobuf22DescriptorPoolDatabaseD0Ev
T _ZN6google8protobuf22DescriptorPoolDatabaseD1Ev
T _ZN6google8protobuf22DescriptorPoolDatabaseD2Ev
T _ZN6google8protobuf22FastUInt32ToBufferLeftEjPc
T _ZN6google8protobuf22FastUInt64ToBufferLeftEyPc
T _ZN6google8protobuf22ServiceDescriptorProto10SharedCtorEv
T _ZN6google8protobuf22ServiceDescriptorProto10SharedDtorEv
T _ZN6google8protobuf22ServiceDescriptorProto10descriptorEv
B _ZN6google8protobuf22ServiceDescriptorProto14_default_name_E
T _ZN6google8protobuf22ServiceDescriptorProto16default_instanceEv
R _ZN6google8protobuf22ServiceDescriptorProto16kNameFieldNumberE
B _ZN6google8protobuf22ServiceDescriptorProto17default_instance_E
R _ZN6google8protobuf22ServiceDescriptorProto18kMethodFieldNumberE
R _ZN6google8protobuf22ServiceDescriptorProto19kOptionsFieldNumberE
T _ZN6google8protobuf22ServiceDescriptorProto21InitAsDefaultInstanceEv
T _ZN6google8protobuf22ServiceDescriptorProto27MergePartialFromCodedStreamEPNS0_2io16CodedInputStreamE
T _ZN6google8protobuf22ServiceDescriptorProto4SwapEPS1_
T _ZN6google8protobuf22ServiceDescriptorProto5ClearEv
T _ZN6google8protobuf22ServiceDescriptorProto8CopyFromERKNS0_7MessageE
T _ZN6google8protobuf22ServiceDescriptorProto8CopyFromERKS1_
T _ZN6google8protobuf22ServiceDescriptorProto9MergeFromERKNS0_7MessageE
T _ZN6google8protobuf22ServiceDescriptorProto9MergeFromERKS1_
T _ZN6google8protobuf22ServiceDescriptorProtoC1ERKS1_
T _ZN6google8protobuf22ServiceDescriptorProtoC1Ev
T _ZN6google8protobuf22ServiceDescriptorProtoC2ERKS1_
T _ZN6google8protobuf22ServiceDescriptorProtoC2Ev
T _ZN6google8protobuf22ServiceDescriptorProtoD0Ev
T _ZN6google8protobuf22ServiceDescriptorProtoD1Ev
T _ZN6google8protobuf22ServiceDescriptorProtoD2Ev
T _ZN6google8protobuf23InternalFastHexToBufferEyPci
T _ZN6google8protobuf23ShutdownProtobufLibraryEv
T _ZN6google8protobuf24EnumValueDescriptorProto10SharedCtorEv
T _ZN6google8protobuf24EnumValueDescriptorProto10SharedDtorEv
T _ZN6google8protobuf24EnumValueDescriptorProto10descriptorEv
B _ZN6google8protobuf24EnumValueDescriptorProto14_default_name_E
T _ZN6google8protobuf24EnumValueDescriptorProto16default_instanceEv
R _ZN6google8protobuf24EnumValueDescriptorProto16kNameFieldNumberE
B _ZN6google8protobuf24EnumValueDescriptorProto17default_instance_E
R _ZN6google8protobuf24EnumValueDescriptorProto18kNumberFieldNumberE
R _ZN6google8protobuf24EnumValueDescriptorProto19kOptionsFieldNumberE
T _ZN6google8protobuf24EnumValueDescriptorProto21InitAsDefaultInstanceEv
T _ZN6google8protobuf24EnumValueDescriptorProto27MergePartialFromCodedStreamEPNS0_2io16CodedInputStreamE
T _ZN6google8protobuf24EnumValueDescriptorProto4SwapEPS1_
T _ZN6google8protobuf24EnumValueDescriptorProto5ClearEv
T _ZN6google8protobuf24EnumValueDescriptorProto8CopyFromERKNS0_7MessageE
T _ZN6google8protobuf24EnumValueDescriptorProto8CopyFromERKS1_
T _ZN6google8protobuf24EnumValueDescriptorProto9MergeFromERKNS0_7MessageE
T _ZN6google8protobuf24EnumValueDescriptorProto9MergeFromERKS1_
T _ZN6google8protobuf24EnumValueDescriptorProtoC1ERKS1_
T _ZN6google8protobuf24EnumValueDescriptorProtoC1Ev
T _ZN6google8protobuf24EnumValueDescriptorProtoC2ERKS1_
T _ZN6google8protobuf24EnumValueDescriptorProtoC2Ev
T _ZN6google8protobuf24EnumValueDescriptorProtoD0Ev
T _ZN6google8protobuf24EnumValueDescriptorProtoD1Ev
T _ZN6google8protobuf24EnumValueDescriptorProtoD2Ev
T _ZN6google8protobuf24MergedDescriptorDatabase14FindFileByNameERKSsPNS0_19FileDescriptorProtoE
T _ZN6google8protobuf24MergedDescriptorDatabase23FindAllExtensionNumbersERKSsPSt6vectorIiSaIiEE
T _ZN6google8protobuf24MergedDescriptorDatabase24FindFileContainingSymbolERKSsPNS0_19FileDescriptorProtoE
T _ZN6google8protobuf24MergedDescriptorDatabase27FindFileContainingExtensionERKSsiPNS0_19FileDescriptorProtoE
T _ZN6google8protobuf24MergedDescriptorDatabaseC1EPNS0_18DescriptorDatabaseES3_
T _ZN6google8protobuf24MergedDescriptorDatabaseC1ERKSt6vectorIPNS0_18DescriptorDatabaseESaIS4_EE
T _ZN6google8protobuf24MergedDescriptorDatabaseC2EPNS0_18DescriptorDatabaseES3_
T _ZN6google8protobuf24MergedDescriptorDatabaseC2ERKSt6vectorIPNS0_18DescriptorDatabaseESaIS4_EE
T _ZN6google8protobuf24MergedDescriptorDatabaseD0Ev
T _ZN6google8protobuf24MergedDescriptorDatabaseD1Ev
T _ZN6google8protobuf24MergedDescriptorDatabaseD2Ev
T _ZN6google8protobuf24SimpleDescriptorDatabase14FindFileByNameERKSsPNS0_19FileDescriptorProtoE
W _ZN6google8protobuf24SimpleDescriptorDatabase15DescriptorIndexIPKNS0_19FileDescriptorProtoEE10FindSymbolERKSs
W _ZN6google8protobuf24SimpleDescriptorDatabase15DescriptorIndexIPKNS0_19FileDescriptorProtoEE11IsSubSymbolERKSsS8_
W _ZN6google8protobuf24SimpleDescriptorDatabase15DescriptorIndexIPKNS0_19FileDescriptorProtoEE12AddExtensionERKNS0_20FieldDescriptorProtoES5_
W _ZN6google8protobuf24SimpleDescriptorDatabase15DescriptorIndexIPKNS0_19FileDescriptorProtoEE13FindExtensionERKSsi
W _ZN6google8protobuf24SimpleDescriptorDatabase15DescriptorIndexIPKNS0_19FileDescriptorProtoEE19AddNestedExtensionsERKNS0_15DescriptorProtoES5_
W _ZN6google8protobuf24SimpleDescriptorDatabase15DescriptorIndexIPKNS0_19FileDescriptorProtoEE19FindLastLessOrEqualERKSs
W _ZN6google8protobuf24SimpleDescriptorDatabase15DescriptorIndexIPKNS0_19FileDescriptorProtoEE23FindAllExtensionNumbersERKSsPSt6vectorIiSaIiEE
W _ZN6google8protobuf24SimpleDescriptorDatabase15DescriptorIndexIPKNS0_19FileDescriptorProtoEE7AddFileERS4_S5_
W _ZN6google8protobuf24SimpleDescriptorDatabase15DescriptorIndexIPKNS0_19FileDescriptorProtoEE9AddSymbolERKSsS5_
W _ZN6google8protobuf24SimpleDescriptorDatabase15DescriptorIndexISt4pairIPKviEE10FindSymbolERKSs
W _ZN6google8protobuf24SimpleDescriptorDatabase15DescriptorIndexISt4pairIPKviEE11IsSubSymbolERKSsS9_
W _ZN6google8protobuf24SimpleDescriptorDatabase15DescriptorIndexISt4pairIPKviEE12AddExtensionERKNS0_20FieldDescriptorProtoES6_
W _ZN6google8protobuf24SimpleDescriptorDatabase15DescriptorIndexISt4pairIPKviEE13FindExtensionERKSsi
W _ZN6google8protobuf24SimpleDescriptorDatabase15DescriptorIndexISt4pairIPKviEE19AddNestedExtensionsERKNS0_15DescriptorProtoES6_
W _ZN6google8protobuf24SimpleDescriptorDatabase15DescriptorIndexISt4pairIPKviEE19FindLastLessOrEqualERKSs
W _ZN6google8protobuf24SimpleDescriptorDatabase15DescriptorIndexISt4pairIPKviEE23FindAllExtensionNumbersERKSsPSt6vectorIiSaIiEE
W _ZN6google8protobuf24SimpleDescriptorDatabase15DescriptorIndexISt4pairIPKviEE7AddFileERKNS0_19FileDescriptorProtoES6_
W _ZN6google8protobuf24SimpleDescriptorDatabase15DescriptorIndexISt4pairIPKviEE9AddSymbolERKSsS6_
T _ZN6google8protobuf24SimpleDescriptorDatabase23FindAllExtensionNumbersERKSsPSt6vectorIiSaIiEE
T _ZN6google8protobuf24SimpleDescriptorDatabase24FindFileContainingSymbolERKSsPNS0_19FileDescriptorProtoE
T _ZN6google8protobuf24SimpleDescriptorDatabase27FindFileContainingExtensionERKSsiPNS0_19FileDescriptorProtoE
T _ZN6google8protobuf24SimpleDescriptorDatabase3AddERKNS0_19FileDescriptorProtoE
T _ZN6google8protobuf24SimpleDescriptorDatabase9AddAndOwnEPKNS0_19FileDescriptorProtoE
T _ZN6google8protobuf24SimpleDescriptorDatabase9MaybeCopyEPKNS0_19FileDescriptorProtoEPS2_
T _ZN6google8protobuf24SimpleDescriptorDatabaseC1Ev
T _ZN6google8protobuf24SimpleDescriptorDatabaseC2Ev
T _ZN6google8protobuf24SimpleDescriptorDatabaseD0Ev
T _ZN6google8protobuf24SimpleDescriptorDatabaseD1Ev
T _ZN6google8protobuf24SimpleDescriptorDatabaseD2Ev
T _ZN6google8protobuf24UnescapeCEscapeSequencesEPKcPc
T _ZN6google8protobuf24UnescapeCEscapeSequencesEPKcPcPSt6vectorISsSaISsEE
T _ZN6google8protobuf25EncodedDescriptorDatabase10MaybeParseESt4pairIPKviEPNS0_19FileDescriptorProtoE
T _ZN6google8protobuf25EncodedDescriptorDatabase14FindFileByNameERKSsPNS0_19FileDescriptorProtoE
T _ZN6google8protobuf25EncodedDescriptorDatabase23FindAllExtensionNumbersERKSsPSt6vectorIiSaIiEE
T _ZN6google8protobuf25EncodedDescriptorDatabase24FindFileContainingSymbolERKSsPNS0_19FileDescriptorProtoE
T _ZN6google8protobuf25EncodedDescriptorDatabase27FindFileContainingExtensionERKSsiPNS0_19FileDescriptorProtoE
T _ZN6google8protobuf25EncodedDescriptorDatabase30FindNameOfFileContainingSymbolERKSsPSs
T _ZN6google8protobuf25EncodedDescriptorDatabase3AddEPKvi
T _ZN6google8protobuf25EncodedDescriptorDatabase7AddCopyEPKvi
T _ZN6google8protobuf25EncodedDescriptorDatabaseC1Ev
T _ZN6google8protobuf25EncodedDescriptorDatabaseC2Ev
T _ZN6google8protobuf25EncodedDescriptorDatabaseD0Ev
T _ZN6google8protobuf25EncodedDescriptorDatabaseD1Ev
T _ZN6google8protobuf25EncodedDescriptorDatabaseD2Ev
T _ZN6google8protobuf26FieldOptions_CType_IsValidEi
W _ZN6google8protobuf26STLDeleteContainerPointersIPPNS0_20FileDescriptorTablesEEEvT_S5_
W _ZN6google8protobuf26STLDeleteContainerPointersIPPSsEEvT_S4_
T _ZN6google8protobuf28UninterpretedOption_NamePart10SharedCtorEv
T _ZN6google8protobuf28UninterpretedOption_NamePart10SharedDtorEv
T _ZN6google8protobuf28UninterpretedOption_NamePart10descriptorEv
T _ZN6google8protobuf28UninterpretedOption_NamePart16default_instanceEv
B _ZN6google8protobuf28UninterpretedOption_NamePart17default_instance_E
B _ZN6google8protobuf28UninterpretedOption_NamePart19_default_name_part_E
R _ZN6google8protobuf28UninterpretedOption_NamePart20kNamePartFieldNumberE
T _ZN6google8protobuf28UninterpretedOption_NamePart21InitAsDefaultInstanceEv
R _ZN6google8protobuf28UninterpretedOption_NamePart23kIsExtensionFieldNumberE
T _ZN6google8protobuf28UninterpretedOption_NamePart27MergePartialFromCodedStreamEPNS0_2io16CodedInputStreamE
T _ZN6google8protobuf28UninterpretedOption_NamePart4SwapEPS1_
T _ZN6google8protobuf28UninterpretedOption_NamePart5ClearEv
T _ZN6google8protobuf28UninterpretedOption_NamePart8CopyFromERKNS0_7MessageE
T _ZN6google8protobuf28UninterpretedOption_NamePart8CopyFromERKS1_
T _ZN6google8protobuf28UninterpretedOption_NamePart9MergeFromERKNS0_7MessageE
T _ZN6google8protobuf28UninterpretedOption_NamePart9MergeFromERKS1_
T _ZN6google8protobuf28UninterpretedOption_NamePartC1ERKS1_
T _ZN6google8protobuf28UninterpretedOption_NamePartC1Ev
T _ZN6google8protobuf28UninterpretedOption_NamePartC2ERKS1_
T _ZN6google8protobuf28UninterpretedOption_NamePartC2Ev
T _ZN6google8protobuf28UninterpretedOption_NamePartD0Ev
T _ZN6google8protobuf28UninterpretedOption_NamePartD1Ev
T _ZN6google8protobuf28UninterpretedOption_NamePartD2Ev
T _ZN6google8protobuf29FieldOptions_CType_descriptorEv
T _ZN6google8protobuf2io14ErrorCollectorD0Ev
T _ZN6google8protobuf2io14ErrorCollectorD1Ev
T _ZN6google8protobuf2io14ErrorCollectorD2Ev
T _ZN6google8protobuf2io15FileInputStream22CopyingFileInputStream4ReadEPvi
T _ZN6google8protobuf2io15FileInputStream22CopyingFileInputStream4SkipEi
T _ZN6google8protobuf2io15FileInputStream22CopyingFileInputStream5CloseEv
T _ZN6google8protobuf2io15FileInputStream22CopyingFileInputStreamC1Ei
T _ZN6google8protobuf2io15FileInputStream22CopyingFileInputStreamC2Ei
T _ZN6google8protobuf2io15FileInputStream22CopyingFileInputStreamD0Ev
T _ZN6google8protobuf2io15FileInputStream22CopyingFileInputStreamD1Ev
T _ZN6google8protobuf2io15FileInputStream22CopyingFileInputStreamD2Ev
T _ZN6google8protobuf2io15FileInputStream4NextEPPKvPi
T _ZN6google8protobuf2io15FileInputStream4SkipEi
T _ZN6google8protobuf2io15FileInputStream5CloseEv
T _ZN6google8protobuf2io15FileInputStream6BackUpEi
T _ZN6google8protobuf2io15FileInputStreamC1Eii
T _ZN6google8protobuf2io15FileInputStreamC2Eii
T _ZN6google8protobuf2io15FileInputStreamD0Ev
T _ZN6google8protobuf2io15FileInputStreamD1Ev
T _ZN6google8protobuf2io15FileInputStreamD2Ev
T _ZN6google8protobuf2io16ArrayInputStream4NextEPPKvPi
T _ZN6google8protobuf2io16ArrayInputStream4SkipEi
T _ZN6google8protobuf2io16ArrayInputStream6BackUpEi
T _ZN6google8protobuf2io16ArrayInputStreamC1EPKvii
T _ZN6google8protobuf2io16ArrayInputStreamC2EPKvii
T _ZN6google8protobuf2io16ArrayInputStreamD0Ev
T _ZN6google8protobuf2io16ArrayInputStreamD1Ev
T _ZN6google8protobuf2io16ArrayInputStreamD2Ev
T _ZN6google8protobuf2io16CodedInputStream10ReadStringEPSsi
T _ZN6google8protobuf2io16CodedInputStream11ReadTagSlowEv
T _ZN6google8protobuf2io16CodedInputStream15BytesUntilLimitEv
T _ZN6google8protobuf2io16CodedInputStream15ReadTagFallbackEv
T _ZN6google8protobuf2io16CodedInputStream16ReadVarint32SlowEPj
T _ZN6google8protobuf2io16CodedInputStream16ReadVarint64SlowEPy
T _ZN6google8protobuf2io16CodedInputStream18ReadStringFallbackEPSsi
T _ZN6google8protobuf2io16CodedInputStream18SetTotalBytesLimitEii
T _ZN6google8protobuf2io16CodedInputStream20ReadVarint32FallbackEPj
T _ZN6google8protobuf2io16CodedInputStream20ReadVarint64FallbackEPy
T _ZN6google8protobuf2io16CodedInputStream22GetDirectBufferPointerEPPKvPi
T _ZN6google8protobuf2io16CodedInputStream25PrintTotalBytesLimitErrorEv
T _ZN6google8protobuf2io16CodedInputStream26ReadLittleEndian32FallbackEPj
T _ZN6google8protobuf2io16CodedInputStream26ReadLittleEndian64FallbackEPy
T _ZN6google8protobuf2io16CodedInputStream28BackUpInputToCurrentPositionEv
T _ZN6google8protobuf2io16CodedInputStream4SkipEi
T _ZN6google8protobuf2io16CodedInputStream7ReadRawEPvi
T _ZN6google8protobuf2io16CodedInputStream7RefreshEv
T _ZN6google8protobuf2io16CodedInputStream8PopLimitEi
T _ZN6google8protobuf2io16CodedInputStream9PushLimitEi
T _ZN6google8protobuf2io16FileOutputStream23CopyingFileOutputStream5CloseEv
T _ZN6google8protobuf2io16FileOutputStream23CopyingFileOutputStream5WriteEPKvi
T _ZN6google8protobuf2io16FileOutputStream23CopyingFileOutputStreamC1Ei
T _ZN6google8protobuf2io16FileOutputStream23CopyingFileOutputStreamC2Ei
T _ZN6google8protobuf2io16FileOutputStream23CopyingFileOutputStreamD0Ev
T _ZN6google8protobuf2io16FileOutputStream23CopyingFileOutputStreamD1Ev
T _ZN6google8protobuf2io16FileOutputStream23CopyingFileOutputStreamD2Ev
T _ZN6google8protobuf2io16FileOutputStream4NextEPPvPi
T _ZN6google8protobuf2io16FileOutputStream5CloseEv
T _ZN6google8protobuf2io16FileOutputStream5FlushEv
T _ZN6google8protobuf2io16FileOutputStream6BackUpEi
T _ZN6google8protobuf2io16FileOutputStreamC1Eii
T _ZN6google8protobuf2io16FileOutputStreamC2Eii
T _ZN6google8protobuf2io16FileOutputStreamD0Ev
T _ZN6google8protobuf2io16FileOutputStreamD1Ev
T _ZN6google8protobuf2io16FileOutputStreamD2Ev
T _ZN6google8protobuf2io17ArrayOutputStream4NextEPPvPi
T _ZN6google8protobuf2io17ArrayOutputStream6BackUpEi
T _ZN6google8protobuf2io17ArrayOutputStreamC1EPvii
T _ZN6google8protobuf2io17ArrayOutputStreamC2EPvii
T _ZN6google8protobuf2io17ArrayOutputStreamD0Ev
T _ZN6google8protobuf2io17ArrayOutputStreamD1Ev
T _ZN6google8protobuf2io17ArrayOutputStreamD2Ev
T _ZN6google8protobuf2io17CodedOutputStream12VarintSize64Ey
T _ZN6google8protobuf2io17CodedOutputStream13WriteVarint32Ej
T _ZN6google8protobuf2io17CodedOutputStream13WriteVarint64Ey
T _ZN6google8protobuf2io17CodedOutputStream15WriteRawToArrayEPKviPh
T _ZN6google8protobuf2io17CodedOutputStream19WriteLittleEndian32Ej
T _ZN6google8protobuf2io17CodedOutputStream19WriteLittleEndian64Ey
T _ZN6google8protobuf2io17CodedOutputStream20VarintSize32FallbackEj
T _ZN6google8protobuf2io17CodedOutputStream20WriteVarint64ToArrayEyPh
T _ZN6google8protobuf2io17CodedOutputStream22GetDirectBufferPointerEPPvPi
T _ZN6google8protobuf2io17CodedOutputStream28WriteVarint32FallbackToArrayEjPh
T _ZN6google8protobuf2io17CodedOutputStream4SkipEi
T _ZN6google8protobuf2io17CodedOutputStream7RefreshEv
T _ZN6google8protobuf2io17CodedOutputStream8WriteRawEPKvi
T _ZN6google8protobuf2io17CodedOutputStreamC1EPNS1_20ZeroCopyOutputStreamE
T _ZN6google8protobuf2io17CodedOutputStreamC2EPNS1_20ZeroCopyOutputStreamE
T _ZN6google8protobuf2io17CodedOutputStreamD1Ev
T _ZN6google8protobuf2io17CodedOutputStreamD2Ev
T _ZN6google8protobuf2io18CopyingInputStream4SkipEi
T _ZN6google8protobuf2io18CopyingInputStreamD0Ev
T _ZN6google8protobuf2io18CopyingInputStreamD1Ev
T _ZN6google8protobuf2io18CopyingInputStreamD2Ev
T _ZN6google8protobuf2io18IstreamInputStream25CopyingIstreamInputStream4ReadEPvi
T _ZN6google8protobuf2io18IstreamInputStream25CopyingIstreamInputStreamC1EPSi
T _ZN6google8protobuf2io18IstreamInputStream25CopyingIstreamInputStreamC2EPSi
T _ZN6google8protobuf2io18IstreamInputStream25CopyingIstreamInputStreamD0Ev
T _ZN6google8protobuf2io18IstreamInputStream25CopyingIstreamInputStreamD1Ev
T _ZN6google8protobuf2io18IstreamInputStream25CopyingIstreamInputStreamD2Ev
T _ZN6google8protobuf2io18IstreamInputStream4NextEPPKvPi
T _ZN6google8protobuf2io18IstreamInputStream4SkipEi
T _ZN6google8protobuf2io18IstreamInputStream6BackUpEi
T _ZN6google8protobuf2io18IstreamInputStreamC1EPSii
T _ZN6google8protobuf2io18IstreamInputStreamC2EPSii
T _ZN6google8protobuf2io18IstreamInputStreamD0Ev
T _ZN6google8protobuf2io18IstreamInputStreamD1Ev
T _ZN6google8protobuf2io18IstreamInputStreamD2Ev
T _ZN6google8protobuf2io18StringOutputStream4NextEPPvPi
T _ZN6google8protobuf2io18StringOutputStream6BackUpEi
T _ZN6google8protobuf2io18StringOutputStreamC1EPSs
T _ZN6google8protobuf2io18StringOutputStreamC2EPSs
T _ZN6google8protobuf2io18StringOutputStreamD0Ev
T _ZN6google8protobuf2io18StringOutputStreamD1Ev
T _ZN6google8protobuf2io18StringOutputStreamD2Ev
T _ZN6google8protobuf2io19CopyingOutputStreamD0Ev
T _ZN6google8protobuf2io19CopyingOutputStreamD1Ev
T _ZN6google8protobuf2io19CopyingOutputStreamD2Ev
T _ZN6google8protobuf2io19LimitingInputStream4NextEPPKvPi
T _ZN6google8protobuf2io19LimitingInputStream4SkipEi
T _ZN6google8protobuf2io19LimitingInputStream6BackUpEi
T _ZN6google8protobuf2io19LimitingInputStreamC1EPNS1_19ZeroCopyInputStreamEx
T _ZN6google8protobuf2io19LimitingInputStreamC2EPNS1_19ZeroCopyInputStreamEx
T _ZN6google8protobuf2io19LimitingInputStreamD0Ev
T _ZN6google8protobuf2io19LimitingInputStreamD1Ev
T _ZN6google8protobuf2io19LimitingInputStreamD2Ev
T _ZN6google8protobuf2io19OstreamOutputStream26CopyingOstreamOutputStream5WriteEPKvi
T _ZN6google8protobuf2io19OstreamOutputStream26CopyingOstreamOutputStreamC1EPSo
T _ZN6google8protobuf2io19OstreamOutputStream26CopyingOstreamOutputStreamC2EPSo
T _ZN6google8protobuf2io19OstreamOutputStream26CopyingOstreamOutputStreamD0Ev
T _ZN6google8protobuf2io19OstreamOutputStream26CopyingOstreamOutputStreamD1Ev
T _ZN6google8protobuf2io19OstreamOutputStream26CopyingOstreamOutputStreamD2Ev
T _ZN6google8protobuf2io19OstreamOutputStream4NextEPPvPi
T _ZN6google8protobuf2io19OstreamOutputStream6BackUpEi
T _ZN6google8protobuf2io19OstreamOutputStreamC1EPSoi
T _ZN6google8protobuf2io19OstreamOutputStreamC2EPSoi
T _ZN6google8protobuf2io19OstreamOutputStreamD0Ev
T _ZN6google8protobuf2io19OstreamOutputStreamD1Ev
T _ZN6google8protobuf2io19OstreamOutputStreamD2Ev
T _ZN6google8protobuf2io19ZeroCopyInputStreamD0Ev
T _ZN6google8protobuf2io19ZeroCopyInputStreamD1Ev
T _ZN6google8protobuf2io19ZeroCopyInputStreamD2Ev
T _ZN6google8protobuf2io20ZeroCopyOutputStreamD0Ev
T _ZN6google8protobuf2io20ZeroCopyOutputStreamD1Ev
T _ZN6google8protobuf2io20ZeroCopyOutputStreamD2Ev
T _ZN6google8protobuf2io24ConcatenatingInputStream4NextEPPKvPi
T _ZN6google8protobuf2io24ConcatenatingInputStream4SkipEi
T _ZN6google8protobuf2io24ConcatenatingInputStream6BackUpEi
T _ZN6google8protobuf2io24ConcatenatingInputStreamC1EPKPNS1_19ZeroCopyInputStreamEi
T _ZN6google8protobuf2io24ConcatenatingInputStreamC2EPKPNS1_19ZeroCopyInputStreamEi
T _ZN6google8protobuf2io24ConcatenatingInputStreamD0Ev
T _ZN6google8protobuf2io24ConcatenatingInputStreamD1Ev
T _ZN6google8protobuf2io24ConcatenatingInputStreamD2Ev
T _ZN6google8protobuf2io25CopyingInputStreamAdaptor10FreeBufferEv
T _ZN6google8protobuf2io25CopyingInputStreamAdaptor22AllocateBufferIfNeededEv
T _ZN6google8protobuf2io25CopyingInputStreamAdaptor4NextEPPKvPi
T _ZN6google8protobuf2io25CopyingInputStreamAdaptor4SkipEi
T _ZN6google8protobuf2io25CopyingInputStreamAdaptor6BackUpEi
T _ZN6google8protobuf2io25CopyingInputStreamAdaptorC1EPNS1_18CopyingInputStreamEi
T _ZN6google8protobuf2io25CopyingInputStreamAdaptorC2EPNS1_18CopyingInputStreamEi
T _ZN6google8protobuf2io25CopyingInputStreamAdaptorD0Ev
T _ZN6google8protobuf2io25CopyingInputStreamAdaptorD1Ev
T _ZN6google8protobuf2io25CopyingInputStreamAdaptorD2Ev
T _ZN6google8protobuf2io26CopyingOutputStreamAdaptor10FreeBufferEv
T _ZN6google8protobuf2io26CopyingOutputStreamAdaptor11WriteBufferEv
T _ZN6google8protobuf2io26CopyingOutputStreamAdaptor22AllocateBufferIfNeededEv
T _ZN6google8protobuf2io26CopyingOutputStreamAdaptor4NextEPPvPi
T _ZN6google8protobuf2io26CopyingOutputStreamAdaptor5FlushEv
T _ZN6google8protobuf2io26CopyingOutputStreamAdaptor6BackUpEi
T _ZN6google8protobuf2io26CopyingOutputStreamAdaptorC1EPNS1_19CopyingOutputStreamEi
T _ZN6google8protobuf2io26CopyingOutputStreamAdaptorC2EPNS1_19CopyingOutputStreamEi
T _ZN6google8protobuf2io26CopyingOutputStreamAdaptorD0Ev
T _ZN6google8protobuf2io26CopyingOutputStreamAdaptorD1Ev
T _ZN6google8protobuf2io26CopyingOutputStreamAdaptorD2Ev
T _ZN6google8protobuf2io9Tokenizer10ParseFloatERKSs
T _ZN6google8protobuf2io9Tokenizer12ParseIntegerERKSsyPy
T _ZN6google8protobuf2io9Tokenizer13ConsumeNumberEbb
T _ZN6google8protobuf2io9Tokenizer13ConsumeStringEc
T _ZN6google8protobuf2io9Tokenizer17ParseStringAppendERKSsPSs
T _ZN6google8protobuf2io9Tokenizer18ConsumeLineCommentEv
T _ZN6google8protobuf2io9Tokenizer19ConsumeBlockCommentEv
T _ZN6google8protobuf2io9Tokenizer4NextEv
T _ZN6google8protobuf2io9Tokenizer7RefreshEv
T _ZN6google8protobuf2io9Tokenizer8NextCharEv
T _ZN6google8protobuf2io9TokenizerC1EPNS1_19ZeroCopyInputStreamEPNS1_14ErrorCollectorE
T _ZN6google8protobuf2io9TokenizerC2EPNS1_19ZeroCopyInputStreamEPNS1_14ErrorCollectorE
T _ZN6google8protobuf2io9TokenizerD1Ev
T _ZN6google8protobuf2io9TokenizerD2Ev
T _ZN6google8protobuf30DescriptorProto_ExtensionRange10SharedCtorEv
T _ZN6google8protobuf30DescriptorProto_ExtensionRange10SharedDtorEv
T _ZN6google8protobuf30DescriptorProto_ExtensionRange10descriptorEv
R _ZN6google8protobuf30DescriptorProto_ExtensionRange15kEndFieldNumberE
T _ZN6google8protobuf30DescriptorProto_ExtensionRange16default_instanceEv
B _ZN6google8protobuf30DescriptorProto_ExtensionRange17default_instance_E
R _ZN6google8protobuf30DescriptorProto_ExtensionRange17kStartFieldNumberE
T _ZN6google8protobuf30DescriptorProto_ExtensionRange21InitAsDefaultInstanceEv
T _ZN6google8protobuf30DescriptorProto_ExtensionRange27MergePartialFromCodedStreamEPNS0_2io16CodedInputStreamE
T _ZN6google8protobuf30DescriptorProto_ExtensionRange4SwapEPS1_
T _ZN6google8protobuf30DescriptorProto_ExtensionRange5ClearEv
T _ZN6google8protobuf30DescriptorProto_ExtensionRange8CopyFromERKNS0_7MessageE
T _ZN6google8protobuf30DescriptorProto_ExtensionRange8CopyFromERKS1_
T _ZN6google8protobuf30DescriptorProto_ExtensionRange9MergeFromERKNS0_7MessageE
T _ZN6google8protobuf30DescriptorProto_ExtensionRange9MergeFromERKS1_
T _ZN6google8protobuf30DescriptorProto_ExtensionRangeC1ERKS1_
T _ZN6google8protobuf30DescriptorProto_ExtensionRangeC1Ev
T _ZN6google8protobuf30DescriptorProto_ExtensionRangeC2ERKS1_
T _ZN6google8protobuf30DescriptorProto_ExtensionRangeC2Ev
T _ZN6google8protobuf30DescriptorProto_ExtensionRangeD0Ev
T _ZN6google8protobuf30DescriptorProto_ExtensionRangeD1Ev
T _ZN6google8protobuf30DescriptorProto_ExtensionRangeD2Ev
T _ZN6google8protobuf32FileOptions_OptimizeMode_IsValidEi
T _ZN6google8protobuf33FieldDescriptorProto_Type_IsValidEi
T _ZN6google8protobuf34FieldDescriptorProto_Label_IsValidEi
T _ZN6google8protobuf35FileOptions_OptimizeMode_descriptorEv
T _ZN6google8protobuf36FieldDescriptorProto_Type_descriptorEv
T _ZN6google8protobuf37FieldDescriptorProto_Label_descriptorEv
T _ZN6google8protobuf55protobuf_AddDesc_google_2fprotobuf_2fdescriptor_2eprotoEv
T _ZN6google8protobuf58protobuf_AssignDesc_google_2fprotobuf_2fdescriptor_2eprotoEv
T _ZN6google8protobuf60protobuf_ShutdownFile_google_2fprotobuf_2fdescriptor_2eprotoEv
B _ZN6google8protobuf69static_descriptor_initializer_google_2fprotobuf_2fdescriptor_2eproto_E
T _ZN6google8protobuf7CEscapeERKSs
T _ZN6google8protobuf7ClosureD0Ev
T _ZN6google8protobuf7ClosureD1Ev
T _ZN6google8protobuf7ClosureD2Ev
T _ZN6google8protobuf7Message16ParseFromIstreamEPSi
T _ZN6google8protobuf7Message20DiscardUnknownFieldsEv
T _ZN6google8protobuf7Message21CheckTypeAndMergeFromERKNS0_11MessageLiteE
T _ZN6google8protobuf7Message23ParseFromFileDescriptorEi
T _ZN6google8protobuf7Message23ParsePartialFromIstreamEPSi
T _ZN6google8protobuf7Message27MergePartialFromCodedStreamEPNS0_2io16CodedInputStreamE
T _ZN6google8protobuf7Message30ParsePartialFromFileDescriptorEi
T _ZN6google8protobuf7Message5ClearEv
T _ZN6google8protobuf7Message8CopyFromERKS1_
T _ZN6google8protobuf7Message9MergeFromERKS1_
T _ZN6google8protobuf7MessageD0Ev
T _ZN6google8protobuf7MessageD1Ev
T _ZN6google8protobuf7MessageD2Ev
T _ZN6google8protobuf7strings10CHexEscapeERKSs
T _ZN6google8protobuf7strings10SubstituteEPKcRKNS1_8internal13SubstituteArgES7_S7_S7_S7_S7_S7_S7_S7_S7_
T _ZN6google8protobuf7strings15Utf8SafeCEscapeERKSs
T _ZN6google8protobuf7strings19SubstituteAndAppendEPSsPKcRKNS1_8internal13SubstituteArgES8_S8_S8_S8_S8_S8_S8_S8_S8_
T _ZN6google8protobuf8internal10LogMessage6FinishEv
T _ZN6google8protobuf8internal10LogMessageC1ENS0_8LogLevelEPKci
T _ZN6google8protobuf8internal10LogMessageC2ENS0_8LogLevelEPKci
T _ZN6google8protobuf8internal10LogMessageD1Ev
T _ZN6google8protobuf8internal10LogMessageD2Ev
T _ZN6google8protobuf8internal10LogMessagelsEPKc
T _ZN6google8protobuf8internal10LogMessagelsERKSs
T _ZN6google8protobuf8internal10LogMessagelsEc
T _ZN6google8protobuf8internal10LogMessagelsEd
T _ZN6google8protobuf8internal10LogMessagelsEi
T _ZN6google8protobuf8internal10LogMessagelsEj
T _ZN6google8protobuf8internal10LogMessagelsEl
T _ZN6google8protobuf8internal10LogMessagelsEm
T _ZN6google8protobuf8internal10NameOfEnumEPKNS0_14EnumDescriptorEi
T _ZN6google8protobuf8internal10OnShutdownEPFvvE
T _ZN6google8protobuf8internal10WireFormat11SkipMessageEPNS0_2io16CodedInputStreamEPNS0_15UnknownFieldSetE
T _ZN6google8protobuf8internal10WireFormat13FieldByteSizeEPKNS0_15FieldDescriptorERKNS0_7MessageE
T _ZN6google8protobuf8internal10WireFormat18ParseAndMergeFieldEjPKNS0_15FieldDescriptorEPNS0_7MessageEPNS0_2io16CodedInputStreamE
T _ZN6google8protobuf8internal10WireFormat20ParseAndMergePartialEPNS0_2io16CodedInputStreamEPNS0_7MessageE
T _ZN6google8protobuf8internal10WireFormat21FieldDataOnlyByteSizeEPKNS0_15FieldDescriptorERKNS0_7MessageE
T _ZN6google8protobuf8internal10WireFormat22MessageSetItemByteSizeEPKNS0_15FieldDescriptorERKNS0_7MessageE
T _ZN6google8protobuf8internal10WireFormat22SerializeUnknownFieldsERKNS0_15UnknownFieldSetEPNS0_2io17CodedOutputStreamE
T _ZN6google8protobuf8internal10WireFormat24ComputeUnknownFieldsSizeERKNS0_15UnknownFieldSetE
T _ZN6google8protobuf8internal10WireFormat24SerializeWithCachedSizesERKNS0_7MessageEiPNS0_2io17CodedOutputStreamE
T _ZN6google8protobuf8internal10WireFormat24VerifyUTF8StringFallbackEPKciNS2_9OperationE
T _ZN6google8protobuf8internal10WireFormat27ParseAndMergeMessageSetItemEPNS0_2io16CodedInputStreamEPNS0_7MessageE
T _ZN6google8protobuf8internal10WireFormat29SerializeFieldWithCachedSizesEPKNS0_15FieldDescriptorERKNS0_7MessageEPNS0_2io17CodedOutputStreamE
T _ZN6google8protobuf8internal10WireFormat29SerializeUnknownFieldsToArrayERKNS0_15UnknownFieldSetEPh
T _ZN6google8protobuf8internal10WireFormat31SerializeUnknownMessageSetItemsERKNS0_15UnknownFieldSetEPNS0_2io17CodedOutputStreamE
T _ZN6google8protobuf8internal10WireFormat33ComputeUnknownMessageSetItemsSizeERKNS0_15UnknownFieldSetE
T _ZN6google8protobuf8internal10WireFormat38SerializeMessageSetItemWithCachedSizesEPKNS0_15FieldDescriptorERKNS0_7MessageEPNS0_2io17CodedOutputStreamE
T _ZN6google8protobuf8internal10WireFormat38SerializeUnknownMessageSetItemsToArrayERKNS0_15UnknownFieldSetEPh
T _ZN6google8protobuf8internal10WireFormat8ByteSizeERKNS0_7MessageE
T _ZN6google8protobuf8internal10WireFormat9SkipFieldEPNS0_2io16CodedInputStreamEjPNS0_15UnknownFieldSetE
T _ZN6google8protobuf8internal11LogFinisheraSERNS1_10LogMessageE
T _ZN6google8protobuf8internal12ExtensionSet10AddMessageEPKNS0_15FieldDescriptorEPNS0_14MessageFactoryE
T _ZN6google8protobuf8internal12ExtensionSet10AddMessageEihRKNS0_11MessageLiteEPKNS0_15FieldDescriptorE
T _ZN6google8protobuf8internal12ExtensionSet10ParseFieldEjPNS0_2io16CodedInputStreamEPKNS0_11MessageLiteE
T _ZN6google8protobuf8internal12ExtensionSet10ParseFieldEjPNS0_2io16CodedInputStreamEPKNS0_7MessageEPNS0_15UnknownFieldSetE
T _ZN6google8protobuf8internal12ExtensionSet10ParseFieldEjPNS0_2io16CodedInputStreamEPNS1_15ExtensionFinderEPNS1_12FieldSkipperE
T _ZN6google8protobuf8internal12ExtensionSet10RemoveLastEi
T _ZN6google8protobuf8internal12ExtensionSet12SwapElementsEiii
T _ZN6google8protobuf8internal12ExtensionSet13MutableStringEihPKNS0_15FieldDescriptorE
T _ZN6google8protobuf8internal12ExtensionSet14ClearExtensionEi
T _ZN6google8protobuf8internal12ExtensionSet14MutableMessageEPKNS0_15FieldDescriptorEPNS0_14MessageFactoryE
T _ZN6google8protobuf8internal12ExtensionSet14MutableMessageEihRKNS0_11MessageLiteEPKNS0_15FieldDescriptorE
T _ZN6google8protobuf8internal12ExtensionSet15ParseMessageSetEPNS0_2io16CodedInputStreamEPKNS0_11MessageLiteE
T _ZN6google8protobuf8internal12ExtensionSet15ParseMessageSetEPNS0_2io16CodedInputStreamEPKNS0_7MessageEPNS0_15UnknownFieldSetE
T _ZN6google8protobuf8internal12ExtensionSet15ParseMessageSetEPNS0_2io16CodedInputStreamEPNS1_15ExtensionFinderEPNS1_12FieldSkipperE
T _ZN6google8protobuf8internal12ExtensionSet15SetRepeatedBoolEiib
T _ZN6google8protobuf8internal12ExtensionSet15SetRepeatedEnumEiii
T _ZN6google8protobuf8internal12ExtensionSet16SetRepeatedFloatEiif
T _ZN6google8protobuf8internal12ExtensionSet16SetRepeatedInt32Eiii
T _ZN6google8protobuf8internal12ExtensionSet16SetRepeatedInt64Eiix
T _ZN6google8protobuf8internal12ExtensionSet17MaybeNewExtensionEiPKNS0_15FieldDescriptorEPPNS2_9ExtensionE
T _ZN6google8protobuf8internal12ExtensionSet17RegisterExtensionEPKNS0_11MessageLiteEihbb
T _ZN6google8protobuf8internal12ExtensionSet17SetRepeatedDoubleEiid
T _ZN6google8protobuf8internal12ExtensionSet17SetRepeatedUInt32Eiij
T _ZN6google8protobuf8internal12ExtensionSet17SetRepeatedUInt64Eiiy
T _ZN6google8protobuf8internal12ExtensionSet19ParseMessageSetItemEPNS0_2io16CodedInputStreamEPNS1_15ExtensionFinderEPNS1_12FieldSkipperE
T _ZN6google8protobuf8internal12ExtensionSet21MutableRepeatedStringEii
T _ZN6google8protobuf8internal12ExtensionSet21RegisterEnumExtensionEPKNS0_11MessageLiteEihbbPFbiE
T _ZN6google8protobuf8internal12ExtensionSet22MutableRepeatedMessageEii
T _ZN6google8protobuf8internal12ExtensionSet24RegisterMessageExtensionEPKNS0_11MessageLiteEihbbS5_
T _ZN6google8protobuf8internal12ExtensionSet4SwapEPS2_
T _ZN6google8protobuf8internal12ExtensionSet5ClearEv
T _ZN6google8protobuf8internal12ExtensionSet7AddBoolEihbbPKNS0_15FieldDescriptorE
T _ZN6google8protobuf8internal12ExtensionSet7AddEnumEihbiPKNS0_15FieldDescriptorE
T _ZN6google8protobuf8internal12ExtensionSet7SetBoolEihbPKNS0_15FieldDescriptorE
T _ZN6google8protobuf8internal12ExtensionSet7SetEnumEihiPKNS0_15FieldDescriptorE
T _ZN6google8protobuf8internal12ExtensionSet8AddFloatEihbfPKNS0_15FieldDescriptorE
T _ZN6google8protobuf8internal12ExtensionSet8AddInt32EihbiPKNS0_15FieldDescriptorE
T _ZN6google8protobuf8internal12ExtensionSet8AddInt64EihbxPKNS0_15FieldDescriptorE
T _ZN6google8protobuf8internal12ExtensionSet8SetFloatEihfPKNS0_15FieldDescriptorE
T _ZN6google8protobuf8internal12ExtensionSet8SetInt32EihiPKNS0_15FieldDescriptorE
T _ZN6google8protobuf8internal12ExtensionSet8SetInt64EihxPKNS0_15FieldDescriptorE
T _ZN6google8protobuf8internal12ExtensionSet9AddDoubleEihbdPKNS0_15FieldDescriptorE
T _ZN6google8protobuf8internal12ExtensionSet9AddStringEihPKNS0_15FieldDescriptorE
T _ZN6google8protobuf8internal12ExtensionSet9AddUInt32EihbjPKNS0_15FieldDescriptorE
T _ZN6google8protobuf8internal12ExtensionSet9AddUInt64EihbyPKNS0_15FieldDescriptorE
T _ZN6google8protobuf8internal12ExtensionSet9Extension4FreeEv
T _ZN6google8protobuf8internal12ExtensionSet9Extension5ClearEv
T _ZN6google8protobuf8internal12ExtensionSet9MergeFromERKS2_
T _ZN6google8protobuf8internal12ExtensionSet9SetDoubleEihdPKNS0_15FieldDescriptorE
T _ZN6google8protobuf8internal12ExtensionSet9SetUInt32EihjPKNS0_15FieldDescriptorE
T _ZN6google8protobuf8internal12ExtensionSet9SetUInt64EihyPKNS0_15FieldDescriptorE
T _ZN6google8protobuf8internal12ExtensionSetC1Ev
T _ZN6google8protobuf8internal12ExtensionSetC2Ev
T _ZN6google8protobuf8internal12ExtensionSetD1Ev
T _ZN6google8protobuf8internal12ExtensionSetD2Ev
T _ZN6google8protobuf8internal12FieldSkipper11SkipMessageEPNS0_2io16CodedInputStreamE
T _ZN6google8protobuf8internal12FieldSkipper15SkipUnknownEnumEii
T _ZN6google8protobuf8internal12FieldSkipper9SkipFieldEPNS0_2io16CodedInputStreamEj
T _ZN6google8protobuf8internal13ReflectionOps13IsInitializedERKNS0_7MessageE
T _ZN6google8protobuf8internal13ReflectionOps20DiscardUnknownFieldsEPNS0_7MessageE
T _ZN6google8protobuf8internal13ReflectionOps24FindInitializationErrorsERKNS0_7MessageERKSsPSt6vectorISsSaISsEE
T _ZN6google8protobuf8internal13ReflectionOps4CopyERKNS0_7MessageEPS3_
T _ZN6google8protobuf8internal13ReflectionOps5ClearEPNS0_7MessageE
T _ZN6google8protobuf8internal13ReflectionOps5MergeERKNS0_7MessageEPS3_
T _ZN6google8protobuf8internal13VerifyVersionEiiPKc
T _ZN6google8protobuf8internal13VersionStringEi
T _ZN6google8protobuf8internal14NullLogHandlerENS0_8LogLevelEPKciRKSs
T _ZN6google8protobuf8internal14ParseNamedEnumEPKNS0_14EnumDescriptorERKSsPi
T _ZN6google8protobuf8internal14WireFormatLite10ReadStringEPNS0_2io16CodedInputStreamEPSs
T _ZN6google8protobuf8internal14WireFormatLite10WriteBytesEiRKSsPNS0_2io17CodedOutputStreamE
T _ZN6google8protobuf8internal14WireFormatLite10WriteFloatEifPNS0_2io17CodedOutputStreamE
T _ZN6google8protobuf8internal14WireFormatLite10WriteGroupEiRKNS0_11MessageLiteEPNS0_2io17CodedOutputStreamE
T _ZN6google8protobuf8internal14WireFormatLite10WriteInt32EiiPNS0_2io17CodedOutputStreamE
T _ZN6google8protobuf8internal14WireFormatLite10WriteInt64EixPNS0_2io17CodedOutputStreamE
T _ZN6google8protobuf8internal14WireFormatLite11SkipMessageEPNS0_2io16CodedInputStreamE
T _ZN6google8protobuf8internal14WireFormatLite11WriteDoubleEidPNS0_2io17CodedOutputStreamE
T _ZN6google8protobuf8internal14WireFormatLite11WriteSInt32EiiPNS0_2io17CodedOutputStreamE
T _ZN6google8protobuf8internal14WireFormatLite11WriteSInt64EixPNS0_2io17CodedOutputStreamE
T _ZN6google8protobuf8internal14WireFormatLite11WriteStringEiRKSsPNS0_2io17CodedOutputStreamE
T _ZN6google8protobuf8internal14WireFormatLite11WriteUInt32EijPNS0_2io17CodedOutputStreamE
T _ZN6google8protobuf8internal14WireFormatLite11WriteUInt64EiyPNS0_2io17CodedOutputStreamE
T _ZN6google8protobuf8internal14WireFormatLite12WriteFixed32EijPNS0_2io17CodedOutputStreamE
T _ZN6google8protobuf8internal14WireFormatLite12WriteFixed64EiyPNS0_2io17CodedOutputStreamE
T _ZN6google8protobuf8internal14WireFormatLite12WriteMessageEiRKNS0_11MessageLiteEPNS0_2io17CodedOutputStreamE
T _ZN6google8protobuf8internal14WireFormatLite13WriteSFixed32EiiPNS0_2io17CodedOutputStreamE
T _ZN6google8protobuf8internal14WireFormatLite13WriteSFixed64EixPNS0_2io17CodedOutputStreamE
R _ZN6google8protobuf8internal14WireFormatLite20kMessageSetTypeIdTagE
R _ZN6google8protobuf8internal14WireFormatLite21kMessageSetItemEndTagE
R _ZN6google8protobuf8internal14WireFormatLite21kMessageSetMessageTagE
R _ZN6google8protobuf8internal14WireFormatLite21kWireTypeForFieldTypeE
T _ZN6google8protobuf8internal14WireFormatLite22ReadPackedEnumNoInlineEPNS0_2io16CodedInputStreamEPFbiEPNS0_13RepeatedFieldIiEE
T _ZN6google8protobuf8internal14WireFormatLite22WriteGroupMaybeToArrayEiRKNS0_11MessageLiteEPNS0_2io17CodedOutputStreamE
R _ZN6google8protobuf8internal14WireFormatLite22kFieldTypeToCppTypeMapE
R _ZN6google8protobuf8internal14WireFormatLite23kMessageSetItemStartTagE
B _ZN6google8protobuf8internal14WireFormatLite23kMessageSetItemTagsSizeE
T _ZN6google8protobuf8internal14WireFormatLite24WriteMessageMaybeToArrayEiRKNS0_11MessageLiteEPNS0_2io17CodedOutputStreamE
W _ZN6google8protobuf8internal14WireFormatLite27ReadPackedPrimitiveNoInlineIiLNS2_9FieldTypeE5EEEbPNS0_2io16CodedInputStreamEPNS0_13RepeatedFieldIT_EE
T _ZN6google8protobuf8internal14WireFormatLite9ReadBytesEPNS0_2io16CodedInputStreamEPSs
T _ZN6google8protobuf8internal14WireFormatLite9SkipFieldEPNS0_2io16CodedInputStreamEj
T _ZN6google8protobuf8internal14WireFormatLite9WriteBoolEibPNS0_2io17CodedOutputStreamE
T _ZN6google8protobuf8internal14WireFormatLite9WriteEnumEiiPNS0_2io17CodedOutputStreamE
T _ZN6google8protobuf8internal15ExtensionFinderD0Ev
T _ZN6google8protobuf8internal15ExtensionFinderD1Ev
T _ZN6google8protobuf8internal15ExtensionFinderD2Ev
T _ZN6google8protobuf8internal15UTF8GenericScanEPKNS1_19UTF8StateMachineObjEPKciPi
T _ZN6google8protobuf8internal16FunctionClosure0D0Ev
T _ZN6google8protobuf8internal16FunctionClosure0D1Ev
T _ZN6google8protobuf8internal16FunctionClosure0D2Ev
T _ZN6google8protobuf8internal17DefaultLogHandlerENS0_8LogLevelEPKciRKSs
B _ZN6google8protobuf8internal18shutdown_functionsE
T _ZN6google8protobuf8internal20InitLogSilencerCountEv
W _ZN6google8protobuf8internal20RepeatedPtrFieldBase12AddAllocatedINS0_16RepeatedPtrFieldINS0_11MessageLiteEE11TypeHandlerEEEvPNT_4TypeE
W _ZN6google8protobuf8internal20RepeatedPtrFieldBase12AddAllocatedINS1_18GenericTypeHandlerINS0_7MessageEEEEEvPNT_4TypeE
T _ZN6google8protobuf8internal20RepeatedPtrFieldBase4SwapEPS2_
W _ZN6google8protobuf8internal20RepeatedPtrFieldBase7DestroyINS0_16RepeatedPtrFieldIN9ril_proto12RilAppStatusEE11TypeHandlerEEEvv
W _ZN6google8protobuf8internal20RepeatedPtrFieldBase7DestroyINS0_16RepeatedPtrFieldIN9ril_proto7RilCallEE11TypeHandlerEEEvv
W _ZN6google8protobuf8internal20RepeatedPtrFieldBase7DestroyINS0_16RepeatedPtrFieldINS0_11MessageLiteEE11TypeHandlerEEEvv
W _ZN6google8protobuf8internal20RepeatedPtrFieldBase7DestroyINS0_16RepeatedPtrFieldINS0_15DescriptorProtoEE11TypeHandlerEEEvv
W _ZN6google8protobuf8internal20RepeatedPtrFieldBase7DestroyINS0_16RepeatedPtrFieldINS0_19EnumDescriptorProtoEE11TypeHandlerEEEvv
W _ZN6google8protobuf8internal20RepeatedPtrFieldBase7DestroyINS0_16RepeatedPtrFieldINS0_19FileDescriptorProtoEE11TypeHandlerEEEvv
W _ZN6google8protobuf8internal20RepeatedPtrFieldBase7DestroyINS0_16RepeatedPtrFieldINS0_19UninterpretedOptionEE11TypeHandlerEEEvv
W _ZN6google8protobuf8internal20RepeatedPtrFieldBase7DestroyINS0_16RepeatedPtrFieldINS0_20FieldDescriptorProtoEE11TypeHandlerEEEvv
W _ZN6google8protobuf8internal20RepeatedPtrFieldBase7DestroyINS0_16RepeatedPtrFieldINS0_21MethodDescriptorProtoEE11TypeHandlerEEEvv
W _ZN6google8protobuf8internal20RepeatedPtrFieldBase7DestroyINS0_16RepeatedPtrFieldINS0_22ServiceDescriptorProtoEE11TypeHandlerEEEvv
W _ZN6google8protobuf8internal20RepeatedPtrFieldBase7DestroyINS0_16RepeatedPtrFieldINS0_24EnumValueDescriptorProtoEE11TypeHandlerEEEvv
W _ZN6google8protobuf8internal20RepeatedPtrFieldBase7DestroyINS0_16RepeatedPtrFieldINS0_28UninterpretedOption_NamePartEE11TypeHandlerEEEvv
W _ZN6google8protobuf8internal20RepeatedPtrFieldBase7DestroyINS0_16RepeatedPtrFieldINS0_30DescriptorProto_ExtensionRangeEE11TypeHandlerEEEvv
W _ZN6google8protobuf8internal20RepeatedPtrFieldBase7DestroyINS0_16RepeatedPtrFieldINS0_7MessageEE11TypeHandlerEEEvv
W _ZN6google8protobuf8internal20RepeatedPtrFieldBase7DestroyINS0_16RepeatedPtrFieldISsE11TypeHandlerEEEvv
T _ZN6google8protobuf8internal20RepeatedPtrFieldBase7ReserveEi
T _ZN6google8protobuf8internal21InitShutdownFunctionsEv
T _ZN6google8protobuf8internal21StringTypeHandlerBase3NewEv
T _ZN6google8protobuf8internal21StringTypeHandlerBase6DeleteEPSs
T _ZN6google8protobuf8internal22DeleteLogSilencerCountEv
T _ZN6google8protobuf8internal23IsStructurallyValidUTF8EPKci
B _ZN6google8protobuf8internal23shutdown_functions_initE
T _ZN6google8protobuf8internal24GeneratedExtensionFinder4FindEiPNS1_13ExtensionInfoE
T _ZN6google8protobuf8internal24InitLogSilencerCountOnceEv
T _ZN6google8protobuf8internal24UTF8GenericScanFastAsciiEPKNS1_19UTF8StateMachineObjEPKciPi
B _ZN6google8protobuf8internal24log_silencer_count_init_E
B _ZN6google8protobuf8internal24shutdown_functions_mutexE
T _ZN6google8protobuf8internal26GeneratedMessageReflectionC1EPKNS0_10DescriptorEPKNS0_7MessageEPKiiiiPKNS0_14DescriptorPoolEPNS0_14MessageFactoryEi
T _ZN6google8protobuf8internal26GeneratedMessageReflectionC2EPKNS0_10DescriptorEPKNS0_7MessageEPKiiiiPKNS0_14DescriptorPoolEPNS0_14MessageFactoryEi
T _ZN6google8protobuf8internal26GeneratedMessageReflectionD0Ev
T _ZN6google8protobuf8internal26GeneratedMessageReflectionD1Ev
T _ZN6google8protobuf8internal26GeneratedMessageReflectionD2Ev
T _ZN6google8protobuf8internal27UnknownFieldSetFieldSkipper11SkipMessageEPNS0_2io16CodedInputStreamE
T _ZN6google8protobuf8internal27UnknownFieldSetFieldSkipper15SkipUnknownEnumEii
T _ZN6google8protobuf8internal27UnknownFieldSetFieldSkipper9SkipFieldEPNS0_2io16CodedInputStreamEj
T _ZN6google8protobuf8internal28StringSpaceUsedExcludingSelfERKSs
T _ZN6google8protobuf8internal29DescriptorPoolExtensionFinder4FindEiPNS1_13ExtensionInfoE
T _ZN6google8protobuf8internal5Mutex10AssertHeldEv
T _ZN6google8protobuf8internal5Mutex4LockEv
T _ZN6google8protobuf8internal5Mutex6UnlockEv
T _ZN6google8protobuf8internal5MutexC1Ev
T _ZN6google8protobuf8internal5MutexC2Ev
T _ZN6google8protobuf8internal5MutexD1Ev
T _ZN6google8protobuf8internal5MutexD2Ev
T _ZN6google8protobuf9DoNothingEv
U _ZN7android15elapsedRealtimeEv
T _ZN7unibrow10WhiteSpace2IsEj
W _ZN7unibrow11InputBufferIN2v88internal6StringEPPS3_Lj256EE10FillBufferEv
W _ZN7unibrow11InputBufferIN2v88internal6StringEPPS3_Lj256EE4SeekEj
W _ZN7unibrow11InputBufferIN2v88internal6StringEPPS3_Lj256EE6RewindEv
W _ZN7unibrow11InputBufferIN2v88internal6StringEPS3_Lj1024EE10FillBufferEv
W _ZN7unibrow11InputBufferIN2v88internal6StringEPS3_Lj1024EE4SeekEj
W _ZN7unibrow11InputBufferIN2v88internal6StringEPS3_Lj1024EE6RewindEv
W _ZN7unibrow11InputBufferINS_4Utf8ENS_6BufferIPKcEELj1024EE10FillBufferEv
W _ZN7unibrow11InputBufferINS_4Utf8ENS_6BufferIPKcEELj1024EE4SeekEj
W _ZN7unibrow11InputBufferINS_4Utf8ENS_6BufferIPKcEELj1024EE6RewindEv
W _ZN7unibrow11InputBufferINS_4Utf8ENS_6BufferIPKcEELj256EE10FillBufferEv
W _ZN7unibrow11InputBufferINS_4Utf8ENS_6BufferIPKcEELj256EE4SeekEj
W _ZN7unibrow11InputBufferINS_4Utf8ENS_6BufferIPKcEELj256EE6RewindEv
T _ZN7unibrow11ToLowercase7ConvertEjjPjPb
T _ZN7unibrow11ToUppercase7ConvertEjjPjPb
T _ZN7unibrow11UnicodeData12GetByteCountEv
D _ZN7unibrow11UnicodeData13kMaxCodePointE
T _ZN7unibrow13CombiningMark2IsEj
T _ZN7unibrow14LineTerminator2IsEj
T _ZN7unibrow15CharacterStream4SeekEj
T _ZN7unibrow15CharacterStream6LengthEv
T _ZN7unibrow19Ecma262Canonicalize7ConvertEjjPjPb
T _ZN7unibrow20ConnectorPunctuation2IsEj
T _ZN7unibrow21CanonicalizationRange7ConvertEjjPjPb
T _ZN7unibrow21Ecma262UnCanonicalize7ConvertEjjPjPb
T _ZN7unibrow4Utf814CalculateValueEPKhjPj
T _ZN7unibrow4Utf89ReadBlockENS_6BufferIPKcEEPhjPjS6_
T _ZN7unibrow5Space2IsEj
T _ZN7unibrow6Letter2IsEj
T _ZN7unibrow6Number2IsEj
T _ZN7unibrow9Lowercase2IsEj
T _ZN7unibrow9Uppercase2IsEj
T _ZN9ril_proto10ReqSetMute10SharedCtorEv
T _ZN9ril_proto10ReqSetMute10SharedDtorEv
T _ZN9ril_proto10ReqSetMute10descriptorEv
T _ZN9ril_proto10ReqSetMute16default_instanceEv
B _ZN9ril_proto10ReqSetMute17default_instance_E
R _ZN9ril_proto10ReqSetMute17kStateFieldNumberE
T _ZN9ril_proto10ReqSetMute21InitAsDefaultInstanceEv
T _ZN9ril_proto10ReqSetMute27MergePartialFromCodedStreamEPN6google8protobuf2io16CodedInputStreamE
T _ZN9ril_proto10ReqSetMute4SwapEPS0_
T _ZN9ril_proto10ReqSetMute5ClearEv
T _ZN9ril_proto10ReqSetMute8CopyFromERKN6google8protobuf7MessageE
T _ZN9ril_proto10ReqSetMute8CopyFromERKS0_
T _ZN9ril_proto10ReqSetMute9MergeFromERKN6google8protobuf7MessageE
T _ZN9ril_proto10ReqSetMute9MergeFromERKS0_
T _ZN9ril_proto10ReqSetMuteC1ERKS0_
T _ZN9ril_proto10ReqSetMuteC1Ev
T _ZN9ril_proto10ReqSetMuteC2ERKS0_
T _ZN9ril_proto10ReqSetMuteC2Ev
T _ZN9ril_proto10ReqSetMuteD0Ev
T _ZN9ril_proto10ReqSetMuteD1Ev
T _ZN9ril_proto10ReqSetMuteD2Ev
T _ZN9ril_proto10RilUusInfo10SharedCtorEv
T _ZN9ril_proto10RilUusInfo10SharedDtorEv
T _ZN9ril_proto10RilUusInfo10descriptorEv
T _ZN9ril_proto10RilUusInfo16default_instanceEv
B _ZN9ril_proto10RilUusInfo17default_instance_E
B _ZN9ril_proto10RilUusInfo18_default_uus_data_E
R _ZN9ril_proto10RilUusInfo18kUusDcsFieldNumberE
R _ZN9ril_proto10RilUusInfo19kUusDataFieldNumberE
R _ZN9ril_proto10RilUusInfo19kUusTypeFieldNumberE
T _ZN9ril_proto10RilUusInfo21InitAsDefaultInstanceEv
R _ZN9ril_proto10RilUusInfo21kUusLengthFieldNumberE
T _ZN9ril_proto10RilUusInfo27MergePartialFromCodedStreamEPN6google8protobuf2io16CodedInputStreamE
T _ZN9ril_proto10RilUusInfo4SwapEPS0_
T _ZN9ril_proto10RilUusInfo5ClearEv
T _ZN9ril_proto10RilUusInfo8CopyFromERKN6google8protobuf7MessageE
T _ZN9ril_proto10RilUusInfo8CopyFromERKS0_
T _ZN9ril_proto10RilUusInfo9MergeFromERKN6google8protobuf7MessageE
T _ZN9ril_proto10RilUusInfo9MergeFromERKS0_
T _ZN9ril_proto10RilUusInfoC1ERKS0_
T _ZN9ril_proto10RilUusInfoC1Ev
T _ZN9ril_proto10RilUusInfoC2ERKS0_
T _ZN9ril_proto10RilUusInfoC2Ev
T _ZN9ril_proto10RilUusInfoD0Ev
T _ZN9ril_proto10RilUusInfoD1Ev
T _ZN9ril_proto10RilUusInfoD2Ev
T _ZN9ril_proto10RspStrings10SharedCtorEv
T _ZN9ril_proto10RspStrings10SharedDtorEv
T _ZN9ril_proto10RspStrings10descriptorEv
T _ZN9ril_proto10RspStrings16default_instanceEv
B _ZN9ril_proto10RspStrings17default_instance_E
R _ZN9ril_proto10RspStrings19kStringsFieldNumberE
T _ZN9ril_proto10RspStrings21InitAsDefaultInstanceEv
T _ZN9ril_proto10RspStrings27MergePartialFromCodedStreamEPN6google8protobuf2io16CodedInputStreamE
T _ZN9ril_proto10RspStrings4SwapEPS0_
T _ZN9ril_proto10RspStrings5ClearEv
T _ZN9ril_proto10RspStrings8CopyFromERKN6google8protobuf7MessageE
T _ZN9ril_proto10RspStrings8CopyFromERKS0_
T _ZN9ril_proto10RspStrings9MergeFromERKN6google8protobuf7MessageE
T _ZN9ril_proto10RspStrings9MergeFromERKS0_
T _ZN9ril_proto10RspStringsC1ERKS0_
T _ZN9ril_proto10RspStringsC1Ev
T _ZN9ril_proto10RspStringsC2ERKS0_
T _ZN9ril_proto10RspStringsC2Ev
T _ZN9ril_proto10RspStringsD0Ev
T _ZN9ril_proto10RspStringsD1Ev
T _ZN9ril_proto10RspStringsD2Ev
T _ZN9ril_proto11RspIntegers10SharedCtorEv
T _ZN9ril_proto11RspIntegers10SharedDtorEv
T _ZN9ril_proto11RspIntegers10descriptorEv
T _ZN9ril_proto11RspIntegers16default_instanceEv
B _ZN9ril_proto11RspIntegers17default_instance_E
R _ZN9ril_proto11RspIntegers20kIntegersFieldNumberE
T _ZN9ril_proto11RspIntegers21InitAsDefaultInstanceEv
T _ZN9ril_proto11RspIntegers27MergePartialFromCodedStreamEPN6google8protobuf2io16CodedInputStreamE
T _ZN9ril_proto11RspIntegers4SwapEPS0_
T _ZN9ril_proto11RspIntegers5ClearEv
T _ZN9ril_proto11RspIntegers8CopyFromERKN6google8protobuf7MessageE
T _ZN9ril_proto11RspIntegers8CopyFromERKS0_
T _ZN9ril_proto11RspIntegers9MergeFromERKN6google8protobuf7MessageE
T _ZN9ril_proto11RspIntegers9MergeFromERKS0_
T _ZN9ril_proto11RspIntegersC1ERKS0_
T _ZN9ril_proto11RspIntegersC1Ev
T _ZN9ril_proto11RspIntegersC2ERKS0_
T _ZN9ril_proto11RspIntegersC2Ev
T _ZN9ril_proto11RspIntegersD0Ev
T _ZN9ril_proto11RspIntegersD1Ev
T _ZN9ril_proto11RspIntegersD2Ev
T _ZN9ril_proto11RspOperator10SharedCtorEv
T _ZN9ril_proto11RspOperator10SharedDtorEv
T _ZN9ril_proto11RspOperator10descriptorEv
T _ZN9ril_proto11RspOperator16default_instanceEv
B _ZN9ril_proto11RspOperator17_default_mcc_mnc_E
B _ZN9ril_proto11RspOperator17default_instance_E
R _ZN9ril_proto11RspOperator18kMccMncFieldNumberE
T _ZN9ril_proto11RspOperator21InitAsDefaultInstanceEv
B _ZN9ril_proto11RspOperator24_default_long_alpha_ons_E
R _ZN9ril_proto11RspOperator24kLongAlphaOnsFieldNumberE
B _ZN9ril_proto11RspOperator25_default_short_alpha_ons_E
R _ZN9ril_proto11RspOperator25kShortAlphaOnsFieldNumberE
T _ZN9ril_proto11RspOperator27MergePartialFromCodedStreamEPN6google8protobuf2io16CodedInputStreamE
T _ZN9ril_proto11RspOperator4SwapEPS0_
T _ZN9ril_proto11RspOperator5ClearEv
T _ZN9ril_proto11RspOperator8CopyFromERKN6google8protobuf7MessageE
T _ZN9ril_proto11RspOperator8CopyFromERKS0_
T _ZN9ril_proto11RspOperator9MergeFromERKN6google8protobuf7MessageE
T _ZN9ril_proto11RspOperator9MergeFromERKS0_
T _ZN9ril_proto11RspOperatorC1ERKS0_
T _ZN9ril_proto11RspOperatorC1Ev
T _ZN9ril_proto11RspOperatorC2ERKS0_
T _ZN9ril_proto11RspOperatorC2Ev
T _ZN9ril_proto11RspOperatorD0Ev
T _ZN9ril_proto11RspOperatorD1Ev
T _ZN9ril_proto11RspOperatorD2Ev
T _ZN9ril_proto12RilAppStatus10SharedCtorEv
T _ZN9ril_proto12RilAppStatus10SharedDtorEv
T _ZN9ril_proto12RilAppStatus10descriptorEv
B _ZN9ril_proto12RilAppStatus13_default_aid_E
R _ZN9ril_proto12RilAppStatus15kAidFieldNumberE
T _ZN9ril_proto12RilAppStatus16default_instanceEv
R _ZN9ril_proto12RilAppStatus16kPin1FieldNumberE
R _ZN9ril_proto12RilAppStatus16kPin2FieldNumberE
B _ZN9ril_proto12RilAppStatus17default_instance_E
B _ZN9ril_proto12RilAppStatus19_default_app_label_E
R _ZN9ril_proto12RilAppStatus19kAppTypeFieldNumberE
R _ZN9ril_proto12RilAppStatus20kAppLabelFieldNumberE
R _ZN9ril_proto12RilAppStatus20kAppStateFieldNumberE
T _ZN9ril_proto12RilAppStatus21InitAsDefaultInstanceEv
R _ZN9ril_proto12RilAppStatus24kPin1ReplacedFieldNumberE
R _ZN9ril_proto12RilAppStatus25kPersoSubstateFieldNumberE
T _ZN9ril_proto12RilAppStatus27MergePartialFromCodedStreamEPN6google8protobuf2io16CodedInputStreamE
T _ZN9ril_proto12RilAppStatus4SwapEPS0_
T _ZN9ril_proto12RilAppStatus5ClearEv
T _ZN9ril_proto12RilAppStatus8CopyFromERKN6google8protobuf7MessageE
T _ZN9ril_proto12RilAppStatus8CopyFromERKS0_
T _ZN9ril_proto12RilAppStatus9MergeFromERKN6google8protobuf7MessageE
T _ZN9ril_proto12RilAppStatus9MergeFromERKS0_
T _ZN9ril_proto12RilAppStatusC1ERKS0_
T _ZN9ril_proto12RilAppStatusC1Ev
T _ZN9ril_proto12RilAppStatusC2ERKS0_
T _ZN9ril_proto12RilAppStatusC2Ev
T _ZN9ril_proto12RilAppStatusD0Ev
T _ZN9ril_proto12RilAppStatusD1Ev
T _ZN9ril_proto12RilAppStatusD2Ev
T _ZN9ril_proto13RilCardStatus10SharedCtorEv
T _ZN9ril_proto13RilCardStatus10SharedDtorEv
T _ZN9ril_proto13RilCardStatus10descriptorEv
T _ZN9ril_proto13RilCardStatus16default_instanceEv
B _ZN9ril_proto13RilCardStatus17default_instance_E
T _ZN9ril_proto13RilCardStatus21InitAsDefaultInstanceEv
R _ZN9ril_proto13RilCardStatus21kCardStateFieldNumberE
R _ZN9ril_proto13RilCardStatus24kApplicationsFieldNumberE
T _ZN9ril_proto13RilCardStatus27MergePartialFromCodedStreamEPN6google8protobuf2io16CodedInputStreamE
R _ZN9ril_proto13RilCardStatus27kNumApplicationsFieldNumberE
R _ZN9ril_proto13RilCardStatus29kUniversalPinStateFieldNumberE
R _ZN9ril_proto13RilCardStatus36kCdmaSubscriptionAppIndexFieldNumberE
R _ZN9ril_proto13RilCardStatus39kGsmUmtsSubscriptionAppIndexFieldNumberE
T _ZN9ril_proto13RilCardStatus4SwapEPS0_
T _ZN9ril_proto13RilCardStatus5ClearEv
T _ZN9ril_proto13RilCardStatus8CopyFromERKN6google8protobuf7MessageE
T _ZN9ril_proto13RilCardStatus8CopyFromERKS0_
T _ZN9ril_proto13RilCardStatus9MergeFromERKN6google8protobuf7MessageE
T _ZN9ril_proto13RilCardStatus9MergeFromERKS0_
T _ZN9ril_proto13RilCardStatusC1ERKS0_
T _ZN9ril_proto13RilCardStatusC1Ev
T _ZN9ril_proto13RilCardStatusC2ERKS0_
T _ZN9ril_proto13RilCardStatusC2Ev
T _ZN9ril_proto13RilCardStatusD0Ev
T _ZN9ril_proto13RilCardStatusD1Ev
T _ZN9ril_proto13RilCardStatusD2Ev
T _ZN9ril_proto14ReqEnterSimPin10SharedCtorEv
T _ZN9ril_proto14ReqEnterSimPin10SharedDtorEv
T _ZN9ril_proto14ReqEnterSimPin10descriptorEv
B _ZN9ril_proto14ReqEnterSimPin13_default_pin_E
R _ZN9ril_proto14ReqEnterSimPin15kPinFieldNumberE
T _ZN9ril_proto14ReqEnterSimPin16default_instanceEv
B _ZN9ril_proto14ReqEnterSimPin17default_instance_E
T _ZN9ril_proto14ReqEnterSimPin21InitAsDefaultInstanceEv
T _ZN9ril_proto14ReqEnterSimPin27MergePartialFromCodedStreamEPN6google8protobuf2io16CodedInputStreamE
T _ZN9ril_proto14ReqEnterSimPin4SwapEPS0_
T _ZN9ril_proto14ReqEnterSimPin5ClearEv
T _ZN9ril_proto14ReqEnterSimPin8CopyFromERKN6google8protobuf7MessageE
T _ZN9ril_proto14ReqEnterSimPin8CopyFromERKS0_
T _ZN9ril_proto14ReqEnterSimPin9MergeFromERKN6google8protobuf7MessageE
T _ZN9ril_proto14ReqEnterSimPin9MergeFromERKS0_
T _ZN9ril_proto14ReqEnterSimPinC1ERKS0_
T _ZN9ril_proto14ReqEnterSimPinC1Ev
T _ZN9ril_proto14ReqEnterSimPinC2ERKS0_
T _ZN9ril_proto14ReqEnterSimPinC2Ev
T _ZN9ril_proto14ReqEnterSimPinD0Ev
T _ZN9ril_proto14ReqEnterSimPinD1Ev
T _ZN9ril_proto14ReqEnterSimPinD2Ev
T _ZN9ril_proto14ReqScreenState10SharedCtorEv
T _ZN9ril_proto14ReqScreenState10SharedDtorEv
T _ZN9ril_proto14ReqScreenState10descriptorEv
T _ZN9ril_proto14ReqScreenState16default_instanceEv
B _ZN9ril_proto14ReqScreenState17default_instance_E
R _ZN9ril_proto14ReqScreenState17kStateFieldNumberE
T _ZN9ril_proto14ReqScreenState21InitAsDefaultInstanceEv
T _ZN9ril_proto14ReqScreenState27MergePartialFromCodedStreamEPN6google8protobuf2io16CodedInputStreamE
T _ZN9ril_proto14ReqScreenState4SwapEPS0_
T _ZN9ril_proto14ReqScreenState5ClearEv
T _ZN9ril_proto14ReqScreenState8CopyFromERKN6google8protobuf7MessageE
T _ZN9ril_proto14ReqScreenState8CopyFromERKS0_
T _ZN9ril_proto14ReqScreenState9MergeFromERKN6google8protobuf7MessageE
T _ZN9ril_proto14ReqScreenState9MergeFromERKS0_
T _ZN9ril_proto14ReqScreenStateC1ERKS0_
T _ZN9ril_proto14ReqScreenStateC1Ev
T _ZN9ril_proto14ReqScreenStateC2ERKS0_
T _ZN9ril_proto14ReqScreenStateC2Ev
T _ZN9ril_proto14ReqScreenStateD0Ev
T _ZN9ril_proto14ReqScreenStateD1Ev
T _ZN9ril_proto14ReqScreenStateD2Ev
T _ZN9ril_proto14RspEnterSimPin10SharedCtorEv
T _ZN9ril_proto14RspEnterSimPin10SharedDtorEv
T _ZN9ril_proto14RspEnterSimPin10descriptorEv
T _ZN9ril_proto14RspEnterSimPin16default_instanceEv
B _ZN9ril_proto14RspEnterSimPin17default_instance_E
T _ZN9ril_proto14RspEnterSimPin21InitAsDefaultInstanceEv
T _ZN9ril_proto14RspEnterSimPin27MergePartialFromCodedStreamEPN6google8protobuf2io16CodedInputStreamE
R _ZN9ril_proto14RspEnterSimPin28kRetriesRemainingFieldNumberE
T _ZN9ril_proto14RspEnterSimPin4SwapEPS0_
T _ZN9ril_proto14RspEnterSimPin5ClearEv
T _ZN9ril_proto14RspEnterSimPin8CopyFromERKN6google8protobuf7MessageE
T _ZN9ril_proto14RspEnterSimPin8CopyFromERKS0_
T _ZN9ril_proto14RspEnterSimPin9MergeFromERKN6google8protobuf7MessageE
T _ZN9ril_proto14RspEnterSimPin9MergeFromERKS0_
T _ZN9ril_proto14RspEnterSimPinC1ERKS0_
T _ZN9ril_proto14RspEnterSimPinC1Ev
T _ZN9ril_proto14RspEnterSimPinC2ERKS0_
T _ZN9ril_proto14RspEnterSimPinC2Ev
T _ZN9ril_proto14RspEnterSimPinD0Ev
T _ZN9ril_proto14RspEnterSimPinD1Ev
T _ZN9ril_proto14RspEnterSimPinD2Ev
T _ZN9ril_proto15CtrlCmd_IsValidEi
T _ZN9ril_proto15RspGetSimStatus10SharedCtorEv
T _ZN9ril_proto15RspGetSimStatus10SharedDtorEv
T _ZN9ril_proto15RspGetSimStatus10descriptorEv
T _ZN9ril_proto15RspGetSimStatus16default_instanceEv
B _ZN9ril_proto15RspGetSimStatus17default_instance_E
T _ZN9ril_proto15RspGetSimStatus21InitAsDefaultInstanceEv
R _ZN9ril_proto15RspGetSimStatus22kCardStatusFieldNumberE
T _ZN9ril_proto15RspGetSimStatus27MergePartialFromCodedStreamEPN6google8protobuf2io16CodedInputStreamE
T _ZN9ril_proto15RspGetSimStatus4SwapEPS0_
T _ZN9ril_proto15RspGetSimStatus5ClearEv
T _ZN9ril_proto15RspGetSimStatus8CopyFromERKN6google8protobuf7MessageE
T _ZN9ril_proto15RspGetSimStatus8CopyFromERKS0_
T _ZN9ril_proto15RspGetSimStatus9MergeFromERKN6google8protobuf7MessageE
T _ZN9ril_proto15RspGetSimStatus9MergeFromERKS0_
T _ZN9ril_proto15RspGetSimStatusC1ERKS0_
T _ZN9ril_proto15RspGetSimStatusC1Ev
T _ZN9ril_proto15RspGetSimStatusC2ERKS0_
T _ZN9ril_proto15RspGetSimStatusC2Ev
T _ZN9ril_proto15RspGetSimStatusD0Ev
T _ZN9ril_proto15RspGetSimStatusD1Ev
T _ZN9ril_proto15RspGetSimStatusD2Ev
T _ZN9ril_proto16CtrlReqSetMTCall10SharedCtorEv
T _ZN9ril_proto16CtrlReqSetMTCall10SharedDtorEv
T _ZN9ril_proto16CtrlReqSetMTCall10descriptorEv
T _ZN9ril_proto16CtrlReqSetMTCall16default_instanceEv
B _ZN9ril_proto16CtrlReqSetMTCall17default_instance_E
T _ZN9ril_proto16CtrlReqSetMTCall21InitAsDefaultInstanceEv
B _ZN9ril_proto16CtrlReqSetMTCall22_default_phone_number_E
R _ZN9ril_proto16CtrlReqSetMTCall23kPhoneNumberFieldNumberE
T _ZN9ril_proto16CtrlReqSetMTCall27MergePartialFromCodedStreamEPN6google8protobuf2io16CodedInputStreamE
T _ZN9ril_proto16CtrlReqSetMTCall4SwapEPS0_
T _ZN9ril_proto16CtrlReqSetMTCall5ClearEv
T _ZN9ril_proto16CtrlReqSetMTCall8CopyFromERKN6google8protobuf7MessageE
T _ZN9ril_proto16CtrlReqSetMTCall8CopyFromERKS0_
T _ZN9ril_proto16CtrlReqSetMTCall9MergeFromERKN6google8protobuf7MessageE
T _ZN9ril_proto16CtrlReqSetMTCall9MergeFromERKS0_
T _ZN9ril_proto16CtrlReqSetMTCallC1ERKS0_
T _ZN9ril_proto16CtrlReqSetMTCallC1Ev
T _ZN9ril_proto16CtrlReqSetMTCallC2ERKS0_
T _ZN9ril_proto16CtrlReqSetMTCallC2Ev
T _ZN9ril_proto16CtrlReqSetMTCallD0Ev
T _ZN9ril_proto16CtrlReqSetMTCallD1Ev
T _ZN9ril_proto16CtrlReqSetMTCallD2Ev
T _ZN9ril_proto17CtrlReqRadioState10SharedCtorEv
T _ZN9ril_proto17CtrlReqRadioState10SharedDtorEv
T _ZN9ril_proto17CtrlReqRadioState10descriptorEv
T _ZN9ril_proto17CtrlReqRadioState16default_instanceEv
B _ZN9ril_proto17CtrlReqRadioState17default_instance_E
R _ZN9ril_proto17CtrlReqRadioState17kStateFieldNumberE
T _ZN9ril_proto17CtrlReqRadioState21InitAsDefaultInstanceEv
T _ZN9ril_proto17CtrlReqRadioState27MergePartialFromCodedStreamEPN6google8protobuf2io16CodedInputStreamE
T _ZN9ril_proto17CtrlReqRadioState4SwapEPS0_
T _ZN9ril_proto17CtrlReqRadioState5ClearEv
T _ZN9ril_proto17CtrlReqRadioState8CopyFromERKN6google8protobuf7MessageE
T _ZN9ril_proto17CtrlReqRadioState8CopyFromERKS0_
T _ZN9ril_proto17CtrlReqRadioState9MergeFromERKN6google8protobuf7MessageE
T _ZN9ril_proto17CtrlReqRadioState9MergeFromERKS0_
T _ZN9ril_proto17CtrlReqRadioStateC1ERKS0_
T _ZN9ril_proto17CtrlReqRadioStateC1Ev
T _ZN9ril_proto17CtrlReqRadioStateC2ERKS0_
T _ZN9ril_proto17CtrlReqRadioStateC2Ev
T _ZN9ril_proto17CtrlReqRadioStateD0Ev
T _ZN9ril_proto17CtrlReqRadioStateD1Ev
T _ZN9ril_proto17CtrlReqRadioStateD2Ev
T _ZN9ril_proto17CtrlRspRadioState10SharedCtorEv
T _ZN9ril_proto17CtrlRspRadioState10SharedDtorEv
T _ZN9ril_proto17CtrlRspRadioState10descriptorEv
T _ZN9ril_proto17CtrlRspRadioState16default_instanceEv
B _ZN9ril_proto17CtrlRspRadioState17default_instance_E
R _ZN9ril_proto17CtrlRspRadioState17kStateFieldNumberE
T _ZN9ril_proto17CtrlRspRadioState21InitAsDefaultInstanceEv
T _ZN9ril_proto17CtrlRspRadioState27MergePartialFromCodedStreamEPN6google8protobuf2io16CodedInputStreamE
T _ZN9ril_proto17CtrlRspRadioState4SwapEPS0_
T _ZN9ril_proto17CtrlRspRadioState5ClearEv
T _ZN9ril_proto17CtrlRspRadioState8CopyFromERKN6google8protobuf7MessageE
T _ZN9ril_proto17CtrlRspRadioState8CopyFromERKS0_
T _ZN9ril_proto17CtrlRspRadioState9MergeFromERKN6google8protobuf7MessageE
T _ZN9ril_proto17CtrlRspRadioState9MergeFromERKS0_
T _ZN9ril_proto17CtrlRspRadioStateC1ERKS0_
T _ZN9ril_proto17CtrlRspRadioStateC1Ev
T _ZN9ril_proto17CtrlRspRadioStateC2ERKS0_
T _ZN9ril_proto17CtrlRspRadioStateC2Ev
T _ZN9ril_proto17CtrlRspRadioStateD0Ev
T _ZN9ril_proto17CtrlRspRadioStateD1Ev
T _ZN9ril_proto17CtrlRspRadioStateD2Ev
T _ZN9ril_proto17RilUusDcs_IsValidEi
T _ZN9ril_proto17RspSignalStrength10SharedCtorEv
T _ZN9ril_proto17RspSignalStrength10SharedDtorEv
T _ZN9ril_proto17RspSignalStrength10descriptorEv
T _ZN9ril_proto17RspSignalStrength16default_instanceEv
B _ZN9ril_proto17RspSignalStrength17default_instance_E
T _ZN9ril_proto17RspSignalStrength21InitAsDefaultInstanceEv
T _ZN9ril_proto17RspSignalStrength27MergePartialFromCodedStreamEPN6google8protobuf2io16CodedInputStreamE
R _ZN9ril_proto17RspSignalStrength28kGwSignalstrengthFieldNumberE
R _ZN9ril_proto17RspSignalStrength30kCdmaSignalstrengthFieldNumberE
R _ZN9ril_proto17RspSignalStrength30kEvdoSignalstrengthFieldNumberE
T _ZN9ril_proto17RspSignalStrength4SwapEPS0_
T _ZN9ril_proto17RspSignalStrength5ClearEv
T _ZN9ril_proto17RspSignalStrength8CopyFromERKN6google8protobuf7MessageE
T _ZN9ril_proto17RspSignalStrength8CopyFromERKS0_
T _ZN9ril_proto17RspSignalStrength9MergeFromERKN6google8protobuf7MessageE
T _ZN9ril_proto17RspSignalStrength9MergeFromERKS0_
T _ZN9ril_proto17RspSignalStrengthC1ERKS0_
T _ZN9ril_proto17RspSignalStrengthC1Ev
T _ZN9ril_proto17RspSignalStrengthC2ERKS0_
T _ZN9ril_proto17RspSignalStrengthC2Ev
T _ZN9ril_proto17RspSignalStrengthD0Ev
T _ZN9ril_proto17RspSignalStrengthD1Ev
T _ZN9ril_proto17RspSignalStrengthD2Ev
T _ZN9ril_proto18CtrlCmd_descriptorEv
T _ZN9ril_proto18CtrlStatus_IsValidEi
T _ZN9ril_proto18RadioState_IsValidEi
T _ZN9ril_proto18RilAppType_IsValidEi
T _ZN9ril_proto18RilUusType_IsValidEi
T _ZN9ril_proto18RspGetCurrentCalls10SharedCtorEv
T _ZN9ril_proto18RspGetCurrentCalls10SharedDtorEv
T _ZN9ril_proto18RspGetCurrentCalls10descriptorEv
T _ZN9ril_proto18RspGetCurrentCalls16default_instanceEv
B _ZN9ril_proto18RspGetCurrentCalls17default_instance_E
R _ZN9ril_proto18RspGetCurrentCalls17kCallsFieldNumberE
T _ZN9ril_proto18RspGetCurrentCalls21InitAsDefaultInstanceEv
T _ZN9ril_proto18RspGetCurrentCalls27MergePartialFromCodedStreamEPN6google8protobuf2io16CodedInputStreamE
T _ZN9ril_proto18RspGetCurrentCalls4SwapEPS0_
T _ZN9ril_proto18RspGetCurrentCalls5ClearEv
T _ZN9ril_proto18RspGetCurrentCalls8CopyFromERKN6google8protobuf7MessageE
T _ZN9ril_proto18RspGetCurrentCalls8CopyFromERKS0_
T _ZN9ril_proto18RspGetCurrentCalls9MergeFromERKN6google8protobuf7MessageE
T _ZN9ril_proto18RspGetCurrentCalls9MergeFromERKS0_
T _ZN9ril_proto18RspGetCurrentCallsC1ERKS0_
T _ZN9ril_proto18RspGetCurrentCallsC1Ev
T _ZN9ril_proto18RspGetCurrentCallsC2ERKS0_
T _ZN9ril_proto18RspGetCurrentCallsC2Ev
T _ZN9ril_proto18RspGetCurrentCallsD0Ev
T _ZN9ril_proto18RspGetCurrentCallsD1Ev
T _ZN9ril_proto18RspGetCurrentCallsD2Ev
T _ZN9ril_proto19RILGWSignalStrength10SharedCtorEv
T _ZN9ril_proto19RILGWSignalStrength10SharedDtorEv
T _ZN9ril_proto19RILGWSignalStrength10descriptorEv
T _ZN9ril_proto19RILGWSignalStrength16default_instanceEv
B _ZN9ril_proto19RILGWSignalStrength17default_instance_E
T _ZN9ril_proto19RILGWSignalStrength21InitAsDefaultInstanceEv
R _ZN9ril_proto19RILGWSignalStrength24kBitErrorRateFieldNumberE
R _ZN9ril_proto19RILGWSignalStrength26kSignalStrengthFieldNumberE
T _ZN9ril_proto19RILGWSignalStrength27MergePartialFromCodedStreamEPN6google8protobuf2io16CodedInputStreamE
T _ZN9ril_proto19RILGWSignalStrength4SwapEPS0_
T _ZN9ril_proto19RILGWSignalStrength5ClearEv
T _ZN9ril_proto19RILGWSignalStrength8CopyFromERKN6google8protobuf7MessageE
T _ZN9ril_proto19RILGWSignalStrength8CopyFromERKS0_
T _ZN9ril_proto19RILGWSignalStrength9MergeFromERKN6google8protobuf7MessageE
T _ZN9ril_proto19RILGWSignalStrength9MergeFromERKS0_
T _ZN9ril_proto19RILGWSignalStrengthC1ERKS0_
T _ZN9ril_proto19RILGWSignalStrengthC1Ev
T _ZN9ril_proto19RILGWSignalStrengthC2ERKS0_
T _ZN9ril_proto19RILGWSignalStrengthC2Ev
T _ZN9ril_proto19RILGWSignalStrengthD0Ev
T _ZN9ril_proto19RILGWSignalStrengthD1Ev
T _ZN9ril_proto19RILGWSignalStrengthD2Ev
T _ZN9ril_proto19RilAppState_IsValidEi
T _ZN9ril_proto19RilPinState_IsValidEi
T _ZN9ril_proto20CtrlHangupConnRemote10SharedCtorEv
T _ZN9ril_proto20CtrlHangupConnRemote10SharedDtorEv
T _ZN9ril_proto20CtrlHangupConnRemote10descriptorEv
T _ZN9ril_proto20CtrlHangupConnRemote16default_instanceEv
B _ZN9ril_proto20CtrlHangupConnRemote17default_instance_E
T _ZN9ril_proto20CtrlHangupConnRemote21InitAsDefaultInstanceEv
R _ZN9ril_proto20CtrlHangupConnRemote24kConnectionIdFieldNumberE
R _ZN9ril_proto20CtrlHangupConnRemote25kCallFailCauseFieldNumberE
T _ZN9ril_proto20CtrlHangupConnRemote27MergePartialFromCodedStreamEPN6google8protobuf2io16CodedInputStreamE
T _ZN9ril_proto20CtrlHangupConnRemote4SwapEPS0_
T _ZN9ril_proto20CtrlHangupConnRemote5ClearEv
T _ZN9ril_proto20CtrlHangupConnRemote8CopyFromERKN6google8protobuf7MessageE
T _ZN9ril_proto20CtrlHangupConnRemote8CopyFromERKS0_
T _ZN9ril_proto20CtrlHangupConnRemote9MergeFromERKN6google8protobuf7MessageE
T _ZN9ril_proto20CtrlHangupConnRemote9MergeFromERKS0_
T _ZN9ril_proto20CtrlHangupConnRemoteC1ERKS0_
T _ZN9ril_proto20CtrlHangupConnRemoteC1Ev
T _ZN9ril_proto20CtrlHangupConnRemoteC2ERKS0_
T _ZN9ril_proto20CtrlHangupConnRemoteC2Ev
T _ZN9ril_proto20CtrlHangupConnRemoteD0Ev
T _ZN9ril_proto20CtrlHangupConnRemoteD1Ev
T _ZN9ril_proto20CtrlHangupConnRemoteD2Ev
T _ZN9ril_proto20RilCallState_IsValidEi
T _ZN9ril_proto20RilCardState_IsValidEi
T _ZN9ril_proto20RilUusDcs_descriptorEv
T _ZN9ril_proto20RspLastCallFailCause10SharedCtorEv
T _ZN9ril_proto20RspLastCallFailCause10SharedDtorEv
T _ZN9ril_proto20RspLastCallFailCause10descriptorEv
T _ZN9ril_proto20RspLastCallFailCause16default_instanceEv
B _ZN9ril_proto20RspLastCallFailCause17default_instance_E
T _ZN9ril_proto20RspLastCallFailCause21InitAsDefaultInstanceEv
T _ZN9ril_proto20RspLastCallFailCause27MergePartialFromCodedStreamEPN6google8protobuf2io16CodedInputStreamE
R _ZN9ril_proto20RspLastCallFailCause29kLastCallFailCauseFieldNumberE
T _ZN9ril_proto20RspLastCallFailCause4SwapEPS0_
T _ZN9ril_proto20RspLastCallFailCause5ClearEv
T _ZN9ril_proto20RspLastCallFailCause8CopyFromERKN6google8protobuf7MessageE
T _ZN9ril_proto20RspLastCallFailCause8CopyFromERKS0_
T _ZN9ril_proto20RspLastCallFailCause9MergeFromERKN6google8protobuf7MessageE
T _ZN9ril_proto20RspLastCallFailCause9MergeFromERKS0_
T _ZN9ril_proto20RspLastCallFailCauseC1ERKS0_
T _ZN9ril_proto20RspLastCallFailCauseC1Ev
T _ZN9ril_proto20RspLastCallFailCauseC2ERKS0_
T _ZN9ril_proto20RspLastCallFailCauseC2Ev
T _ZN9ril_proto20RspLastCallFailCauseD0Ev
T _ZN9ril_proto20RspLastCallFailCauseD1Ev
T _ZN9ril_proto20RspLastCallFailCauseD2Ev
T _ZN9ril_proto21CtrlReqAddDialingCall10SharedCtorEv
T _ZN9ril_proto21CtrlReqAddDialingCall10SharedDtorEv
T _ZN9ril_proto21CtrlReqAddDialingCall10descriptorEv
T _ZN9ril_proto21CtrlReqAddDialingCall16default_instanceEv
B _ZN9ril_proto21CtrlReqAddDialingCall17default_instance_E
T _ZN9ril_proto21CtrlReqAddDialingCall21InitAsDefaultInstanceEv
B _ZN9ril_proto21CtrlReqAddDialingCall22_default_phone_number_E
R _ZN9ril_proto21CtrlReqAddDialingCall23kPhoneNumberFieldNumberE
T _ZN9ril_proto21CtrlReqAddDialingCall27MergePartialFromCodedStreamEPN6google8protobuf2io16CodedInputStreamE
T _ZN9ril_proto21CtrlReqAddDialingCall4SwapEPS0_
T _ZN9ril_proto21CtrlReqAddDialingCall5ClearEv
T _ZN9ril_proto21CtrlReqAddDialingCall8CopyFromERKN6google8protobuf7MessageE
T _ZN9ril_proto21CtrlReqAddDialingCall8CopyFromERKS0_
T _ZN9ril_proto21CtrlReqAddDialingCall9MergeFromERKN6google8protobuf7MessageE
T _ZN9ril_proto21CtrlReqAddDialingCall9MergeFromERKS0_
T _ZN9ril_proto21CtrlReqAddDialingCallC1ERKS0_
T _ZN9ril_proto21CtrlReqAddDialingCallC1Ev
T _ZN9ril_proto21CtrlReqAddDialingCallC2ERKS0_
T _ZN9ril_proto21CtrlReqAddDialingCallC2Ev
T _ZN9ril_proto21CtrlReqAddDialingCallD0Ev
T _ZN9ril_proto21CtrlReqAddDialingCallD1Ev
T _ZN9ril_proto21CtrlReqAddDialingCallD2Ev
T _ZN9ril_proto21CtrlStatus_descriptorEv
T _ZN9ril_proto21RILCDMASignalStrength10SharedCtorEv
T _ZN9ril_proto21RILCDMASignalStrength10SharedDtorEv
T _ZN9ril_proto21RILCDMASignalStrength10descriptorEv
R _ZN9ril_proto21RILCDMASignalStrength15kDbmFieldNumberE
T _ZN9ril_proto21RILCDMASignalStrength16default_instanceEv
R _ZN9ril_proto21RILCDMASignalStrength16kEcioFieldNumberE
B _ZN9ril_proto21RILCDMASignalStrength17default_instance_E
T _ZN9ril_proto21RILCDMASignalStrength21InitAsDefaultInstanceEv
T _ZN9ril_proto21RILCDMASignalStrength27MergePartialFromCodedStreamEPN6google8protobuf2io16CodedInputStreamE
T _ZN9ril_proto21RILCDMASignalStrength4SwapEPS0_
T _ZN9ril_proto21RILCDMASignalStrength5ClearEv
T _ZN9ril_proto21RILCDMASignalStrength8CopyFromERKN6google8protobuf7MessageE
T _ZN9ril_proto21RILCDMASignalStrength8CopyFromERKS0_
T _ZN9ril_proto21RILCDMASignalStrength9MergeFromERKN6google8protobuf7MessageE
T _ZN9ril_proto21RILCDMASignalStrength9MergeFromERKS0_
T _ZN9ril_proto21RILCDMASignalStrengthC1ERKS0_
T _ZN9ril_proto21RILCDMASignalStrengthC1Ev
T _ZN9ril_proto21RILCDMASignalStrengthC2ERKS0_
T _ZN9ril_proto21RILCDMASignalStrengthC2Ev
T _ZN9ril_proto21RILCDMASignalStrengthD0Ev
T _ZN9ril_proto21RILCDMASignalStrengthD1Ev
T _ZN9ril_proto21RILCDMASignalStrengthD2Ev
T _ZN9ril_proto21RILEVDOSignalStrength10SharedCtorEv
T _ZN9ril_proto21RILEVDOSignalStrength10SharedDtorEv
T _ZN9ril_proto21RILEVDOSignalStrength10descriptorEv
R _ZN9ril_proto21RILEVDOSignalStrength15kDbmFieldNumberE
T _ZN9ril_proto21RILEVDOSignalStrength16default_instanceEv
R _ZN9ril_proto21RILEVDOSignalStrength16kEcioFieldNumberE
B _ZN9ril_proto21RILEVDOSignalStrength17default_instance_E
T _ZN9ril_proto21RILEVDOSignalStrength21InitAsDefaultInstanceEv
T _ZN9ril_proto21RILEVDOSignalStrength27MergePartialFromCodedStreamEPN6google8protobuf2io16CodedInputStreamE
R _ZN9ril_proto21RILEVDOSignalStrength28kSignalNoiseRatioFieldNumberE
T _ZN9ril_proto21RILEVDOSignalStrength4SwapEPS0_
T _ZN9ril_proto21RILEVDOSignalStrength5ClearEv
T _ZN9ril_proto21RILEVDOSignalStrength8CopyFromERKN6google8protobuf7MessageE
T _ZN9ril_proto21RILEVDOSignalStrength8CopyFromERKS0_
T _ZN9ril_proto21RILEVDOSignalStrength9MergeFromERKN6google8protobuf7MessageE
T _ZN9ril_proto21RILEVDOSignalStrength9MergeFromERKS0_
T _ZN9ril_proto21RILEVDOSignalStrengthC1ERKS0_
T _ZN9ril_proto21RILEVDOSignalStrengthC1Ev
T _ZN9ril_proto21RILEVDOSignalStrengthC2ERKS0_
T _ZN9ril_proto21RILEVDOSignalStrengthC2Ev
T _ZN9ril_proto21RILEVDOSignalStrengthD0Ev
T _ZN9ril_proto21RILEVDOSignalStrengthD1Ev
T _ZN9ril_proto21RILEVDOSignalStrengthD2Ev
T _ZN9ril_proto21RadioState_descriptorEv
T _ZN9ril_proto21ReqSeparateConnection10SharedCtorEv
T _ZN9ril_proto21ReqSeparateConnection10SharedDtorEv
T _ZN9ril_proto21ReqSeparateConnection10descriptorEv
T _ZN9ril_proto21ReqSeparateConnection16default_instanceEv
B _ZN9ril_proto21ReqSeparateConnection17default_instance_E
R _ZN9ril_proto21ReqSeparateConnection17kIndexFieldNumberE
T _ZN9ril_proto21ReqSeparateConnection21InitAsDefaultInstanceEv
T _ZN9ril_proto21ReqSeparateConnection27MergePartialFromCodedStreamEPN6google8protobuf2io16CodedInputStreamE
T _ZN9ril_proto21ReqSeparateConnection4SwapEPS0_
T _ZN9ril_proto21ReqSeparateConnection5ClearEv
T _ZN9ril_proto21ReqSeparateConnection8CopyFromERKN6google8protobuf7MessageE
T _ZN9ril_proto21ReqSeparateConnection8CopyFromERKS0_
T _ZN9ril_proto21ReqSeparateConnection9MergeFromERKN6google8protobuf7MessageE
T _ZN9ril_proto21ReqSeparateConnection9MergeFromERKS0_
T _ZN9ril_proto21ReqSeparateConnectionC1ERKS0_
T _ZN9ril_proto21ReqSeparateConnectionC1Ev
T _ZN9ril_proto21ReqSeparateConnectionC2ERKS0_
T _ZN9ril_proto21ReqSeparateConnectionC2Ev
T _ZN9ril_proto21ReqSeparateConnectionD0Ev
T _ZN9ril_proto21ReqSeparateConnectionD1Ev
T _ZN9ril_proto21ReqSeparateConnectionD2Ev
T _ZN9ril_proto21RilAppType_descriptorEv
T _ZN9ril_proto21RilUusType_descriptorEv
T _ZN9ril_proto22RilAppState_descriptorEv
T _ZN9ril_proto22RilPinState_descriptorEv
T _ZN9ril_proto23RilCallState_descriptorEv
T _ZN9ril_proto23RilCardState_descriptorEv
T _ZN9ril_proto24RilPersoSubstate_IsValidEi
T _ZN9ril_proto25CtrlSetCallTransitionFlag10SharedCtorEv
T _ZN9ril_proto25CtrlSetCallTransitionFlag10SharedDtorEv
T _ZN9ril_proto25CtrlSetCallTransitionFlag10descriptorEv
T _ZN9ril_proto25CtrlSetCallTransitionFlag16default_instanceEv
R _ZN9ril_proto25CtrlSetCallTransitionFlag16kFlagFieldNumberE
B _ZN9ril_proto25CtrlSetCallTransitionFlag17default_instance_E
T _ZN9ril_proto25CtrlSetCallTransitionFlag21InitAsDefaultInstanceEv
T _ZN9ril_proto25CtrlSetCallTransitionFlag27MergePartialFromCodedStreamEPN6google8protobuf2io16CodedInputStreamE
T _ZN9ril_proto25CtrlSetCallTransitionFlag4SwapEPS0_
T _ZN9ril_proto25CtrlSetCallTransitionFlag5ClearEv
T _ZN9ril_proto25CtrlSetCallTransitionFlag8CopyFromERKN6google8protobuf7MessageE
T _ZN9ril_proto25CtrlSetCallTransitionFlag8CopyFromERKS0_
T _ZN9ril_proto25CtrlSetCallTransitionFlag9MergeFromERKN6google8protobuf7MessageE
T _ZN9ril_proto25CtrlSetCallTransitionFlag9MergeFromERKS0_
T _ZN9ril_proto25CtrlSetCallTransitionFlagC1ERKS0_
T _ZN9ril_proto25CtrlSetCallTransitionFlagC1Ev
T _ZN9ril_proto25CtrlSetCallTransitionFlagC2ERKS0_
T _ZN9ril_proto25CtrlSetCallTransitionFlagC2Ev
T _ZN9ril_proto25CtrlSetCallTransitionFlagD0Ev
T _ZN9ril_proto25CtrlSetCallTransitionFlagD1Ev
T _ZN9ril_proto25CtrlSetCallTransitionFlagD2Ev
T _ZN9ril_proto27RilPersoSubstate_descriptorEv
T _ZN9ril_proto28protobuf_AddDesc_ril_2eprotoEv
T _ZN9ril_proto29protobuf_AddDesc_ctrl_2eprotoEv
T _ZN9ril_proto31protobuf_AssignDesc_ril_2eprotoEv
T _ZN9ril_proto32protobuf_AssignDesc_ctrl_2eprotoEv
T _ZN9ril_proto33protobuf_ShutdownFile_ril_2eprotoEv
T _ZN9ril_proto34protobuf_ShutdownFile_ctrl_2eprotoEv
B _ZN9ril_proto42static_descriptor_initializer_ril_2eproto_E
B _ZN9ril_proto43static_descriptor_initializer_ctrl_2eproto_E
T _ZN9ril_proto7ReqDial10SharedCtorEv
T _ZN9ril_proto7ReqDial10SharedDtorEv
T _ZN9ril_proto7ReqDial10descriptorEv
T _ZN9ril_proto7ReqDial16default_instanceEv
R _ZN9ril_proto7ReqDial16kClirFieldNumberE
B _ZN9ril_proto7ReqDial17_default_address_E
B _ZN9ril_proto7ReqDial17default_instance_E
R _ZN9ril_proto7ReqDial19kAddressFieldNumberE
R _ZN9ril_proto7ReqDial19kUusInfoFieldNumberE
T _ZN9ril_proto7ReqDial21InitAsDefaultInstanceEv
T _ZN9ril_proto7ReqDial27MergePartialFromCodedStreamEPN6google8protobuf2io16CodedInputStreamE
T _ZN9ril_proto7ReqDial4SwapEPS0_
T _ZN9ril_proto7ReqDial5ClearEv
T _ZN9ril_proto7ReqDial8CopyFromERKN6google8protobuf7MessageE
T _ZN9ril_proto7ReqDial8CopyFromERKS0_
T _ZN9ril_proto7ReqDial9MergeFromERKN6google8protobuf7MessageE
T _ZN9ril_proto7ReqDial9MergeFromERKS0_
T _ZN9ril_proto7ReqDialC1ERKS0_
T _ZN9ril_proto7ReqDialC1Ev
T _ZN9ril_proto7ReqDialC2ERKS0_
T _ZN9ril_proto7ReqDialC2Ev
T _ZN9ril_proto7ReqDialD0Ev
T _ZN9ril_proto7ReqDialD1Ev
T _ZN9ril_proto7ReqDialD2Ev
T _ZN9ril_proto7RilCall10SharedCtorEv
T _ZN9ril_proto7RilCall10SharedDtorEv
T _ZN9ril_proto7RilCall10descriptorEv
B _ZN9ril_proto7RilCall14_default_name_E
R _ZN9ril_proto7RilCall15kAlsFieldNumberE
R _ZN9ril_proto7RilCall15kToaFieldNumberE
B _ZN9ril_proto7RilCall16_default_number_E
T _ZN9ril_proto7RilCall16default_instanceEv
R _ZN9ril_proto7RilCall16kIsMtFieldNumberE
R _ZN9ril_proto7RilCall16kNameFieldNumberE
B _ZN9ril_proto7RilCall17default_instance_E
R _ZN9ril_proto7RilCall17kIndexFieldNumberE
R _ZN9ril_proto7RilCall17kStateFieldNumberE
R _ZN9ril_proto7RilCall18kIsMptyFieldNumberE
R _ZN9ril_proto7RilCall18kNumberFieldNumberE
R _ZN9ril_proto7RilCall19kIsVoiceFieldNumberE
R _ZN9ril_proto7RilCall19kUusInfoFieldNumberE
T _ZN9ril_proto7RilCall21InitAsDefaultInstanceEv
R _ZN9ril_proto7RilCall26kIsVoicePrivacyFieldNumberE
T _ZN9ril_proto7RilCall27MergePartialFromCodedStreamEPN6google8protobuf2io16CodedInputStreamE
R _ZN9ril_proto7RilCall28kNamePresentationFieldNumberE
R _ZN9ril_proto7RilCall30kNumberPresentationFieldNumberE
T _ZN9ril_proto7RilCall4SwapEPS0_
T _ZN9ril_proto7RilCall5ClearEv
T _ZN9ril_proto7RilCall8CopyFromERKN6google8protobuf7MessageE
T _ZN9ril_proto7RilCall8CopyFromERKS0_
T _ZN9ril_proto7RilCall9MergeFromERKN6google8protobuf7MessageE
T _ZN9ril_proto7RilCall9MergeFromERKS0_
T _ZN9ril_proto7RilCallC1ERKS0_
T _ZN9ril_proto7RilCallC1Ev
T _ZN9ril_proto7RilCallC2ERKS0_
T _ZN9ril_proto7RilCallC2Ev
T _ZN9ril_proto7RilCallD0Ev
T _ZN9ril_proto7RilCallD1Ev
T _ZN9ril_proto7RilCallD2Ev
T _ZN9ril_proto9ReqHangUp10SharedCtorEv
T _ZN9ril_proto9ReqHangUp10SharedDtorEv
T _ZN9ril_proto9ReqHangUp10descriptorEv
T _ZN9ril_proto9ReqHangUp16default_instanceEv
B _ZN9ril_proto9ReqHangUp17default_instance_E
T _ZN9ril_proto9ReqHangUp21InitAsDefaultInstanceEv
T _ZN9ril_proto9ReqHangUp27MergePartialFromCodedStreamEPN6google8protobuf2io16CodedInputStreamE
R _ZN9ril_proto9ReqHangUp27kConnectionIndexFieldNumberE
T _ZN9ril_proto9ReqHangUp4SwapEPS0_
T _ZN9ril_proto9ReqHangUp5ClearEv
T _ZN9ril_proto9ReqHangUp8CopyFromERKN6google8protobuf7MessageE
T _ZN9ril_proto9ReqHangUp8CopyFromERKS0_
T _ZN9ril_proto9ReqHangUp9MergeFromERKN6google8protobuf7MessageE
T _ZN9ril_proto9ReqHangUp9MergeFromERKS0_
T _ZN9ril_proto9ReqHangUpC1ERKS0_
T _ZN9ril_proto9ReqHangUpC1Ev
T _ZN9ril_proto9ReqHangUpC2ERKS0_
T _ZN9ril_proto9ReqHangUpC2Ev
T _ZN9ril_proto9ReqHangUpD0Ev
T _ZN9ril_proto9ReqHangUpD1Ev
T _ZN9ril_proto9ReqHangUpD2Ev
T _ZNK13communication9MsgHeader11GetMetadataEv
T _ZNK13communication9MsgHeader13IsInitializedEv
T _ZNK13communication9MsgHeader13SetCachedSizeEi
T _ZNK13communication9MsgHeader24SerializeWithCachedSizesEPN6google8protobuf2io17CodedOutputStreamE
T _ZNK13communication9MsgHeader31SerializeWithCachedSizesToArrayEPh
T _ZNK13communication9MsgHeader3NewEv
T _ZNK13communication9MsgHeader8ByteSizeEv
T _ZNK2v84Date11NumberValueEv
T _ZNK2v85Array6LengthEv
T _ZNK2v85Int325ValueEv
T _ZNK2v85Value10Int32ValueEv
T _ZNK2v85Value10IsExternalEv
T _ZNK2v85Value10IsFunctionEv
T _ZNK2v85Value11IsUndefinedEv
T _ZNK2v85Value11NumberValueEv
T _ZNK2v85Value11Uint32ValueEv
T _ZNK2v85Value12BooleanValueEv
T _ZNK2v85Value12FullIsStringEv
T _ZNK2v85Value12IntegerValueEv
T _ZNK2v85Value12StrictEqualsENS_6HandleIS0_EE
T _ZNK2v85Value12ToArrayIndexEv
T _ZNK2v85Value14ToDetailStringEv
T _ZNK2v85Value6EqualsENS_6HandleIS0_EE
T _ZNK2v85Value6IsDateEv
T _ZNK2v85Value6IsNullEv
T _ZNK2v85Value6IsTrueEv
T _ZNK2v85Value7IsArrayEv
T _ZNK2v85Value7IsFalseEv
T _ZNK2v85Value7IsInt32Ev
T _ZNK2v85Value7ToInt32Ev
T _ZNK2v85Value8IsNumberEv
T _ZNK2v85Value8IsObjectEv
T _ZNK2v85Value8ToNumberEv
T _ZNK2v85Value8ToObjectEv
T _ZNK2v85Value8ToStringEv
T _ZNK2v85Value8ToUint32Ev
T _ZNK2v85Value9IsBooleanEv
T _ZNK2v85Value9ToBooleanEv
T _ZNK2v85Value9ToIntegerEv
T _ZNK2v86Number5ValueEv
T _ZNK2v86String10IsExternalEv
T _ZNK2v86String10Utf8LengthEv
T _ZNK2v86String10WriteAsciiEPcii
T _ZNK2v86String15IsExternalAsciiEv
T _ZNK2v86String28VerifyExternalStringResourceEPNS0_22ExternalStringResourceE
T _ZNK2v86String30GetExternalAsciiStringResourceEv
T _ZNK2v86String5WriteEPtii
T _ZNK2v86String6LengthEv
T _ZNK2v86String9WriteUtf8EPci
T _ZNK2v87Boolean5ValueEv
T _ZNK2v87Integer5ValueEv
T _ZNK2v87Message12GetEndColumnEv
T _ZNK2v87Message13GetLineNumberEv
T _ZNK2v87Message13GetScriptDataEv
T _ZNK2v87Message13GetSourceLineEv
T _ZNK2v87Message14GetEndPositionEv
T _ZNK2v87Message14GetStartColumnEv
T _ZNK2v87Message16GetStartPositionEv
T _ZNK2v87Message21GetScriptResourceNameEv
T _ZNK2v87Message3GetEv
T _ZNK2v88External5ValueEv
T _ZNK2v88Function11NewInstanceEiPNS_6HandleINS_5ValueEEE
T _ZNK2v88Function11NewInstanceEv
T _ZNK2v88Function15GetScriptOriginEv
T _ZNK2v88Function19GetScriptLineNumberEv
T _ZNK2v88Function7GetNameEv
T _ZNK2v88TryCatch10StackTraceEv
T _ZNK2v88TryCatch11CanContinueEv
T _ZNK2v88TryCatch7MessageEv
T _ZNK2v88TryCatch9ExceptionEv
T _ZNK2v88TryCatch9HasCaughtEv
T _ZNK2v88internal10Assignment9binary_opEv
T _ZNK2v88internal10EntryFrame14GetCallerStateEPNS0_10StackFrame5StateE
T _ZNK2v88internal10EntryFrame18ComputeCallerStateEPNS0_10StackFrame5StateE
T _ZNK2v88internal10EntryFrame4codeEv
T _ZNK2v88internal10EntryFrame7IterateEPNS0_13ObjectVisitorE
T _ZNK2v88internal10StackFrame10HasHandlerEv
T _ZNK2v88internal10StackFrame14GetCallerStateEPNS1_5StateE
T _ZNK2v88internal11JSArguments4argcEv
T _ZNK2v88internal11MessageImpl10IsResponseEv
T _ZNK2v88internal11MessageImpl12GetEventDataEv
T _ZNK2v88internal11MessageImpl13GetClientDataEv
T _ZNK2v88internal11MessageImpl15GetEventContextEv
T _ZNK2v88internal11MessageImpl16WillStartRunningEv
T _ZNK2v88internal11MessageImpl17GetExecutionStateEv
T _ZNK2v88internal11MessageImpl7GetJSONEv
T _ZNK2v88internal11MessageImpl7IsEventEv
T _ZNK2v88internal11MessageImpl8GetEventEv
T _ZNK2v88internal11POSIXSocket4SendEPKci
T _ZNK2v88internal11POSIXSocket6AcceptEv
T _ZNK2v88internal11POSIXSocket6ListenEi
T _ZNK2v88internal11POSIXSocket7ReceiveEPci
T _ZNK2v88internal12StringStream9ToCStringEv
T _ZNK2v88internal12ThreadHandle6IsSelfEv
T _ZNK2v88internal12ThreadHandle7IsValidEv
T _ZNK2v88internal13InternalFrame21GetCallerStackPointerEv
T _ZNK2v88internal13InternalFrame4codeEv
T _ZNK2v88internal13InternalFrame7IterateEPNS0_13ObjectVisitorE
T _ZNK2v88internal13StandardFrame18ComputeCallerStateEPNS0_10StackFrame5StateE
T _ZNK2v88internal13StandardFrame18IterateExpressionsEPNS0_13ObjectVisitorE
T _ZNK2v88internal13StandardFrame20GetExpressionAddressEi
T _ZNK2v88internal13StandardFrame23ComputeExpressionsCountEv
T _ZNK2v88internal13StandardFrame25IsExpressionInsideHandlerEi
T _ZNK2v88internal15JavaScriptFrame12GetParameterEi
T _ZNK2v88internal15JavaScriptFrame13IsConstructorEv
T _ZNK2v88internal15JavaScriptFrame21GetCallerStackPointerEv
T _ZNK2v88internal15JavaScriptFrame22ComputeParametersCountEv
T _ZNK2v88internal15JavaScriptFrame26GetProvidedParametersCountEv
T _ZNK2v88internal15JavaScriptFrame4codeEv
T _ZNK2v88internal15JavaScriptFrame5PrintEPNS0_12StringStreamENS0_10StackFrame9PrintModeEi
T _ZNK2v88internal15JavaScriptFrame7IterateEPNS0_13ObjectVisitorE
T _ZNK2v88internal19EntryConstructFrame4codeEv
T _ZNK2v88internal21ArgumentsAdaptorFrame21GetCallerStackPointerEv
T _ZNK2v88internal21ArgumentsAdaptorFrame4codeEv
T _ZNK2v88internal21ArgumentsAdaptorFrame5PrintEPNS0_12StringStreamENS0_10StackFrame9PrintModeEi
T _ZNK2v88internal21BreakLocationIterator4DoneEv
T _ZNK2v88internal21BreakLocationIterator6IsExitEv
T _ZNK2v88internal21BreakLocationIterator9RinfoDoneEv
T _ZNK2v88internal22SafeStackFrameIterator12IsValidFrameEPNS0_10StackFrameE
T _ZNK2v88internal24ExternalReferenceEncoder13NameOfAddressEPh
T _ZNK2v88internal24ExternalReferenceEncoder6EncodeEPh
T _ZNK2v88internal24ExternalReferenceEncoder7IndexOfEPh
T _ZNK2v88internal26LockingCommandMessageQueue7IsEmptyEv
T _ZNK2v88internal5Label3posEv
T _ZNK2v88internal5Scope17HasTrivialContextEv
T _ZNK2v88internal5Scope21AllowsLazyCompilationEv
T _ZNK2v88internal5Scope22HasTrivialOuterContextEv
T _ZNK2v88internal7HashMap4NextEPNS1_5EntryE
T _ZNK2v88internal7HashMap5StartEv
T _ZNK2v88internal8Variable4slotEv
T _ZNK2v88internal8Variable9is_globalEv
T _ZNK2v88internal9ExitFrame18ComputeCallerStateEPNS0_10StackFrame5StateE
T _ZNK2v88internal9ExitFrame21GetCallerStackPointerEv
T _ZNK2v88internal9ExitFrame4codeEv
T _ZNK2v88internal9ExitFrame7IterateEPNS0_13ObjectVisitorE
T _ZNK2v88internal9ExitFrame9code_slotEv
W _ZNK2v88internal9ScopeInfoINS0_19PreallocatedStorageEE13function_nameEv
W _ZNK2v88internal9ScopeInfoINS0_19PreallocatedStorageEE14NumberOfLocalsEv
W _ZNK2v88internal9ScopeInfoINS0_19PreallocatedStorageEE14parameter_nameEi
W _ZNK2v88internal9ScopeInfoINS0_19PreallocatedStorageEE15stack_slot_nameEi
W _ZNK2v88internal9ScopeInfoINS0_19PreallocatedStorageEE17context_slot_nameEi
W _ZNK2v88internal9ScopeInfoINS0_19PreallocatedStorageEE20number_of_parametersEv
W _ZNK2v88internal9ScopeInfoINS0_19PreallocatedStorageEE21number_of_stack_slotsEv
W _ZNK2v88internal9ScopeInfoINS0_19PreallocatedStorageEE23number_of_context_slotsEv
W _ZNK2v88internal9ScopeInfoINS0_19PreallocatedStorageEE9LocalNameEi
W _ZNK2v88internal9ScopeInfoINS0_24ZoneListAllocationPolicyEE13function_nameEv
W _ZNK2v88internal9ScopeInfoINS0_24ZoneListAllocationPolicyEE14NumberOfLocalsEv
W _ZNK2v88internal9ScopeInfoINS0_24ZoneListAllocationPolicyEE14parameter_nameEi
W _ZNK2v88internal9ScopeInfoINS0_24ZoneListAllocationPolicyEE15stack_slot_nameEi
W _ZNK2v88internal9ScopeInfoINS0_24ZoneListAllocationPolicyEE17context_slot_nameEi
W _ZNK2v88internal9ScopeInfoINS0_24ZoneListAllocationPolicyEE20number_of_parametersEv
W _ZNK2v88internal9ScopeInfoINS0_24ZoneListAllocationPolicyEE21number_of_stack_slotsEv
W _ZNK2v88internal9ScopeInfoINS0_24ZoneListAllocationPolicyEE23number_of_context_slotsEv
W _ZNK2v88internal9ScopeInfoINS0_24ZoneListAllocationPolicyEE9LocalNameEi
W _ZNK2v88internal9ScopeInfoINS0_25FreeStoreAllocationPolicyEE13function_nameEv
W _ZNK2v88internal9ScopeInfoINS0_25FreeStoreAllocationPolicyEE14NumberOfLocalsEv
W _ZNK2v88internal9ScopeInfoINS0_25FreeStoreAllocationPolicyEE14parameter_nameEi
W _ZNK2v88internal9ScopeInfoINS0_25FreeStoreAllocationPolicyEE15stack_slot_nameEi
W _ZNK2v88internal9ScopeInfoINS0_25FreeStoreAllocationPolicyEE17context_slot_nameEi
W _ZNK2v88internal9ScopeInfoINS0_25FreeStoreAllocationPolicyEE20number_of_parametersEv
W _ZNK2v88internal9ScopeInfoINS0_25FreeStoreAllocationPolicyEE21number_of_stack_slotsEv
W _ZNK2v88internal9ScopeInfoINS0_25FreeStoreAllocationPolicyEE23number_of_context_slotsEv
W _ZNK2v88internal9ScopeInfoINS0_25FreeStoreAllocationPolicyEE9LocalNameEi
T _ZNK6google8protobuf10Descriptor11DebugStringEiPSs
T _ZNK6google8protobuf10Descriptor11DebugStringEv
T _ZNK6google8protobuf10Descriptor15FindFieldByNameERKSs
T _ZNK6google8protobuf10Descriptor17FindFieldByNumberEi
T _ZNK6google8protobuf10Descriptor17IsExtensionNumberEi
T _ZNK6google8protobuf10Descriptor18FindEnumTypeByNameERKSs
T _ZNK6google8protobuf10Descriptor19FindEnumValueByNameERKSs
T _ZNK6google8protobuf10Descriptor19FindExtensionByNameERKSs
T _ZNK6google8protobuf10Descriptor20FindNestedTypeByNameERKSs
T _ZNK6google8protobuf10Descriptor24FindFieldByCamelcaseNameERKSs
T _ZNK6google8protobuf10Descriptor24FindFieldByLowercaseNameERKSs
T _ZNK6google8protobuf10Descriptor28FindExtensionByCamelcaseNameERKSs
T _ZNK6google8protobuf10Descriptor28FindExtensionByLowercaseNameERKSs
T _ZNK6google8protobuf10Descriptor6CopyToEPNS0_15DescriptorProtoE
T _ZNK6google8protobuf11EnumOptions11GetMetadataEv
T _ZNK6google8protobuf11EnumOptions13IsInitializedEv
T _ZNK6google8protobuf11EnumOptions13SetCachedSizeEi
T _ZNK6google8protobuf11EnumOptions24SerializeWithCachedSizesEPNS0_2io17CodedOutputStreamE
T _ZNK6google8protobuf11EnumOptions31SerializeWithCachedSizesToArrayEPh
T _ZNK6google8protobuf11EnumOptions3NewEv
T _ZNK6google8protobuf11EnumOptions8ByteSizeEv
T _ZNK6google8protobuf11FileOptions11GetMetadataEv
T _ZNK6google8protobuf11FileOptions13IsInitializedEv
T _ZNK6google8protobuf11FileOptions13SetCachedSizeEi
T _ZNK6google8protobuf11FileOptions24SerializeWithCachedSizesEPNS0_2io17CodedOutputStreamE
T _ZNK6google8protobuf11FileOptions31SerializeWithCachedSizesToArrayEPh
T _ZNK6google8protobuf11FileOptions3NewEv
T _ZNK6google8protobuf11FileOptions8ByteSizeEv
T _ZNK6google8protobuf11MessageLite14AppendToStringEPSs
T _ZNK6google8protobuf11MessageLite16SerializeToArrayEPvi
T _ZNK6google8protobuf11MessageLite17SerializeAsStringEv
T _ZNK6google8protobuf11MessageLite17SerializeToStringEPSs
T _ZNK6google8protobuf11MessageLite21AppendPartialToStringEPSs
T _ZNK6google8protobuf11MessageLite22SerializeToCodedStreamEPNS0_2io17CodedOutputStreamE
T _ZNK6google8protobuf11MessageLite23SerializePartialToArrayEPvi
T _ZNK6google8protobuf11MessageLite24SerializePartialAsStringEv
T _ZNK6google8protobuf11MessageLite24SerializePartialToStringEPSs
T _ZNK6google8protobuf11MessageLite25InitializationErrorStringEv
T _ZNK6google8protobuf11MessageLite25SerializeToZeroCopyStreamEPNS0_2io20ZeroCopyOutputStreamE
T _ZNK6google8protobuf11MessageLite29SerializePartialToCodedStreamEPNS0_2io17CodedOutputStreamE
T _ZNK6google8protobuf11MessageLite31SerializeWithCachedSizesToArrayEPh
T _ZNK6google8protobuf11MessageLite32SerializePartialToZeroCopyStreamEPNS0_2io20ZeroCopyOutputStreamE
T _ZNK6google8protobuf12FieldOptions11GetMetadataEv
T _ZNK6google8protobuf12FieldOptions13IsInitializedEv
T _ZNK6google8protobuf12FieldOptions13SetCachedSizeEi
T _ZNK6google8protobuf12FieldOptions24SerializeWithCachedSizesEPNS0_2io17CodedOutputStreamE
T _ZNK6google8protobuf12FieldOptions31SerializeWithCachedSizesToArrayEPh
T _ZNK6google8protobuf12FieldOptions3NewEv
T _ZNK6google8protobuf12FieldOptions8ByteSizeEv
T _ZNK6google8protobuf13MethodOptions11GetMetadataEv
T _ZNK6google8protobuf13MethodOptions13IsInitializedEv
T _ZNK6google8protobuf13MethodOptions13SetCachedSizeEi
T _ZNK6google8protobuf13MethodOptions24SerializeWithCachedSizesEPNS0_2io17CodedOutputStreamE
T _ZNK6google8protobuf13MethodOptions31SerializeWithCachedSizesToArrayEPh
T _ZNK6google8protobuf13MethodOptions3NewEv
T _ZNK6google8protobuf13MethodOptions8ByteSizeEv
T _ZNK6google8protobuf14DescriptorPool14FindFileByNameERKSs
T _ZNK6google8protobuf14DescriptorPool15FindFieldByNameERKSs
T _ZNK6google8protobuf14DescriptorPool16FindMethodByNameERKSs
T _ZNK6google8protobuf14DescriptorPool17FindAllExtensionsEPKNS0_10DescriptorEPSt6vectorIPKNS0_15FieldDescriptorESaIS8_EE
T _ZNK6google8protobuf14DescriptorPool17FindServiceByNameERKSs
T _ZNK6google8protobuf14DescriptorPool18FindEnumTypeByNameERKSs
T _ZNK6google8protobuf14DescriptorPool19FindEnumValueByNameERKSs
T _ZNK6google8protobuf14DescriptorPool19FindExtensionByNameERKSs
T _ZNK6google8protobuf14DescriptorPool20InternalIsFileLoadedERKSs
T _ZNK6google8protobuf14DescriptorPool21BuildFileFromDatabaseERKNS0_19FileDescriptorProtoE
T _ZNK6google8protobuf14DescriptorPool21FindExtensionByNumberEPKNS0_10DescriptorEi
T _ZNK6google8protobuf14DescriptorPool21FindMessageTypeByNameERKSs
T _ZNK6google8protobuf14DescriptorPool24FindFileContainingSymbolERKSs
T _ZNK6google8protobuf14DescriptorPool29TryFindFileInFallbackDatabaseERKSs
T _ZNK6google8protobuf14DescriptorPool31TryFindSymbolInFallbackDatabaseERKSs
T _ZNK6google8protobuf14DescriptorPool34TryFindExtensionInFallbackDatabaseEPKNS0_10DescriptorEi
T _ZNK6google8protobuf14DynamicMessage11GetMetadataEv
T _ZNK6google8protobuf14DynamicMessage13GetCachedSizeEv
T _ZNK6google8protobuf14DynamicMessage13SetCachedSizeEi
T _ZNK6google8protobuf14DynamicMessage3NewEv
T _ZNK6google8protobuf14EnumDescriptor11DebugStringEiPSs
T _ZNK6google8protobuf14EnumDescriptor11DebugStringEv
T _ZNK6google8protobuf14EnumDescriptor15FindValueByNameERKSs
T _ZNK6google8protobuf14EnumDescriptor17FindValueByNumberEi
T _ZNK6google8protobuf14EnumDescriptor6CopyToEPNS0_19EnumDescriptorProtoE
T _ZNK6google8protobuf14FileDescriptor11DebugStringEv
T _ZNK6google8protobuf14FileDescriptor17FindServiceByNameERKSs
T _ZNK6google8protobuf14FileDescriptor18FindEnumTypeByNameERKSs
T _ZNK6google8protobuf14FileDescriptor19FindEnumValueByNameERKSs
T _ZNK6google8protobuf14FileDescriptor19FindExtensionByNameERKSs
T _ZNK6google8protobuf14FileDescriptor21FindMessageTypeByNameERKSs
T _ZNK6google8protobuf14FileDescriptor28FindExtensionByCamelcaseNameERKSs
T _ZNK6google8protobuf14FileDescriptor28FindExtensionByLowercaseNameERKSs
T _ZNK6google8protobuf14FileDescriptor6CopyToEPNS0_19FileDescriptorProtoE
T _ZNK6google8protobuf14MessageOptions11GetMetadataEv
T _ZNK6google8protobuf14MessageOptions13IsInitializedEv
T _ZNK6google8protobuf14MessageOptions13SetCachedSizeEi
T _ZNK6google8protobuf14MessageOptions24SerializeWithCachedSizesEPNS0_2io17CodedOutputStreamE
T _ZNK6google8protobuf14MessageOptions31SerializeWithCachedSizesToArrayEPh
T _ZNK6google8protobuf14MessageOptions3NewEv
T _ZNK6google8protobuf14MessageOptions8ByteSizeEv
T _ZNK6google8protobuf14ServiceOptions11GetMetadataEv
T _ZNK6google8protobuf14ServiceOptions13IsInitializedEv
T _ZNK6google8protobuf14ServiceOptions13SetCachedSizeEi
T _ZNK6google8protobuf14ServiceOptions24SerializeWithCachedSizesEPNS0_2io17CodedOutputStreamE
T _ZNK6google8protobuf14ServiceOptions31SerializeWithCachedSizesToArrayEPh
T _ZNK6google8protobuf14ServiceOptions3NewEv
T _ZNK6google8protobuf14ServiceOptions8ByteSizeEv
T _ZNK6google8protobuf15DescriptorProto11GetMetadataEv
T _ZNK6google8protobuf15DescriptorProto13IsInitializedEv
T _ZNK6google8protobuf15DescriptorProto13SetCachedSizeEi
T _ZNK6google8protobuf15DescriptorProto24SerializeWithCachedSizesEPNS0_2io17CodedOutputStreamE
T _ZNK6google8protobuf15DescriptorProto31SerializeWithCachedSizesToArrayEPh
T _ZNK6google8protobuf15DescriptorProto3NewEv
T _ZNK6google8protobuf15DescriptorProto8ByteSizeEv
T _ZNK6google8protobuf15FieldDescriptor11DebugStringEiPSs
T _ZNK6google8protobuf15FieldDescriptor11DebugStringEv
T _ZNK6google8protobuf15FieldDescriptor20DefaultValueAsStringEb
T _ZNK6google8protobuf15FieldDescriptor6CopyToEPNS0_20FieldDescriptorProtoE
T _ZNK6google8protobuf15UnknownFieldSet22SpaceUsedExcludingSelfEv
T _ZNK6google8protobuf15UnknownFieldSet9SpaceUsedEv
T _ZNK6google8protobuf16EnumValueOptions11GetMetadataEv
T _ZNK6google8protobuf16EnumValueOptions13IsInitializedEv
T _ZNK6google8protobuf16EnumValueOptions13SetCachedSizeEi
T _ZNK6google8protobuf16EnumValueOptions24SerializeWithCachedSizesEPNS0_2io17CodedOutputStreamE
T _ZNK6google8protobuf16EnumValueOptions31SerializeWithCachedSizesToArrayEPh
T _ZNK6google8protobuf16EnumValueOptions3NewEv
T _ZNK6google8protobuf16EnumValueOptions8ByteSizeEv
T _ZNK6google8protobuf16MethodDescriptor11DebugStringEiPSs
T _ZNK6google8protobuf16MethodDescriptor11DebugStringEv
T _ZNK6google8protobuf16MethodDescriptor6CopyToEPNS0_21MethodDescriptorProtoE
T _ZNK6google8protobuf17FileDescriptorSet11GetMetadataEv
T _ZNK6google8protobuf17FileDescriptorSet13IsInitializedEv
T _ZNK6google8protobuf17FileDescriptorSet13SetCachedSizeEi
T _ZNK6google8protobuf17FileDescriptorSet24SerializeWithCachedSizesEPNS0_2io17CodedOutputStreamE
T _ZNK6google8protobuf17FileDescriptorSet31SerializeWithCachedSizesToArrayEPh
T _ZNK6google8protobuf17FileDescriptorSet3NewEv
T _ZNK6google8protobuf17FileDescriptorSet8ByteSizeEv
T _ZNK6google8protobuf17ServiceDescriptor11DebugStringEPSs
T _ZNK6google8protobuf17ServiceDescriptor11DebugStringEv
T _ZNK6google8protobuf17ServiceDescriptor16FindMethodByNameERKSs
T _ZNK6google8protobuf17ServiceDescriptor6CopyToEPNS0_22ServiceDescriptorProtoE
T _ZNK6google8protobuf19EnumDescriptorProto11GetMetadataEv
T _ZNK6google8protobuf19EnumDescriptorProto13IsInitializedEv
T _ZNK6google8protobuf19EnumDescriptorProto13SetCachedSizeEi
T _ZNK6google8protobuf19EnumDescriptorProto24SerializeWithCachedSizesEPNS0_2io17CodedOutputStreamE
T _ZNK6google8protobuf19EnumDescriptorProto31SerializeWithCachedSizesToArrayEPh
T _ZNK6google8protobuf19EnumDescriptorProto3NewEv
T _ZNK6google8protobuf19EnumDescriptorProto8ByteSizeEv
T _ZNK6google8protobuf19EnumValueDescriptor11DebugStringEiPSs
T _ZNK6google8protobuf19EnumValueDescriptor11DebugStringEv
T _ZNK6google8protobuf19EnumValueDescriptor6CopyToEPNS0_24EnumValueDescriptorProtoE
T _ZNK6google8protobuf19FileDescriptorProto11GetMetadataEv
T _ZNK6google8protobuf19FileDescriptorProto13IsInitializedEv
T _ZNK6google8protobuf19FileDescriptorProto13SetCachedSizeEi
T _ZNK6google8protobuf19FileDescriptorProto24SerializeWithCachedSizesEPNS0_2io17CodedOutputStreamE
T _ZNK6google8protobuf19FileDescriptorProto31SerializeWithCachedSizesToArrayEPh
T _ZNK6google8protobuf19FileDescriptorProto3NewEv
T _ZNK6google8protobuf19FileDescriptorProto8ByteSizeEv
T _ZNK6google8protobuf19UninterpretedOption11GetMetadataEv
T _ZNK6google8protobuf19UninterpretedOption13IsInitializedEv
T _ZNK6google8protobuf19UninterpretedOption13SetCachedSizeEi
T _ZNK6google8protobuf19UninterpretedOption24SerializeWithCachedSizesEPNS0_2io17CodedOutputStreamE
T _ZNK6google8protobuf19UninterpretedOption31SerializeWithCachedSizesToArrayEPh
T _ZNK6google8protobuf19UninterpretedOption3NewEv
T _ZNK6google8protobuf19UninterpretedOption8ByteSizeEv
T _ZNK6google8protobuf20FieldDescriptorProto11GetMetadataEv
T _ZNK6google8protobuf20FieldDescriptorProto13IsInitializedEv
T _ZNK6google8protobuf20FieldDescriptorProto13SetCachedSizeEi
T _ZNK6google8protobuf20FieldDescriptorProto24SerializeWithCachedSizesEPNS0_2io17CodedOutputStreamE
T _ZNK6google8protobuf20FieldDescriptorProto31SerializeWithCachedSizesToArrayEPh
T _ZNK6google8protobuf20FieldDescriptorProto3NewEv
T _ZNK6google8protobuf20FieldDescriptorProto8ByteSizeEv
T _ZNK6google8protobuf21MethodDescriptorProto11GetMetadataEv
T _ZNK6google8protobuf21MethodDescriptorProto13IsInitializedEv
T _ZNK6google8protobuf21MethodDescriptorProto13SetCachedSizeEi
T _ZNK6google8protobuf21MethodDescriptorProto24SerializeWithCachedSizesEPNS0_2io17CodedOutputStreamE
T _ZNK6google8protobuf21MethodDescriptorProto31SerializeWithCachedSizesToArrayEPh
T _ZNK6google8protobuf21MethodDescriptorProto3NewEv
T _ZNK6google8protobuf21MethodDescriptorProto8ByteSizeEv
T _ZNK6google8protobuf22ServiceDescriptorProto11GetMetadataEv
T _ZNK6google8protobuf22ServiceDescriptorProto13IsInitializedEv
T _ZNK6google8protobuf22ServiceDescriptorProto13SetCachedSizeEi
T _ZNK6google8protobuf22ServiceDescriptorProto24SerializeWithCachedSizesEPNS0_2io17CodedOutputStreamE
T _ZNK6google8protobuf22ServiceDescriptorProto31SerializeWithCachedSizesToArrayEPh
T _ZNK6google8protobuf22ServiceDescriptorProto3NewEv
T _ZNK6google8protobuf22ServiceDescriptorProto8ByteSizeEv
T _ZNK6google8protobuf24EnumValueDescriptorProto11GetMetadataEv
T _ZNK6google8protobuf24EnumValueDescriptorProto13IsInitializedEv
T _ZNK6google8protobuf24EnumValueDescriptorProto13SetCachedSizeEi
T _ZNK6google8protobuf24EnumValueDescriptorProto24SerializeWithCachedSizesEPNS0_2io17CodedOutputStreamE
T _ZNK6google8protobuf24EnumValueDescriptorProto31SerializeWithCachedSizesToArrayEPh
T _ZNK6google8protobuf24EnumValueDescriptorProto3NewEv
T _ZNK6google8protobuf24EnumValueDescriptorProto8ByteSizeEv
T _ZNK6google8protobuf28UninterpretedOption_NamePart11GetMetadataEv
T _ZNK6google8protobuf28UninterpretedOption_NamePart13IsInitializedEv
T _ZNK6google8protobuf28UninterpretedOption_NamePart13SetCachedSizeEi
T _ZNK6google8protobuf28UninterpretedOption_NamePart24SerializeWithCachedSizesEPNS0_2io17CodedOutputStreamE
T _ZNK6google8protobuf28UninterpretedOption_NamePart31SerializeWithCachedSizesToArrayEPh
T _ZNK6google8protobuf28UninterpretedOption_NamePart3NewEv
T _ZNK6google8protobuf28UninterpretedOption_NamePart8ByteSizeEv
T _ZNK6google8protobuf2io15FileInputStream9ByteCountEv
T _ZNK6google8protobuf2io16ArrayInputStream9ByteCountEv
T _ZNK6google8protobuf2io16FileOutputStream9ByteCountEv
T _ZNK6google8protobuf2io17ArrayOutputStream9ByteCountEv
T _ZNK6google8protobuf2io18IstreamInputStream9ByteCountEv
T _ZNK6google8protobuf2io18StringOutputStream9ByteCountEv
T _ZNK6google8protobuf2io19LimitingInputStream9ByteCountEv
T _ZNK6google8protobuf2io19OstreamOutputStream9ByteCountEv
T _ZNK6google8protobuf2io24ConcatenatingInputStream9ByteCountEv
T _ZNK6google8protobuf2io25CopyingInputStreamAdaptor9ByteCountEv
T _ZNK6google8protobuf2io26CopyingOutputStreamAdaptor9ByteCountEv
T _ZNK6google8protobuf30DescriptorProto_ExtensionRange11GetMetadataEv
T _ZNK6google8protobuf30DescriptorProto_ExtensionRange13IsInitializedEv
T _ZNK6google8protobuf30DescriptorProto_ExtensionRange13SetCachedSizeEi
T _ZNK6google8protobuf30DescriptorProto_ExtensionRange24SerializeWithCachedSizesEPNS0_2io17CodedOutputStreamE
T _ZNK6google8protobuf30DescriptorProto_ExtensionRange31SerializeWithCachedSizesToArrayEPh
T _ZNK6google8protobuf30DescriptorProto_ExtensionRange3NewEv
T _ZNK6google8protobuf30DescriptorProto_ExtensionRange8ByteSizeEv
T _ZNK6google8protobuf7Message11DebugStringEv
T _ZNK6google8protobuf7Message11GetTypeNameEv
T _ZNK6google8protobuf7Message13IsInitializedEv
T _ZNK6google8protobuf7Message13SetCachedSizeEi
T _ZNK6google8protobuf7Message15Utf8DebugStringEv
T _ZNK6google8protobuf7Message16CheckInitializedEv
T _ZNK6google8protobuf7Message16PrintDebugStringEv
T _ZNK6google8protobuf7Message16ShortDebugStringEv
T _ZNK6google8protobuf7Message18SerializeToOstreamEPSo
T _ZNK6google8protobuf7Message24FindInitializationErrorsEPSt6vectorISsSaISsEE
T _ZNK6google8protobuf7Message24SerializeWithCachedSizesEPNS0_2io17CodedOutputStreamE
T _ZNK6google8protobuf7Message25InitializationErrorStringEv
T _ZNK6google8protobuf7Message25SerializePartialToOstreamEPSo
T _ZNK6google8protobuf7Message25SerializeToFileDescriptorEi
T _ZNK6google8protobuf7Message32SerializePartialToFileDescriptorEi
T _ZNK6google8protobuf7Message8ByteSizeEv
T _ZNK6google8protobuf7Message9SpaceUsedEv
T _ZNK6google8protobuf8internal12ExtensionSet10GetMessageEiPKNS0_10DescriptorEPNS0_14MessageFactoryE
T _ZNK6google8protobuf8internal12ExtensionSet10GetMessageEiRKNS0_11MessageLiteE
T _ZNK6google8protobuf8internal12ExtensionSet12AppendToListEPKNS0_10DescriptorEPKNS0_14DescriptorPoolEPSt6vectorIPKNS0_15FieldDescriptorESaISC_EE
T _ZNK6google8protobuf8internal12ExtensionSet13ExtensionSizeEi
T _ZNK6google8protobuf8internal12ExtensionSet13IsInitializedEv
T _ZNK6google8protobuf8internal12ExtensionSet15GetRepeatedBoolEii
T _ZNK6google8protobuf8internal12ExtensionSet15GetRepeatedEnumEii
T _ZNK6google8protobuf8internal12ExtensionSet16GetRepeatedFloatEii
T _ZNK6google8protobuf8internal12ExtensionSet16GetRepeatedInt32Eii
T _ZNK6google8protobuf8internal12ExtensionSet16GetRepeatedInt64Eii
T _ZNK6google8protobuf8internal12ExtensionSet17GetRepeatedDoubleEii
T _ZNK6google8protobuf8internal12ExtensionSet17GetRepeatedStringEii
T _ZNK6google8protobuf8internal12ExtensionSet17GetRepeatedUInt32Eii
T _ZNK6google8protobuf8internal12ExtensionSet17GetRepeatedUInt64Eii
T _ZNK6google8protobuf8internal12ExtensionSet18GetRepeatedMessageEii
T _ZNK6google8protobuf8internal12ExtensionSet18MessageSetByteSizeEv
T _ZNK6google8protobuf8internal12ExtensionSet22SpaceUsedExcludingSelfEv
T _ZNK6google8protobuf8internal12ExtensionSet24SerializeWithCachedSizesEiiPNS0_2io17CodedOutputStreamE
T _ZNK6google8protobuf8internal12ExtensionSet31SerializeWithCachedSizesToArrayEiiPh
T _ZNK6google8protobuf8internal12ExtensionSet34SerializeMessageSetWithCachedSizesEPNS0_2io17CodedOutputStreamE
T _ZNK6google8protobuf8internal12ExtensionSet3HasEi
T _ZNK6google8protobuf8internal12ExtensionSet41SerializeMessageSetWithCachedSizesToArrayEPh
T _ZNK6google8protobuf8internal12ExtensionSet7GetBoolEib
T _ZNK6google8protobuf8internal12ExtensionSet7GetEnumEii
T _ZNK6google8protobuf8internal12ExtensionSet8ByteSizeEv
T _ZNK6google8protobuf8internal12ExtensionSet8GetFloatEif
T _ZNK6google8protobuf8internal12ExtensionSet8GetInt32Eii
T _ZNK6google8protobuf8internal12ExtensionSet8GetInt64Eix
T _ZNK6google8protobuf8internal12ExtensionSet9Extension22MessageSetItemByteSizeEi
T _ZNK6google8protobuf8internal12ExtensionSet9Extension22SpaceUsedExcludingSelfEv
T _ZNK6google8protobuf8internal12ExtensionSet9Extension29SerializeFieldWithCachedSizesEiPNS0_2io17CodedOutputStreamE
T _ZNK6google8protobuf8internal12ExtensionSet9Extension36SerializeFieldWithCachedSizesToArrayEiPh
T _ZNK6google8protobuf8internal12ExtensionSet9Extension38SerializeMessageSetItemWithCachedSizesEiPNS0_2io17CodedOutputStreamE
T _ZNK6google8protobuf8internal12ExtensionSet9Extension45SerializeMessageSetItemWithCachedSizesToArrayEiPh
T _ZNK6google8protobuf8internal12ExtensionSet9Extension7GetSizeEv
T _ZNK6google8protobuf8internal12ExtensionSet9Extension8ByteSizeEi
T _ZNK6google8protobuf8internal12ExtensionSet9GetDoubleEid
T _ZNK6google8protobuf8internal12ExtensionSet9GetStringEiRKSs
T _ZNK6google8protobuf8internal12ExtensionSet9GetUInt32Eij
T _ZNK6google8protobuf8internal12ExtensionSet9GetUInt64Eiy
T _ZNK6google8protobuf8internal26GeneratedMessageReflection10AddMessageEPNS0_7MessageEPKNS0_15FieldDescriptorEPNS0_14MessageFactoryE
T _ZNK6google8protobuf8internal26GeneratedMessageReflection10ClearFieldEPNS0_7MessageEPKNS0_15FieldDescriptorE
T _ZNK6google8protobuf8internal26GeneratedMessageReflection10GetMessageERKNS0_7MessageEPKNS0_15FieldDescriptorEPNS0_14MessageFactoryE
T _ZNK6google8protobuf8internal26GeneratedMessageReflection10ListFieldsERKNS0_7MessageEPSt6vectorIPKNS0_15FieldDescriptorESaIS9_EE
T _ZNK6google8protobuf8internal26GeneratedMessageReflection10RemoveLastEPNS0_7MessageEPKNS0_15FieldDescriptorE
T _ZNK6google8protobuf8internal26GeneratedMessageReflection12SwapElementsEPNS0_7MessageEPKNS0_15FieldDescriptorEii
T _ZNK6google8protobuf8internal26GeneratedMessageReflection14MutableMessageEPNS0_7MessageEPKNS0_15FieldDescriptorEPNS0_14MessageFactoryE
T _ZNK6google8protobuf8internal26GeneratedMessageReflection15GetRepeatedBoolERKNS0_7MessageEPKNS0_15FieldDescriptorEi
T _ZNK6google8protobuf8internal26GeneratedMessageReflection15GetRepeatedEnumERKNS0_7MessageEPKNS0_15FieldDescriptorEi
T _ZNK6google8protobuf8internal26GeneratedMessageReflection15SetRepeatedBoolEPNS0_7MessageEPKNS0_15FieldDescriptorEib
T _ZNK6google8protobuf8internal26GeneratedMessageReflection15SetRepeatedEnumEPNS0_7MessageEPKNS0_15FieldDescriptorEiPKNS0_19EnumValueDescriptorE
T _ZNK6google8protobuf8internal26GeneratedMessageReflection16GetRepeatedFloatERKNS0_7MessageEPKNS0_15FieldDescriptorEi
T _ZNK6google8protobuf8internal26GeneratedMessageReflection16GetRepeatedInt32ERKNS0_7MessageEPKNS0_15FieldDescriptorEi
T _ZNK6google8protobuf8internal26GeneratedMessageReflection16GetRepeatedInt64ERKNS0_7MessageEPKNS0_15FieldDescriptorEi
T _ZNK6google8protobuf8internal26GeneratedMessageReflection16GetUnknownFieldsERKNS0_7MessageE
T _ZNK6google8protobuf8internal26GeneratedMessageReflection16SetRepeatedFloatEPNS0_7MessageEPKNS0_15FieldDescriptorEif
T _ZNK6google8protobuf8internal26GeneratedMessageReflection16SetRepeatedInt32EPNS0_7MessageEPKNS0_15FieldDescriptorEii
T _ZNK6google8protobuf8internal26GeneratedMessageReflection16SetRepeatedInt64EPNS0_7MessageEPKNS0_15FieldDescriptorEix
T _ZNK6google8protobuf8internal26GeneratedMessageReflection17GetRepeatedDoubleERKNS0_7MessageEPKNS0_15FieldDescriptorEi
T _ZNK6google8protobuf8internal26GeneratedMessageReflection17GetRepeatedStringERKNS0_7MessageEPKNS0_15FieldDescriptorEi
T _ZNK6google8protobuf8internal26GeneratedMessageReflection17GetRepeatedUInt32ERKNS0_7MessageEPKNS0_15FieldDescriptorEi
T _ZNK6google8protobuf8internal26GeneratedMessageReflection17GetRepeatedUInt64ERKNS0_7MessageEPKNS0_15FieldDescriptorEi
T _ZNK6google8protobuf8internal26GeneratedMessageReflection17SetRepeatedDoubleEPNS0_7MessageEPKNS0_15FieldDescriptorEid
T _ZNK6google8protobuf8internal26GeneratedMessageReflection17SetRepeatedStringEPNS0_7MessageEPKNS0_15FieldDescriptorEiRKSs
T _ZNK6google8protobuf8internal26GeneratedMessageReflection17SetRepeatedUInt32EPNS0_7MessageEPKNS0_15FieldDescriptorEij
T _ZNK6google8protobuf8internal26GeneratedMessageReflection17SetRepeatedUInt64EPNS0_7MessageEPKNS0_15FieldDescriptorEiy
T _ZNK6google8protobuf8internal26GeneratedMessageReflection18GetRepeatedMessageERKNS0_7MessageEPKNS0_15FieldDescriptorEi
T _ZNK6google8protobuf8internal26GeneratedMessageReflection18GetStringReferenceERKNS0_7MessageEPKNS0_15FieldDescriptorEPSs
T _ZNK6google8protobuf8internal26GeneratedMessageReflection20MutableUnknownFieldsEPNS0_7MessageE
T _ZNK6google8protobuf8internal26GeneratedMessageReflection22MutableRepeatedMessageEPNS0_7MessageEPKNS0_15FieldDescriptorEi
T _ZNK6google8protobuf8internal26GeneratedMessageReflection24FindKnownExtensionByNameERKSs
T _ZNK6google8protobuf8internal26GeneratedMessageReflection26FindKnownExtensionByNumberEi
T _ZNK6google8protobuf8internal26GeneratedMessageReflection26GetRepeatedStringReferenceERKNS0_7MessageEPKNS0_15FieldDescriptorEiPSs
T _ZNK6google8protobuf8internal26GeneratedMessageReflection4SwapEPNS0_7MessageES4_
T _ZNK6google8protobuf8internal26GeneratedMessageReflection7AddBoolEPNS0_7MessageEPKNS0_15FieldDescriptorEb
T _ZNK6google8protobuf8internal26GeneratedMessageReflection7AddEnumEPNS0_7MessageEPKNS0_15FieldDescriptorEPKNS0_19EnumValueDescriptorE
T _ZNK6google8protobuf8internal26GeneratedMessageReflection7GetBoolERKNS0_7MessageEPKNS0_15FieldDescriptorE
T _ZNK6google8protobuf8internal26GeneratedMessageReflection7GetEnumERKNS0_7MessageEPKNS0_15FieldDescriptorE
T _ZNK6google8protobuf8internal26GeneratedMessageReflection7SetBoolEPNS0_7MessageEPKNS0_15FieldDescriptorEb
T _ZNK6google8protobuf8internal26GeneratedMessageReflection7SetEnumEPNS0_7MessageEPKNS0_15FieldDescriptorEPKNS0_19EnumValueDescriptorE
T _ZNK6google8protobuf8internal26GeneratedMessageReflection8AddFloatEPNS0_7MessageEPKNS0_15FieldDescriptorEf
T _ZNK6google8protobuf8internal26GeneratedMessageReflection8AddInt32EPNS0_7MessageEPKNS0_15FieldDescriptorEi
T _ZNK6google8protobuf8internal26GeneratedMessageReflection8AddInt64EPNS0_7MessageEPKNS0_15FieldDescriptorEx
T _ZNK6google8protobuf8internal26GeneratedMessageReflection8GetFloatERKNS0_7MessageEPKNS0_15FieldDescriptorE
T _ZNK6google8protobuf8internal26GeneratedMessageReflection8GetInt32ERKNS0_7MessageEPKNS0_15FieldDescriptorE
T _ZNK6google8protobuf8internal26GeneratedMessageReflection8GetInt64ERKNS0_7MessageEPKNS0_15FieldDescriptorE
T _ZNK6google8protobuf8internal26GeneratedMessageReflection8HasFieldERKNS0_7MessageEPKNS0_15FieldDescriptorE
T _ZNK6google8protobuf8internal26GeneratedMessageReflection8SetFloatEPNS0_7MessageEPKNS0_15FieldDescriptorEf
T _ZNK6google8protobuf8internal26GeneratedMessageReflection8SetInt32EPNS0_7MessageEPKNS0_15FieldDescriptorEi
T _ZNK6google8protobuf8internal26GeneratedMessageReflection8SetInt64EPNS0_7MessageEPKNS0_15FieldDescriptorEx
T _ZNK6google8protobuf8internal26GeneratedMessageReflection9AddDoubleEPNS0_7MessageEPKNS0_15FieldDescriptorEd
T _ZNK6google8protobuf8internal26GeneratedMessageReflection9AddStringEPNS0_7MessageEPKNS0_15FieldDescriptorERKSs
T _ZNK6google8protobuf8internal26GeneratedMessageReflection9AddUInt32EPNS0_7MessageEPKNS0_15FieldDescriptorEj
T _ZNK6google8protobuf8internal26GeneratedMessageReflection9AddUInt64EPNS0_7MessageEPKNS0_15FieldDescriptorEy
T _ZNK6google8protobuf8internal26GeneratedMessageReflection9FieldSizeERKNS0_7MessageEPKNS0_15FieldDescriptorE
T _ZNK6google8protobuf8internal26GeneratedMessageReflection9GetDoubleERKNS0_7MessageEPKNS0_15FieldDescriptorE
T _ZNK6google8protobuf8internal26GeneratedMessageReflection9GetStringERKNS0_7MessageEPKNS0_15FieldDescriptorE
T _ZNK6google8protobuf8internal26GeneratedMessageReflection9GetUInt32ERKNS0_7MessageEPKNS0_15FieldDescriptorE
T _ZNK6google8protobuf8internal26GeneratedMessageReflection9GetUInt64ERKNS0_7MessageEPKNS0_15FieldDescriptorE
T _ZNK6google8protobuf8internal26GeneratedMessageReflection9SetDoubleEPNS0_7MessageEPKNS0_15FieldDescriptorEd
T _ZNK6google8protobuf8internal26GeneratedMessageReflection9SetStringEPNS0_7MessageEPKNS0_15FieldDescriptorERKSs
T _ZNK6google8protobuf8internal26GeneratedMessageReflection9SetUInt32EPNS0_7MessageEPKNS0_15FieldDescriptorEj
T _ZNK6google8protobuf8internal26GeneratedMessageReflection9SetUInt64EPNS0_7MessageEPKNS0_15FieldDescriptorEy
T _ZNK6google8protobuf8internal26GeneratedMessageReflection9SpaceUsedERKNS0_7MessageE
T _ZNK9ril_proto10ReqSetMute11GetMetadataEv
T _ZNK9ril_proto10ReqSetMute13IsInitializedEv
T _ZNK9ril_proto10ReqSetMute13SetCachedSizeEi
T _ZNK9ril_proto10ReqSetMute24SerializeWithCachedSizesEPN6google8protobuf2io17CodedOutputStreamE
T _ZNK9ril_proto10ReqSetMute31SerializeWithCachedSizesToArrayEPh
T _ZNK9ril_proto10ReqSetMute3NewEv
T _ZNK9ril_proto10ReqSetMute8ByteSizeEv
T _ZNK9ril_proto10RilUusInfo11GetMetadataEv
T _ZNK9ril_proto10RilUusInfo13IsInitializedEv
T _ZNK9ril_proto10RilUusInfo13SetCachedSizeEi
T _ZNK9ril_proto10RilUusInfo24SerializeWithCachedSizesEPN6google8protobuf2io17CodedOutputStreamE
T _ZNK9ril_proto10RilUusInfo31SerializeWithCachedSizesToArrayEPh
T _ZNK9ril_proto10RilUusInfo3NewEv
T _ZNK9ril_proto10RilUusInfo8ByteSizeEv
T _ZNK9ril_proto10RspStrings11GetMetadataEv
T _ZNK9ril_proto10RspStrings13IsInitializedEv
T _ZNK9ril_proto10RspStrings13SetCachedSizeEi
T _ZNK9ril_proto10RspStrings24SerializeWithCachedSizesEPN6google8protobuf2io17CodedOutputStreamE
T _ZNK9ril_proto10RspStrings31SerializeWithCachedSizesToArrayEPh
T _ZNK9ril_proto10RspStrings3NewEv
T _ZNK9ril_proto10RspStrings8ByteSizeEv
T _ZNK9ril_proto11RspIntegers11GetMetadataEv
T _ZNK9ril_proto11RspIntegers13IsInitializedEv
T _ZNK9ril_proto11RspIntegers13SetCachedSizeEi
T _ZNK9ril_proto11RspIntegers24SerializeWithCachedSizesEPN6google8protobuf2io17CodedOutputStreamE
T _ZNK9ril_proto11RspIntegers31SerializeWithCachedSizesToArrayEPh
T _ZNK9ril_proto11RspIntegers3NewEv
T _ZNK9ril_proto11RspIntegers8ByteSizeEv
T _ZNK9ril_proto11RspOperator11GetMetadataEv
T _ZNK9ril_proto11RspOperator13IsInitializedEv
T _ZNK9ril_proto11RspOperator13SetCachedSizeEi
T _ZNK9ril_proto11RspOperator24SerializeWithCachedSizesEPN6google8protobuf2io17CodedOutputStreamE
T _ZNK9ril_proto11RspOperator31SerializeWithCachedSizesToArrayEPh
T _ZNK9ril_proto11RspOperator3NewEv
T _ZNK9ril_proto11RspOperator8ByteSizeEv
T _ZNK9ril_proto12RilAppStatus11GetMetadataEv
T _ZNK9ril_proto12RilAppStatus13IsInitializedEv
T _ZNK9ril_proto12RilAppStatus13SetCachedSizeEi
T _ZNK9ril_proto12RilAppStatus24SerializeWithCachedSizesEPN6google8protobuf2io17CodedOutputStreamE
T _ZNK9ril_proto12RilAppStatus31SerializeWithCachedSizesToArrayEPh
T _ZNK9ril_proto12RilAppStatus3NewEv
T _ZNK9ril_proto12RilAppStatus8ByteSizeEv
T _ZNK9ril_proto13RilCardStatus11GetMetadataEv
T _ZNK9ril_proto13RilCardStatus13IsInitializedEv
T _ZNK9ril_proto13RilCardStatus13SetCachedSizeEi
T _ZNK9ril_proto13RilCardStatus24SerializeWithCachedSizesEPN6google8protobuf2io17CodedOutputStreamE
T _ZNK9ril_proto13RilCardStatus31SerializeWithCachedSizesToArrayEPh
T _ZNK9ril_proto13RilCardStatus3NewEv
T _ZNK9ril_proto13RilCardStatus8ByteSizeEv
T _ZNK9ril_proto14ReqEnterSimPin11GetMetadataEv
T _ZNK9ril_proto14ReqEnterSimPin13IsInitializedEv
T _ZNK9ril_proto14ReqEnterSimPin13SetCachedSizeEi
T _ZNK9ril_proto14ReqEnterSimPin24SerializeWithCachedSizesEPN6google8protobuf2io17CodedOutputStreamE
T _ZNK9ril_proto14ReqEnterSimPin31SerializeWithCachedSizesToArrayEPh
T _ZNK9ril_proto14ReqEnterSimPin3NewEv
T _ZNK9ril_proto14ReqEnterSimPin8ByteSizeEv
T _ZNK9ril_proto14ReqScreenState11GetMetadataEv
T _ZNK9ril_proto14ReqScreenState13IsInitializedEv
T _ZNK9ril_proto14ReqScreenState13SetCachedSizeEi
T _ZNK9ril_proto14ReqScreenState24SerializeWithCachedSizesEPN6google8protobuf2io17CodedOutputStreamE
T _ZNK9ril_proto14ReqScreenState31SerializeWithCachedSizesToArrayEPh
T _ZNK9ril_proto14ReqScreenState3NewEv
T _ZNK9ril_proto14ReqScreenState8ByteSizeEv
T _ZNK9ril_proto14RspEnterSimPin11GetMetadataEv
T _ZNK9ril_proto14RspEnterSimPin13IsInitializedEv
T _ZNK9ril_proto14RspEnterSimPin13SetCachedSizeEi
T _ZNK9ril_proto14RspEnterSimPin24SerializeWithCachedSizesEPN6google8protobuf2io17CodedOutputStreamE
T _ZNK9ril_proto14RspEnterSimPin31SerializeWithCachedSizesToArrayEPh
T _ZNK9ril_proto14RspEnterSimPin3NewEv
T _ZNK9ril_proto14RspEnterSimPin8ByteSizeEv
T _ZNK9ril_proto15RspGetSimStatus11GetMetadataEv
T _ZNK9ril_proto15RspGetSimStatus13IsInitializedEv
T _ZNK9ril_proto15RspGetSimStatus13SetCachedSizeEi
T _ZNK9ril_proto15RspGetSimStatus24SerializeWithCachedSizesEPN6google8protobuf2io17CodedOutputStreamE
T _ZNK9ril_proto15RspGetSimStatus31SerializeWithCachedSizesToArrayEPh
T _ZNK9ril_proto15RspGetSimStatus3NewEv
T _ZNK9ril_proto15RspGetSimStatus8ByteSizeEv
T _ZNK9ril_proto16CtrlReqSetMTCall11GetMetadataEv
T _ZNK9ril_proto16CtrlReqSetMTCall13IsInitializedEv
T _ZNK9ril_proto16CtrlReqSetMTCall13SetCachedSizeEi
T _ZNK9ril_proto16CtrlReqSetMTCall24SerializeWithCachedSizesEPN6google8protobuf2io17CodedOutputStreamE
T _ZNK9ril_proto16CtrlReqSetMTCall31SerializeWithCachedSizesToArrayEPh
T _ZNK9ril_proto16CtrlReqSetMTCall3NewEv
T _ZNK9ril_proto16CtrlReqSetMTCall8ByteSizeEv
T _ZNK9ril_proto17CtrlReqRadioState11GetMetadataEv
T _ZNK9ril_proto17CtrlReqRadioState13IsInitializedEv
T _ZNK9ril_proto17CtrlReqRadioState13SetCachedSizeEi
T _ZNK9ril_proto17CtrlReqRadioState24SerializeWithCachedSizesEPN6google8protobuf2io17CodedOutputStreamE
T _ZNK9ril_proto17CtrlReqRadioState31SerializeWithCachedSizesToArrayEPh
T _ZNK9ril_proto17CtrlReqRadioState3NewEv
T _ZNK9ril_proto17CtrlReqRadioState8ByteSizeEv
T _ZNK9ril_proto17CtrlRspRadioState11GetMetadataEv
T _ZNK9ril_proto17CtrlRspRadioState13IsInitializedEv
T _ZNK9ril_proto17CtrlRspRadioState13SetCachedSizeEi
T _ZNK9ril_proto17CtrlRspRadioState24SerializeWithCachedSizesEPN6google8protobuf2io17CodedOutputStreamE
T _ZNK9ril_proto17CtrlRspRadioState31SerializeWithCachedSizesToArrayEPh
T _ZNK9ril_proto17CtrlRspRadioState3NewEv
T _ZNK9ril_proto17CtrlRspRadioState8ByteSizeEv
T _ZNK9ril_proto17RspSignalStrength11GetMetadataEv
T _ZNK9ril_proto17RspSignalStrength13IsInitializedEv
T _ZNK9ril_proto17RspSignalStrength13SetCachedSizeEi
T _ZNK9ril_proto17RspSignalStrength24SerializeWithCachedSizesEPN6google8protobuf2io17CodedOutputStreamE
T _ZNK9ril_proto17RspSignalStrength31SerializeWithCachedSizesToArrayEPh
T _ZNK9ril_proto17RspSignalStrength3NewEv
T _ZNK9ril_proto17RspSignalStrength8ByteSizeEv
T _ZNK9ril_proto18RspGetCurrentCalls11GetMetadataEv
T _ZNK9ril_proto18RspGetCurrentCalls13IsInitializedEv
T _ZNK9ril_proto18RspGetCurrentCalls13SetCachedSizeEi
T _ZNK9ril_proto18RspGetCurrentCalls24SerializeWithCachedSizesEPN6google8protobuf2io17CodedOutputStreamE
T _ZNK9ril_proto18RspGetCurrentCalls31SerializeWithCachedSizesToArrayEPh
T _ZNK9ril_proto18RspGetCurrentCalls3NewEv
T _ZNK9ril_proto18RspGetCurrentCalls8ByteSizeEv
T _ZNK9ril_proto19RILGWSignalStrength11GetMetadataEv
T _ZNK9ril_proto19RILGWSignalStrength13IsInitializedEv
T _ZNK9ril_proto19RILGWSignalStrength13SetCachedSizeEi
T _ZNK9ril_proto19RILGWSignalStrength24SerializeWithCachedSizesEPN6google8protobuf2io17CodedOutputStreamE
T _ZNK9ril_proto19RILGWSignalStrength31SerializeWithCachedSizesToArrayEPh
T _ZNK9ril_proto19RILGWSignalStrength3NewEv
T _ZNK9ril_proto19RILGWSignalStrength8ByteSizeEv
T _ZNK9ril_proto20CtrlHangupConnRemote11GetMetadataEv
T _ZNK9ril_proto20CtrlHangupConnRemote13IsInitializedEv
T _ZNK9ril_proto20CtrlHangupConnRemote13SetCachedSizeEi
T _ZNK9ril_proto20CtrlHangupConnRemote24SerializeWithCachedSizesEPN6google8protobuf2io17CodedOutputStreamE
T _ZNK9ril_proto20CtrlHangupConnRemote31SerializeWithCachedSizesToArrayEPh
T _ZNK9ril_proto20CtrlHangupConnRemote3NewEv
T _ZNK9ril_proto20CtrlHangupConnRemote8ByteSizeEv
T _ZNK9ril_proto20RspLastCallFailCause11GetMetadataEv
T _ZNK9ril_proto20RspLastCallFailCause13IsInitializedEv
T _ZNK9ril_proto20RspLastCallFailCause13SetCachedSizeEi
T _ZNK9ril_proto20RspLastCallFailCause24SerializeWithCachedSizesEPN6google8protobuf2io17CodedOutputStreamE
T _ZNK9ril_proto20RspLastCallFailCause31SerializeWithCachedSizesToArrayEPh
T _ZNK9ril_proto20RspLastCallFailCause3NewEv
T _ZNK9ril_proto20RspLastCallFailCause8ByteSizeEv
T _ZNK9ril_proto21CtrlReqAddDialingCall11GetMetadataEv
T _ZNK9ril_proto21CtrlReqAddDialingCall13IsInitializedEv
T _ZNK9ril_proto21CtrlReqAddDialingCall13SetCachedSizeEi
T _ZNK9ril_proto21CtrlReqAddDialingCall24SerializeWithCachedSizesEPN6google8protobuf2io17CodedOutputStreamE
T _ZNK9ril_proto21CtrlReqAddDialingCall31SerializeWithCachedSizesToArrayEPh
T _ZNK9ril_proto21CtrlReqAddDialingCall3NewEv
T _ZNK9ril_proto21CtrlReqAddDialingCall8ByteSizeEv
T _ZNK9ril_proto21RILCDMASignalStrength11GetMetadataEv
T _ZNK9ril_proto21RILCDMASignalStrength13IsInitializedEv
T _ZNK9ril_proto21RILCDMASignalStrength13SetCachedSizeEi
T _ZNK9ril_proto21RILCDMASignalStrength24SerializeWithCachedSizesEPN6google8protobuf2io17CodedOutputStreamE
T _ZNK9ril_proto21RILCDMASignalStrength31SerializeWithCachedSizesToArrayEPh
T _ZNK9ril_proto21RILCDMASignalStrength3NewEv
T _ZNK9ril_proto21RILCDMASignalStrength8ByteSizeEv
T _ZNK9ril_proto21RILEVDOSignalStrength11GetMetadataEv
T _ZNK9ril_proto21RILEVDOSignalStrength13IsInitializedEv
T _ZNK9ril_proto21RILEVDOSignalStrength13SetCachedSizeEi
T _ZNK9ril_proto21RILEVDOSignalStrength24SerializeWithCachedSizesEPN6google8protobuf2io17CodedOutputStreamE
T _ZNK9ril_proto21RILEVDOSignalStrength31SerializeWithCachedSizesToArrayEPh
T _ZNK9ril_proto21RILEVDOSignalStrength3NewEv
T _ZNK9ril_proto21RILEVDOSignalStrength8ByteSizeEv
T _ZNK9ril_proto21ReqSeparateConnection11GetMetadataEv
T _ZNK9ril_proto21ReqSeparateConnection13IsInitializedEv
T _ZNK9ril_proto21ReqSeparateConnection13SetCachedSizeEi
T _ZNK9ril_proto21ReqSeparateConnection24SerializeWithCachedSizesEPN6google8protobuf2io17CodedOutputStreamE
T _ZNK9ril_proto21ReqSeparateConnection31SerializeWithCachedSizesToArrayEPh
T _ZNK9ril_proto21ReqSeparateConnection3NewEv
T _ZNK9ril_proto21ReqSeparateConnection8ByteSizeEv
T _ZNK9ril_proto25CtrlSetCallTransitionFlag11GetMetadataEv
T _ZNK9ril_proto25CtrlSetCallTransitionFlag13IsInitializedEv
T _ZNK9ril_proto25CtrlSetCallTransitionFlag13SetCachedSizeEi
T _ZNK9ril_proto25CtrlSetCallTransitionFlag24SerializeWithCachedSizesEPN6google8protobuf2io17CodedOutputStreamE
T _ZNK9ril_proto25CtrlSetCallTransitionFlag31SerializeWithCachedSizesToArrayEPh
T _ZNK9ril_proto25CtrlSetCallTransitionFlag3NewEv
T _ZNK9ril_proto25CtrlSetCallTransitionFlag8ByteSizeEv
T _ZNK9ril_proto7ReqDial11GetMetadataEv
T _ZNK9ril_proto7ReqDial13IsInitializedEv
T _ZNK9ril_proto7ReqDial13SetCachedSizeEi
T _ZNK9ril_proto7ReqDial24SerializeWithCachedSizesEPN6google8protobuf2io17CodedOutputStreamE
T _ZNK9ril_proto7ReqDial31SerializeWithCachedSizesToArrayEPh
T _ZNK9ril_proto7ReqDial3NewEv
T _ZNK9ril_proto7ReqDial8ByteSizeEv
T _ZNK9ril_proto7RilCall11GetMetadataEv
T _ZNK9ril_proto7RilCall13IsInitializedEv
T _ZNK9ril_proto7RilCall13SetCachedSizeEi
T _ZNK9ril_proto7RilCall24SerializeWithCachedSizesEPN6google8protobuf2io17CodedOutputStreamE
T _ZNK9ril_proto7RilCall31SerializeWithCachedSizesToArrayEPh
T _ZNK9ril_proto7RilCall3NewEv
T _ZNK9ril_proto7RilCall8ByteSizeEv
T _ZNK9ril_proto9ReqHangUp11GetMetadataEv
T _ZNK9ril_proto9ReqHangUp13IsInitializedEv
T _ZNK9ril_proto9ReqHangUp13SetCachedSizeEi
T _ZNK9ril_proto9ReqHangUp24SerializeWithCachedSizesEPN6google8protobuf2io17CodedOutputStreamE
T _ZNK9ril_proto9ReqHangUp31SerializeWithCachedSizesToArrayEPh
T _ZNK9ril_proto9ReqHangUp3NewEv
T _ZNK9ril_proto9ReqHangUp8ByteSizeEv
W _ZNKSs4findEPKcjj
U _ZNKSt6locale12_M_use_facetERKNS_2idE
W _ZNSi4readEPci
W _ZNSo14_M_put_nowidenEPKc
W _ZNSo5writeEPKci
W _ZNSoD0Ev
W _ZNSoD1Ev
W _ZNSs10_M_reserveEj
W _ZNSs6appendEjc
W _ZNSs7reserveEj
W _ZNSs9_M_appendEPKcS0_
W _ZNSs9_M_assignEPKcS0_
W _ZNSsC1EPKcRKSaIcE
W _ZNSsC1ERKSs
U _ZNSt12__node_alloc11_M_allocateERj
U _ZNSt12__node_alloc13_M_deallocateEPvj
W _ZNSt15basic_streambufIcSt11char_traitsIcEE10_M_xsputncEci
W _ZNSt15basic_streambufIcSt11char_traitsIcEE4syncEv
W _ZNSt15basic_streambufIcSt11char_traitsIcEE5imbueERKSt6locale
W _ZNSt15basic_streambufIcSt11char_traitsIcEE5uflowEv
W _ZNSt15basic_streambufIcSt11char_traitsIcEE6setbufEPci
W _ZNSt15basic_streambufIcSt11char_traitsIcEE6xsgetnEPci
W _ZNSt15basic_streambufIcSt11char_traitsIcEE6xsputnEPKci
W _ZNSt15basic_streambufIcSt11char_traitsIcEE7seekoffElii
W _ZNSt15basic_streambufIcSt11char_traitsIcEE7seekposESt4fposI9mbstate_tEi
W _ZNSt15basic_streambufIcSt11char_traitsIcEE8overflowEi
W _ZNSt15basic_streambufIcSt11char_traitsIcEE8pubimbueERKSt6locale
W _ZNSt15basic_streambufIcSt11char_traitsIcEE9pbackfailEi
W _ZNSt15basic_streambufIcSt11char_traitsIcEE9showmanycEv
W _ZNSt15basic_streambufIcSt11char_traitsIcEE9underflowEv
W _ZNSt15basic_streambufIcSt11char_traitsIcEED0Ev
W _ZNSt15basic_streambufIcSt11char_traitsIcEED1Ev
W _ZNSt15basic_stringbufIcSt11char_traitsIcESaIcEE10_M_xsputncEci
W _ZNSt15basic_stringbufIcSt11char_traitsIcESaIcEE5uflowEv
W _ZNSt15basic_stringbufIcSt11char_traitsIcESaIcEE6setbufEPci
W _ZNSt15basic_stringbufIcSt11char_traitsIcESaIcEE6xsputnEPKci
W _ZNSt15basic_stringbufIcSt11char_traitsIcESaIcEE7seekoffElii
W _ZNSt15basic_stringbufIcSt11char_traitsIcESaIcEE7seekposESt4fposI9mbstate_tEi
W _ZNSt15basic_stringbufIcSt11char_traitsIcESaIcEE8overflowEi
W _ZNSt15basic_stringbufIcSt11char_traitsIcESaIcEE9pbackfailEi
W _ZNSt15basic_stringbufIcSt11char_traitsIcESaIcEE9underflowEv
W _ZNSt15basic_stringbufIcSt11char_traitsIcESaIcEEC1Ei
W _ZNSt15basic_stringbufIcSt11char_traitsIcESaIcEED0Ev
W _ZNSt15basic_stringbufIcSt11char_traitsIcESaIcEED1Ev
W _ZNSt19basic_ostringstreamIcSt11char_traitsIcESaIcEED0Ev
W _ZNSt19basic_ostringstreamIcSt11char_traitsIcESaIcEED1Ev
W _ZNSt4priv10_Rb_globalIbE10_RebalanceEPNS_18_Rb_tree_node_baseERS3_
W _ZNSt4priv10_Rb_globalIbE20_Rebalance_for_eraseEPNS_18_Rb_tree_node_baseERS3_S4_S4_
W _ZNSt4priv11_Deque_baseIP7RequestSaIS2_EED2Ev
W _ZNSt4priv11_Deque_baseIPN8WorkerV87ArgInfoESaIS3_EED2Ev
W _ZNSt4priv11_Deque_baseIPiSaIS1_EED2Ev
U _ZNSt4priv11_GetFacetIdEPKSt7num_putIcSt19ostreambuf_iteratorIcSt11char_traitsIcEEE
W _ZNSt4priv12_String_baseIcSaIcEE17_M_allocate_blockEj
W _ZNSt4priv12__init_bostrIcSt11char_traitsIcEEEbRSt13basic_ostreamIT_T0_E
W _ZNSt4priv14__copy_trivialEPKvS1_Pv
W _ZNSt4priv15__ucopy_trivialEPKvS1_Pv
W _ZNSt4priv20__find_first_of_aux2IPKcS2_S1_St12unary_negateINS_9_IdentityIbEEEEET_S7_S7_T0_S8_PT1_T2_RKSt11__true_type
W _ZNSt4priv20__find_first_of_aux2IPKcS2_cNS_9_IdentityIbEEEET_S5_S5_T0_S6_PT1_T2_RKSt11__true_type
W _ZNSt4priv6__copyIPiSt15insert_iteratorISt3setIiSt4lessIiESaIiEEEiEET0_T_SA_S9_RKSt26random_access_iterator_tagPT1_
W _ZNSt4priv7__ufillIPSsSsiEEvT_S2_RKT0_RKSt26random_access_iterator_tagPT1_
W _ZNSt4priv8_Rb_treeIPKN6google8protobuf10DescriptorENS2_4hashIS5_EES5_NS_9_IdentityIS5_EENS_11_SetTraitsTIS5_EESaIS5_EE13insert_uniqueERKS5_
W _ZNSt4priv8_Rb_treeIPKN6google8protobuf10DescriptorENS2_4hashIS5_EES5_NS_9_IdentityIS5_EENS_11_SetTraitsTIS5_EESaIS5_EE8_M_eraseEPNS_18_Rb_tree_node_baseE
W _ZNSt4priv8_Rb_treeIPKN6google8protobuf10DescriptorENS2_4hashIS5_EESt4pairIKS5_PKNS2_14DynamicMessage8TypeInfoEENS_10_Select1stISE_EENS_11_MapTraitsTISE_EESaISE_EE13insert_uniqueENS_17_Rb_tree_iteratorISE_SI_EERKSE_
W _ZNSt4priv8_Rb_treeIPKN6google8protobuf10DescriptorENS2_4hashIS5_EESt4pairIKS5_PKNS2_14DynamicMessage8TypeInfoEENS_10_Select1stISE_EENS_11_MapTraitsTISE_EESaISE_EE13insert_uniqueERKSE_
W _ZNSt4priv8_Rb_treeIPKN6google8protobuf10DescriptorENS2_4hashIS5_EESt4pairIKS5_PKNS2_14DynamicMessage8TypeInfoEENS_10_Select1stISE_EENS_11_MapTraitsTISE_EESaISE_EE8_M_eraseEPNS_18_Rb_tree_node_baseE
W _ZNSt4priv8_Rb_treeIPKN6google8protobuf10DescriptorENS2_4hashIS5_EESt4pairIKS5_PKNS2_14DynamicMessage8TypeInfoEENS_10_Select1stISE_EENS_11_MapTraitsTISE_EESaISE_EE9_M_insertEPNS_18_Rb_tree_node_baseERKSE_SM_SM_
W _ZNSt4priv8_Rb_treeIPKN6google8protobuf10DescriptorENS2_4hashIS5_EESt4pairIKS5_PKNS2_7MessageEENS_10_Select1stISD_EENS_11_MapTraitsTISD_EESaISD_EE13insert_uniqueERKSD_
W _ZNSt4priv8_Rb_treeIPKN6google8protobuf10DescriptorENS2_4hashIS5_EESt4pairIKS5_PKNS2_7MessageEENS_10_Select1stISD_EENS_11_MapTraitsTISD_EESaISD_EE8_M_eraseEPNS_18_Rb_tree_node_baseE
W _ZNSt4priv8_Rb_treeIPKN6google8protobuf10DescriptorESt4lessIS5_ES5_NS_9_IdentityIS5_EENS_11_SetTraitsTIS5_EESaIS5_EE13insert_uniqueERKS5_
W _ZNSt4priv8_Rb_treeIPKN6google8protobuf10DescriptorESt4lessIS5_ES5_NS_9_IdentityIS5_EENS_11_SetTraitsTIS5_EESaIS5_EE8_M_eraseEPNS_18_Rb_tree_node_baseE
W _ZNSt4priv8_Rb_treeIPKN6google8protobuf10DescriptorESt4lessIS5_ESt4pairIKS5_PN11protobuf_v86Schema4TypeEENS_10_Select1stISE_EENS_11_MapTraitsTISE_EESaISE_EE13insert_uniqueENS_17_Rb_tree_iteratorISE_SI_EERKSE_
W _ZNSt4priv8_Rb_treeIPKN6google8protobuf10DescriptorESt4lessIS5_ESt4pairIKS5_PN11protobuf_v86Schema4TypeEENS_10_Select1stISE_EENS_11_MapTraitsTISE_EESaISE_EE13insert_uniqueERKSE_
W _ZNSt4priv8_Rb_treeIPKN6google8protobuf10DescriptorESt4lessIS5_ESt4pairIKS5_PN11protobuf_v86Schema4TypeEENS_10_Select1stISE_EENS_11_MapTraitsTISE_EESaISE_EE8_M_eraseEPNS_18_Rb_tree_node_baseE
W _ZNSt4priv8_Rb_treeIPKN6google8protobuf10DescriptorESt4lessIS5_ESt4pairIKS5_PN11protobuf_v86Schema4TypeEENS_10_Select1stISE_EENS_11_MapTraitsTISE_EESaISE_EE9_M_insertEPNS_18_Rb_tree_node_baseERKSE_SM_SM_
W _ZNSt4priv8_Rb_treeIPKcN6google8protobuf4hashIS2_EESt4pairIKS2_PFvRKSsEENS_10_Select1stISD_EENS_11_MapTraitsTISD_EESaISD_EE13insert_uniqueERKSD_
W _ZNSt4priv8_Rb_treeIPKcN6google8protobuf4hashIS2_EESt4pairIKS2_PFvRKSsEENS_10_Select1stISD_EENS_11_MapTraitsTISD_EESaISD_EE8_M_eraseEPNS_18_Rb_tree_node_baseE
W _ZNSt4priv8_Rb_treeIPKcN6google8protobuf4hashIS2_EESt4pairIKS2_PKNS4_14FileDescriptorEENS_10_Select1stISC_EENS_11_MapTraitsTISC_EESaISC_EE13insert_uniqueERKSC_
W _ZNSt4priv8_Rb_treeIPKcN6google8protobuf4hashIS2_EESt4pairIKS2_PKNS4_14FileDescriptorEENS_10_Select1stISC_EENS_11_MapTraitsTISC_EESaISC_EE8_M_eraseEPNS_18_Rb_tree_node_baseE
W _ZNSt4priv8_Rb_treeISsN6google8protobuf4hashISsEESsNS_9_IdentityISsEENS_11_SetTraitsTISsEESaISsEE13insert_uniqueERKSs
W _ZNSt4priv8_Rb_treeISsN6google8protobuf4hashISsEESsNS_9_IdentityISsEENS_11_SetTraitsTISsEESaISsEE8_M_eraseEPNS_18_Rb_tree_node_baseE
W _ZNSt4priv8_Rb_treeISsSt4lessISsESsNS_9_IdentityISsEENS_11_SetTraitsTISsEESaISsEE13insert_uniqueERKSs
W _ZNSt4priv8_Rb_treeISsSt4lessISsESsNS_9_IdentityISsEENS_11_SetTraitsTISsEESaISsEE8_M_eraseEPNS_18_Rb_tree_node_baseE
W _ZNSt4priv8_Rb_treeISsSt4lessISsESt4pairIKSsPKN6google8protobuf19FileDescriptorProtoEENS_10_Select1stISA_EENS_11_MapTraitsTISA_EESaISA_EE13insert_uniqueENS_17_Rb_tree_iteratorISA_SE_EERKSA_
W _ZNSt4priv8_Rb_treeISsSt4lessISsESt4pairIKSsPKN6google8protobuf19FileDescriptorProtoEENS_10_Select1stISA_EENS_11_MapTraitsTISA_EESaISA_EE13insert_uniqueERKSA_
W _ZNSt4priv8_Rb_treeISsSt4lessISsESt4pairIKSsPKN6google8protobuf19FileDescriptorProtoEENS_10_Select1stISA_EENS_11_MapTraitsTISA_EESaISA_EE8_M_eraseEPNS_18_Rb_tree_node_baseE
W _ZNSt4priv8_Rb_treeISsSt4lessISsESt4pairIKSsPKN6google8protobuf19FileDescriptorProtoEENS_10_Select1stISA_EENS_11_MapTraitsTISA_EESaISA_EE9_M_insertEPNS_18_Rb_tree_node_baseERKSA_SI_SI_
W _ZNSt4priv8_Rb_treeISsSt4lessISsESt4pairIKSsS3_IPKviEENS_10_Select1stIS8_EENS_11_MapTraitsTIS8_EESaIS8_EE13insert_uniqueENS_17_Rb_tree_iteratorIS8_SC_EERKS8_
W _ZNSt4priv8_Rb_treeISsSt4lessISsESt4pairIKSsS3_IPKviEENS_10_Select1stIS8_EENS_11_MapTraitsTIS8_EESaIS8_EE13insert_uniqueERKS8_
W _ZNSt4priv8_Rb_treeISsSt4lessISsESt4pairIKSsS3_IPKviEENS_10_Select1stIS8_EENS_11_MapTraitsTIS8_EESaIS8_EE8_M_eraseEPNS_18_Rb_tree_node_baseE
W _ZNSt4priv8_Rb_treeISsSt4lessISsESt4pairIKSsS3_IPKviEENS_10_Select1stIS8_EENS_11_MapTraitsTIS8_EESaIS8_EE9_M_insertEPNS_18_Rb_tree_node_baseERKS8_SG_SG_
W _ZNSt4priv8_Rb_treeISt4pairIPKN6google8protobuf10DescriptorEiESt4lessIS7_ES1_IKS7_PKNS3_15FieldDescriptorEENS_10_Select1stISE_EENS_11_MapTraitsTISE_EESaISE_EE13insert_uniqueERKSE_
W _ZNSt4priv8_Rb_treeISt4pairIPKN6google8protobuf10DescriptorEiESt4lessIS7_ES1_IKS7_PKNS3_15FieldDescriptorEENS_10_Select1stISE_EENS_11_MapTraitsTISE_EESaISE_EE8_M_eraseEPNS_18_Rb_tree_node_baseE
W _ZNSt4priv8_Rb_treeISt4pairIPKN6google8protobuf11MessageLiteEiENS3_4hashIS7_EES1_IKS7_NS3_8internal13ExtensionInfoEENS_10_Select1stISD_EENS_11_MapTraitsTISD_EESaISD_EE13insert_uniqueERKSD_
W _ZNSt4priv8_Rb_treeISt4pairIPKN6google8protobuf11MessageLiteEiENS3_4hashIS7_EES1_IKS7_NS3_8internal13ExtensionInfoEENS_10_Select1stISD_EENS_11_MapTraitsTISD_EESaISD_EE8_M_eraseEPNS_18_Rb_tree_node_baseE
W _ZNSt4priv8_Rb_treeISt4pairISsiESt4lessIS2_ES1_IKS2_PKN6google8protobuf19FileDescriptorProtoEENS_10_Select1stISB_EENS_11_MapTraitsTISB_EESaISB_EE13insert_uniqueERKSB_
W _ZNSt4priv8_Rb_treeISt4pairISsiESt4lessIS2_ES1_IKS2_PKN6google8protobuf19FileDescriptorProtoEENS_10_Select1stISB_EENS_11_MapTraitsTISB_EESaISB_EE8_M_eraseEPNS_18_Rb_tree_node_baseE
W _ZNSt4priv8_Rb_treeISt4pairISsiESt4lessIS2_ES1_IKS2_S1_IPKviEENS_10_Select1stIS9_EENS_11_MapTraitsTIS9_EESaIS9_EE13insert_uniqueERKS9_
W _ZNSt4priv8_Rb_treeISt4pairISsiESt4lessIS2_ES1_IKS2_S1_IPKviEENS_10_Select1stIS9_EENS_11_MapTraitsTIS9_EESaIS9_EE8_M_eraseEPNS_18_Rb_tree_node_baseE
W _ZNSt4priv8_Rb_treeIiSt4lessIiESt4pairIKiN6google8protobuf8internal12ExtensionSet9ExtensionEENS_10_Select1stISA_EENS_11_MapTraitsTISA_EESaISA_EE13insert_uniqueERKSA_
W _ZNSt4priv8_Rb_treeIiSt4lessIiESt4pairIKiN6google8protobuf8internal12ExtensionSet9ExtensionEENS_10_Select1stISA_EENS_11_MapTraitsTISA_EESaISA_EE8_M_eraseEPNS_18_Rb_tree_node_baseE
W _ZNSt4priv8_Rb_treeIiSt4lessIiESt4pairIKiPF9RIL_ErrnoiPvS5_P6BufferEENS_10_Select1stISB_EENS_11_MapTraitsTISB_EESaISB_EE13insert_uniqueENS_17_Rb_tree_iteratorISB_SF_EERKSB_
W _ZNSt4priv8_Rb_treeIiSt4lessIiESt4pairIKiPF9RIL_ErrnoiPvS5_P6BufferEENS_10_Select1stISB_EENS_11_MapTraitsTISB_EESaISB_EE13insert_uniqueERKSB_
W _ZNSt4priv8_Rb_treeIiSt4lessIiESt4pairIKiPF9RIL_ErrnoiPvS5_P6BufferEENS_10_Select1stISB_EENS_11_MapTraitsTISB_EESaISB_EE8_M_eraseEPNS_18_Rb_tree_node_baseE
W _ZNSt4priv8_Rb_treeIiSt4lessIiESt4pairIKiPF9RIL_ErrnoiPvS5_P6BufferEENS_10_Select1stISB_EENS_11_MapTraitsTISB_EESaISB_EE9_M_insertEPNS_18_Rb_tree_node_baseERKSB_SJ_SJ_
W _ZNSt4priv8_Rb_treeIiSt4lessIiESt4pairIKiPFiPP6BufferPKvjPvEENS_10_Select1stISD_EENS_11_MapTraitsTISD_EESaISD_EE13insert_uniqueENS_17_Rb_tree_iteratorISD_SH_EERKSD_
W _ZNSt4priv8_Rb_treeIiSt4lessIiESt4pairIKiPFiPP6BufferPKvjPvEENS_10_Select1stISD_EENS_11_MapTraitsTISD_EESaISD_EE13insert_uniqueERKSD_
W _ZNSt4priv8_Rb_treeIiSt4lessIiESt4pairIKiPFiPP6BufferPKvjPvEENS_10_Select1stISD_EENS_11_MapTraitsTISD_EESaISD_EE8_M_eraseEPNS_18_Rb_tree_node_baseE
W _ZNSt4priv8_Rb_treeIiSt4lessIiESt4pairIKiPFiPP6BufferPKvjPvEENS_10_Select1stISD_EENS_11_MapTraitsTISD_EESaISD_EE9_M_insertEPNS_18_Rb_tree_node_baseERKSD_SL_SL_
W _ZNSt4priv8_Rb_treeIiSt4lessIiESt4pairIKiPFviP6BufferEENS_10_Select1stIS9_EENS_11_MapTraitsTIS9_EESaIS9_EE8_M_eraseEPNS_18_Rb_tree_node_baseE
W _ZNSt4priv8_Rb_treeIiSt4lessIiEiNS_9_IdentityIiEENS_11_SetTraitsTIiEESaIiEE13insert_uniqueENS_17_Rb_tree_iteratorIiS6_EERKi
W _ZNSt4priv8_Rb_treeIiSt4lessIiEiNS_9_IdentityIiEENS_11_SetTraitsTIiEESaIiEE13insert_uniqueERKi
W _ZNSt4priv8_Rb_treeIiSt4lessIiEiNS_9_IdentityIiEENS_11_SetTraitsTIiEESaIiEE8_M_eraseEPNS_18_Rb_tree_node_baseE
W _ZNSt4priv8_Rb_treeIiSt4lessIiEiNS_9_IdentityIiEENS_11_SetTraitsTIiEESaIiEE9_M_insertEPNS_18_Rb_tree_node_baseERKiSA_SA_
W _ZNSt4priv9__find_ifIPKcNS_14_Eq_char_boundISt11char_traitsIcEEEEET_S7_S7_T0_RKSt26random_access_iterator_tag
W _ZNSt4priv9__find_ifISt16reverse_iteratorIPKcENS_14_Eq_char_boundISt11char_traitsIcEEEEET_S9_S9_T0_RKSt26random_access_iterator_tag
W _ZNSt4priv9__put_numIcSt11char_traitsIcElEERSt13basic_ostreamIT_T0_ES7_T1_
U _ZNSt5ctypeIcE2idE
W _ZNSt5dequeIP7RequestSaIS1_EE18_M_push_back_aux_vERKS1_
W _ZNSt5dequeIPN8WorkerV87ArgInfoESaIS2_EE18_M_push_back_aux_vERKS2_
W _ZNSt5dequeIPiSaIS0_EE18_M_push_back_aux_vERKS0_
U _ZNSt6localeC1ERKS_
U _ZNSt6localeC1Ev
U _ZNSt6localeD1Ev
U _ZNSt6localeaSERKS_
W _ZNSt6vectorIPN6google8protobuf20FileDescriptorTablesESaIS3_EE14_M_fill_insertEPS3_jRKS3_
W _ZNSt6vectorIPN6google8protobuf20FileDescriptorTablesESaIS3_EE18_M_fill_insert_auxEPS3_jRKS3_RKSt12__false_type
W _ZNSt6vectorIPN6google8protobuf20FileDescriptorTablesESaIS3_EE18_M_insert_overflowEPS3_RKS3_RKSt11__true_typejb
W _ZNSt6vectorIPN6google8protobuf7MessageESaIS3_EE14_M_fill_insertEPS3_jRKS3_
W _ZNSt6vectorIPN6google8protobuf7MessageESaIS3_EE18_M_fill_insert_auxEPS3_jRKS3_RKSt12__false_type
W _ZNSt6vectorIPN6google8protobuf7MessageESaIS3_EE18_M_insert_overflowEPS3_RKS3_RKSt11__true_typejb
W _ZNSt6vectorIPSsSaIS0_EE14_M_fill_insertEPS0_jRKS0_
W _ZNSt6vectorIPSsSaIS0_EE18_M_fill_insert_auxEPS0_jRKS0_RKSt12__false_type
W _ZNSt6vectorIPSsSaIS0_EE18_M_insert_overflowEPS0_RKS0_RKSt11__true_typejb
W _ZNSt6vectorIPvSaIS0_EE14_M_fill_insertEPS0_jRKS0_
W _ZNSt6vectorIPvSaIS0_EE18_M_fill_insert_auxEPS0_jRKS0_RKSt12__false_type
W _ZNSt6vectorIPvSaIS0_EE18_M_insert_overflowEPS0_RKS0_RKSt11__true_typejb
U _ZNSt8ios_base16_M_throw_failureEv
U _ZNSt8ios_base5imbueERKSt6locale
U _ZNSt8ios_baseC2Ev
U _ZNSt8ios_baseD2Ev
W _ZNSt9basic_iosIcSt11char_traitsIcEE4initEPSt15basic_streambufIcS1_E
W _ZNSt9basic_iosIcSt11char_traitsIcEE5imbueERKSt6locale
W _ZSt14_M_init_noskipIcSt11char_traitsIcEEbRSt13basic_istreamIT_T0_E
W _ZSt18__stlp_string_fillIcSt11char_traitsIcEEbRSt13basic_ostreamIT_T0_EPSt15basic_streambufIS3_S4_Ei
U _ZSt24__stl_throw_length_errorPKc
U _ZSt24__stl_throw_out_of_rangePKc
W _ZSt6searchIPKcS1_NSt4priv10_Eq_traitsISt11char_traitsIcEEEET_S7_S7_T0_S8_T1_
W _ZSteqIcSt11char_traitsIcESaIcEEbRKSbIT_T0_T1_EPKS3_
W _ZSteqIcSt11char_traitsIcESaIcEEbRKSbIT_T0_T1_ES8_
W _ZStlsIcSt11char_traitsIcESaIcEERSt13basic_ostreamIT_T0_ES7_RKSbIS4_S5_T1_E
W _ZStltISsiEbRKSt4pairIT_T0_ES5_
W _ZStltIcSt11char_traitsIcESaIcEEbRKSbIT_T0_T1_ES8_
W _ZStplIcSt11char_traitsIcESaIcEESbIT_T0_T1_EPKS3_RKS6_
W _ZStplIcSt11char_traitsIcESaIcEESbIT_T0_T1_ERKS6_PKS3_
W _ZStplIcSt11char_traitsIcESaIcEESbIT_T0_T1_ERKS6_S8_
V _ZTCSt19basic_ostringstreamIcSt11char_traitsIcESaIcEE0_So
V _ZTTSo
V _ZTTSt19basic_ostringstreamIcSt11char_traitsIcESaIcEE
V _ZTV10ObjectWrap
D _ZTV11WorkerQueue
V _ZTV12TesterThread
D _ZTV12WorkerThread
V _ZTV15TestWorkerQueue
V _ZTV16CtrlServerThread
V _ZTV17WorkerQueueThread
D _ZTV21RilRequestWorkerQueue
D _ZTV6Buffer
V _ZTV8WorkerV8
V _ZTVN11protobuf_v86Schema4TypeE
V _ZTVN11protobuf_v86SchemaE
D _ZTVN13communication9MsgHeaderE
V _ZTVN2v810ScriptDataE
V _ZTVN2v85Debug7MessageE
V _ZTVN2v86String26ExternalStringResourceBaseE
V _ZTVN2v86String27ExternalAsciiStringResourceE
D _ZTVN2v88internal10ActionNodeE
D _ZTVN2v88internal10AssignmentE
D _ZTVN2v88internal10AstLabelerE
D _ZTVN2v88internal10AstVisitorE
D _ZTVN2v88internal10CEntryStubE
D _ZTVN2v88internal10ChoiceNodeE
V _ZTVN2v88internal10DummyScopeE
D _ZTVN2v88internal10EntryFrameE
V _ZTVN2v88internal10ExpressionE
D _ZTVN2v88internal10FixedSpaceE
D _ZTVN2v88internal10JumpTargetE
V _ZTVN2v88internal10LinuxMutexE
V _ZTVN2v88internal10MapCompact18MapUpdatingVisitorE
D _ZTVN2v88internal10PagedSpaceE
D _ZTVN2v88internal10RegExpAtomE
D _ZTVN2v88internal10RegExpNodeE
D _ZTVN2v88internal10RegExpTextE
D _ZTVN2v88internal10RegExpTreeE
D _ZTVN2v88internal10Serializer16ObjectSerializerE
D _ZTVN2v88internal10SerializerE
D _ZTVN2v88internal10StackFrameE
V _ZTVN2v88internal10SymbolsKeyE
D _ZTVN2v88internal11BreakTargetE
D _ZTVN2v88internal11CallRuntimeE
D _ZTVN2v88internal11CodePatcherE
D _ZTVN2v88internal11CompareStubE
D _ZTVN2v88internal11ConditionalE
D _ZTVN2v88internal11DeclarationE
D _ZTVN2v88internal11GCExtensionE
D _ZTVN2v88internal11IfStatementE
V _ZTVN2v88internal11JSEntryStubE
V _ZTVN2v88internal11MapIteratorE
D _ZTVN2v88internal11MessageImplE
V _ZTVN2v88internal11NodeVisitorE
D _ZTVN2v88internal11POSIXSocketE
D _ZTVN2v88internal11RegExpEmptyE
V _ZTVN2v88internal11RelocatableE
V _ZTVN2v88internal11ScriptCacheE
V _ZTVN2v88internal11UTF16BufferE
D _ZTVN2v88internal11VariableMapE
D _ZTVN2v88internal12ArrayLiteralE
D _ZTVN2v88internal12AstOptimizerE
V _ZTVN2v88internal12DeferredCodeE
D _ZTVN2v88internal12DeserializerE
D _ZTVN2v88internal12ForStatementE
V _ZTVN2v88internal12HashTableKeyE
D _ZTVN2v88internal12HeapIteratorE
V _ZTVN2v88internal12ShadowTargetE
D _ZTVN2v88internal12ThisFunctionE
V _ZTVN2v88internal12TryStatementE
D _ZTVN2v88internal13AssertionNodeE
D _ZTVN2v88internal13CodeGeneratorE
D _ZTVN2v88internal13DebuggerAgentE
D _ZTVN2v88internal13InternalFrameE
D _ZTVN2v88internal13ObjectLiteralE
D _ZTVN2v88internal13ObjectVisitorE
D _ZTVN2v88internal13ParserFactoryE
D _ZTVN2v88internal13RegExpCaptureE
D _ZTVN2v88internal13RegExpLiteralE
V _ZTVN2v88internal13RegExpVisitorE
V _ZTVN2v88internal13SeqRegExpNodeE
D _ZTVN2v88internal13SpaceIteratorE
D _ZTVN2v88internal13StandardFrameE
D _ZTVN2v88internal13StringAddStubE
D _ZTVN2v88internal13SubStringStubE
D _ZTVN2v88internal13UsageComputerE
V _ZTVN2v88internal13Utf8SymbolKeyE
D _ZTVN2v88internal13VariableProxyE
V _ZTVN2v88internal13ZoneAllocatorE
D _ZTVN2v88internal14BreakStatementE
V _ZTVN2v88internal14ConstructFrameE
D _ZTVN2v88internal14CountOperationE
D _ZTVN2v88internal14EmptyStatementE
D _ZTVN2v88internal14ForInStatementE
D _ZTVN2v88internal14InstanceofStubE
D _ZTVN2v88internal14LinuxSemaphoreE
D _ZTVN2v88internal14LoopChoiceNodeE
V _ZTVN2v88internal14MarkingVisitorE
V _ZTVN2v88internal14ObjectIteratorE
D _ZTVN2v88internal14ParserRecorderE
D _ZTVN2v88internal14RegExpUnparserE
D _ZTVN2v88internal14ScriptDataImplE
D _ZTVN2v88internal14StackCheckStubE
V _ZTVN2v88internal14StringStubBaseE
D _ZTVN2v88internal14UnaryOperationE
D _ZTVN2v88internal14WhileStatementE
D _ZTVN2v88internal15BinaryOperationE
D _ZTVN2v88internal15ContextSwitcherE
D _ZTVN2v88internal15CustomArgumentsE
D _ZTVN2v88internal15FunctionLiteralE
D _ZTVN2v88internal15JavaScriptFrameE
D _ZTVN2v88internal15RegExpAssertionE
D _ZTVN2v88internal15RegExpLookaheadE
D _ZTVN2v88internal15ReturnStatementE
V _ZTVN2v88internal15ScavengeVisitorE
V _ZTVN2v88internal15StringAllocatorE
V _ZTVN2v88internal15StringSharedKeyE
D _ZTVN2v88internal15SwitchStatementE
V _ZTVN2v88internal15TargetCollectorE
V _ZTVN2v88internal15UpdatingVisitorE
D _ZTVN2v88internal16CallFunctionStubE
D _ZTVN2v88internal16CompareOperationE
D _ZTVN2v88internal16DoWhileStatementE
D _ZTVN2v88internal16FlatStringReaderE
D _ZTVN2v88internal16LargeObjectSpaceE
D _ZTVN2v88internal16LivenessAnalyzerE
D _ZTVN2v88internal16RegExpCEntryStubE
D _ZTVN2v88internal16RegExpQuantifierE
D _ZTVN2v88internal17AstBuildingParserE
D _ZTVN2v88internal17BackReferenceNodeE
D _ZTVN2v88internal17ContinueStatementE
D _ZTVN2v88internal17DebugInfoListNodeE
D _ZTVN2v88internal17DebuggerStatementE
D _ZTVN2v88internal17FastCodeGeneratorE
D _ZTVN2v88internal17FullCodeGenerator10TryFinallyE
V _ZTVN2v88internal17FullCodeGenerator15NestedStatementE
V _ZTVN2v88internal17FullCodeGenerator7FinallyE
D _ZTVN2v88internal17FullCodeGenerator8TryCatchE
V _ZTVN2v88internal17FullCodeGenerator9BreakableE
V _ZTVN2v88internal17FullCodeGenerator9IterationE
D _ZTVN2v88internal17FullCodeGeneratorE
D _ZTVN2v88internal17PartialSerializerE
D _ZTVN2v88internal17RegExpAlternativeE
D _ZTVN2v88internal17RegExpDisjunctionE
V _ZTVN2v88internal17SemiSpaceIteratorE
D _ZTVN2v88internal17StartupSerializerE
D _ZTVN2v88internal17StringCompareStubE
D _ZTVN2v88internal17StringInputBufferE
D _ZTVN2v88internal17TryCatchStatementE
V _ZTVN2v88internal17UpdateRSetVisitorE
D _ZTVN2v88internal17WithExitStatementE
V _ZTVN2v88internal18BreakableStatementE
D _ZTVN2v88internal18FastNewClosureStubE
D _ZTVN2v88internal18FastNewContextStubE
D _ZTVN2v88internal18GenericUnaryOpStubE
V _ZTVN2v88internal18HeapObjectIteratorE
V _ZTVN2v88internal18IterationStatementE
V _ZTVN2v88internal18RootMarkingVisitorE
V _ZTVN2v88internal18SymbolTableCleanerE
D _ZTVN2v88internal18WithEnterStatementE
D _ZTVN2v88internal19ArgumentsAccessStubE
D _ZTVN2v88internal19ConvertToDoubleStubE
D _ZTVN2v88internal19EntryConstructFrameE
D _ZTVN2v88internal19ExpressionStatementE
D _ZTVN2v88internal19GenericBinaryOpStubE
D _ZTVN2v88internal19HeapStringAllocatorE
V _ZTVN2v88internal19LargeObjectIteratorE
V _ZTVN2v88internal19MaterializedLiteralE
D _ZTVN2v88internal19RegExpBackReferenceE
D _ZTVN2v88internal19TryFinallyStatementE
V _ZTVN2v88internal19TwoCharHashTableKeyE
D _ZTVN2v88internal20CatchExtensionObjectE
V _ZTVN2v88internal20CompilationZoneScopeE
D _ZTVN2v88internal20DebuggerAgentSessionE
V _ZTVN2v88internal20JSConstructEntryStubE
D _ZTVN2v88internal20RegExpCharacterClassE
D _ZTVN2v88internal20RegExpMacroAssemblerE
D _ZTVN2v88internal21ArgumentsAdaptorFrameE
D _ZTVN2v88internal21BreakLocationIteratorE
D _ZTVN2v88internal21PosixMemoryMappedFileE
D _ZTVN2v88internal21SafeStringInputBufferE
V _ZTVN2v88internal21VariableProxySentinelE
V _ZTVN2v88internal22SerializerDeserializerE
D _ZTVN2v88internal23NegativeSubmatchSuccessE
D _ZTVN2v88internal23RegExpMacroAssemblerARME
D _ZTVN2v88internal24AstBuildingParserFactoryE
D _ZTVN2v88internal24DispatchTableConstructorE
D _ZTVN2v88internal24FastCodeGenSyntaxCheckerE
D _ZTVN2v88internal24FullCodeGenSyntaxCheckerE
V _ZTVN2v88internal24PreallocatedMemoryThreadE
D _ZTVN2v88internal24TwoByteStringUTF16BufferE
D _ZTVN2v88internal25FastCloneShallowArrayStubE
V _ZTVN2v88internal25ValidLeftHandSideSentinelE
D _ZTVN2v88internal26CharacterStreamUTF16BufferE
D _ZTVN2v88internal26DeferredInlineSmiOperationE
D _ZTVN2v88internal26FunctionBoilerplateLiteralE
D _ZTVN2v88internal26NativeRegExpMacroAssemblerE
D _ZTVN2v88internal26WriteInt32ToHeapNumberStubE
D _ZTVN2v88internal27MessageDispatchHelperThreadE
D _ZTVN2v88internal27NegativeLookaheadChoiceNodeE
D _ZTVN2v88internal27NoAllocationStringAllocatorE
V _ZTVN2v88internal29NativesExternalStringResourceE
V _ZTVN2v88internal2OS16MemoryMappedFileE
D _ZTVN2v88internal4CallE
D _ZTVN2v88internal4SlotE
D _ZTVN2v88internal5BlockE
V _ZTVN2v88internal5MutexE
D _ZTVN2v88internal5ScopeE
V _ZTVN2v88internal5SpaceE
D _ZTVN2v88internal5ThrowE
V _ZTVN2v88internal6ParserE
V _ZTVN2v88internal6SocketE
D _ZTVN2v88internal6ThreadE
V _ZTVN2v88internal7AstNodeE
D _ZTVN2v88internal7CallNewE
D _ZTVN2v88internal7EndNodeE
D _ZTVN2v88internal7LiteralE
D _ZTVN2v88internal8AnalysisE
V _ZTVN2v88internal8CodeStubE
D _ZTVN2v88internal8MapSpaceE
D _ZTVN2v88internal8NewSpaceE
D _ZTVN2v88internal8OldSpaceE
D _ZTVN2v88internal8PropertyE
D _ZTVN2v88internal8TextNodeE
V _ZTVN2v88internal9AllocatorE
V _ZTVN2v88internal9CellSpaceE
D _ZTVN2v88internal9ExitFrameE
V _ZTVN2v88internal9ParserLogE
D _ZTVN2v88internal9PreParserE
D _ZTVN2v88internal9ProcessorE
V _ZTVN2v88internal9RegExpKeyE
V _ZTVN2v88internal9SemaphoreE
V _ZTVN2v88internal9SemiSpaceE
V _ZTVN2v88internal9StatementE
V _ZTVN2v88internal9StringKeyE
V _ZTVN2v88internal9SymbolKeyE
V _ZTVN2v88internal9ZoneScopeE
V _ZTVN2v89ExtensionE
D _ZTVN6google8protobuf10ReflectionE
V _ZTVN6google8protobuf10TextFormat6Parser10ParserImpl20ParserErrorCollectorE
D _ZTVN6google8protobuf11EnumOptionsE
D _ZTVN6google8protobuf11FileOptionsE
D _ZTVN6google8protobuf11MessageLiteE
D _ZTVN6google8protobuf12FieldOptionsE
D _ZTVN6google8protobuf13MethodOptionsE
D _ZTVN6google8protobuf14DescriptorPool14ErrorCollectorE
D _ZTVN6google8protobuf14DynamicMessageE
D _ZTVN6google8protobuf14MessageFactoryE
D _ZTVN6google8protobuf14MessageOptionsE
D _ZTVN6google8protobuf14ServiceOptionsE
D _ZTVN6google8protobuf15DescriptorProtoE
D _ZTVN6google8protobuf16EnumValueOptionsE
D _ZTVN6google8protobuf17FileDescriptorSetE
D _ZTVN6google8protobuf18DescriptorDatabaseE
D _ZTVN6google8protobuf19EnumDescriptorProtoE
D _ZTVN6google8protobuf19FileDescriptorProtoE
D _ZTVN6google8protobuf19UninterpretedOptionE
D _ZTVN6google8protobuf20FieldDescriptorProtoE
D _ZTVN6google8protobuf21DynamicMessageFactoryE
D _ZTVN6google8protobuf21MethodDescriptorProtoE
D _ZTVN6google8protobuf22DescriptorPoolDatabaseE
D _ZTVN6google8protobuf22ServiceDescriptorProtoE
D _ZTVN6google8protobuf24EnumValueDescriptorProtoE
D _ZTVN6google8protobuf24MergedDescriptorDatabaseE
D _ZTVN6google8protobuf24SimpleDescriptorDatabaseE
D _ZTVN6google8protobuf25EncodedDescriptorDatabaseE
D _ZTVN6google8protobuf28UninterpretedOption_NamePartE
D _ZTVN6google8protobuf2io14ErrorCollectorE
D _ZTVN6google8protobuf2io15FileInputStream22CopyingFileInputStreamE
D _ZTVN6google8protobuf2io15FileInputStreamE
D _ZTVN6google8protobuf2io16ArrayInputStreamE
D _ZTVN6google8protobuf2io16FileOutputStream23CopyingFileOutputStreamE
D _ZTVN6google8protobuf2io16FileOutputStreamE
D _ZTVN6google8protobuf2io17ArrayOutputStreamE
D _ZTVN6google8protobuf2io18CopyingInputStreamE
D _ZTVN6google8protobuf2io18IstreamInputStream25CopyingIstreamInputStreamE
D _ZTVN6google8protobuf2io18IstreamInputStreamE
D _ZTVN6google8protobuf2io18StringOutputStreamE
D _ZTVN6google8protobuf2io19CopyingOutputStreamE
D _ZTVN6google8protobuf2io19LimitingInputStreamE
D _ZTVN6google8protobuf2io19OstreamOutputStream26CopyingOstreamOutputStreamE
D _ZTVN6google8protobuf2io19OstreamOutputStreamE
D _ZTVN6google8protobuf2io19ZeroCopyInputStreamE
D _ZTVN6google8protobuf2io20ZeroCopyOutputStreamE
D _ZTVN6google8protobuf2io24ConcatenatingInputStreamE
D _ZTVN6google8protobuf2io25CopyingInputStreamAdaptorE
D _ZTVN6google8protobuf2io26CopyingOutputStreamAdaptorE
D _ZTVN6google8protobuf30DescriptorProto_ExtensionRangeE
D _ZTVN6google8protobuf7ClosureE
D _ZTVN6google8protobuf7MessageE
D _ZTVN6google8protobuf8internal12FieldSkipperE
D _ZTVN6google8protobuf8internal15ExtensionFinderE
D _ZTVN6google8protobuf8internal16FunctionClosure0E
D _ZTVN6google8protobuf8internal24GeneratedExtensionFinderE
D _ZTVN6google8protobuf8internal26GeneratedMessageReflectionE
D _ZTVN6google8protobuf8internal27UnknownFieldSetFieldSkipperE
D _ZTVN6google8protobuf8internal29DescriptorPoolExtensionFinderE
V _ZTVN7unibrow11InputBufferIN2v88internal6StringEPPS3_Lj256EEE
V _ZTVN7unibrow11InputBufferIN2v88internal6StringEPS3_Lj1024EEE
V _ZTVN7unibrow11InputBufferINS_4Utf8ENS_6BufferIPKcEELj1024EEE
V _ZTVN7unibrow11InputBufferINS_4Utf8ENS_6BufferIPKcEELj256EEE
D _ZTVN7unibrow15CharacterStreamE
V _ZTVN7unibrow15Utf8InputBufferILj1024EEE
V _ZTVN7unibrow15Utf8InputBufferILj256EEE
V _ZTVN8WorkerV87HandlerE
D _ZTVN9ril_proto10ReqSetMuteE
D _ZTVN9ril_proto10RilUusInfoE
D _ZTVN9ril_proto10RspStringsE
D _ZTVN9ril_proto11RspIntegersE
D _ZTVN9ril_proto11RspOperatorE
D _ZTVN9ril_proto12RilAppStatusE
D _ZTVN9ril_proto13RilCardStatusE
D _ZTVN9ril_proto14ReqEnterSimPinE
D _ZTVN9ril_proto14ReqScreenStateE
D _ZTVN9ril_proto14RspEnterSimPinE
D _ZTVN9ril_proto15RspGetSimStatusE
D _ZTVN9ril_proto16CtrlReqSetMTCallE
D _ZTVN9ril_proto17CtrlReqRadioStateE
D _ZTVN9ril_proto17CtrlRspRadioStateE
D _ZTVN9ril_proto17RspSignalStrengthE
D _ZTVN9ril_proto18RspGetCurrentCallsE
D _ZTVN9ril_proto19RILGWSignalStrengthE
D _ZTVN9ril_proto20CtrlHangupConnRemoteE
D _ZTVN9ril_proto20RspLastCallFailCauseE
D _ZTVN9ril_proto21CtrlReqAddDialingCallE
D _ZTVN9ril_proto21RILCDMASignalStrengthE
D _ZTVN9ril_proto21RILEVDOSignalStrengthE
D _ZTVN9ril_proto21ReqSeparateConnectionE
D _ZTVN9ril_proto25CtrlSetCallTransitionFlagE
D _ZTVN9ril_proto7ReqDialE
D _ZTVN9ril_proto7RilCallE
D _ZTVN9ril_proto9ReqHangUpE
V _ZTVSo
V _ZTVSt15basic_streambufIcSt11char_traitsIcEE
V _ZTVSt15basic_stringbufIcSt11char_traitsIcESaIcEE
V _ZTVSt19basic_ostringstreamIcSt11char_traitsIcESaIcEE
V _ZTVSt9basic_iosIcSt11char_traitsIcEE
W _ZTv0_n12_NSoD0Ev
W _ZTv0_n12_NSoD1Ev
W _ZTv0_n12_NSt19basic_ostringstreamIcSt11char_traitsIcESaIcEED0Ev
W _ZTv0_n12_NSt19basic_ostringstreamIcSt11char_traitsIcESaIcEED1Ev
V _ZZN2v88internal4Heap9CopyBlockEPPNS0_6ObjectES4_iE15kBlockCopyLimit
V _ZZN2v88internal9Assembler25target_address_address_atEPhE11kBxInstMask
V _ZZN2v88internal9Assembler25target_address_address_atEPhE14kBxInstPattern
V _ZZN7unibrow4Utf86EncodeEPcjE5kMask
U _ZdaPv
U _ZdlPv
U _Znaj
U _Znwj
T __FINI_ARRAY__
T __INIT_ARRAY__
U __aeabi_atexit
U __aeabi_d2f
U __aeabi_d2iz
U __aeabi_d2lz
U __aeabi_d2uiz
U __aeabi_d2ulz
U __aeabi_dadd
U __aeabi_dcmpeq
U __aeabi_dcmpge
U __aeabi_dcmpgt
U __aeabi_dcmple
U __aeabi_dcmplt
U __aeabi_dcmpun
U __aeabi_ddiv
U __aeabi_dmul
U __aeabi_dsub
U __aeabi_f2d
U __aeabi_f2iz
U __aeabi_fcmpeq
U __aeabi_fmul
U __aeabi_i2d
U __aeabi_i2f
U __aeabi_idiv
U __aeabi_idivmod
U __aeabi_l2d
U __aeabi_l2f
U __aeabi_ldivmod
U __aeabi_llsl
U __aeabi_lmul
U __aeabi_ui2d
U __aeabi_uidiv
U __aeabi_ul2d
U __aeabi_ul2f
U __aeabi_uldivmod
U __aeabi_unwind_cpp_pr0
U __aeabi_unwind_cpp_pr1
U __android_log_print
U __android_log_vprint
U __assert2
A __bss_end__
A __bss_start
A __bss_start__
U __cxa_finalize
U __cxa_guard_acquire
U __cxa_guard_release
U __cxa_pure_virtual
D __data_start
B __dso_handle
A __end__
U __errno
A __exidx_end
A __exidx_start
U __fpclassifyd
U __isfinite
U __isinf
U __sF
U __signbit
U __stack_chk_fail
U __stack_chk_guard
A _bss_end__
U _ctype_
A _edata
A _end
A _stack
U abort
U accept
U acos
U android_atomic_acquire_cas
U android_atomic_acquire_load
U android_atomic_acquire_store
U android_atomic_release_load
U asin
U atan
U atan2
U bind
U ceil
U close
U connect
U cos
T dtoa
U exit
U exp
U fclose
U fflush
U fgetc
U fgets
U floor
U fmod
U fopen
U fprintf
U fputc
U fputs
U fread
U free
U freeaddrinfo
T freedtoa
U fseek
U ftell
U fwrite
D gRadioState
T gay_strtod
U getaddrinfo
U getrusage
U gettimeofday
U listen
U localtime
U log
U lrand48
U lseek
U malloc
U memchr
U memcmp
U memcpy
U memmove
U memset
U mmap
U munmap
U pow
U printf
U pthread_attr_init
U pthread_attr_setdetachstate
U pthread_cond_init
U pthread_cond_signal
U pthread_cond_timedwait
U pthread_cond_wait
U pthread_create
U pthread_equal
U pthread_getspecific
U pthread_join
U pthread_key_create
U pthread_key_delete
U pthread_mutex_destroy
U pthread_mutex_init
U pthread_mutex_lock
U pthread_mutex_unlock
U pthread_mutexattr_init
U pthread_mutexattr_settype
U pthread_once
U pthread_self
U pthread_setspecific
U puts
U qsort
U read
U recv
U rewind
B rilReqConversionMap
B rilRspConversionMap
B s_rilenv
U sched_yield
U select
U sem_destroy
U sem_init
U sem_post
U sem_timedwait
U sem_wait
U send
U setsockopt
U shutdown
U sin
U sleep
U snprintf
U socket
U socket_inaddr_any_server
U socket_loopback_client
U socket_loopback_server
U sprintf
U sqrt
U srand48
U strcasecmp
U strchr
U strcmp
U strcpy
U strerror
U strlen
U strncat
U strncmp
U strncpy
U strpbrk
U strtod
U strtol
U strtoll
U strtoul
U strtoull
U sysconf
U tan
U time
B unsolRilRspConversionMap
U usleep
U vsnprintf
U write
