U AMREncode
U AMREncodeExit
U AMREncodeInit
T JNI_OnLoad
U _Z17get_native_cameraP7_JNIEnvP8_jobjectPP16JNICameraContext
T _Z35register_android_media_MediaScannerP7_JNIEnv
T _Z36register_android_media_MediaProfilesP7_JNIEnv
T _Z36register_android_media_MediaRecorderP7_JNIEnv
T _Z37register_android_media_AmrInputStreamP7_JNIEnv
T _Z42register_android_media_ResampleInputStreamP7_JNIEnv
T _Z45register_android_media_MediaMetadataRetrieverP7_JNIEnv
T _ZN22JNIMediaPlayerListener6notifyEiii
T _ZN22JNIMediaPlayerListenerC1EP7_JNIEnvP8_jobjectS3_
T _ZN22JNIMediaPlayerListenerC2EP7_JNIEnvP8_jobjectS3_
T _ZN22JNIMediaPlayerListenerD0Ev
T _ZN22JNIMediaPlayerListenerD1Ev
T _ZN22JNIMediaPlayerListenerD2Ev
T _ZN24JNIMediaRecorderListener6notifyEiii
T _ZN24JNIMediaRecorderListenerC1EP7_JNIEnvP8_jobjectS3_
T _ZN24JNIMediaRecorderListenerC2EP7_JNIEnvP8_jobjectS3_
T _ZN24JNIMediaRecorderListenerD0Ev
T _ZN24JNIMediaRecorderListenerD1Ev
T _ZN24JNIMediaRecorderListenerD2Ev
U _ZN7android10VectorImpl13finish_vectorEv
U _ZN7android10VectorImpl19reservedVectorImpl1Ev
U _ZN7android10VectorImpl19reservedVectorImpl2Ev
U _ZN7android10VectorImpl19reservedVectorImpl3Ev
U _ZN7android10VectorImpl19reservedVectorImpl4Ev
U _ZN7android10VectorImpl19reservedVectorImpl5Ev
U _ZN7android10VectorImpl19reservedVectorImpl6Ev
U _ZN7android10VectorImpl19reservedVectorImpl7Ev
U _ZN7android10VectorImpl19reservedVectorImpl8Ev
U _ZN7android10VectorImplD2Ev
U _ZN7android11MediaPlayer10disconnectEv
U _ZN7android11MediaPlayer10setLoopingEi
U _ZN7android11MediaPlayer11getDurationEPi
U _ZN7android11MediaPlayer11getMetadataEbbPNS_6ParcelE
U _ZN7android11MediaPlayer11setListenerERKNS_2spINS_19MediaPlayerListenerEEE
U _ZN7android11MediaPlayer12prepareAsyncEv
U _ZN7android11MediaPlayer13getVideoWidthEPi
U _ZN7android11MediaPlayer13setDataSourceEPKcPKNS_11KeyedVectorINS_7String8ES4_EE
U _ZN7android11MediaPlayer13setDataSourceEixx
U _ZN7android11MediaPlayer14getVideoHeightEPi
U _ZN7android11MediaPlayer15attachAuxEffectEi
U _ZN7android11MediaPlayer15setVideoSurfaceERKNS_2spINS_7SurfaceEEE
U _ZN7android11MediaPlayer17getAudioSessionIdEv
U _ZN7android11MediaPlayer17setAudioSessionIdEi
U _ZN7android11MediaPlayer17setMetadataFilterERKNS_6ParcelE
U _ZN7android11MediaPlayer18getCurrentPositionEPi
U _ZN7android11MediaPlayer18setAudioStreamTypeEi
U _ZN7android11MediaPlayer21setAuxEffectSendLevelEf
U _ZN7android11MediaPlayer4stopEv
U _ZN7android11MediaPlayer5pauseEv
U _ZN7android11MediaPlayer5resetEv
U _ZN7android11MediaPlayer5startEv
U _ZN7android11MediaPlayer6invokeERKNS_6ParcelEPS1_
U _ZN7android11MediaPlayer6resumeEv
U _ZN7android11MediaPlayer6seekToEi
U _ZN7android11MediaPlayer7prepareEv
U _ZN7android11MediaPlayer7suspendEv
U _ZN7android11MediaPlayer9isLoopingEv
U _ZN7android11MediaPlayer9isPlayingEv
U _ZN7android11MediaPlayer9setVolumeEff
U _ZN7android11MediaPlayerC1Ev
U _ZN7android12MediaScanner9setLocaleEPKc
W _ZN7android12compare_typeINS_16key_value_pair_tINS_7String8ES2_EEEEiRKT_S6_
U _ZN7android13MediaProfiles11getInstanceEv
U _ZN7android13MediaRecorder11setListenerERKNS_2spINS_21MediaRecorderListenerEEE
U _ZN7android13MediaRecorder12setVideoSizeEii
U _ZN7android13MediaRecorder13setOutputFileEixx
U _ZN7android13MediaRecorder13setParametersERKNS_7String8E
U _ZN7android13MediaRecorder14setAudioSourceEi
U _ZN7android13MediaRecorder14setVideoSourceEi
U _ZN7android13MediaRecorder15getMaxAmplitudeEPi
U _ZN7android13MediaRecorder15setAudioEncoderEi
U _ZN7android13MediaRecorder15setOutputFormatEi
U _ZN7android13MediaRecorder15setVideoEncoderEi
U _ZN7android13MediaRecorder17setPreviewSurfaceERKNS_2spINS_7SurfaceEEE
U _ZN7android13MediaRecorder17setVideoFrameRateEi
U _ZN7android13MediaRecorder4stopEv
U _ZN7android13MediaRecorder5resetEv
U _ZN7android13MediaRecorder5startEv
U _ZN7android13MediaRecorder7prepareEv
U _ZN7android13MediaRecorder7releaseEv
U _ZN7android13MediaRecorder9initCheckEv
U _ZN7android13MediaRecorder9setCameraERKNS_2spINS_7ICameraEEE
U _ZN7android13MediaRecorderC1Ev
U _ZN7android14AndroidRuntime21registerNativeMethodsEP7_JNIEnvPKcPK15JNINativeMethodi
U _ZN7android14AndroidRuntime9getJNIEnvEv
U _ZN7android16SortedVectorImpl25reservedSortedVectorImpl1Ev
U _ZN7android16SortedVectorImpl25reservedSortedVectorImpl2Ev
U _ZN7android16SortedVectorImpl25reservedSortedVectorImpl3Ev
U _ZN7android16SortedVectorImpl25reservedSortedVectorImpl4Ev
U _ZN7android16SortedVectorImpl25reservedSortedVectorImpl5Ev
U _ZN7android16SortedVectorImpl25reservedSortedVectorImpl6Ev
U _ZN7android16SortedVectorImpl25reservedSortedVectorImpl7Ev
U _ZN7android16SortedVectorImpl25reservedSortedVectorImpl8Ev
U _ZN7android16SortedVectorImpl3addEPKv
U _ZN7android16SortedVectorImplC2Ejj
U _ZN7android16SortedVectorImplD2Ev
W _ZN7android17move_forward_typeINS_16key_value_pair_tINS_7String8ES2_EEEEvPT_PKS4_j
U _ZN7android18MediaScannerClientC2Ev
U _ZN7android18MediaScannerClientD2Ev
W _ZN7android18move_backward_typeINS_16key_value_pair_tINS_7String8ES2_EEEEvPT_PKS4_j
U _ZN7android19parcelForJavaObjectEP7_JNIEnvP8_jobject
U _ZN7android22MediaMetadataRetriever13setDataSourceEPKc
U _ZN7android22MediaMetadataRetriever13setDataSourceEixx
U _ZN7android22MediaMetadataRetriever14getFrameAtTimeExi
U _ZN7android22MediaMetadataRetriever15extractAlbumArtEv
U _ZN7android22MediaMetadataRetriever15extractMetadataEi
U _ZN7android22MediaMetadataRetrieverC1Ev
U _ZN7android23StagefrightMediaScannerC1Ev
U _ZN7android25getParcelFileDescriptorFDEP7_JNIEnvP8_jobject
W _ZN7android2spINS_11MediaPlayerEEC1EPS1_
W _ZN7android2spINS_11MediaPlayerEED1Ev
W _ZN7android2spINS_13MediaRecorderEEC1EPS1_
W _ZN7android2spINS_13MediaRecorderEED1Ev
U _ZN7android6Camera6remoteEv
U _ZN7android6Parcel8freeDataEv
U _ZN7android7RefBase10onFirstRefEv
U _ZN7android7RefBase13onLastWeakRefEPKv
U _ZN7android7RefBase15onLastStrongRefEPKv
U _ZN7android7RefBase20onIncStrongAttemptedEjPKv
U _ZN7android7RefBaseC2Ev
U _ZN7android7RefBaseD2Ev
U _ZN7android7String8C1EPKc
U _ZN7android7String8C1ERKS0_
U _ZN7android7String8C1Ev
U _ZN7android7String8D1Ev
U _ZN8SkBitmap11allocPixelsEPNS_9AllocatorEP12SkColorTable
U _ZN8SkBitmap9setConfigENS_6ConfigEiii
U _ZN8SkBitmapC1Ev
U _ZN8SkBitmapD1Ev
W _ZNK7android12SortedVectorINS_16key_value_pair_tINS_7String8ES2_EEE10do_compareEPKvS6_
W _ZNK7android12SortedVectorINS_16key_value_pair_tINS_7String8ES2_EEE10do_destroyEPvj
W _ZNK7android12SortedVectorINS_16key_value_pair_tINS_7String8ES2_EEE12do_constructEPvj
W _ZNK7android12SortedVectorINS_16key_value_pair_tINS_7String8ES2_EEE15do_move_forwardEPvPKvj
W _ZNK7android12SortedVectorINS_16key_value_pair_tINS_7String8ES2_EEE16do_move_backwardEPvPKvj
W _ZNK7android12SortedVectorINS_16key_value_pair_tINS_7String8ES2_EEE7do_copyEPvPKvj
W _ZNK7android12SortedVectorINS_16key_value_pair_tINS_7String8ES2_EEE8do_splatEPvPKvj
U _ZNK7android13MediaProfiles16getAudioDecodersEv
U _ZNK7android13MediaProfiles16getAudioEncodersEv
U _ZNK7android13MediaProfiles16getVideoDecodersEv
U _ZNK7android13MediaProfiles16getVideoEncodersEv
U _ZNK7android13MediaProfiles20getOutputFileFormatsEv
U _ZNK7android13MediaProfiles26getAudioEncoderParamByNameEPKcNS_13audio_encoderE
U _ZNK7android13MediaProfiles26getVideoEncoderParamByNameEPKcNS_13video_encoderE
U _ZNK7android13MediaProfiles29getImageEncodingQualityLevelsEi
U _ZNK7android13MediaProfiles30getCamcorderProfileParamByNameEPKciNS_17camcorder_qualityE
W _ZNK7android6VectorINS_13audio_decoderEE10do_destroyEPvj
W _ZNK7android6VectorINS_13audio_decoderEE12do_constructEPvj
W _ZNK7android6VectorINS_13audio_decoderEE15do_move_forwardEPvPKvj
W _ZNK7android6VectorINS_13audio_decoderEE16do_move_backwardEPvPKvj
W _ZNK7android6VectorINS_13audio_decoderEE7do_copyEPvPKvj
W _ZNK7android6VectorINS_13audio_decoderEE8do_splatEPvPKvj
W _ZNK7android6VectorINS_13audio_encoderEE10do_destroyEPvj
W _ZNK7android6VectorINS_13audio_encoderEE12do_constructEPvj
W _ZNK7android6VectorINS_13audio_encoderEE15do_move_forwardEPvPKvj
W _ZNK7android6VectorINS_13audio_encoderEE16do_move_backwardEPvPKvj
W _ZNK7android6VectorINS_13audio_encoderEE7do_copyEPvPKvj
W _ZNK7android6VectorINS_13audio_encoderEE8do_splatEPvPKvj
W _ZNK7android6VectorINS_13output_formatEE10do_destroyEPvj
W _ZNK7android6VectorINS_13output_formatEE12do_constructEPvj
W _ZNK7android6VectorINS_13output_formatEE15do_move_forwardEPvPKvj
W _ZNK7android6VectorINS_13output_formatEE16do_move_backwardEPvPKvj
W _ZNK7android6VectorINS_13output_formatEE7do_copyEPvPKvj
W _ZNK7android6VectorINS_13output_formatEE8do_splatEPvPKvj
W _ZNK7android6VectorINS_13video_decoderEE10do_destroyEPvj
W _ZNK7android6VectorINS_13video_decoderEE12do_constructEPvj
W _ZNK7android6VectorINS_13video_decoderEE15do_move_forwardEPvPKvj
W _ZNK7android6VectorINS_13video_decoderEE16do_move_backwardEPvPKvj
W _ZNK7android6VectorINS_13video_decoderEE7do_copyEPvPKvj
W _ZNK7android6VectorINS_13video_decoderEE8do_splatEPvPKvj
W _ZNK7android6VectorINS_13video_encoderEE10do_destroyEPvj
W _ZNK7android6VectorINS_13video_encoderEE12do_constructEPvj
W _ZNK7android6VectorINS_13video_encoderEE15do_move_forwardEPvPKvj
W _ZNK7android6VectorINS_13video_encoderEE16do_move_backwardEPvPKvj
W _ZNK7android6VectorINS_13video_encoderEE7do_copyEPvPKvj
W _ZNK7android6VectorINS_13video_encoderEE8do_splatEPvPKvj
W _ZNK7android6VectorIiE10do_destroyEPvj
W _ZNK7android6VectorIiE12do_constructEPvj
W _ZNK7android6VectorIiE15do_move_forwardEPvPKvj
W _ZNK7android6VectorIiE16do_move_backwardEPvPKvj
W _ZNK7android6VectorIiE7do_copyEPvPKvj
W _ZNK7android6VectorIiE8do_splatEPvPKvj
U _ZNK7android7IMemory7pointerEv
U _ZNK7android7RefBase9decStrongEPKv
U _ZNK7android7RefBase9incStrongEPKv
D _ZTC22JNIMediaPlayerListener0_N7android19MediaPlayerListenerE
D _ZTC24JNIMediaRecorderListener0_N7android21MediaRecorderListenerE
D _ZTT22JNIMediaPlayerListener
D _ZTT24JNIMediaRecorderListener
V _ZTTN7android19MediaPlayerListenerE
V _ZTTN7android21MediaRecorderListenerE
V _ZTV20MyMediaScannerClient
D _ZTV22JNIMediaPlayerListener
D _ZTV24JNIMediaRecorderListener
V _ZTVN7android12SortedVectorINS_16key_value_pair_tINS_7String8ES2_EEEE
V _ZTVN7android19MediaPlayerListenerE
V _ZTVN7android21MediaRecorderListenerE
V _ZTVN7android6VectorINS_13audio_decoderEEE
V _ZTVN7android6VectorINS_13audio_encoderEEE
V _ZTVN7android6VectorINS_13output_formatEEE
V _ZTVN7android6VectorINS_13video_decoderEEE
V _ZTVN7android6VectorINS_13video_encoderEEE
V _ZTVN7android6VectorIiEE
T _ZTv0_n12_N22JNIMediaPlayerListenerD0Ev
T _ZTv0_n12_N22JNIMediaPlayerListenerD1Ev
T _ZTv0_n12_N24JNIMediaRecorderListenerD0Ev
T _ZTv0_n12_N24JNIMediaRecorderListenerD1Ev
W _ZTv0_n12_N7android19MediaPlayerListenerD0Ev
W _ZTv0_n12_N7android19MediaPlayerListenerD1Ev
W _ZTv0_n12_N7android21MediaRecorderListenerD0Ev
W _ZTv0_n12_N7android21MediaRecorderListenerD1Ev
U _ZdlPv
U _Znwj
T __FINI_ARRAY__
T __INIT_ARRAY__
U __aeabi_atexit
U __aeabi_i2d
U __aeabi_unwind_cpp_pr0
U __aeabi_unwind_cpp_pr1
U __android_log_print
A __bss_end__
A __bss_start
A __bss_start__
U __cxa_finalize
U __cxa_pure_virtual
D __data_start
B __dso_handle
A __end__
A __exidx_end
A __exidx_start
U __sF
U __stack_chk_fail
U __stack_chk_guard
A _bss_end__
A _edata
A _end
A _stack
U fputs
U free
U jniThrowException
U memcpy
U memmove
U pthread_mutex_destroy
U pthread_mutex_init
U pthread_mutex_lock
U pthread_mutex_unlock
B sProfiles
U sprintf
U strcmp
U strlen
U strncmp
