U EAS_Config
U EAS_Init
U EAS_Render
U EAS_Shutdown
U JET_Clear_Queue
U JET_CloseFile
U JET_GetEvent
U JET_Init
U JET_OpenFile
U JET_Pause
U JET_Play
U JET_QueueSegment
U JET_SetMuteFlag
U JET_SetMuteFlags
U JET_Shutdown
U JET_Status
U JET_TriggerClip
U XML_GetBuffer
U XML_ParseBuffer
U XML_ParserCreate
U XML_ParserFree
U XML_SetElementHandler
U XML_SetUserData
T _Z14fixed_fft_realiPi
T _Z21findPossibleEncodingsi
T _Z9fixed_fftiPi
T _ZN7android10AudioTrack11createTrackEijiiijRKNS_2spINS_7IMemoryEEEib
T _ZN7android10AudioTrack11getPositionEPj
T _ZN7android10AudioTrack11setPositionEj
T _ZN7android10AudioTrack12getSessionIdEv
T _ZN7android10AudioTrack12obtainBufferEPNS0_6BufferEi
T _ZN7android10AudioTrack12sharedBufferEv
T _ZN7android10AudioTrack13getSampleRateEv
T _ZN7android10AudioTrack13releaseBufferEPNS0_6BufferE
T _ZN7android10AudioTrack13setSampleRateEi
T _ZN7android10AudioTrack15attachAuxEffectEi
T _ZN7android10AudioTrack16AudioTrackThread10onFirstRefEv
T _ZN7android10AudioTrack16AudioTrackThread10readyToRunEv
T _ZN7android10AudioTrack16AudioTrackThread10threadLoopEv
T _ZN7android10AudioTrack16AudioTrackThreadC1ERS0_b
T _ZN7android10AudioTrack16AudioTrackThreadC2ERS0_b
T _ZN7android10AudioTrack16getMinFrameCountEPiij
T _ZN7android10AudioTrack17getMarkerPositionEPj
T _ZN7android10AudioTrack17setMarkerPositionEj
T _ZN7android10AudioTrack18processAudioBufferERKNS_2spINS0_16AudioTrackThreadEEE
T _ZN7android10AudioTrack21getAuxEffectSendLevelEPf
T _ZN7android10AudioTrack21setAuxEffectSendLevelEf
T _ZN7android10AudioTrack23getPositionUpdatePeriodEPj
T _ZN7android10AudioTrack23setPositionUpdatePeriodEj
T _ZN7android10AudioTrack3setEijiiijPFviPvS1_ES1_iRKNS_2spINS_7IMemoryEEEbi
T _ZN7android10AudioTrack4muteEb
T _ZN7android10AudioTrack4stopEv
T _ZN7android10AudioTrack5flushEv
T _ZN7android10AudioTrack5pauseEv
T _ZN7android10AudioTrack5startEv
T _ZN7android10AudioTrack5writeEPKvj
T _ZN7android10AudioTrack6reloadEv
T _ZN7android10AudioTrack7getLoopEPjS1_Pi
T _ZN7android10AudioTrack7setLoopEjji
T _ZN7android10AudioTrack9getOutputEv
T _ZN7android10AudioTrack9getVolumeEPfS1_
T _ZN7android10AudioTrack9setVolumeEff
T _ZN7android10AudioTrackC1EijiiRKNS_2spINS_7IMemoryEEEjPFviPvS6_ES6_ii
T _ZN7android10AudioTrackC1EijiiijPFviPvS1_ES1_ii
T _ZN7android10AudioTrackC1Ev
T _ZN7android10AudioTrackC2EijiiRKNS_2spINS_7IMemoryEEEjPFviPvS6_ES6_ii
T _ZN7android10AudioTrackC2EijiiijPFviPvS1_ES1_ii
T _ZN7android10AudioTrackC2Ev
T _ZN7android10AudioTrackD1Ev
T _ZN7android10AudioTrackD2Ev
U _ZN7android10IInterface8asBinderEv
U _ZN7android10IInterfaceC2Ev
U _ZN7android10IInterfaceD0Ev
U _ZN7android10IInterfaceD1Ev
U _ZN7android10IInterfaceD2Ev
U _ZN7android10VectorImpl13finish_vectorEv
U _ZN7android10VectorImpl13removeItemsAtEjj
U _ZN7android10VectorImpl19reservedVectorImpl1Ev
U _ZN7android10VectorImpl19reservedVectorImpl2Ev
U _ZN7android10VectorImpl19reservedVectorImpl3Ev
U _ZN7android10VectorImpl19reservedVectorImpl4Ev
U _ZN7android10VectorImpl19reservedVectorImpl5Ev
U _ZN7android10VectorImpl19reservedVectorImpl6Ev
U _ZN7android10VectorImpl19reservedVectorImpl7Ev
U _ZN7android10VectorImpl19reservedVectorImpl8Ev
U _ZN7android10VectorImpl3addEPKv
U _ZN7android10VectorImpl5clearEv
U _ZN7android10VectorImplC2ERKS0_
U _ZN7android10VectorImplC2Ejj
U _ZN7android10VectorImplD2Ev
U _ZN7android10VectorImplaSERKS0_
T _ZN7android10Visualizer10setEnabledEb
T _ZN7android10Visualizer11getWaveFormEPh
T _ZN7android10Visualizer13CaptureThread10onFirstRefEv
T _ZN7android10Visualizer13CaptureThread10readyToRunEv
T _ZN7android10Visualizer13CaptureThread10threadLoopEv
T _ZN7android10Visualizer13CaptureThreadC1ERS0_jb
T _ZN7android10Visualizer13CaptureThreadC2ERS0_jb
T _ZN7android10Visualizer14setCaptureSizeEj
T _ZN7android10Visualizer15initCaptureSizeEv
T _ZN7android10Visualizer15periodicCaptureEv
T _ZN7android10Visualizer18setCaptureCallBackEPFvPvjPhjS2_jES1_jj
T _ZN7android10Visualizer5doFftEPhS1_
T _ZN7android10Visualizer6getFftEPh
T _ZN7android10VisualizerC1EiPFviPvS1_ES1_i
T _ZN7android10VisualizerC2EiPFviPvS1_ES1_i
T _ZN7android10VisualizerD0Ev
T _ZN7android10VisualizerD1Ev
T _ZN7android10VisualizerD2Ev
T _ZN7android11AudioEffect10binderDiedEv
T _ZN7android11AudioEffect10setEnabledEb
T _ZN7android11AudioEffect11queryEffectEjP19effect_descriptor_s
T _ZN7android11AudioEffect12getParameterEP14effect_param_s
T _ZN7android11AudioEffect12guidToStringEPK13effect_uuid_sPcj
T _ZN7android11AudioEffect12setParameterEP14effect_param_s
T _ZN7android11AudioEffect12stringToGuidEPKcP13effect_uuid_s
T _ZN7android11AudioEffect15commandExecutedEjjPvjS1_
T _ZN7android11AudioEffect17loadEffectLibraryEPKcPi
T _ZN7android11AudioEffect18queryNumberEffectsEPj
T _ZN7android11AudioEffect18setParameterCommitEv
T _ZN7android11AudioEffect19enableStatusChangedEb
T _ZN7android11AudioEffect19getEffectDescriptorEP13effect_uuid_sP19effect_descriptor_s
T _ZN7android11AudioEffect19unloadEffectLibraryEi
T _ZN7android11AudioEffect20controlStatusChangedEb
T _ZN7android11AudioEffect20setParameterDeferredEP14effect_param_s
T _ZN7android11AudioEffect3setEPK13effect_uuid_sS3_iPFviPvS4_ES4_ii
T _ZN7android11AudioEffect7commandEjjPvPjS1_
T _ZN7android11AudioEffectC1EPK13effect_uuid_sS3_iPFviPvS4_ES4_ii
T _ZN7android11AudioEffectC1EPKcS2_iPFviPvS3_ES3_ii
T _ZN7android11AudioEffectC1Ev
T _ZN7android11AudioEffectC2EPK13effect_uuid_sS3_iPFviPvS4_ES4_ii
T _ZN7android11AudioEffectC2EPKcS2_iPFviPvS3_ES3_ii
T _ZN7android11AudioEffectC2Ev
T _ZN7android11AudioEffectD0Ev
T _ZN7android11AudioEffectD1Ev
T _ZN7android11AudioEffectD2Ev
T _ZN7android11AudioRecord10openRecordEjiiiji
T _ZN7android11AudioRecord11getPositionEPj
T _ZN7android11AudioRecord12getSessionIdEv
T _ZN7android11AudioRecord12obtainBufferEPNS0_6BufferEi
T _ZN7android11AudioRecord13getSampleRateEv
T _ZN7android11AudioRecord13releaseBufferEPNS0_6BufferE
T _ZN7android11AudioRecord16getMinFrameCountEPijii
T _ZN7android11AudioRecord17getMarkerPositionEPj
T _ZN7android11AudioRecord17setMarkerPositionEj
T _ZN7android11AudioRecord18ClientRecordThread10threadLoopEv
T _ZN7android11AudioRecord18ClientRecordThreadC1ERS0_b
T _ZN7android11AudioRecord18ClientRecordThreadC2ERS0_b
T _ZN7android11AudioRecord18getInputFramesLostEv
T _ZN7android11AudioRecord18processAudioBufferERKNS_2spINS0_18ClientRecordThreadEEE
T _ZN7android11AudioRecord23getPositionUpdatePeriodEPj
T _ZN7android11AudioRecord23setPositionUpdatePeriodEj
T _ZN7android11AudioRecord3setEijijijPFviPvS1_ES1_ibi
T _ZN7android11AudioRecord4readEPvj
T _ZN7android11AudioRecord4stopEv
T _ZN7android11AudioRecord5startEv
T _ZN7android11AudioRecord8getInputEv
T _ZN7android11AudioRecordC1EijijijPFviPvS1_ES1_ii
T _ZN7android11AudioRecordC1Ev
T _ZN7android11AudioRecordC2EijijijPFviPvS1_ES1_ii
T _ZN7android11AudioRecordC2Ev
T _ZN7android11AudioRecordD1Ev
T _ZN7android11AudioRecordD2Ev
T _ZN7android11AudioSystem10startInputEi
T _ZN7android11AudioSystem10stopOutputEiNS0_11stream_typeEi
B _ZN7android11AudioSystem11gInBuffSizeE
T _ZN7android11AudioSystem11getForceUseENS0_9force_useE
T _ZN7android11AudioSystem11isLinearPCMEj
T _ZN7android11AudioSystem11linearToLogEi
T _ZN7android11AudioSystem11logToLinearEf
T _ZN7android11AudioSystem11setForceUseENS0_9force_useENS0_13forced_configE
T _ZN7android11AudioSystem11startOutputEiNS0_11stream_typeEi
T _ZN7android11AudioSystem12isA2dpDeviceENS0_13audio_devicesE
T _ZN7android11AudioSystem12releaseInputEi
B _ZN7android11AudioSystem13gAudioFlingerE
D _ZN7android11AudioSystem13gPrevInFormatE
T _ZN7android11AudioSystem13getMasterMuteEPb
T _ZN7android11AudioSystem13getParametersEiRKNS_7String8E
T _ZN7android11AudioSystem13getStreamMuteEiPb
T _ZN7android11AudioSystem13isInputDeviceENS0_13audio_devicesE
T _ZN7android11AudioSystem13isValidFormatEj
T _ZN7android11AudioSystem13releaseOutputEi
T _ZN7android11AudioSystem13setMasterMuteEb
T _ZN7android11AudioSystem13setParametersEiRKNS_7String8E
T _ZN7android11AudioSystem13setPhoneStateEi
T _ZN7android11AudioSystem13setRingerModeEjj
T _ZN7android11AudioSystem13setStreamMuteEib
T _ZN7android11AudioSystem14isInputChannelEj
T _ZN7android11AudioSystem14isOutputDeviceENS0_13audio_devicesE
T _ZN7android11AudioSystem14isStreamActiveEiPb
T _ZN7android11AudioSystem14muteMicrophoneEb
T _ZN7android11AudioSystem14registerEffectEP19effect_descriptor_sijii
T _ZN7android11AudioSystem14setVoiceVolumeEf
T _ZN7android11AudioSystem15getMasterVolumeEPf
T _ZN7android11AudioSystem15getStreamVolumeEiPfi
T _ZN7android11AudioSystem15isLowVisibilityENS0_11stream_typeE
T _ZN7android11AudioSystem15isOutputChannelEj
T _ZN7android11AudioSystem15setMasterVolumeEf
T _ZN7android11AudioSystem15setStreamVolumeEifi
B _ZN7android11AudioSystem16gStreamOutputMapE
T _ZN7android11AudioSystem16getOutputLatencyEPji
T _ZN7android11AudioSystem16initStreamVolumeENS0_11stream_typeEii
T _ZN7android11AudioSystem16setErrorCallbackEPFviE
T _ZN7android11AudioSystem16unregisterEffectEi
T _ZN7android11AudioSystem17getRenderPositionEPjS1_i
T _ZN7android11AudioSystem17get_audio_flingerEv
T _ZN7android11AudioSystem17isMicrophoneMutedEPb
T _ZN7android11AudioSystem17newAudioSessionIdEv
T _ZN7android11AudioSystem18AudioFlingerClient10binderDiedERKNS_2wpINS_7IBinderEEE
T _ZN7android11AudioSystem18AudioFlingerClient15ioConfigChangedEiiPv
T _ZN7android11AudioSystem18getInputBufferSizeEjiiPj
T _ZN7android11AudioSystem18getInputFramesLostEi
T _ZN7android11AudioSystem18getOutputForEffectEP19effect_descriptor_s
T _ZN7android11AudioSystem18routedToA2dpOutputEi
B _ZN7android11AudioSystem19gAudioErrorCallbackE
B _ZN7android11AudioSystem19gAudioFlingerClientE
B _ZN7android11AudioSystem19gAudioPolicyServiceE
D _ZN7android11AudioSystem19gPrevInChannelCountE
D _ZN7android11AudioSystem19gPrevInSamplingRateE
T _ZN7android11AudioSystem19getOutputFrameCountEPii
T _ZN7android11AudioSystem20getStrategyForStreamENS0_11stream_typeE
T _ZN7android11AudioSystem20getStreamVolumeIndexENS0_11stream_typeEPi
T _ZN7android11AudioSystem20isBluetoothScoDeviceENS0_13audio_devicesE
T _ZN7android11AudioSystem20setStreamVolumeIndexENS0_11stream_typeEi
T _ZN7android11AudioSystem21getOutputSamplingRateEPii
T _ZN7android11AudioSystem24AudioPolicyServiceClient10binderDiedERKNS_2wpINS_7IBinderEEE
T _ZN7android11AudioSystem24getDeviceConnectionStateENS0_13audio_devicesEPKc
T _ZN7android11AudioSystem24get_audio_policy_serviceEv
T _ZN7android11AudioSystem24setDeviceConnectionStateENS0_13audio_devicesENS0_23device_connection_stateEPKc
B _ZN7android11AudioSystem25gAudioPolicyServiceClientE
B _ZN7android11AudioSystem5gLockE
T _ZN7android11AudioSystem7setModeEi
B _ZN7android11AudioSystem8gOutputsE
T _ZN7android11AudioSystem8getInputEijjjNS0_18audio_in_acousticsE
T _ZN7android11AudioSystem8popCountEj
T _ZN7android11AudioSystem9getOutputENS0_11stream_typeEjjjNS0_12output_flagsE
T _ZN7android11AudioSystem9stopInputEi
W _ZN7android11BnInterfaceINS_11IAudioTrackEE10onAsBinderEv
W _ZN7android11BnInterfaceINS_12IAudioRecordEE10onAsBinderEv
W _ZN7android11BnInterfaceINS_12IMediaPlayerEE10onAsBinderEv
W _ZN7android11BnInterfaceINS_12IOMXObserverEE10onAsBinderEv
W _ZN7android11BnInterfaceINS_12IOMXRendererEE10onAsBinderEv
W _ZN7android11BnInterfaceINS_13IAudioFlingerEE10onAsBinderEv
W _ZN7android11BnInterfaceINS_13IEffectClientEE10onAsBinderEv
W _ZN7android11BnInterfaceINS_14IMediaRecorderEE10onAsBinderEv
W _ZN7android11BnInterfaceINS_18IMediaPlayerClientEE10onAsBinderEv
W _ZN7android11BnInterfaceINS_19IAudioFlingerClientEE10onAsBinderEv
W _ZN7android11BnInterfaceINS_19IAudioPolicyServiceEE10onAsBinderEv
W _ZN7android11BnInterfaceINS_19IMediaPlayerServiceEE10onAsBinderEv
W _ZN7android11BnInterfaceINS_20IMediaRecorderClientEE10onAsBinderEv
W _ZN7android11BnInterfaceINS_23IMediaMetadataRetrieverEE10onAsBinderEv
W _ZN7android11BnInterfaceINS_4IOMXEE10onAsBinderEv
W _ZN7android11BnInterfaceINS_7IEffectEE10onAsBinderEv
B _ZN7android11IAudioTrack10descriptorE
T _ZN7android11IAudioTrack11asInterfaceERKNS_2spINS_7IBinderEEE
T _ZN7android11IAudioTrackC1Ev
T _ZN7android11IAudioTrackC2Ev
T _ZN7android11IAudioTrackD0Ev
T _ZN7android11IAudioTrackD1Ev
T _ZN7android11IAudioTrackD2Ev
T _ZN7android11MediaPlayer10disconnectEv
T _ZN7android11MediaPlayer10setLoopingEi
T _ZN7android11MediaPlayer11getDurationEPi
T _ZN7android11MediaPlayer11getMetadataEbbPNS_6ParcelE
T _ZN7android11MediaPlayer11setListenerERKNS_2spINS_19MediaPlayerListenerEEE
T _ZN7android11MediaPlayer12prepareAsyncEv
T _ZN7android11MediaPlayer13getDuration_lEPi
T _ZN7android11MediaPlayer13getVideoWidthEPi
T _ZN7android11MediaPlayer13setDataSourceEPKcPKNS_11KeyedVectorINS_7String8ES4_EE
T _ZN7android11MediaPlayer13setDataSourceERKNS_2spINS_12IMediaPlayerEEE
T _ZN7android11MediaPlayer13setDataSourceEixx
T _ZN7android11MediaPlayer14getVideoHeightEPi
T _ZN7android11MediaPlayer14prepareAsync_lEv
T _ZN7android11MediaPlayer15attachAuxEffectEi
T _ZN7android11MediaPlayer15setVideoSurfaceERKNS_2spINS_7SurfaceEEE
T _ZN7android11MediaPlayer17getAudioSessionIdEv
T _ZN7android11MediaPlayer17setAudioSessionIdEi
T _ZN7android11MediaPlayer17setMetadataFilterERKNS_6ParcelE
T _ZN7android11MediaPlayer18getCurrentPositionEPi
T _ZN7android11MediaPlayer18setAudioStreamTypeEi
T _ZN7android11MediaPlayer21setAuxEffectSendLevelEf
T _ZN7android11MediaPlayer4diedEv
T _ZN7android11MediaPlayer4stopEv
T _ZN7android11MediaPlayer5pauseEv
T _ZN7android11MediaPlayer5resetEv
T _ZN7android11MediaPlayer5startEv
T _ZN7android11MediaPlayer6decodeEPKcPjPiS4_
T _ZN7android11MediaPlayer6decodeEixxPjPiS2_
T _ZN7android11MediaPlayer6invokeERKNS_6ParcelEPS1_
T _ZN7android11MediaPlayer6notifyEiii
T _ZN7android11MediaPlayer6resumeEv
T _ZN7android11MediaPlayer6seekToEi
T _ZN7android11MediaPlayer7clear_lEv
T _ZN7android11MediaPlayer7prepareEv
T _ZN7android11MediaPlayer7suspendEv
T _ZN7android11MediaPlayer8seekTo_lEi
T _ZN7android11MediaPlayer9isLoopingEv
T _ZN7android11MediaPlayer9isPlayingEv
T _ZN7android11MediaPlayer9setVolumeEff
T _ZN7android11MediaPlayerC1Ev
T _ZN7android11MediaPlayerC2Ev
T _ZN7android11MediaPlayerD0Ev
T _ZN7android11MediaPlayerD1Ev
T _ZN7android11MediaPlayerD2Ev
U _ZN7android11StringArray8setEntryEiPKc
U _ZN7android11StringArray9push_backEPKc
U _ZN7android11StringArrayC1Ev
T _ZN7android12BnAudioTrack10onTransactEjRKNS_6ParcelEPS1_j
B _ZN7android12IAudioRecord10descriptorE
T _ZN7android12IAudioRecord11asInterfaceERKNS_2spINS_7IBinderEEE
T _ZN7android12IAudioRecordC1Ev
T _ZN7android12IAudioRecordC2Ev
T _ZN7android12IAudioRecordD0Ev
T _ZN7android12IAudioRecordD1Ev
T _ZN7android12IAudioRecordD2Ev
B _ZN7android12IMediaPlayer10descriptorE
T _ZN7android12IMediaPlayer11asInterfaceERKNS_2spINS_7IBinderEEE
T _ZN7android12IMediaPlayerC1Ev
T _ZN7android12IMediaPlayerC2Ev
T _ZN7android12IMediaPlayerD0Ev
T _ZN7android12IMediaPlayerD1Ev
T _ZN7android12IMediaPlayerD2Ev
B _ZN7android12IOMXObserver10descriptorE
T _ZN7android12IOMXObserver11asInterfaceERKNS_2spINS_7IBinderEEE
T _ZN7android12IOMXObserverC1Ev
T _ZN7android12IOMXObserverC2Ev
T _ZN7android12IOMXObserverD0Ev
T _ZN7android12IOMXObserverD1Ev
T _ZN7android12IOMXObserverD2Ev
B _ZN7android12IOMXRenderer10descriptorE
T _ZN7android12IOMXRenderer11asInterfaceERKNS_2spINS_7IBinderEEE
T _ZN7android12IOMXRendererC1Ev
T _ZN7android12IOMXRendererC2Ev
T _ZN7android12IOMXRendererD0Ev
T _ZN7android12IOMXRendererD1Ev
T _ZN7android12IOMXRendererD2Ev
T _ZN7android12MediaScanner16processDirectoryEPKcS2_RNS_18MediaScannerClientEPFbPvES5_
T _ZN7android12MediaScanner18doProcessDirectoryEPciPKcRNS_18MediaScannerClientEPFbPvES6_
T _ZN7android12MediaScanner9setLocaleEPKc
T _ZN7android12MediaScannerC1Ev
T _ZN7android12MediaScannerC2Ev
T _ZN7android12MediaScannerD0Ev
T _ZN7android12MediaScannerD1Ev
T _ZN7android12MediaScannerD2Ev
W _ZN7android12compare_typeINS_16key_value_pair_tINS_7String8ES2_EEEEiRKT_S6_
T _ZN7android13BnAudioRecord10onTransactEjRKNS_6ParcelEPS1_j
T _ZN7android13BnMediaPlayer10onTransactEjRKNS_6ParcelEPS1_j
T _ZN7android13BnOMXObserver10onTransactEjRKNS_6ParcelEPS1_j
T _ZN7android13BnOMXRenderer10onTransactEjRKNS_6ParcelEPS1_j
B _ZN7android13IAudioFlinger10descriptorE
T _ZN7android13IAudioFlinger11asInterfaceERKNS_2spINS_7IBinderEEE
T _ZN7android13IAudioFlingerC1Ev
T _ZN7android13IAudioFlingerC2Ev
T _ZN7android13IAudioFlingerD0Ev
T _ZN7android13IAudioFlingerD1Ev
T _ZN7android13IAudioFlingerD2Ev
B _ZN7android13IEffectClient10descriptorE
T _ZN7android13IEffectClient11asInterfaceERKNS_2spINS_7IBinderEEE
T _ZN7android13IEffectClientC1Ev
T _ZN7android13IEffectClientC2Ev
T _ZN7android13IEffectClientD0Ev
T _ZN7android13IEffectClientD1Ev
T _ZN7android13IEffectClientD2Ev
T _ZN7android13MediaProfiles11getCameraIdEPPKc
T _ZN7android13MediaProfiles11getInstanceEv
T _ZN7android13MediaProfiles13logAudioCodecERKNS0_10AudioCodecE
T _ZN7android13MediaProfiles13logVideoCodecERKNS0_10VideoCodecE
T _ZN7android13MediaProfiles14findTagForNameEPKNS0_12NameToTagMapEjPKc
D _ZN7android13MediaProfiles14sFileFormatMapE
B _ZN7android13MediaProfiles14sIsInitializedE
T _ZN7android13MediaProfiles16createAudioCodecEPPKcPS0_
T _ZN7android13MediaProfiles16createVideoCodecEPPKcPS0_
T _ZN7android13MediaProfiles18logAudioDecoderCapERKNS0_15AudioDecoderCapE
T _ZN7android13MediaProfiles18logAudioEncoderCapERKNS0_15AudioEncoderCapE
T _ZN7android13MediaProfiles18logVideoDecoderCapERKNS0_15VideoDecoderCapE
T _ZN7android13MediaProfiles18logVideoEncoderCapERKNS0_15VideoEncoderCapE
T _ZN7android13MediaProfiles19startElementHandlerEPvPKcPS3_
D _ZN7android13MediaProfiles20sAudioDecoderNameMapE
D _ZN7android13MediaProfiles20sAudioEncoderNameMapE
D _ZN7android13MediaProfiles20sVideoDecoderNameMapE
D _ZN7android13MediaProfiles20sVideoEncoderNameMapE
T _ZN7android13MediaProfiles21createAudioDecoderCapEPPKc
T _ZN7android13MediaProfiles21createAudioEncoderCapEPPKc
T _ZN7android13MediaProfiles21createDefaultInstanceEv
T _ZN7android13MediaProfiles21createVideoDecoderCapEPPKc
T _ZN7android13MediaProfiles21createVideoEncoderCapEPPKc
T _ZN7android13MediaProfiles22createCamcorderProfileEiPPKc
D _ZN7android13MediaProfiles24sCamcorderQualityNameMapE
T _ZN7android13MediaProfiles25createInstanceFromXmlFileEPKc
T _ZN7android13MediaProfiles26createDefaultAudioDecodersEPS0_
T _ZN7android13MediaProfiles26createDefaultAudioEncodersEPS0_
T _ZN7android13MediaProfiles26createDefaultVideoDecodersEPS0_
T _ZN7android13MediaProfiles26createDefaultVideoEncodersEPS0_
T _ZN7android13MediaProfiles28addImageEncodingQualityLevelEiPPKc
T _ZN7android13MediaProfiles28createDefaultAmrNBEncoderCapEv
T _ZN7android13MediaProfiles29createEncoderOutputFileFormatEPPKc
T _ZN7android13MediaProfiles30createDefaultCamcorderProfilesEPS0_
T _ZN7android13MediaProfiles31createDefaultM4vVideoEncoderCapEv
T _ZN7android13MediaProfiles32createDefaultCamcorderLowProfileEv
T _ZN7android13MediaProfiles32createDefaultH263VideoEncoderCapEv
T _ZN7android13MediaProfiles33createDefaultCamcorderHighProfileEv
T _ZN7android13MediaProfiles37createDefaultEncoderOutputFileFormatsEPS0_
T _ZN7android13MediaProfiles39createDefaultImageEncodingQualityLevelsEPS0_
B _ZN7android13MediaProfiles5sLockE
B _ZN7android13MediaProfiles9sInstanceE
T _ZN7android13MediaProfilesD1Ev
T _ZN7android13MediaProfilesD2Ev
T _ZN7android13MediaRecorder11setListenerERKNS_2spINS_21MediaRecorderListenerEEE
T _ZN7android13MediaRecorder12setVideoSizeEii
T _ZN7android13MediaRecorder13setOutputFileEPKc
T _ZN7android13MediaRecorder13setOutputFileEixx
T _ZN7android13MediaRecorder13setParametersERKNS_7String8E
T _ZN7android13MediaRecorder14setAudioSourceEi
T _ZN7android13MediaRecorder14setVideoSourceEi
T _ZN7android13MediaRecorder15getMaxAmplitudeEPi
T _ZN7android13MediaRecorder15setAudioEncoderEi
T _ZN7android13MediaRecorder15setOutputFormatEi
T _ZN7android13MediaRecorder15setVideoEncoderEi
T _ZN7android13MediaRecorder17setPreviewSurfaceERKNS_2spINS_7SurfaceEEE
T _ZN7android13MediaRecorder17setVideoFrameRateEi
T _ZN7android13MediaRecorder4diedEv
T _ZN7android13MediaRecorder4initEv
T _ZN7android13MediaRecorder4stopEv
T _ZN7android13MediaRecorder5closeEv
T _ZN7android13MediaRecorder5resetEv
T _ZN7android13MediaRecorder5startEv
T _ZN7android13MediaRecorder6notifyEiii
T _ZN7android13MediaRecorder7doResetEv
T _ZN7android13MediaRecorder7prepareEv
T _ZN7android13MediaRecorder7releaseEv
T _ZN7android13MediaRecorder9doCleanUpEv
T _ZN7android13MediaRecorder9initCheckEv
T _ZN7android13MediaRecorder9setCameraERKNS_2spINS_7ICameraEEE
T _ZN7android13MediaRecorderC1Ev
T _ZN7android13MediaRecorderC2Ev
T _ZN7android13MediaRecorderD0Ev
T _ZN7android13MediaRecorderD1Ev
T _ZN7android13MediaRecorderD2Ev
T _ZN7android13ToneGenerator11prepareWaveEv
T _ZN7android13ToneGenerator13WaveGenerator10getSamplesEPsjj
T _ZN7android13ToneGenerator13WaveGeneratorC1Ettf
T _ZN7android13ToneGenerator13WaveGeneratorC2Ettf
T _ZN7android13ToneGenerator13WaveGeneratorD1Ev
T _ZN7android13ToneGenerator13WaveGeneratorD2Ev
T _ZN7android13ToneGenerator13audioCallbackEiPvS1_
T _ZN7android13ToneGenerator13clearWaveGensEv
T _ZN7android13ToneGenerator14initAudioTrackEv
T _ZN7android13ToneGenerator16getToneForRegionEi
R _ZN7android13ToneGenerator16sToneDescriptorsE
R _ZN7android13ToneGenerator17sToneMappingTableE
T _ZN7android13ToneGenerator8numWavesEj
T _ZN7android13ToneGenerator8stopToneEv
T _ZN7android13ToneGenerator9startToneEii
T _ZN7android13ToneGeneratorC1Eifb
T _ZN7android13ToneGeneratorC2Eifb
T _ZN7android13ToneGeneratorD1Ev
T _ZN7android13ToneGeneratorD2Ev
D _ZN7android14AudioParameter10keyRoutingE
D _ZN7android14AudioParameter11keyChannelsE
D _ZN7android14AudioParameter13keyFrameCountE
D _ZN7android14AudioParameter14keyInputSourceE
D _ZN7android14AudioParameter15keySamplingRateE
T _ZN7android14AudioParameter3addERKNS_7String8ES3_
T _ZN7android14AudioParameter3getERKNS_7String8ERS1_
T _ZN7android14AudioParameter5getAtEjRNS_7String8ES2_
T _ZN7android14AudioParameter6addIntERKNS_7String8Ei
T _ZN7android14AudioParameter6getIntERKNS_7String8ERi
T _ZN7android14AudioParameter6removeERKNS_7String8E
T _ZN7android14AudioParameter8addFloatERKNS_7String8Ef
T _ZN7android14AudioParameter8getFloatERKNS_7String8ERf
T _ZN7android14AudioParameter8toStringEv
D _ZN7android14AudioParameter9keyFormatE
T _ZN7android14AudioParameterC1ERKNS_7String8E
T _ZN7android14AudioParameterC2ERKNS_7String8E
T _ZN7android14AudioParameterD0Ev
T _ZN7android14AudioParameterD1Ev
T _ZN7android14AudioParameterD2Ev
T _ZN7android14BnAudioFlinger10onTransactEjRKNS_6ParcelEPS1_j
T _ZN7android14BnEffectClient10onTransactEjRKNS_6ParcelEPS1_j
B _ZN7android14IMediaRecorder10descriptorE
T _ZN7android14IMediaRecorder11asInterfaceERKNS_2spINS_7IBinderEEE
T _ZN7android14IMediaRecorderC1Ev
T _ZN7android14IMediaRecorderC2Ev
T _ZN7android14IMediaRecorderD0Ev
T _ZN7android14IMediaRecorderD1Ev
T _ZN7android14IMediaRecorderD2Ev
U _ZN7android14IPCThreadState13flushCommandsEv
U _ZN7android14IPCThreadState4selfEv
T _ZN7android15BnMediaRecorder10onTransactEjRKNS_6ParcelEPS1_j
U _ZN7android16SortedVectorImpl25reservedSortedVectorImpl1Ev
U _ZN7android16SortedVectorImpl25reservedSortedVectorImpl2Ev
U _ZN7android16SortedVectorImpl25reservedSortedVectorImpl3Ev
U _ZN7android16SortedVectorImpl25reservedSortedVectorImpl4Ev
U _ZN7android16SortedVectorImpl25reservedSortedVectorImpl5Ev
U _ZN7android16SortedVectorImpl25reservedSortedVectorImpl6Ev
U _ZN7android16SortedVectorImpl25reservedSortedVectorImpl7Ev
U _ZN7android16SortedVectorImpl25reservedSortedVectorImpl8Ev
U _ZN7android16SortedVectorImpl3addEPKv
U _ZN7android16SortedVectorImpl6removeEPKv
U _ZN7android16SortedVectorImplC2Ejj
U _ZN7android16SortedVectorImplD2Ev
U _ZN7android16SortedVectorImplaSERKS0_
W _ZN7android17move_forward_typeINS_16key_value_pair_tINS_7String8ES2_EEEEvPT_PKS4_j
B _ZN7android18IMediaPlayerClient10descriptorE
T _ZN7android18IMediaPlayerClient11asInterfaceERKNS_2spINS_7IBinderEEE
T _ZN7android18IMediaPlayerClientC1Ev
T _ZN7android18IMediaPlayerClientC2Ev
T _ZN7android18IMediaPlayerClientD0Ev
T _ZN7android18IMediaPlayerClientD1Ev
T _ZN7android18IMediaPlayerClientD2Ev
T _ZN7android18MediaScannerClient12addStringTagEPKcS2_
T _ZN7android18MediaScannerClient13convertValuesEj
T _ZN7android18MediaScannerClient7endFileEv
T _ZN7android18MediaScannerClient9beginFileEv
T _ZN7android18MediaScannerClient9setLocaleEPKc
T _ZN7android18MediaScannerClientC1Ev
T _ZN7android18MediaScannerClientC2Ev
T _ZN7android18MediaScannerClientD0Ev
T _ZN7android18MediaScannerClientD1Ev
T _ZN7android18MediaScannerClientD2Ev
T _ZN7android18audio_track_cblk_t10stepServerEj
T _ZN7android18audio_track_cblk_t11framesReadyEv
T _ZN7android18audio_track_cblk_t15framesAvailableEv
T _ZN7android18audio_track_cblk_t17framesAvailable_lEv
T _ZN7android18audio_track_cblk_t8stepUserEj
T _ZN7android18audio_track_cblk_tC1Ev
T _ZN7android18audio_track_cblk_tC2Ev
W _ZN7android18move_backward_typeINS_16key_value_pair_tINS_7String8ES2_EEEEvPT_PKS4_j
T _ZN7android19BnMediaPlayerClient10onTransactEjRKNS_6ParcelEPS1_j
B _ZN7android19IAudioFlingerClient10descriptorE
T _ZN7android19IAudioFlingerClient11asInterfaceERKNS_2spINS_7IBinderEEE
T _ZN7android19IAudioFlingerClientC1Ev
T _ZN7android19IAudioFlingerClientC2Ev
T _ZN7android19IAudioFlingerClientD0Ev
T _ZN7android19IAudioFlingerClientD1Ev
T _ZN7android19IAudioFlingerClientD2Ev
B _ZN7android19IAudioPolicyService10descriptorE
T _ZN7android19IAudioPolicyService11asInterfaceERKNS_2spINS_7IBinderEEE
T _ZN7android19IAudioPolicyServiceC1Ev
T _ZN7android19IAudioPolicyServiceC2Ev
T _ZN7android19IAudioPolicyServiceD0Ev
T _ZN7android19IAudioPolicyServiceD1Ev
T _ZN7android19IAudioPolicyServiceD2Ev
B _ZN7android19IMediaDeathNotifier12sServiceLockE
T _ZN7android19IMediaDeathNotifier13DeathNotifier10binderDiedERKNS_2wpINS_7IBinderEEE
T _ZN7android19IMediaDeathNotifier13DeathNotifierD0Ev
T _ZN7android19IMediaDeathNotifier13DeathNotifierD1Ev
T _ZN7android19IMediaDeathNotifier13DeathNotifierD2Ev
B _ZN7android19IMediaDeathNotifier14sDeathNotifierE
B _ZN7android19IMediaDeathNotifier15sObitRecipientsE
T _ZN7android19IMediaDeathNotifier16addObitRecipientERKNS_2wpIS0_EE
T _ZN7android19IMediaDeathNotifier19removeObitRecipientERKNS_2wpIS0_EE
B _ZN7android19IMediaDeathNotifier19sMediaPlayerServiceE
T _ZN7android19IMediaDeathNotifier21getMediaPlayerServiceEv
B _ZN7android19IMediaPlayerService10descriptorE
T _ZN7android19IMediaPlayerService11asInterfaceERKNS_2spINS_7IBinderEEE
T _ZN7android19IMediaPlayerServiceC1Ev
T _ZN7android19IMediaPlayerServiceC2Ev
T _ZN7android19IMediaPlayerServiceD0Ev
T _ZN7android19IMediaPlayerServiceD1Ev
T _ZN7android19IMediaPlayerServiceD2Ev
T _ZN7android20BnAudioFlingerClient10onTransactEjRKNS_6ParcelEPS1_j
T _ZN7android20BnAudioPolicyService10onTransactEjRKNS_6ParcelEPS1_j
T _ZN7android20BnMediaPlayerService10onTransactEjRKNS_6ParcelEPS1_j
B _ZN7android20IMediaRecorderClient10descriptorE
T _ZN7android20IMediaRecorderClient11asInterfaceERKNS_2spINS_7IBinderEEE
T _ZN7android20IMediaRecorderClientC1Ev
T _ZN7android20IMediaRecorderClientC2Ev
T _ZN7android20IMediaRecorderClientD0Ev
T _ZN7android20IMediaRecorderClientD1Ev
T _ZN7android20IMediaRecorderClientD2Ev
T _ZN7android21BnMediaRecorderClient10onTransactEjRKNS_6ParcelEPS1_j
U _ZN7android21defaultServiceManagerEv
T _ZN7android22MediaMetadataRetriever10disconnectEv
T _ZN7android22MediaMetadataRetriever10getServiceEv
B _ZN7android22MediaMetadataRetriever12sServiceLockE
T _ZN7android22MediaMetadataRetriever13DeathNotifier10binderDiedERKNS_2wpINS_7IBinderEEE
T _ZN7android22MediaMetadataRetriever13DeathNotifierD0Ev
T _ZN7android22MediaMetadataRetriever13DeathNotifierD1Ev
T _ZN7android22MediaMetadataRetriever13DeathNotifierD2Ev
T _ZN7android22MediaMetadataRetriever13setDataSourceEPKc
T _ZN7android22MediaMetadataRetriever13setDataSourceEixx
T _ZN7android22MediaMetadataRetriever14getFrameAtTimeExi
B _ZN7android22MediaMetadataRetriever14sDeathNotifierE
T _ZN7android22MediaMetadataRetriever15extractAlbumArtEv
T _ZN7android22MediaMetadataRetriever15extractMetadataEi
B _ZN7android22MediaMetadataRetriever8sServiceE
T _ZN7android22MediaMetadataRetrieverC1Ev
T _ZN7android22MediaMetadataRetrieverC2Ev
T _ZN7android22MediaMetadataRetrieverD0Ev
T _ZN7android22MediaMetadataRetrieverD1Ev
T _ZN7android22MediaMetadataRetrieverD2Ev
B _ZN7android23IMediaMetadataRetriever10descriptorE
T _ZN7android23IMediaMetadataRetriever11asInterfaceERKNS_2spINS_7IBinderEEE
T _ZN7android23IMediaMetadataRetrieverC1Ev
T _ZN7android23IMediaMetadataRetrieverC2Ev
T _ZN7android23IMediaMetadataRetrieverD0Ev
T _ZN7android23IMediaMetadataRetrieverD1Ev
T _ZN7android23IMediaMetadataRetrieverD2Ev
T _ZN7android24BnMediaMetadataRetriever10onTransactEjRKNS_6ParcelEPS1_j
W _ZN7android2spINS_10AudioTrack16AudioTrackThreadEED1Ev
W _ZN7android2spINS_10AudioTrack16AudioTrackThreadEEaSEPS2_
W _ZN7android2spINS_10Visualizer13CaptureThreadEED1Ev
W _ZN7android2spINS_10Visualizer13CaptureThreadEEaSEPS2_
W _ZN7android2spINS_11AudioEffect12EffectClientEEaSEPS2_
W _ZN7android2spINS_11AudioRecord18ClientRecordThreadEED1Ev
W _ZN7android2spINS_11AudioRecord18ClientRecordThreadEEaSEPS2_
W _ZN7android2spINS_11AudioSystem18AudioFlingerClientEED1Ev
W _ZN7android2spINS_11AudioSystem24AudioPolicyServiceClientEED1Ev
W _ZN7android2spINS_11IAudioTrackEEaSEPS1_
W _ZN7android2spINS_11IAudioTrackEEaSERKS2_
W _ZN7android2spINS_11IAudioTrackEEaSINS_12BpAudioTrackEEERS2_PT_
W _ZN7android2spINS_12IAudioRecordEEaSEPS1_
W _ZN7android2spINS_12IAudioRecordEEaSERKS2_
W _ZN7android2spINS_12IAudioRecordEEaSINS_13BpAudioRecordEEERS2_PT_
W _ZN7android2spINS_12IMediaPlayerEED1Ev
W _ZN7android2spINS_12IMediaPlayerEEaSEPS1_
W _ZN7android2spINS_12IMediaPlayerEEaSERKS2_
W _ZN7android2spINS_12IMediaPlayerEEaSINS_13BpMediaPlayerEEERS2_PT_
W _ZN7android2spINS_12IOMXObserverEEaSEPS1_
W _ZN7android2spINS_12IOMXObserverEEaSINS_13BpOMXObserverEEERS2_PT_
W _ZN7android2spINS_12IOMXRendererEEaSEPS1_
W _ZN7android2spINS_12IOMXRendererEEaSINS_13BpOMXRendererEEERS2_PT_
W _ZN7android2spINS_13IAudioFlingerEED1Ev
W _ZN7android2spINS_13IAudioFlingerEEaSEPS1_
W _ZN7android2spINS_13IAudioFlingerEEaSINS_14BpAudioFlingerEEERS2_PT_
W _ZN7android2spINS_13IEffectClientEEaSEPS1_
W _ZN7android2spINS_13IEffectClientEEaSINS_14BpEffectClientEEERS2_PT_
W _ZN7android2spINS_14IMediaRecorderEED1Ev
W _ZN7android2spINS_14IMediaRecorderEEaSEPS1_
W _ZN7android2spINS_14IMediaRecorderEEaSERKS2_
W _ZN7android2spINS_14IMediaRecorderEEaSINS_15BpMediaRecorderEEERS2_PT_
W _ZN7android2spINS_18IMediaPlayerClientEEaSEPS1_
W _ZN7android2spINS_18IMediaPlayerClientEEaSINS_19BpMediaPlayerClientEEERS2_PT_
W _ZN7android2spINS_19IAudioFlingerClientEEaSEPS1_
W _ZN7android2spINS_19IAudioFlingerClientEEaSINS_20BpAudioFlingerClientEEERS2_PT_
W _ZN7android2spINS_19IAudioPolicyServiceEED1Ev
W _ZN7android2spINS_19IAudioPolicyServiceEEaSEPS1_
W _ZN7android2spINS_19IAudioPolicyServiceEEaSINS_20BpAudioPolicyServiceEEERS2_PT_
W _ZN7android2spINS_19IMediaDeathNotifier13DeathNotifierEED1Ev
W _ZN7android2spINS_19IMediaPlayerServiceEED1Ev
W _ZN7android2spINS_19IMediaPlayerServiceEEaSEPS1_
W _ZN7android2spINS_19IMediaPlayerServiceEEaSINS_20BpMediaPlayerServiceEEERS2_PT_
W _ZN7android2spINS_19MediaPlayerListenerEEaSERKS2_
W _ZN7android2spINS_20IMediaRecorderClientEEaSEPS1_
W _ZN7android2spINS_20IMediaRecorderClientEEaSINS_21BpMediaRecorderClientEEERS2_PT_
W _ZN7android2spINS_21MediaRecorderListenerEEaSERKS2_
W _ZN7android2spINS_22MediaMetadataRetriever13DeathNotifierEED1Ev
W _ZN7android2spINS_23IMediaMetadataRetrieverEED1Ev
W _ZN7android2spINS_23IMediaMetadataRetrieverEEaSEPS1_
W _ZN7android2spINS_23IMediaMetadataRetrieverEEaSERKS2_
W _ZN7android2spINS_23IMediaMetadataRetrieverEEaSINS_24BpMediaMetadataRetrieverEEERS2_PT_
W _ZN7android2spINS_4IOMXEEaSEPS1_
W _ZN7android2spINS_4IOMXEEaSINS_5BpOMXEEERS2_PT_
W _ZN7android2spINS_7IBinderEED1Ev
W _ZN7android2spINS_7IBinderEEaSERKS2_
W _ZN7android2spINS_7IEffectEED1Ev
W _ZN7android2spINS_7IEffectEEaSEPS1_
W _ZN7android2spINS_7IEffectEEaSERKS2_
W _ZN7android2spINS_7IEffectEEaSINS_8BpEffectEEERS2_PT_
W _ZN7android2spINS_7IMemoryEED1Ev
W _ZN7android2spINS_7IMemoryEEaSERKS2_
B _ZN7android4IOMX10descriptorE
T _ZN7android4IOMX11asInterfaceERKNS_2spINS_7IBinderEEE
T _ZN7android4IOMX14createRendererERKNS_2spINS_7SurfaceEEEPKc20OMX_COLOR_FORMATTYPEjjjji
T _ZN7android4IOMX29createRendererFromJavaSurfaceEP7_JNIEnvP8_jobjectPKc20OMX_COLOR_FORMATTYPEjjjji
T _ZN7android4IOMXC1Ev
T _ZN7android4IOMXC2Ev
T _ZN7android4IOMXD0Ev
T _ZN7android4IOMXD1Ev
T _ZN7android4IOMXD2Ev
T _ZN7android5BnOMX10onTransactEjRKNS_6ParcelEPS1_j
T _ZN7android5media8Metadata10appendBoolEib
T _ZN7android5media8Metadata11appendInt32Eii
T _ZN7android5media8Metadata11resetParcelEv
T _ZN7android5media8Metadata12appendHeaderEv
T _ZN7android5media8Metadata12updateLengthEv
T _ZN7android5media8Metadata8checkKeyEi
T _ZN7android5media8MetadataC1EPNS_6ParcelE
T _ZN7android5media8MetadataC2EPNS_6ParcelE
T _ZN7android5media8MetadataD1Ev
T _ZN7android5media8MetadataD2Ev
U _ZN7android6Parcel10writeFloatEf
U _ZN7android6Parcel10writeInt32Ei
U _ZN7android6Parcel10writeInt64Ex
U _ZN7android6Parcel11writeIntPtrEi
U _ZN7android6Parcel12writeCStringEPKc
U _ZN7android6Parcel12writeString8ERKNS_7String8E
U _ZN7android6Parcel17writeStrongBinderERKNS_2spINS_7IBinderEEE
U _ZN7android6Parcel19writeFileDescriptorEi
U _ZN7android6Parcel19writeInterfaceTokenERKNS_8String16E
U _ZN7android6Parcel5writeEPKvj
U _ZN7android6ParcelC1Ev
U _ZN7android6ParcelD1Ev
U _ZN7android6Thread10readyToRunEv
U _ZN7android6Thread11requestExitEv
U _ZN7android6Thread18requestExitAndWaitEv
U _ZN7android6Thread3runEPKcij
U _ZN7android6ThreadC2Eb
U _ZN7android6ThreadD0Ev
U _ZN7android6ThreadD1Ev
U _ZN7android6ThreadD2Ev
U _ZN7android7BBinder10onTransactEjRKNS_6ParcelEPS1_j
U _ZN7android7BBinder10pingBinderEv
U _ZN7android7BBinder11linkToDeathERKNS_2spINS_7IBinder14DeathRecipientEEEPvj
U _ZN7android7BBinder11localBinderEv
U _ZN7android7BBinder12attachObjectEPKvPvS3_PFvS2_S3_S3_E
U _ZN7android7BBinder12detachObjectEPKv
U _ZN7android7BBinder13unlinkToDeathERKNS_2wpINS_7IBinder14DeathRecipientEEEPvjPS4_
U _ZN7android7BBinder4dumpEiRKNS_6VectorINS_8String16EEE
U _ZN7android7BBinder8transactEjRKNS_6ParcelEPS1_j
U _ZN7android7BBinderC2Ev
U _ZN7android7BBinderD0Ev
U _ZN7android7BBinderD1Ev
U _ZN7android7BBinderD2Ev
U _ZN7android7IBinder11localBinderEv
U _ZN7android7IBinder12remoteBinderEv
U _ZN7android7IBinder19queryLocalInterfaceERKNS_8String16E
U _ZN7android7IBinderD0Ev
U _ZN7android7IBinderD1Ev
U _ZN7android7ICamera11asInterfaceERKNS_2spINS_7IBinderEEE
B _ZN7android7IEffect10descriptorE
T _ZN7android7IEffect11asInterfaceERKNS_2spINS_7IBinderEEE
T _ZN7android7IEffectC1Ev
T _ZN7android7IEffectC2Ev
T _ZN7android7IEffectD0Ev
T _ZN7android7IEffectD1Ev
T _ZN7android7IEffectD2Ev
U _ZN7android7IMemory11asInterfaceERKNS_2spINS_7IBinderEEE
U _ZN7android7RefBase10onFirstRefEv
U _ZN7android7RefBase12weakref_type16attemptIncStrongEPKv
U _ZN7android7RefBase12weakref_type7decWeakEPKv
U _ZN7android7RefBase12weakref_type7incWeakEPKv
U _ZN7android7RefBase13onLastWeakRefEPKv
U _ZN7android7RefBase15onLastStrongRefEPKv
U _ZN7android7RefBase20onIncStrongAttemptedEjPKv
U _ZN7android7RefBaseC2Ev
U _ZN7android7RefBaseD2Ev
U _ZN7android7String85setToERKS0_
U _ZN7android7String86appendEPKc
U _ZN7android7String86appendERKS0_
U _ZN7android7String8C1EPKc
U _ZN7android7String8C1EPKcj
U _ZN7android7String8C1ERKS0_
U _ZN7android7String8C1Ev
U _ZN7android7String8D1Ev
T _ZN7android8BnEffect10onTransactEjRKNS_6ParcelEPS1_j
U _ZN7android8ISurface11asInterfaceERKNS_2spINS_7IBinderEEE
U _ZN7android8String16C1EPKc
U _ZN7android8String16D1Ev
U _ZN7android9BpRefBase10onFirstRefEv
U _ZN7android9BpRefBase15onLastStrongRefEPKv
U _ZN7android9BpRefBase20onIncStrongAttemptedEjPKv
U _ZN7android9BpRefBaseC2ERKNS_2spINS_7IBinderEEE
U _ZN7android9BpRefBaseD0Ev
U _ZN7android9BpRefBaseD1Ev
U _ZN7android9BpRefBaseD2Ev
T _ZN7android9JetPlayer10clearQueueEv
T _ZN7android9JetPlayer10loadFromFDEixx
T _ZN7android9JetPlayer11setMuteFlagEibb
T _ZN7android9JetPlayer11triggerClipEi
T _ZN7android9JetPlayer12loadFromFileEPKc
T _ZN7android9JetPlayer12queueSegmentEiiiimh
T _ZN7android9JetPlayer12renderThreadEPv
T _ZN7android9JetPlayer12setMuteFlagsEmb
T _ZN7android9JetPlayer13dumpJetStatusEP16s_jet_status_tag
T _ZN7android9JetPlayer16setEventCallbackEPFviiiPvE
T _ZN7android9JetPlayer22fireEventsFromJetQueueEv
T _ZN7android9JetPlayer24fireUpdateOnStatusChangeEv
T _ZN7android9JetPlayer4dumpEv
T _ZN7android9JetPlayer4initEv
T _ZN7android9JetPlayer4playEv
T _ZN7android9JetPlayer5pauseEv
T _ZN7android9JetPlayer6renderEv
T _ZN7android9JetPlayer7releaseEv
T _ZN7android9JetPlayer9closeFileEv
T _ZN7android9JetPlayerC1EP8_jobjectii
T _ZN7android9JetPlayerC2EP8_jobjectii
T _ZN7android9JetPlayerD1Ev
T _ZN7android9JetPlayerD2Ev
T _ZNK7android10AudioTrack10frameCountEv
T _ZNK7android10AudioTrack10streamTypeEv
T _ZNK7android10AudioTrack12channelCountEv
T _ZNK7android10AudioTrack4dumpEiRKNS_6VectorINS_8String16EEE
T _ZNK7android10AudioTrack5mutedEv
T _ZNK7android10AudioTrack6formatEv
T _ZNK7android10AudioTrack7latencyEv
T _ZNK7android10AudioTrack7stoppedEv
T _ZNK7android10AudioTrack9frameSizeEv
T _ZNK7android10AudioTrack9initCheckEv
T _ZNK7android11AudioEffect10descriptorEv
T _ZNK7android11AudioEffect10getEnabledEv
T _ZNK7android11AudioEffect9initCheckEv
T _ZNK7android11AudioRecord10frameCountEv
T _ZNK7android11AudioRecord11inputSourceEv
T _ZNK7android11AudioRecord12channelCountEv
T _ZNK7android11AudioRecord6formatEv
T _ZNK7android11AudioRecord7latencyEv
T _ZNK7android11AudioRecord7stoppedEv
T _ZNK7android11AudioRecord9frameSizeEv
T _ZNK7android11AudioRecord9initCheckEv
T _ZNK7android11IAudioTrack22getInterfaceDescriptorEv
T _ZNK7android12IAudioRecord22getInterfaceDescriptorEv
T _ZNK7android12IMediaPlayer22getInterfaceDescriptorEv
T _ZNK7android12IOMXObserver22getInterfaceDescriptorEv
T _ZNK7android12IOMXRenderer22getInterfaceDescriptorEv
T _ZNK7android12MediaScanner6localeEv
W _ZNK7android12SortedVectorINS_16key_value_pair_tINS_7String8ES2_EEE10do_compareEPKvS6_
W _ZNK7android12SortedVectorINS_16key_value_pair_tINS_7String8ES2_EEE10do_destroyEPvj
W _ZNK7android12SortedVectorINS_16key_value_pair_tINS_7String8ES2_EEE12do_constructEPvj
W _ZNK7android12SortedVectorINS_16key_value_pair_tINS_7String8ES2_EEE15do_move_forwardEPvPKvj
W _ZNK7android12SortedVectorINS_16key_value_pair_tINS_7String8ES2_EEE16do_move_backwardEPvPKvj
W _ZNK7android12SortedVectorINS_16key_value_pair_tINS_7String8ES2_EEE7do_copyEPvPKvj
W _ZNK7android12SortedVectorINS_16key_value_pair_tINS_7String8ES2_EEE8do_splatEPvPKvj
W _ZNK7android12SortedVectorINS_16key_value_pair_tIiPNS_11AudioSystem16OutputDescriptorEEEE10do_compareEPKvS8_
W _ZNK7android12SortedVectorINS_16key_value_pair_tIiPNS_11AudioSystem16OutputDescriptorEEEE10do_destroyEPvj
W _ZNK7android12SortedVectorINS_16key_value_pair_tIiPNS_11AudioSystem16OutputDescriptorEEEE12do_constructEPvj
W _ZNK7android12SortedVectorINS_16key_value_pair_tIiPNS_11AudioSystem16OutputDescriptorEEEE15do_move_forwardEPvPKvj
W _ZNK7android12SortedVectorINS_16key_value_pair_tIiPNS_11AudioSystem16OutputDescriptorEEEE16do_move_backwardEPvPKvj
W _ZNK7android12SortedVectorINS_16key_value_pair_tIiPNS_11AudioSystem16OutputDescriptorEEEE7do_copyEPvPKvj
W _ZNK7android12SortedVectorINS_16key_value_pair_tIiPNS_11AudioSystem16OutputDescriptorEEEE8do_splatEPvPKvj
W _ZNK7android12SortedVectorINS_16key_value_pair_tIiiEEE10do_compareEPKvS5_
W _ZNK7android12SortedVectorINS_16key_value_pair_tIiiEEE10do_destroyEPvj
W _ZNK7android12SortedVectorINS_16key_value_pair_tIiiEEE12do_constructEPvj
W _ZNK7android12SortedVectorINS_16key_value_pair_tIiiEEE15do_move_forwardEPvPKvj
W _ZNK7android12SortedVectorINS_16key_value_pair_tIiiEEE16do_move_backwardEPvPKvj
W _ZNK7android12SortedVectorINS_16key_value_pair_tIiiEEE7do_copyEPvPKvj
W _ZNK7android12SortedVectorINS_16key_value_pair_tIiiEEE8do_splatEPvPKvj
W _ZNK7android12SortedVectorINS_16key_value_pair_tItPNS_13ToneGenerator13WaveGeneratorEEEE10do_compareEPKvS8_
W _ZNK7android12SortedVectorINS_16key_value_pair_tItPNS_13ToneGenerator13WaveGeneratorEEEE10do_destroyEPvj
W _ZNK7android12SortedVectorINS_16key_value_pair_tItPNS_13ToneGenerator13WaveGeneratorEEEE12do_constructEPvj
W _ZNK7android12SortedVectorINS_16key_value_pair_tItPNS_13ToneGenerator13WaveGeneratorEEEE15do_move_forwardEPvPKvj
W _ZNK7android12SortedVectorINS_16key_value_pair_tItPNS_13ToneGenerator13WaveGeneratorEEEE16do_move_backwardEPvPKvj
W _ZNK7android12SortedVectorINS_16key_value_pair_tItPNS_13ToneGenerator13WaveGeneratorEEEE7do_copyEPvPKvj
W _ZNK7android12SortedVectorINS_16key_value_pair_tItPNS_13ToneGenerator13WaveGeneratorEEEE8do_splatEPvPKvj
W _ZNK7android12SortedVectorINS_2wpINS_19IMediaDeathNotifierEEEE10do_compareEPKvS6_
W _ZNK7android12SortedVectorINS_2wpINS_19IMediaDeathNotifierEEEE10do_destroyEPvj
W _ZNK7android12SortedVectorINS_2wpINS_19IMediaDeathNotifierEEEE12do_constructEPvj
W _ZNK7android12SortedVectorINS_2wpINS_19IMediaDeathNotifierEEEE15do_move_forwardEPvPKvj
W _ZNK7android12SortedVectorINS_2wpINS_19IMediaDeathNotifierEEEE16do_move_backwardEPvPKvj
W _ZNK7android12SortedVectorINS_2wpINS_19IMediaDeathNotifierEEEE7do_copyEPvPKvj
W _ZNK7android12SortedVectorINS_2wpINS_19IMediaDeathNotifierEEEE8do_splatEPvPKvj
T _ZNK7android13IAudioFlinger22getInterfaceDescriptorEv
T _ZNK7android13IEffectClient22getInterfaceDescriptorEv
T _ZNK7android13MediaProfiles16getAudioDecodersEv
T _ZNK7android13MediaProfiles16getAudioEncodersEv
T _ZNK7android13MediaProfiles16getVideoDecodersEv
T _ZNK7android13MediaProfiles16getVideoEncodersEv
T _ZNK7android13MediaProfiles20getOutputFileFormatsEv
T _ZNK7android13MediaProfiles26getAudioEncoderParamByNameEPKcNS_13audio_encoderE
T _ZNK7android13MediaProfiles26getVideoEncoderParamByNameEPKcNS_13video_encoderE
T _ZNK7android13MediaProfiles29getImageEncodingQualityLevelsEi
T _ZNK7android13MediaProfiles30findImageEncodingQualityLevelsEi
T _ZNK7android13MediaProfiles30getCamcorderProfileParamByNameEPKciNS_17camcorder_qualityE
T _ZNK7android14IMediaRecorder22getInterfaceDescriptorEv
U _ZNK7android16SortedVectorImpl7indexOfEPKv
T _ZNK7android18IMediaPlayerClient22getInterfaceDescriptorEv
T _ZNK7android18audio_track_cblk_t6bufferEj
T _ZNK7android19IAudioFlingerClient22getInterfaceDescriptorEv
T _ZNK7android19IAudioPolicyService22getInterfaceDescriptorEv
T _ZNK7android19IMediaPlayerService22getInterfaceDescriptorEv
T _ZNK7android20IMediaRecorderClient22getInterfaceDescriptorEv
T _ZNK7android23IMediaMetadataRetriever22getInterfaceDescriptorEv
T _ZNK7android4IOMX22getInterfaceDescriptorEv
U _ZNK7android6Parcel10readIntPtrEv
U _ZNK7android6Parcel11readCStringEv
U _ZNK7android6Parcel11readInplaceEj
U _ZNK7android6Parcel11readString8Ev
U _ZNK7android6Parcel12dataPositionEv
U _ZNK7android6Parcel14checkInterfaceEPNS_7IBinderE
U _ZNK7android6Parcel15setDataPositionEj
U _ZNK7android6Parcel16enforceInterfaceERKNS_8String16EPNS_14IPCThreadStateE
U _ZNK7android6Parcel16readStrongBinderEv
U _ZNK7android6Parcel18readFileDescriptorEv
U _ZNK7android6Parcel4readEPvj
U _ZNK7android6Parcel9readFloatEv
U _ZNK7android6Parcel9readInt32Ev
U _ZNK7android6Parcel9readInt64Ev
U _ZNK7android6Thread11exitPendingEv
W _ZNK7android6VectorINS_13audio_decoderEE10do_destroyEPvj
W _ZNK7android6VectorINS_13audio_decoderEE12do_constructEPvj
W _ZNK7android6VectorINS_13audio_decoderEE15do_move_forwardEPvPKvj
W _ZNK7android6VectorINS_13audio_decoderEE16do_move_backwardEPvPKvj
W _ZNK7android6VectorINS_13audio_decoderEE7do_copyEPvPKvj
W _ZNK7android6VectorINS_13audio_decoderEE8do_splatEPvPKvj
W _ZNK7android6VectorINS_13audio_encoderEE10do_destroyEPvj
W _ZNK7android6VectorINS_13audio_encoderEE12do_constructEPvj
W _ZNK7android6VectorINS_13audio_encoderEE15do_move_forwardEPvPKvj
W _ZNK7android6VectorINS_13audio_encoderEE16do_move_backwardEPvPKvj
W _ZNK7android6VectorINS_13audio_encoderEE7do_copyEPvPKvj
W _ZNK7android6VectorINS_13audio_encoderEE8do_splatEPvPKvj
W _ZNK7android6VectorINS_13output_formatEE10do_destroyEPvj
W _ZNK7android6VectorINS_13output_formatEE12do_constructEPvj
W _ZNK7android6VectorINS_13output_formatEE15do_move_forwardEPvPKvj
W _ZNK7android6VectorINS_13output_formatEE16do_move_backwardEPvPKvj
W _ZNK7android6VectorINS_13output_formatEE7do_copyEPvPKvj
W _ZNK7android6VectorINS_13output_formatEE8do_splatEPvPKvj
W _ZNK7android6VectorINS_13video_decoderEE10do_destroyEPvj
W _ZNK7android6VectorINS_13video_decoderEE12do_constructEPvj
W _ZNK7android6VectorINS_13video_decoderEE15do_move_forwardEPvPKvj
W _ZNK7android6VectorINS_13video_decoderEE16do_move_backwardEPvPKvj
W _ZNK7android6VectorINS_13video_decoderEE7do_copyEPvPKvj
W _ZNK7android6VectorINS_13video_decoderEE8do_splatEPvPKvj
W _ZNK7android6VectorINS_13video_encoderEE10do_destroyEPvj
W _ZNK7android6VectorINS_13video_encoderEE12do_constructEPvj
W _ZNK7android6VectorINS_13video_encoderEE15do_move_forwardEPvPKvj
W _ZNK7android6VectorINS_13video_encoderEE16do_move_backwardEPvPKvj
W _ZNK7android6VectorINS_13video_encoderEE7do_copyEPvPKvj
W _ZNK7android6VectorINS_13video_encoderEE8do_splatEPvPKvj
W _ZNK7android6VectorIPNS_13MediaProfiles15AudioDecoderCapEE10do_destroyEPvj
W _ZNK7android6VectorIPNS_13MediaProfiles15AudioDecoderCapEE12do_constructEPvj
W _ZNK7android6VectorIPNS_13MediaProfiles15AudioDecoderCapEE15do_move_forwardEPvPKvj
W _ZNK7android6VectorIPNS_13MediaProfiles15AudioDecoderCapEE16do_move_backwardEPvPKvj
W _ZNK7android6VectorIPNS_13MediaProfiles15AudioDecoderCapEE7do_copyEPvPKvj
W _ZNK7android6VectorIPNS_13MediaProfiles15AudioDecoderCapEE8do_splatEPvPKvj
W _ZNK7android6VectorIPNS_13MediaProfiles15AudioEncoderCapEE10do_destroyEPvj
W _ZNK7android6VectorIPNS_13MediaProfiles15AudioEncoderCapEE12do_constructEPvj
W _ZNK7android6VectorIPNS_13MediaProfiles15AudioEncoderCapEE15do_move_forwardEPvPKvj
W _ZNK7android6VectorIPNS_13MediaProfiles15AudioEncoderCapEE16do_move_backwardEPvPKvj
W _ZNK7android6VectorIPNS_13MediaProfiles15AudioEncoderCapEE7do_copyEPvPKvj
W _ZNK7android6VectorIPNS_13MediaProfiles15AudioEncoderCapEE8do_splatEPvPKvj
W _ZNK7android6VectorIPNS_13MediaProfiles15VideoDecoderCapEE10do_destroyEPvj
W _ZNK7android6VectorIPNS_13MediaProfiles15VideoDecoderCapEE12do_constructEPvj
W _ZNK7android6VectorIPNS_13MediaProfiles15VideoDecoderCapEE15do_move_forwardEPvPKvj
W _ZNK7android6VectorIPNS_13MediaProfiles15VideoDecoderCapEE16do_move_backwardEPvPKvj
W _ZNK7android6VectorIPNS_13MediaProfiles15VideoDecoderCapEE7do_copyEPvPKvj
W _ZNK7android6VectorIPNS_13MediaProfiles15VideoDecoderCapEE8do_splatEPvPKvj
W _ZNK7android6VectorIPNS_13MediaProfiles15VideoEncoderCapEE10do_destroyEPvj
W _ZNK7android6VectorIPNS_13MediaProfiles15VideoEncoderCapEE12do_constructEPvj
W _ZNK7android6VectorIPNS_13MediaProfiles15VideoEncoderCapEE15do_move_forwardEPvPKvj
W _ZNK7android6VectorIPNS_13MediaProfiles15VideoEncoderCapEE16do_move_backwardEPvPKvj
W _ZNK7android6VectorIPNS_13MediaProfiles15VideoEncoderCapEE7do_copyEPvPKvj
W _ZNK7android6VectorIPNS_13MediaProfiles15VideoEncoderCapEE8do_splatEPvPKvj
W _ZNK7android6VectorIPNS_13MediaProfiles16CamcorderProfileEE10do_destroyEPvj
W _ZNK7android6VectorIPNS_13MediaProfiles16CamcorderProfileEE12do_constructEPvj
W _ZNK7android6VectorIPNS_13MediaProfiles16CamcorderProfileEE15do_move_forwardEPvPKvj
W _ZNK7android6VectorIPNS_13MediaProfiles16CamcorderProfileEE16do_move_backwardEPvPKvj
W _ZNK7android6VectorIPNS_13MediaProfiles16CamcorderProfileEE7do_copyEPvPKvj
W _ZNK7android6VectorIPNS_13MediaProfiles16CamcorderProfileEE8do_splatEPvPKvj
W _ZNK7android6VectorIPNS_13MediaProfiles26ImageEncodingQualityLevelsEE10do_destroyEPvj
W _ZNK7android6VectorIPNS_13MediaProfiles26ImageEncodingQualityLevelsEE12do_constructEPvj
W _ZNK7android6VectorIPNS_13MediaProfiles26ImageEncodingQualityLevelsEE15do_move_forwardEPvPKvj
W _ZNK7android6VectorIPNS_13MediaProfiles26ImageEncodingQualityLevelsEE16do_move_backwardEPvPKvj
W _ZNK7android6VectorIPNS_13MediaProfiles26ImageEncodingQualityLevelsEE7do_copyEPvPKvj
W _ZNK7android6VectorIPNS_13MediaProfiles26ImageEncodingQualityLevelsEE8do_splatEPvPKvj
W _ZNK7android6VectorIiE10do_destroyEPvj
W _ZNK7android6VectorIiE12do_constructEPvj
W _ZNK7android6VectorIiE15do_move_forwardEPvPKvj
W _ZNK7android6VectorIiE16do_move_backwardEPvPKvj
W _ZNK7android6VectorIiE7do_copyEPvPKvj
W _ZNK7android6VectorIiE8do_splatEPvPKvj
U _ZNK7android7BBinder10findObjectEPKv
U _ZNK7android7BBinder13isBinderAliveEv
U _ZNK7android7BBinder22getInterfaceDescriptorEv
U _ZNK7android7IBinder13checkSubclassEPKv
T _ZNK7android7IEffect22getInterfaceDescriptorEv
U _ZNK7android7IMemory4sizeEv
U _ZNK7android7IMemory7pointerEv
U _ZNK7android7RefBase10createWeakEPKv
U _ZNK7android7RefBase9decStrongEPKv
U _ZNK7android7RefBase9incStrongEPKv
U _ZNK7android7Surface11getISurfaceEv
D _ZTCN7android10AudioTrack16AudioTrackThreadE0_NS_6ThreadE
D _ZTCN7android10Visualizer13CaptureThreadE0_NS_6ThreadE
V _ZTCN7android11AudioEffect12EffectClientE0_NS_10IInterfaceE
V _ZTCN7android11AudioEffect12EffectClientE0_NS_11BnInterfaceINS_13IEffectClientEEE
V _ZTCN7android11AudioEffect12EffectClientE0_NS_13IEffectClientE
V _ZTCN7android11AudioEffect12EffectClientE0_NS_14BnEffectClientE
V _ZTCN7android11AudioEffect12EffectClientE16_NS_7IBinder14DeathRecipientE
V _ZTCN7android11AudioEffect12EffectClientE4_NS_7BBinderE
V _ZTCN7android11AudioEffect12EffectClientE4_NS_7IBinderE
D _ZTCN7android11AudioRecord18ClientRecordThreadE0_NS_6ThreadE
D _ZTCN7android11AudioSystem18AudioFlingerClientE0_NS_7IBinder14DeathRecipientE
D _ZTCN7android11AudioSystem18AudioFlingerClientE4_NS_10IInterfaceE
D _ZTCN7android11AudioSystem18AudioFlingerClientE4_NS_11BnInterfaceINS_19IAudioFlingerClientEEE
D _ZTCN7android11AudioSystem18AudioFlingerClientE4_NS_19IAudioFlingerClientE
D _ZTCN7android11AudioSystem18AudioFlingerClientE4_NS_20BnAudioFlingerClientE
D _ZTCN7android11AudioSystem18AudioFlingerClientE8_NS_7BBinderE
D _ZTCN7android11AudioSystem18AudioFlingerClientE8_NS_7IBinderE
D _ZTCN7android11AudioSystem24AudioPolicyServiceClientE0_NS_7IBinder14DeathRecipientE
V _ZTCN7android11BnInterfaceINS_11IAudioTrackEEE0_NS_10IInterfaceE
V _ZTCN7android11BnInterfaceINS_11IAudioTrackEEE0_S1_
V _ZTCN7android11BnInterfaceINS_11IAudioTrackEEE4_NS_7BBinderE
V _ZTCN7android11BnInterfaceINS_11IAudioTrackEEE4_NS_7IBinderE
V _ZTCN7android11BnInterfaceINS_12IAudioRecordEEE0_NS_10IInterfaceE
V _ZTCN7android11BnInterfaceINS_12IAudioRecordEEE0_S1_
V _ZTCN7android11BnInterfaceINS_12IAudioRecordEEE4_NS_7BBinderE
V _ZTCN7android11BnInterfaceINS_12IAudioRecordEEE4_NS_7IBinderE
V _ZTCN7android11BnInterfaceINS_12IMediaPlayerEEE0_NS_10IInterfaceE
V _ZTCN7android11BnInterfaceINS_12IMediaPlayerEEE0_S1_
V _ZTCN7android11BnInterfaceINS_12IMediaPlayerEEE4_NS_7BBinderE
V _ZTCN7android11BnInterfaceINS_12IMediaPlayerEEE4_NS_7IBinderE
V _ZTCN7android11BnInterfaceINS_12IOMXObserverEEE0_NS_10IInterfaceE
V _ZTCN7android11BnInterfaceINS_12IOMXObserverEEE0_S1_
V _ZTCN7android11BnInterfaceINS_12IOMXObserverEEE4_NS_7BBinderE
V _ZTCN7android11BnInterfaceINS_12IOMXObserverEEE4_NS_7IBinderE
V _ZTCN7android11BnInterfaceINS_12IOMXRendererEEE0_NS_10IInterfaceE
V _ZTCN7android11BnInterfaceINS_12IOMXRendererEEE0_S1_
V _ZTCN7android11BnInterfaceINS_12IOMXRendererEEE4_NS_7BBinderE
V _ZTCN7android11BnInterfaceINS_12IOMXRendererEEE4_NS_7IBinderE
V _ZTCN7android11BnInterfaceINS_13IAudioFlingerEEE0_NS_10IInterfaceE
V _ZTCN7android11BnInterfaceINS_13IAudioFlingerEEE0_S1_
V _ZTCN7android11BnInterfaceINS_13IAudioFlingerEEE4_NS_7BBinderE
V _ZTCN7android11BnInterfaceINS_13IAudioFlingerEEE4_NS_7IBinderE
V _ZTCN7android11BnInterfaceINS_13IEffectClientEEE0_NS_10IInterfaceE
V _ZTCN7android11BnInterfaceINS_13IEffectClientEEE0_S1_
V _ZTCN7android11BnInterfaceINS_13IEffectClientEEE4_NS_7BBinderE
V _ZTCN7android11BnInterfaceINS_13IEffectClientEEE4_NS_7IBinderE
V _ZTCN7android11BnInterfaceINS_14IMediaRecorderEEE0_NS_10IInterfaceE
V _ZTCN7android11BnInterfaceINS_14IMediaRecorderEEE0_S1_
V _ZTCN7android11BnInterfaceINS_14IMediaRecorderEEE4_NS_7BBinderE
V _ZTCN7android11BnInterfaceINS_14IMediaRecorderEEE4_NS_7IBinderE
V _ZTCN7android11BnInterfaceINS_18IMediaPlayerClientEEE0_NS_10IInterfaceE
V _ZTCN7android11BnInterfaceINS_18IMediaPlayerClientEEE0_S1_
V _ZTCN7android11BnInterfaceINS_18IMediaPlayerClientEEE4_NS_7BBinderE
V _ZTCN7android11BnInterfaceINS_18IMediaPlayerClientEEE4_NS_7IBinderE
V _ZTCN7android11BnInterfaceINS_19IAudioFlingerClientEEE0_NS_10IInterfaceE
V _ZTCN7android11BnInterfaceINS_19IAudioFlingerClientEEE0_S1_
V _ZTCN7android11BnInterfaceINS_19IAudioFlingerClientEEE4_NS_7BBinderE
V _ZTCN7android11BnInterfaceINS_19IAudioFlingerClientEEE4_NS_7IBinderE
V _ZTCN7android11BnInterfaceINS_19IAudioPolicyServiceEEE0_NS_10IInterfaceE
V _ZTCN7android11BnInterfaceINS_19IAudioPolicyServiceEEE0_S1_
V _ZTCN7android11BnInterfaceINS_19IAudioPolicyServiceEEE4_NS_7BBinderE
V _ZTCN7android11BnInterfaceINS_19IAudioPolicyServiceEEE4_NS_7IBinderE
V _ZTCN7android11BnInterfaceINS_19IMediaPlayerServiceEEE0_NS_10IInterfaceE
V _ZTCN7android11BnInterfaceINS_19IMediaPlayerServiceEEE0_S1_
V _ZTCN7android11BnInterfaceINS_19IMediaPlayerServiceEEE4_NS_7BBinderE
V _ZTCN7android11BnInterfaceINS_19IMediaPlayerServiceEEE4_NS_7IBinderE
V _ZTCN7android11BnInterfaceINS_20IMediaRecorderClientEEE0_NS_10IInterfaceE
V _ZTCN7android11BnInterfaceINS_20IMediaRecorderClientEEE0_S1_
V _ZTCN7android11BnInterfaceINS_20IMediaRecorderClientEEE4_NS_7BBinderE
V _ZTCN7android11BnInterfaceINS_20IMediaRecorderClientEEE4_NS_7IBinderE
V _ZTCN7android11BnInterfaceINS_23IMediaMetadataRetrieverEEE0_NS_10IInterfaceE
V _ZTCN7android11BnInterfaceINS_23IMediaMetadataRetrieverEEE0_S1_
V _ZTCN7android11BnInterfaceINS_23IMediaMetadataRetrieverEEE4_NS_7BBinderE
V _ZTCN7android11BnInterfaceINS_23IMediaMetadataRetrieverEEE4_NS_7IBinderE
V _ZTCN7android11BnInterfaceINS_4IOMXEEE0_NS_10IInterfaceE
V _ZTCN7android11BnInterfaceINS_4IOMXEEE0_S1_
V _ZTCN7android11BnInterfaceINS_4IOMXEEE4_NS_7BBinderE
V _ZTCN7android11BnInterfaceINS_4IOMXEEE4_NS_7IBinderE
V _ZTCN7android11BnInterfaceINS_7IEffectEEE0_NS_10IInterfaceE
V _ZTCN7android11BnInterfaceINS_7IEffectEEE0_S1_
V _ZTCN7android11BnInterfaceINS_7IEffectEEE4_NS_7BBinderE
V _ZTCN7android11BnInterfaceINS_7IEffectEEE4_NS_7IBinderE
V _ZTCN7android11BpInterfaceINS_11IAudioTrackEEE0_NS_10IInterfaceE
V _ZTCN7android11BpInterfaceINS_11IAudioTrackEEE0_S1_
V _ZTCN7android11BpInterfaceINS_11IAudioTrackEEE4_NS_9BpRefBaseE
V _ZTCN7android11BpInterfaceINS_12IAudioRecordEEE0_NS_10IInterfaceE
V _ZTCN7android11BpInterfaceINS_12IAudioRecordEEE0_S1_
V _ZTCN7android11BpInterfaceINS_12IAudioRecordEEE4_NS_9BpRefBaseE
V _ZTCN7android11BpInterfaceINS_12IMediaPlayerEEE0_NS_10IInterfaceE
V _ZTCN7android11BpInterfaceINS_12IMediaPlayerEEE0_S1_
V _ZTCN7android11BpInterfaceINS_12IMediaPlayerEEE4_NS_9BpRefBaseE
V _ZTCN7android11BpInterfaceINS_12IOMXObserverEEE0_NS_10IInterfaceE
V _ZTCN7android11BpInterfaceINS_12IOMXObserverEEE0_S1_
V _ZTCN7android11BpInterfaceINS_12IOMXObserverEEE4_NS_9BpRefBaseE
V _ZTCN7android11BpInterfaceINS_12IOMXRendererEEE0_NS_10IInterfaceE
V _ZTCN7android11BpInterfaceINS_12IOMXRendererEEE0_S1_
V _ZTCN7android11BpInterfaceINS_12IOMXRendererEEE4_NS_9BpRefBaseE
V _ZTCN7android11BpInterfaceINS_13IAudioFlingerEEE0_NS_10IInterfaceE
V _ZTCN7android11BpInterfaceINS_13IAudioFlingerEEE0_S1_
V _ZTCN7android11BpInterfaceINS_13IAudioFlingerEEE4_NS_9BpRefBaseE
V _ZTCN7android11BpInterfaceINS_13IEffectClientEEE0_NS_10IInterfaceE
V _ZTCN7android11BpInterfaceINS_13IEffectClientEEE0_S1_
V _ZTCN7android11BpInterfaceINS_13IEffectClientEEE4_NS_9BpRefBaseE
V _ZTCN7android11BpInterfaceINS_14IMediaRecorderEEE0_NS_10IInterfaceE
V _ZTCN7android11BpInterfaceINS_14IMediaRecorderEEE0_S1_
V _ZTCN7android11BpInterfaceINS_14IMediaRecorderEEE4_NS_9BpRefBaseE
V _ZTCN7android11BpInterfaceINS_18IMediaPlayerClientEEE0_NS_10IInterfaceE
V _ZTCN7android11BpInterfaceINS_18IMediaPlayerClientEEE0_S1_
V _ZTCN7android11BpInterfaceINS_18IMediaPlayerClientEEE4_NS_9BpRefBaseE
V _ZTCN7android11BpInterfaceINS_19IAudioFlingerClientEEE0_NS_10IInterfaceE
V _ZTCN7android11BpInterfaceINS_19IAudioFlingerClientEEE0_S1_
V _ZTCN7android11BpInterfaceINS_19IAudioFlingerClientEEE4_NS_9BpRefBaseE
V _ZTCN7android11BpInterfaceINS_19IAudioPolicyServiceEEE0_NS_10IInterfaceE
V _ZTCN7android11BpInterfaceINS_19IAudioPolicyServiceEEE0_S1_
V _ZTCN7android11BpInterfaceINS_19IAudioPolicyServiceEEE4_NS_9BpRefBaseE
V _ZTCN7android11BpInterfaceINS_19IMediaPlayerServiceEEE0_NS_10IInterfaceE
V _ZTCN7android11BpInterfaceINS_19IMediaPlayerServiceEEE0_S1_
V _ZTCN7android11BpInterfaceINS_19IMediaPlayerServiceEEE4_NS_9BpRefBaseE
V _ZTCN7android11BpInterfaceINS_20IMediaRecorderClientEEE0_NS_10IInterfaceE
V _ZTCN7android11BpInterfaceINS_20IMediaRecorderClientEEE0_S1_
V _ZTCN7android11BpInterfaceINS_20IMediaRecorderClientEEE4_NS_9BpRefBaseE
V _ZTCN7android11BpInterfaceINS_23IMediaMetadataRetrieverEEE0_NS_10IInterfaceE
V _ZTCN7android11BpInterfaceINS_23IMediaMetadataRetrieverEEE0_S1_
V _ZTCN7android11BpInterfaceINS_23IMediaMetadataRetrieverEEE4_NS_9BpRefBaseE
V _ZTCN7android11BpInterfaceINS_4IOMXEEE0_NS_10IInterfaceE
V _ZTCN7android11BpInterfaceINS_4IOMXEEE0_S1_
V _ZTCN7android11BpInterfaceINS_4IOMXEEE4_NS_9BpRefBaseE
V _ZTCN7android11BpInterfaceINS_7IEffectEEE0_NS_10IInterfaceE
V _ZTCN7android11BpInterfaceINS_7IEffectEEE0_S1_
V _ZTCN7android11BpInterfaceINS_7IEffectEEE4_NS_9BpRefBaseE
D _ZTCN7android11IAudioTrackE0_NS_10IInterfaceE
D _ZTCN7android11MediaPlayerE0_NS_10IInterfaceE
D _ZTCN7android11MediaPlayerE0_NS_11BnInterfaceINS_18IMediaPlayerClientEEE
D _ZTCN7android11MediaPlayerE0_NS_18IMediaPlayerClientE
D _ZTCN7android11MediaPlayerE0_NS_19BnMediaPlayerClientE
D _ZTCN7android11MediaPlayerE108_NS_19IMediaDeathNotifierE
D _ZTCN7android11MediaPlayerE4_NS_7BBinderE
D _ZTCN7android11MediaPlayerE4_NS_7IBinderE
D _ZTCN7android12BnAudioTrackE0_NS_10IInterfaceE
D _ZTCN7android12BnAudioTrackE0_NS_11BnInterfaceINS_11IAudioTrackEEE
D _ZTCN7android12BnAudioTrackE0_NS_11IAudioTrackE
D _ZTCN7android12BnAudioTrackE4_NS_7BBinderE
D _ZTCN7android12BnAudioTrackE4_NS_7IBinderE
V _ZTCN7android12BpAudioTrackE0_NS_10IInterfaceE
V _ZTCN7android12BpAudioTrackE0_NS_11BpInterfaceINS_11IAudioTrackEEE
V _ZTCN7android12BpAudioTrackE0_NS_11IAudioTrackE
V _ZTCN7android12BpAudioTrackE4_NS_9BpRefBaseE
D _ZTCN7android12IAudioRecordE0_NS_10IInterfaceE
D _ZTCN7android12IMediaPlayerE0_NS_10IInterfaceE
D _ZTCN7android12IOMXObserverE0_NS_10IInterfaceE
D _ZTCN7android12IOMXRendererE0_NS_10IInterfaceE
D _ZTCN7android13BnAudioRecordE0_NS_10IInterfaceE
D _ZTCN7android13BnAudioRecordE0_NS_11BnInterfaceINS_12IAudioRecordEEE
D _ZTCN7android13BnAudioRecordE0_NS_12IAudioRecordE
D _ZTCN7android13BnAudioRecordE4_NS_7BBinderE
D _ZTCN7android13BnAudioRecordE4_NS_7IBinderE
D _ZTCN7android13BnMediaPlayerE0_NS_10IInterfaceE
D _ZTCN7android13BnMediaPlayerE0_NS_11BnInterfaceINS_12IMediaPlayerEEE
D _ZTCN7android13BnMediaPlayerE0_NS_12IMediaPlayerE
D _ZTCN7android13BnMediaPlayerE4_NS_7BBinderE
D _ZTCN7android13BnMediaPlayerE4_NS_7IBinderE
D _ZTCN7android13BnOMXObserverE0_NS_10IInterfaceE
D _ZTCN7android13BnOMXObserverE0_NS_11BnInterfaceINS_12IOMXObserverEEE
D _ZTCN7android13BnOMXObserverE0_NS_12IOMXObserverE
D _ZTCN7android13BnOMXObserverE4_NS_7BBinderE
D _ZTCN7android13BnOMXObserverE4_NS_7IBinderE
D _ZTCN7android13BnOMXRendererE0_NS_10IInterfaceE
D _ZTCN7android13BnOMXRendererE0_NS_11BnInterfaceINS_12IOMXRendererEEE
D _ZTCN7android13BnOMXRendererE0_NS_12IOMXRendererE
D _ZTCN7android13BnOMXRendererE4_NS_7BBinderE
D _ZTCN7android13BnOMXRendererE4_NS_7IBinderE
V _ZTCN7android13BpAudioRecordE0_NS_10IInterfaceE
V _ZTCN7android13BpAudioRecordE0_NS_11BpInterfaceINS_12IAudioRecordEEE
V _ZTCN7android13BpAudioRecordE0_NS_12IAudioRecordE
V _ZTCN7android13BpAudioRecordE4_NS_9BpRefBaseE
V _ZTCN7android13BpMediaPlayerE0_NS_10IInterfaceE
V _ZTCN7android13BpMediaPlayerE0_NS_11BpInterfaceINS_12IMediaPlayerEEE
V _ZTCN7android13BpMediaPlayerE0_NS_12IMediaPlayerE
V _ZTCN7android13BpMediaPlayerE4_NS_9BpRefBaseE
V _ZTCN7android13BpOMXObserverE0_NS_10IInterfaceE
V _ZTCN7android13BpOMXObserverE0_NS_11BpInterfaceINS_12IOMXObserverEEE
V _ZTCN7android13BpOMXObserverE0_NS_12IOMXObserverE
V _ZTCN7android13BpOMXObserverE4_NS_9BpRefBaseE
V _ZTCN7android13BpOMXRendererE0_NS_10IInterfaceE
V _ZTCN7android13BpOMXRendererE0_NS_11BpInterfaceINS_12IOMXRendererEEE
V _ZTCN7android13BpOMXRendererE0_NS_12IOMXRendererE
V _ZTCN7android13BpOMXRendererE4_NS_9BpRefBaseE
D _ZTCN7android13IAudioFlingerE0_NS_10IInterfaceE
D _ZTCN7android13IEffectClientE0_NS_10IInterfaceE
D _ZTCN7android13MediaRecorderE0_NS_10IInterfaceE
D _ZTCN7android13MediaRecorderE0_NS_11BnInterfaceINS_20IMediaRecorderClientEEE
D _ZTCN7android13MediaRecorderE0_NS_20IMediaRecorderClientE
D _ZTCN7android13MediaRecorderE0_NS_21BnMediaRecorderClientE
D _ZTCN7android13MediaRecorderE4_NS_7BBinderE
D _ZTCN7android13MediaRecorderE4_NS_7IBinderE
D _ZTCN7android13MediaRecorderE52_NS_19IMediaDeathNotifierE
D _ZTCN7android14BnAudioFlingerE0_NS_10IInterfaceE
D _ZTCN7android14BnAudioFlingerE0_NS_11BnInterfaceINS_13IAudioFlingerEEE
D _ZTCN7android14BnAudioFlingerE0_NS_13IAudioFlingerE
D _ZTCN7android14BnAudioFlingerE4_NS_7BBinderE
D _ZTCN7android14BnAudioFlingerE4_NS_7IBinderE
D _ZTCN7android14BnEffectClientE0_NS_10IInterfaceE
D _ZTCN7android14BnEffectClientE0_NS_11BnInterfaceINS_13IEffectClientEEE
D _ZTCN7android14BnEffectClientE0_NS_13IEffectClientE
D _ZTCN7android14BnEffectClientE4_NS_7BBinderE
D _ZTCN7android14BnEffectClientE4_NS_7IBinderE
V _ZTCN7android14BpAudioFlingerE0_NS_10IInterfaceE
V _ZTCN7android14BpAudioFlingerE0_NS_11BpInterfaceINS_13IAudioFlingerEEE
V _ZTCN7android14BpAudioFlingerE0_NS_13IAudioFlingerE
V _ZTCN7android14BpAudioFlingerE4_NS_9BpRefBaseE
V _ZTCN7android14BpEffectClientE0_NS_10IInterfaceE
V _ZTCN7android14BpEffectClientE0_NS_11BpInterfaceINS_13IEffectClientEEE
V _ZTCN7android14BpEffectClientE0_NS_13IEffectClientE
V _ZTCN7android14BpEffectClientE4_NS_9BpRefBaseE
D _ZTCN7android14IMediaRecorderE0_NS_10IInterfaceE
D _ZTCN7android15BnMediaRecorderE0_NS_10IInterfaceE
D _ZTCN7android15BnMediaRecorderE0_NS_11BnInterfaceINS_14IMediaRecorderEEE
D _ZTCN7android15BnMediaRecorderE0_NS_14IMediaRecorderE
D _ZTCN7android15BnMediaRecorderE4_NS_7BBinderE
D _ZTCN7android15BnMediaRecorderE4_NS_7IBinderE
V _ZTCN7android15BpMediaRecorderE0_NS_10IInterfaceE
V _ZTCN7android15BpMediaRecorderE0_NS_11BpInterfaceINS_14IMediaRecorderEEE
V _ZTCN7android15BpMediaRecorderE0_NS_14IMediaRecorderE
V _ZTCN7android15BpMediaRecorderE4_NS_9BpRefBaseE
D _ZTCN7android18IMediaPlayerClientE0_NS_10IInterfaceE
D _ZTCN7android19BnMediaPlayerClientE0_NS_10IInterfaceE
D _ZTCN7android19BnMediaPlayerClientE0_NS_11BnInterfaceINS_18IMediaPlayerClientEEE
D _ZTCN7android19BnMediaPlayerClientE0_NS_18IMediaPlayerClientE
D _ZTCN7android19BnMediaPlayerClientE4_NS_7BBinderE
D _ZTCN7android19BnMediaPlayerClientE4_NS_7IBinderE
V _ZTCN7android19BpMediaPlayerClientE0_NS_10IInterfaceE
V _ZTCN7android19BpMediaPlayerClientE0_NS_11BpInterfaceINS_18IMediaPlayerClientEEE
V _ZTCN7android19BpMediaPlayerClientE0_NS_18IMediaPlayerClientE
V _ZTCN7android19BpMediaPlayerClientE4_NS_9BpRefBaseE
D _ZTCN7android19IAudioFlingerClientE0_NS_10IInterfaceE
D _ZTCN7android19IAudioPolicyServiceE0_NS_10IInterfaceE
D _ZTCN7android19IMediaDeathNotifier13DeathNotifierE0_NS_7IBinder14DeathRecipientE
D _ZTCN7android19IMediaPlayerServiceE0_NS_10IInterfaceE
D _ZTCN7android20BnAudioFlingerClientE0_NS_10IInterfaceE
D _ZTCN7android20BnAudioFlingerClientE0_NS_11BnInterfaceINS_19IAudioFlingerClientEEE
D _ZTCN7android20BnAudioFlingerClientE0_NS_19IAudioFlingerClientE
D _ZTCN7android20BnAudioFlingerClientE4_NS_7BBinderE
D _ZTCN7android20BnAudioFlingerClientE4_NS_7IBinderE
D _ZTCN7android20BnAudioPolicyServiceE0_NS_10IInterfaceE
D _ZTCN7android20BnAudioPolicyServiceE0_NS_11BnInterfaceINS_19IAudioPolicyServiceEEE
D _ZTCN7android20BnAudioPolicyServiceE0_NS_19IAudioPolicyServiceE
D _ZTCN7android20BnAudioPolicyServiceE4_NS_7BBinderE
D _ZTCN7android20BnAudioPolicyServiceE4_NS_7IBinderE
D _ZTCN7android20BnMediaPlayerServiceE0_NS_10IInterfaceE
D _ZTCN7android20BnMediaPlayerServiceE0_NS_11BnInterfaceINS_19IMediaPlayerServiceEEE
D _ZTCN7android20BnMediaPlayerServiceE0_NS_19IMediaPlayerServiceE
D _ZTCN7android20BnMediaPlayerServiceE4_NS_7BBinderE
D _ZTCN7android20BnMediaPlayerServiceE4_NS_7IBinderE
V _ZTCN7android20BpAudioFlingerClientE0_NS_10IInterfaceE
V _ZTCN7android20BpAudioFlingerClientE0_NS_11BpInterfaceINS_19IAudioFlingerClientEEE
V _ZTCN7android20BpAudioFlingerClientE0_NS_19IAudioFlingerClientE
V _ZTCN7android20BpAudioFlingerClientE4_NS_9BpRefBaseE
V _ZTCN7android20BpAudioPolicyServiceE0_NS_10IInterfaceE
V _ZTCN7android20BpAudioPolicyServiceE0_NS_11BpInterfaceINS_19IAudioPolicyServiceEEE
V _ZTCN7android20BpAudioPolicyServiceE0_NS_19IAudioPolicyServiceE
V _ZTCN7android20BpAudioPolicyServiceE4_NS_9BpRefBaseE
V _ZTCN7android20BpMediaPlayerServiceE0_NS_10IInterfaceE
V _ZTCN7android20BpMediaPlayerServiceE0_NS_11BpInterfaceINS_19IMediaPlayerServiceEEE
V _ZTCN7android20BpMediaPlayerServiceE0_NS_19IMediaPlayerServiceE
V _ZTCN7android20BpMediaPlayerServiceE4_NS_9BpRefBaseE
D _ZTCN7android20IMediaRecorderClientE0_NS_10IInterfaceE
D _ZTCN7android21BnMediaRecorderClientE0_NS_10IInterfaceE
D _ZTCN7android21BnMediaRecorderClientE0_NS_11BnInterfaceINS_20IMediaRecorderClientEEE
D _ZTCN7android21BnMediaRecorderClientE0_NS_20IMediaRecorderClientE
D _ZTCN7android21BnMediaRecorderClientE4_NS_7BBinderE
D _ZTCN7android21BnMediaRecorderClientE4_NS_7IBinderE
V _ZTCN7android21BpMediaRecorderClientE0_NS_10IInterfaceE
V _ZTCN7android21BpMediaRecorderClientE0_NS_11BpInterfaceINS_20IMediaRecorderClientEEE
V _ZTCN7android21BpMediaRecorderClientE0_NS_20IMediaRecorderClientE
V _ZTCN7android21BpMediaRecorderClientE4_NS_9BpRefBaseE
D _ZTCN7android22MediaMetadataRetriever13DeathNotifierE0_NS_7IBinder14DeathRecipientE
D _ZTCN7android23IMediaMetadataRetrieverE0_NS_10IInterfaceE
D _ZTCN7android24BnMediaMetadataRetrieverE0_NS_10IInterfaceE
D _ZTCN7android24BnMediaMetadataRetrieverE0_NS_11BnInterfaceINS_23IMediaMetadataRetrieverEEE
D _ZTCN7android24BnMediaMetadataRetrieverE0_NS_23IMediaMetadataRetrieverE
D _ZTCN7android24BnMediaMetadataRetrieverE4_NS_7BBinderE
D _ZTCN7android24BnMediaMetadataRetrieverE4_NS_7IBinderE
V _ZTCN7android24BpMediaMetadataRetrieverE0_NS_10IInterfaceE
V _ZTCN7android24BpMediaMetadataRetrieverE0_NS_11BpInterfaceINS_23IMediaMetadataRetrieverEEE
V _ZTCN7android24BpMediaMetadataRetrieverE0_NS_23IMediaMetadataRetrieverE
V _ZTCN7android24BpMediaMetadataRetrieverE4_NS_9BpRefBaseE
D _ZTCN7android4IOMXE0_NS_10IInterfaceE
D _ZTCN7android5BnOMXE0_NS_10IInterfaceE
D _ZTCN7android5BnOMXE0_NS_11BnInterfaceINS_4IOMXEEE
D _ZTCN7android5BnOMXE0_NS_4IOMXE
D _ZTCN7android5BnOMXE4_NS_7BBinderE
D _ZTCN7android5BnOMXE4_NS_7IBinderE
V _ZTCN7android5BpOMXE0_NS_10IInterfaceE
V _ZTCN7android5BpOMXE0_NS_11BpInterfaceINS_4IOMXEEE
V _ZTCN7android5BpOMXE0_NS_4IOMXE
V _ZTCN7android5BpOMXE4_NS_9BpRefBaseE
D _ZTCN7android7IEffectE0_NS_10IInterfaceE
D _ZTCN7android8BnEffectE0_NS_10IInterfaceE
D _ZTCN7android8BnEffectE0_NS_11BnInterfaceINS_7IEffectEEE
D _ZTCN7android8BnEffectE0_NS_7IEffectE
D _ZTCN7android8BnEffectE4_NS_7BBinderE
D _ZTCN7android8BnEffectE4_NS_7IBinderE
V _ZTCN7android8BpEffectE0_NS_10IInterfaceE
V _ZTCN7android8BpEffectE0_NS_11BpInterfaceINS_7IEffectEEE
V _ZTCN7android8BpEffectE0_NS_7IEffectE
V _ZTCN7android8BpEffectE4_NS_9BpRefBaseE
D _ZTTN7android10AudioTrack16AudioTrackThreadE
D _ZTTN7android10Visualizer13CaptureThreadE
V _ZTTN7android11AudioEffect12EffectClientE
D _ZTTN7android11AudioRecord18ClientRecordThreadE
D _ZTTN7android11AudioSystem18AudioFlingerClientE
D _ZTTN7android11AudioSystem24AudioPolicyServiceClientE
V _ZTTN7android11BnInterfaceINS_11IAudioTrackEEE
V _ZTTN7android11BnInterfaceINS_12IAudioRecordEEE
V _ZTTN7android11BnInterfaceINS_12IMediaPlayerEEE
V _ZTTN7android11BnInterfaceINS_12IOMXObserverEEE
V _ZTTN7android11BnInterfaceINS_12IOMXRendererEEE
V _ZTTN7android11BnInterfaceINS_13IAudioFlingerEEE
V _ZTTN7android11BnInterfaceINS_13IEffectClientEEE
V _ZTTN7android11BnInterfaceINS_14IMediaRecorderEEE
V _ZTTN7android11BnInterfaceINS_18IMediaPlayerClientEEE
V _ZTTN7android11BnInterfaceINS_19IAudioFlingerClientEEE
V _ZTTN7android11BnInterfaceINS_19IAudioPolicyServiceEEE
V _ZTTN7android11BnInterfaceINS_19IMediaPlayerServiceEEE
V _ZTTN7android11BnInterfaceINS_20IMediaRecorderClientEEE
V _ZTTN7android11BnInterfaceINS_23IMediaMetadataRetrieverEEE
V _ZTTN7android11BnInterfaceINS_4IOMXEEE
V _ZTTN7android11BnInterfaceINS_7IEffectEEE
V _ZTTN7android11BpInterfaceINS_11IAudioTrackEEE
V _ZTTN7android11BpInterfaceINS_12IAudioRecordEEE
V _ZTTN7android11BpInterfaceINS_12IMediaPlayerEEE
V _ZTTN7android11BpInterfaceINS_12IOMXObserverEEE
V _ZTTN7android11BpInterfaceINS_12IOMXRendererEEE
V _ZTTN7android11BpInterfaceINS_13IAudioFlingerEEE
V _ZTTN7android11BpInterfaceINS_13IEffectClientEEE
V _ZTTN7android11BpInterfaceINS_14IMediaRecorderEEE
V _ZTTN7android11BpInterfaceINS_18IMediaPlayerClientEEE
V _ZTTN7android11BpInterfaceINS_19IAudioFlingerClientEEE
V _ZTTN7android11BpInterfaceINS_19IAudioPolicyServiceEEE
V _ZTTN7android11BpInterfaceINS_19IMediaPlayerServiceEEE
V _ZTTN7android11BpInterfaceINS_20IMediaRecorderClientEEE
V _ZTTN7android11BpInterfaceINS_23IMediaMetadataRetrieverEEE
V _ZTTN7android11BpInterfaceINS_4IOMXEEE
V _ZTTN7android11BpInterfaceINS_7IEffectEEE
D _ZTTN7android11IAudioTrackE
D _ZTTN7android11MediaPlayerE
D _ZTTN7android12BnAudioTrackE
V _ZTTN7android12BpAudioTrackE
D _ZTTN7android12IAudioRecordE
D _ZTTN7android12IMediaPlayerE
D _ZTTN7android12IOMXObserverE
D _ZTTN7android12IOMXRendererE
D _ZTTN7android13BnAudioRecordE
D _ZTTN7android13BnMediaPlayerE
D _ZTTN7android13BnOMXObserverE
D _ZTTN7android13BnOMXRendererE
V _ZTTN7android13BpAudioRecordE
V _ZTTN7android13BpMediaPlayerE
V _ZTTN7android13BpOMXObserverE
V _ZTTN7android13BpOMXRendererE
D _ZTTN7android13IAudioFlingerE
D _ZTTN7android13IEffectClientE
D _ZTTN7android13MediaRecorderE
D _ZTTN7android14BnAudioFlingerE
D _ZTTN7android14BnEffectClientE
V _ZTTN7android14BpAudioFlingerE
V _ZTTN7android14BpEffectClientE
D _ZTTN7android14IMediaRecorderE
D _ZTTN7android15BnMediaRecorderE
V _ZTTN7android15BpMediaRecorderE
D _ZTTN7android18IMediaPlayerClientE
D _ZTTN7android19BnMediaPlayerClientE
V _ZTTN7android19BpMediaPlayerClientE
D _ZTTN7android19IAudioFlingerClientE
D _ZTTN7android19IAudioPolicyServiceE
D _ZTTN7android19IMediaDeathNotifier13DeathNotifierE
V _ZTTN7android19IMediaDeathNotifierE
D _ZTTN7android19IMediaPlayerServiceE
D _ZTTN7android20BnAudioFlingerClientE
D _ZTTN7android20BnAudioPolicyServiceE
D _ZTTN7android20BnMediaPlayerServiceE
V _ZTTN7android20BpAudioFlingerClientE
V _ZTTN7android20BpAudioPolicyServiceE
V _ZTTN7android20BpMediaPlayerServiceE
D _ZTTN7android20IMediaRecorderClientE
D _ZTTN7android21BnMediaRecorderClientE
V _ZTTN7android21BpMediaRecorderClientE
D _ZTTN7android22MediaMetadataRetriever13DeathNotifierE
D _ZTTN7android23IMediaMetadataRetrieverE
D _ZTTN7android24BnMediaMetadataRetrieverE
V _ZTTN7android24BpMediaMetadataRetrieverE
D _ZTTN7android4IOMXE
D _ZTTN7android5BnOMXE
V _ZTTN7android5BpOMXE
V _ZTTN7android7IBinder14DeathRecipientE
D _ZTTN7android7IEffectE
D _ZTTN7android8BnEffectE
V _ZTTN7android8BpEffectE
D _ZTVN7android10AudioTrack16AudioTrackThreadE
D _ZTVN7android10Visualizer13CaptureThreadE
D _ZTVN7android10VisualizerE
V _ZTVN7android11AudioEffect12EffectClientE
D _ZTVN7android11AudioEffectE
D _ZTVN7android11AudioRecord18ClientRecordThreadE
D _ZTVN7android11AudioSystem18AudioFlingerClientE
D _ZTVN7android11AudioSystem24AudioPolicyServiceClientE
V _ZTVN7android11BnInterfaceINS_11IAudioTrackEEE
V _ZTVN7android11BnInterfaceINS_12IAudioRecordEEE
V _ZTVN7android11BnInterfaceINS_12IMediaPlayerEEE
V _ZTVN7android11BnInterfaceINS_12IOMXObserverEEE
V _ZTVN7android11BnInterfaceINS_12IOMXRendererEEE
V _ZTVN7android11BnInterfaceINS_13IAudioFlingerEEE
V _ZTVN7android11BnInterfaceINS_13IEffectClientEEE
V _ZTVN7android11BnInterfaceINS_14IMediaRecorderEEE
V _ZTVN7android11BnInterfaceINS_18IMediaPlayerClientEEE
V _ZTVN7android11BnInterfaceINS_19IAudioFlingerClientEEE
V _ZTVN7android11BnInterfaceINS_19IAudioPolicyServiceEEE
V _ZTVN7android11BnInterfaceINS_19IMediaPlayerServiceEEE
V _ZTVN7android11BnInterfaceINS_20IMediaRecorderClientEEE
V _ZTVN7android11BnInterfaceINS_23IMediaMetadataRetrieverEEE
V _ZTVN7android11BnInterfaceINS_4IOMXEEE
V _ZTVN7android11BnInterfaceINS_7IEffectEEE
V _ZTVN7android11BpInterfaceINS_11IAudioTrackEEE
V _ZTVN7android11BpInterfaceINS_12IAudioRecordEEE
V _ZTVN7android11BpInterfaceINS_12IMediaPlayerEEE
V _ZTVN7android11BpInterfaceINS_12IOMXObserverEEE
V _ZTVN7android11BpInterfaceINS_12IOMXRendererEEE
V _ZTVN7android11BpInterfaceINS_13IAudioFlingerEEE
V _ZTVN7android11BpInterfaceINS_13IEffectClientEEE
V _ZTVN7android11BpInterfaceINS_14IMediaRecorderEEE
V _ZTVN7android11BpInterfaceINS_18IMediaPlayerClientEEE
V _ZTVN7android11BpInterfaceINS_19IAudioFlingerClientEEE
V _ZTVN7android11BpInterfaceINS_19IAudioPolicyServiceEEE
V _ZTVN7android11BpInterfaceINS_19IMediaPlayerServiceEEE
V _ZTVN7android11BpInterfaceINS_20IMediaRecorderClientEEE
V _ZTVN7android11BpInterfaceINS_23IMediaMetadataRetrieverEEE
V _ZTVN7android11BpInterfaceINS_4IOMXEEE
V _ZTVN7android11BpInterfaceINS_7IEffectEEE
D _ZTVN7android11IAudioTrackE
D _ZTVN7android11MediaPlayerE
D _ZTVN7android12BnAudioTrackE
V _ZTVN7android12BpAudioTrackE
D _ZTVN7android12IAudioRecordE
D _ZTVN7android12IMediaPlayerE
D _ZTVN7android12IOMXObserverE
D _ZTVN7android12IOMXRendererE
D _ZTVN7android12MediaScannerE
V _ZTVN7android12SortedVectorINS_16key_value_pair_tINS_7String8ES2_EEEE
V _ZTVN7android12SortedVectorINS_16key_value_pair_tIiPNS_11AudioSystem16OutputDescriptorEEEEE
V _ZTVN7android12SortedVectorINS_16key_value_pair_tIiiEEEE
V _ZTVN7android12SortedVectorINS_16key_value_pair_tItPNS_13ToneGenerator13WaveGeneratorEEEEE
V _ZTVN7android12SortedVectorINS_2wpINS_19IMediaDeathNotifierEEEEE
D _ZTVN7android13BnAudioRecordE
D _ZTVN7android13BnMediaPlayerE
D _ZTVN7android13BnOMXObserverE
D _ZTVN7android13BnOMXRendererE
V _ZTVN7android13BpAudioRecordE
V _ZTVN7android13BpMediaPlayerE
V _ZTVN7android13BpOMXObserverE
V _ZTVN7android13BpOMXRendererE
D _ZTVN7android13IAudioFlingerE
D _ZTVN7android13IEffectClientE
D _ZTVN7android13MediaRecorderE
D _ZTVN7android14AudioParameterE
D _ZTVN7android14BnAudioFlingerE
D _ZTVN7android14BnEffectClientE
V _ZTVN7android14BpAudioFlingerE
V _ZTVN7android14BpEffectClientE
D _ZTVN7android14IMediaRecorderE
D _ZTVN7android15BnMediaRecorderE
V _ZTVN7android15BpMediaRecorderE
D _ZTVN7android18IMediaPlayerClientE
D _ZTVN7android18MediaScannerClientE
D _ZTVN7android19BnMediaPlayerClientE
V _ZTVN7android19BpMediaPlayerClientE
D _ZTVN7android19IAudioFlingerClientE
D _ZTVN7android19IAudioPolicyServiceE
D _ZTVN7android19IMediaDeathNotifier13DeathNotifierE
V _ZTVN7android19IMediaDeathNotifierE
D _ZTVN7android19IMediaPlayerServiceE
D _ZTVN7android20BnAudioFlingerClientE
D _ZTVN7android20BnAudioPolicyServiceE
D _ZTVN7android20BnMediaPlayerServiceE
V _ZTVN7android20BpAudioFlingerClientE
V _ZTVN7android20BpAudioPolicyServiceE
V _ZTVN7android20BpMediaPlayerServiceE
D _ZTVN7android20IMediaRecorderClientE
D _ZTVN7android21BnMediaRecorderClientE
V _ZTVN7android21BpMediaRecorderClientE
D _ZTVN7android22MediaMetadataRetriever13DeathNotifierE
D _ZTVN7android22MediaMetadataRetrieverE
D _ZTVN7android23IMediaMetadataRetrieverE
D _ZTVN7android24BnMediaMetadataRetrieverE
V _ZTVN7android24BpMediaMetadataRetrieverE
D _ZTVN7android4IOMXE
V _ZTVN7android4ListINS_4IOMX13ComponentInfoEEE
V _ZTVN7android4ListINS_7String8EEE
D _ZTVN7android5BnOMXE
V _ZTVN7android5BpOMXE
V _ZTVN7android6VectorINS_13audio_decoderEEE
V _ZTVN7android6VectorINS_13audio_encoderEEE
V _ZTVN7android6VectorINS_13output_formatEEE
V _ZTVN7android6VectorINS_13video_decoderEEE
V _ZTVN7android6VectorINS_13video_encoderEEE
V _ZTVN7android6VectorIPNS_13MediaProfiles15AudioDecoderCapEEE
V _ZTVN7android6VectorIPNS_13MediaProfiles15AudioEncoderCapEEE
V _ZTVN7android6VectorIPNS_13MediaProfiles15VideoDecoderCapEEE
V _ZTVN7android6VectorIPNS_13MediaProfiles15VideoEncoderCapEEE
V _ZTVN7android6VectorIPNS_13MediaProfiles16CamcorderProfileEEE
V _ZTVN7android6VectorIPNS_13MediaProfiles26ImageEncodingQualityLevelsEEE
V _ZTVN7android6VectorIiEE
V _ZTVN7android7IBinder14DeathRecipientE
D _ZTVN7android7IEffectE
D _ZTVN7android8BnEffectE
V _ZTVN7android8BpEffectE
T _ZThn4_N7android11AudioSystem18AudioFlingerClient15ioConfigChangedEiiPv
T _ZThn4_N7android11MediaPlayerD0Ev
T _ZThn4_N7android11MediaPlayerD1Ev
T _ZThn4_N7android12BnAudioTrack10onTransactEjRKNS_6ParcelEPS1_j
T _ZThn4_N7android13BnAudioRecord10onTransactEjRKNS_6ParcelEPS1_j
T _ZThn4_N7android13BnMediaPlayer10onTransactEjRKNS_6ParcelEPS1_j
T _ZThn4_N7android13BnOMXObserver10onTransactEjRKNS_6ParcelEPS1_j
T _ZThn4_N7android13BnOMXRenderer10onTransactEjRKNS_6ParcelEPS1_j
T _ZThn4_N7android13MediaRecorderD0Ev
T _ZThn4_N7android13MediaRecorderD1Ev
T _ZThn4_N7android14BnAudioFlinger10onTransactEjRKNS_6ParcelEPS1_j
T _ZThn4_N7android14BnEffectClient10onTransactEjRKNS_6ParcelEPS1_j
T _ZThn4_N7android15BnMediaRecorder10onTransactEjRKNS_6ParcelEPS1_j
T _ZThn4_N7android19BnMediaPlayerClient10onTransactEjRKNS_6ParcelEPS1_j
T _ZThn4_N7android20BnAudioFlingerClient10onTransactEjRKNS_6ParcelEPS1_j
T _ZThn4_N7android20BnAudioPolicyService10onTransactEjRKNS_6ParcelEPS1_j
T _ZThn4_N7android20BnMediaPlayerService10onTransactEjRKNS_6ParcelEPS1_j
T _ZThn4_N7android21BnMediaRecorderClient10onTransactEjRKNS_6ParcelEPS1_j
T _ZThn4_N7android24BnMediaMetadataRetriever10onTransactEjRKNS_6ParcelEPS1_j
T _ZThn4_N7android5BnOMX10onTransactEjRKNS_6ParcelEPS1_j
T _ZThn4_N7android8BnEffect10onTransactEjRKNS_6ParcelEPS1_j
W _ZTv0_n12_N7android10AudioTrack16AudioTrackThreadD0Ev
W _ZTv0_n12_N7android10AudioTrack16AudioTrackThreadD1Ev
U _ZTv0_n12_N7android10IInterfaceD0Ev
U _ZTv0_n12_N7android10IInterfaceD1Ev
W _ZTv0_n12_N7android10Visualizer13CaptureThreadD0Ev
W _ZTv0_n12_N7android10Visualizer13CaptureThreadD1Ev
W _ZTv0_n12_N7android11AudioEffect12EffectClientD0Ev
W _ZTv0_n12_N7android11AudioEffect12EffectClientD1Ev
W _ZTv0_n12_N7android11AudioRecord18ClientRecordThreadD0Ev
W _ZTv0_n12_N7android11AudioRecord18ClientRecordThreadD1Ev
W _ZTv0_n12_N7android11AudioSystem18AudioFlingerClientD0Ev
W _ZTv0_n12_N7android11AudioSystem18AudioFlingerClientD1Ev
W _ZTv0_n12_N7android11AudioSystem24AudioPolicyServiceClientD0Ev
W _ZTv0_n12_N7android11AudioSystem24AudioPolicyServiceClientD1Ev
W _ZTv0_n12_N7android11BnInterfaceINS_11IAudioTrackEED0Ev
W _ZTv0_n12_N7android11BnInterfaceINS_11IAudioTrackEED1Ev
W _ZTv0_n12_N7android11BnInterfaceINS_12IAudioRecordEED0Ev
W _ZTv0_n12_N7android11BnInterfaceINS_12IAudioRecordEED1Ev
W _ZTv0_n12_N7android11BnInterfaceINS_12IMediaPlayerEED0Ev
W _ZTv0_n12_N7android11BnInterfaceINS_12IMediaPlayerEED1Ev
W _ZTv0_n12_N7android11BnInterfaceINS_12IOMXObserverEED0Ev
W _ZTv0_n12_N7android11BnInterfaceINS_12IOMXObserverEED1Ev
W _ZTv0_n12_N7android11BnInterfaceINS_12IOMXRendererEED0Ev
W _ZTv0_n12_N7android11BnInterfaceINS_12IOMXRendererEED1Ev
W _ZTv0_n12_N7android11BnInterfaceINS_13IAudioFlingerEED0Ev
W _ZTv0_n12_N7android11BnInterfaceINS_13IAudioFlingerEED1Ev
W _ZTv0_n12_N7android11BnInterfaceINS_13IEffectClientEED0Ev
W _ZTv0_n12_N7android11BnInterfaceINS_13IEffectClientEED1Ev
W _ZTv0_n12_N7android11BnInterfaceINS_14IMediaRecorderEED0Ev
W _ZTv0_n12_N7android11BnInterfaceINS_14IMediaRecorderEED1Ev
W _ZTv0_n12_N7android11BnInterfaceINS_18IMediaPlayerClientEED0Ev
W _ZTv0_n12_N7android11BnInterfaceINS_18IMediaPlayerClientEED1Ev
W _ZTv0_n12_N7android11BnInterfaceINS_19IAudioFlingerClientEED0Ev
W _ZTv0_n12_N7android11BnInterfaceINS_19IAudioFlingerClientEED1Ev
W _ZTv0_n12_N7android11BnInterfaceINS_19IAudioPolicyServiceEED0Ev
W _ZTv0_n12_N7android11BnInterfaceINS_19IAudioPolicyServiceEED1Ev
W _ZTv0_n12_N7android11BnInterfaceINS_19IMediaPlayerServiceEED0Ev
W _ZTv0_n12_N7android11BnInterfaceINS_19IMediaPlayerServiceEED1Ev
W _ZTv0_n12_N7android11BnInterfaceINS_20IMediaRecorderClientEED0Ev
W _ZTv0_n12_N7android11BnInterfaceINS_20IMediaRecorderClientEED1Ev
W _ZTv0_n12_N7android11BnInterfaceINS_23IMediaMetadataRetrieverEED0Ev
W _ZTv0_n12_N7android11BnInterfaceINS_23IMediaMetadataRetrieverEED1Ev
W _ZTv0_n12_N7android11BnInterfaceINS_4IOMXEED0Ev
W _ZTv0_n12_N7android11BnInterfaceINS_4IOMXEED1Ev
W _ZTv0_n12_N7android11BnInterfaceINS_7IEffectEED0Ev
W _ZTv0_n12_N7android11BnInterfaceINS_7IEffectEED1Ev
W _ZTv0_n12_N7android11BpInterfaceINS_11IAudioTrackEED0Ev
W _ZTv0_n12_N7android11BpInterfaceINS_11IAudioTrackEED1Ev
W _ZTv0_n12_N7android11BpInterfaceINS_12IAudioRecordEED0Ev
W _ZTv0_n12_N7android11BpInterfaceINS_12IAudioRecordEED1Ev
W _ZTv0_n12_N7android11BpInterfaceINS_12IMediaPlayerEED0Ev
W _ZTv0_n12_N7android11BpInterfaceINS_12IMediaPlayerEED1Ev
W _ZTv0_n12_N7android11BpInterfaceINS_12IOMXObserverEED0Ev
W _ZTv0_n12_N7android11BpInterfaceINS_12IOMXObserverEED1Ev
W _ZTv0_n12_N7android11BpInterfaceINS_12IOMXRendererEED0Ev
W _ZTv0_n12_N7android11BpInterfaceINS_12IOMXRendererEED1Ev
W _ZTv0_n12_N7android11BpInterfaceINS_13IAudioFlingerEED0Ev
W _ZTv0_n12_N7android11BpInterfaceINS_13IAudioFlingerEED1Ev
W _ZTv0_n12_N7android11BpInterfaceINS_13IEffectClientEED0Ev
W _ZTv0_n12_N7android11BpInterfaceINS_13IEffectClientEED1Ev
W _ZTv0_n12_N7android11BpInterfaceINS_14IMediaRecorderEED0Ev
W _ZTv0_n12_N7android11BpInterfaceINS_14IMediaRecorderEED1Ev
W _ZTv0_n12_N7android11BpInterfaceINS_18IMediaPlayerClientEED0Ev
W _ZTv0_n12_N7android11BpInterfaceINS_18IMediaPlayerClientEED1Ev
W _ZTv0_n12_N7android11BpInterfaceINS_19IAudioFlingerClientEED0Ev
W _ZTv0_n12_N7android11BpInterfaceINS_19IAudioFlingerClientEED1Ev
W _ZTv0_n12_N7android11BpInterfaceINS_19IAudioPolicyServiceEED0Ev
W _ZTv0_n12_N7android11BpInterfaceINS_19IAudioPolicyServiceEED1Ev
W _ZTv0_n12_N7android11BpInterfaceINS_19IMediaPlayerServiceEED0Ev
W _ZTv0_n12_N7android11BpInterfaceINS_19IMediaPlayerServiceEED1Ev
W _ZTv0_n12_N7android11BpInterfaceINS_20IMediaRecorderClientEED0Ev
W _ZTv0_n12_N7android11BpInterfaceINS_20IMediaRecorderClientEED1Ev
W _ZTv0_n12_N7android11BpInterfaceINS_23IMediaMetadataRetrieverEED0Ev
W _ZTv0_n12_N7android11BpInterfaceINS_23IMediaMetadataRetrieverEED1Ev
W _ZTv0_n12_N7android11BpInterfaceINS_4IOMXEED0Ev
W _ZTv0_n12_N7android11BpInterfaceINS_4IOMXEED1Ev
W _ZTv0_n12_N7android11BpInterfaceINS_7IEffectEED0Ev
W _ZTv0_n12_N7android11BpInterfaceINS_7IEffectEED1Ev
T _ZTv0_n12_N7android11IAudioTrackD0Ev
T _ZTv0_n12_N7android11IAudioTrackD1Ev
T _ZTv0_n12_N7android11MediaPlayerD0Ev
T _ZTv0_n12_N7android11MediaPlayerD1Ev
W _ZTv0_n12_N7android12BnAudioTrackD0Ev
W _ZTv0_n12_N7android12BnAudioTrackD1Ev
W _ZTv0_n12_N7android12BpAudioTrackD0Ev
W _ZTv0_n12_N7android12BpAudioTrackD1Ev
T _ZTv0_n12_N7android12IAudioRecordD0Ev
T _ZTv0_n12_N7android12IAudioRecordD1Ev
T _ZTv0_n12_N7android12IMediaPlayerD0Ev
T _ZTv0_n12_N7android12IMediaPlayerD1Ev
T _ZTv0_n12_N7android12IOMXObserverD0Ev
T _ZTv0_n12_N7android12IOMXObserverD1Ev
T _ZTv0_n12_N7android12IOMXRendererD0Ev
T _ZTv0_n12_N7android12IOMXRendererD1Ev
W _ZTv0_n12_N7android13BnAudioRecordD0Ev
W _ZTv0_n12_N7android13BnAudioRecordD1Ev
W _ZTv0_n12_N7android13BnMediaPlayerD0Ev
W _ZTv0_n12_N7android13BnMediaPlayerD1Ev
W _ZTv0_n12_N7android13BnOMXObserverD0Ev
W _ZTv0_n12_N7android13BnOMXObserverD1Ev
W _ZTv0_n12_N7android13BnOMXRendererD0Ev
W _ZTv0_n12_N7android13BnOMXRendererD1Ev
W _ZTv0_n12_N7android13BpAudioRecordD0Ev
W _ZTv0_n12_N7android13BpAudioRecordD1Ev
W _ZTv0_n12_N7android13BpMediaPlayerD0Ev
W _ZTv0_n12_N7android13BpMediaPlayerD1Ev
W _ZTv0_n12_N7android13BpOMXObserverD0Ev
W _ZTv0_n12_N7android13BpOMXObserverD1Ev
W _ZTv0_n12_N7android13BpOMXRendererD0Ev
W _ZTv0_n12_N7android13BpOMXRendererD1Ev
T _ZTv0_n12_N7android13IAudioFlingerD0Ev
T _ZTv0_n12_N7android13IAudioFlingerD1Ev
T _ZTv0_n12_N7android13IEffectClientD0Ev
T _ZTv0_n12_N7android13IEffectClientD1Ev
T _ZTv0_n12_N7android13MediaRecorderD0Ev
T _ZTv0_n12_N7android13MediaRecorderD1Ev
W _ZTv0_n12_N7android14BnAudioFlingerD0Ev
W _ZTv0_n12_N7android14BnAudioFlingerD1Ev
W _ZTv0_n12_N7android14BnEffectClientD0Ev
W _ZTv0_n12_N7android14BnEffectClientD1Ev
W _ZTv0_n12_N7android14BpAudioFlingerD0Ev
W _ZTv0_n12_N7android14BpAudioFlingerD1Ev
W _ZTv0_n12_N7android14BpEffectClientD0Ev
W _ZTv0_n12_N7android14BpEffectClientD1Ev
T _ZTv0_n12_N7android14IMediaRecorderD0Ev
T _ZTv0_n12_N7android14IMediaRecorderD1Ev
W _ZTv0_n12_N7android15BnMediaRecorderD0Ev
W _ZTv0_n12_N7android15BnMediaRecorderD1Ev
W _ZTv0_n12_N7android15BpMediaRecorderD0Ev
W _ZTv0_n12_N7android15BpMediaRecorderD1Ev
T _ZTv0_n12_N7android18IMediaPlayerClientD0Ev
T _ZTv0_n12_N7android18IMediaPlayerClientD1Ev
W _ZTv0_n12_N7android19BnMediaPlayerClientD0Ev
W _ZTv0_n12_N7android19BnMediaPlayerClientD1Ev
W _ZTv0_n12_N7android19BpMediaPlayerClientD0Ev
W _ZTv0_n12_N7android19BpMediaPlayerClientD1Ev
T _ZTv0_n12_N7android19IAudioFlingerClientD0Ev
T _ZTv0_n12_N7android19IAudioFlingerClientD1Ev
T _ZTv0_n12_N7android19IAudioPolicyServiceD0Ev
T _ZTv0_n12_N7android19IAudioPolicyServiceD1Ev
T _ZTv0_n12_N7android19IMediaDeathNotifier13DeathNotifierD0Ev
T _ZTv0_n12_N7android19IMediaDeathNotifier13DeathNotifierD1Ev
W _ZTv0_n12_N7android19IMediaDeathNotifierD0Ev
W _ZTv0_n12_N7android19IMediaDeathNotifierD1Ev
T _ZTv0_n12_N7android19IMediaPlayerServiceD0Ev
T _ZTv0_n12_N7android19IMediaPlayerServiceD1Ev
W _ZTv0_n12_N7android20BnAudioFlingerClientD0Ev
W _ZTv0_n12_N7android20BnAudioFlingerClientD1Ev
W _ZTv0_n12_N7android20BnAudioPolicyServiceD0Ev
W _ZTv0_n12_N7android20BnAudioPolicyServiceD1Ev
W _ZTv0_n12_N7android20BnMediaPlayerServiceD0Ev
W _ZTv0_n12_N7android20BnMediaPlayerServiceD1Ev
W _ZTv0_n12_N7android20BpAudioFlingerClientD0Ev
W _ZTv0_n12_N7android20BpAudioFlingerClientD1Ev
W _ZTv0_n12_N7android20BpAudioPolicyServiceD0Ev
W _ZTv0_n12_N7android20BpAudioPolicyServiceD1Ev
W _ZTv0_n12_N7android20BpMediaPlayerServiceD0Ev
W _ZTv0_n12_N7android20BpMediaPlayerServiceD1Ev
T _ZTv0_n12_N7android20IMediaRecorderClientD0Ev
T _ZTv0_n12_N7android20IMediaRecorderClientD1Ev
W _ZTv0_n12_N7android21BnMediaRecorderClientD0Ev
W _ZTv0_n12_N7android21BnMediaRecorderClientD1Ev
W _ZTv0_n12_N7android21BpMediaRecorderClientD0Ev
W _ZTv0_n12_N7android21BpMediaRecorderClientD1Ev
T _ZTv0_n12_N7android22MediaMetadataRetriever13DeathNotifierD0Ev
T _ZTv0_n12_N7android22MediaMetadataRetriever13DeathNotifierD1Ev
T _ZTv0_n12_N7android23IMediaMetadataRetrieverD0Ev
T _ZTv0_n12_N7android23IMediaMetadataRetrieverD1Ev
W _ZTv0_n12_N7android24BnMediaMetadataRetrieverD0Ev
W _ZTv0_n12_N7android24BnMediaMetadataRetrieverD1Ev
W _ZTv0_n12_N7android24BpMediaMetadataRetrieverD0Ev
W _ZTv0_n12_N7android24BpMediaMetadataRetrieverD1Ev
T _ZTv0_n12_N7android4IOMXD0Ev
T _ZTv0_n12_N7android4IOMXD1Ev
W _ZTv0_n12_N7android5BnOMXD0Ev
W _ZTv0_n12_N7android5BnOMXD1Ev
W _ZTv0_n12_N7android5BpOMXD0Ev
W _ZTv0_n12_N7android5BpOMXD1Ev
U _ZTv0_n12_N7android6ThreadD0Ev
U _ZTv0_n12_N7android6ThreadD1Ev
U _ZTv0_n12_N7android7BBinderD0Ev
U _ZTv0_n12_N7android7BBinderD1Ev
W _ZTv0_n12_N7android7IBinder14DeathRecipientD0Ev
W _ZTv0_n12_N7android7IBinder14DeathRecipientD1Ev
U _ZTv0_n12_N7android7IBinderD0Ev
U _ZTv0_n12_N7android7IBinderD1Ev
T _ZTv0_n12_N7android7IEffectD0Ev
T _ZTv0_n12_N7android7IEffectD1Ev
W _ZTv0_n12_N7android8BnEffectD0Ev
W _ZTv0_n12_N7android8BnEffectD1Ev
W _ZTv0_n12_N7android8BpEffectD0Ev
W _ZTv0_n12_N7android8BpEffectD1Ev
U _ZTv0_n12_N7android9BpRefBaseD0Ev
U _ZTv0_n12_N7android9BpRefBaseD1Ev
T _ZTv0_n16_N7android10AudioTrack16AudioTrackThread10onFirstRefEv
T _ZTv0_n16_N7android10Visualizer13CaptureThread10onFirstRefEv
W _ZTv0_n16_N7android11AudioRecord18ClientRecordThread10onFirstRefEv
T _ZTv0_n16_N7android11MediaPlayerD0Ev
T _ZTv0_n16_N7android11MediaPlayerD1Ev
T _ZTv0_n16_N7android13MediaRecorderD0Ev
T _ZTv0_n16_N7android13MediaRecorderD1Ev
U _ZTv0_n16_N7android9BpRefBase10onFirstRefEv
T _ZTv0_n20_N7android11MediaPlayer4diedEv
T _ZTv0_n20_N7android13MediaRecorder4diedEv
U _ZTv0_n20_N7android9BpRefBase15onLastStrongRefEPKv
U _ZTv0_n24_N7android9BpRefBase20onIncStrongAttemptedEjPKv
U _ZdaPv
U _ZdlPv
U _Znaj
U _Znwj
T __FINI_ARRAY__
T __INIT_ARRAY__
U __aeabi_atexit
U __aeabi_d2f
U __aeabi_d2iz
U __aeabi_dadd
U __aeabi_dcmpgt
U __aeabi_ddiv
U __aeabi_dmul
U __aeabi_f2d
T __aeabi_f2uiz
U __aeabi_fcmpeq
U __aeabi_fcmpgt
U __aeabi_fdiv
U __aeabi_fmul
U __aeabi_i2d
U __aeabi_i2f
U __aeabi_idiv
T __aeabi_lcmp
U __aeabi_ldivmod
U __aeabi_lmul
U __aeabi_ui2d
U __aeabi_ui2f
U __aeabi_uidiv
U __aeabi_unwind_cpp_pr0
U __android_log_assert
U __android_log_print
A __bss_end__
A __bss_start
A __bss_start__
U __cxa_finalize
U __cxa_pure_virtual
D __data_start
B __dso_handle
A __end__
U __errno
A __exidx_end
A __exidx_start
T __fixunssfsi
U __stack_chk_fail
U __stack_chk_guard
A _bss_end__
A _edata
A _end
A _stack
U access
U androidCreateThreadEtc
U androidGetThreadId
U android_atomic_and
U android_atomic_or
U atoi
U close
U closedir
U cos
U dup
U exp
U fclose
U fopen
U fread
U free
U get_sched_policy
U getpid
U gettid
U log
U malloc
U memcpy
U memmove
U memset
U opendir
U property_get
U pthread_cond_destroy
U pthread_cond_init
U pthread_cond_signal
U pthread_cond_timedwait_relative_np
U pthread_cond_wait
U pthread_condattr_destroy
U pthread_condattr_init
U pthread_condattr_setpshared
U pthread_mutex_destroy
U pthread_mutex_init
U pthread_mutex_lock
U pthread_mutex_trylock
U pthread_mutex_unlock
U pthread_mutexattr_destroy
U pthread_mutexattr_init
U pthread_mutexattr_setpshared
U readdir
U set_sched_policy
U setpriority
U sin
U snprintf
U sscanf
U stat
U strcat
U strchr
U strcmp
U strcpy
U strcspn
U strdup
U strerror
U strlen
U strncasecmp
U strncmp
U strncpy
U strrchr
U strtok
U strzcmp16
U systemTime
U ucnv_close_44
U ucnv_convertEx_44
U ucnv_open_44
U usleep
U write
