U BIO_number_read
U BIO_number_written
U BN_CTX_free
U BN_CTX_new
U BN_add
U BN_add_word
U BN_bin2bn
U BN_bn2bin
U BN_bn2dec
U BN_bn2hex
U BN_clear_bit
U BN_cmp
U BN_copy
U BN_dec2bn
U BN_div
U BN_div_word
U BN_exp
U BN_free
U BN_gcd
U BN_generate_prime_ex
U BN_hex2bn
U BN_is_bit_set
U BN_is_prime_ex
U BN_lshift
U BN_mod_exp
U BN_mod_inverse
U BN_mod_word
U BN_mul
U BN_mul_word
U BN_new
U BN_nnmod
U BN_num_bits
U BN_num_bits_word
U BN_rshift
U BN_set_bit
U BN_set_negative
U BN_set_word
U BN_sub
U BN_sub_word
U CRYPTO_free
U CRYPTO_num_locks
U CRYPTO_set_id_callback
U CRYPTO_set_locking_callback
U DSA_dup_DH
U DSA_free
U DSA_generate_parameters_ex
U DSA_new
U ERR_clear_error
U ERR_error_string
U ERR_error_string_n
U ERR_get_error
U ERR_get_error_line_data
U ERR_load_crypto_strings
U ERR_peek_error
U ERR_remove_state
U EVP_DigestFinal
U EVP_DigestInit
U EVP_DigestInit_ex
U EVP_DigestUpdate
U EVP_MD_CTX_cleanup
U EVP_MD_CTX_copy_ex
U EVP_MD_CTX_create
U EVP_MD_CTX_destroy
U EVP_MD_CTX_init
U EVP_MD_CTX_md
U EVP_MD_block_size
U EVP_MD_size
U EVP_PKCS82PKEY
U EVP_PKEY_assign
U EVP_PKEY_free
U EVP_PKEY_new
U EVP_PKEY_set1_RSA
U EVP_VerifyFinal
U EVP_get_digestbyname
U OBJ_nid2sn
U OBJ_txt2nid
U OPENSSL_add_all_algorithms_noconf
U PKCS8_PRIV_KEY_INFO_free
U RAND_load_file
U RAND_seed
U RSA_free
U RSA_generate_key_ex
U RSA_new
U SSL_CIPHER_get_name
U SSL_CIPHER_get_version
U SSL_CTX_ctrl
U SSL_CTX_free
U SSL_CTX_new
U SSL_CTX_set_cert_verify_callback
U SSL_CTX_set_client_cert_cb
U SSL_CTX_set_info_callback
U SSL_CTX_set_tmp_dh_callback
U SSL_CTX_set_tmp_rsa_callback
U SSL_SESSION_free
U SSL_SESSION_get_time
U SSL_check_private_key
U SSL_clear
U SSL_ctrl
U SSL_do_handshake
U SSL_free
U SSL_get1_session
U SSL_get_certificate
U SSL_get_certificate_chain
U SSL_get_error
U SSL_get_ex_data
U SSL_get_ex_data_X509_STORE_CTX_idx
U SSL_get_fd
U SSL_get_peer_cert_chain
U SSL_get_peer_certificate
U SSL_get_privatekey
U SSL_get_rbio
U SSL_get_servername
U SSL_get_wbio
U SSL_library_init
U SSL_load_error_strings
U SSL_new
U SSL_read
U SSL_renegotiate
U SSL_set_accept_state
U SSL_set_cipher_lists
U SSL_set_client_CA_list
U SSL_set_connect_state
U SSL_set_ex_data
U SSL_set_fd
U SSL_set_session
U SSL_set_session_creation_enabled
U SSL_set_verify
U SSL_shutdown
U SSL_use_PrivateKey
U SSL_use_certificate
U SSL_use_certificate_chain
U SSL_write
U SSLv23_method
U UCNV_FROM_U_CALLBACK_SKIP_44
U UCNV_FROM_U_CALLBACK_STOP_44
U UCNV_TO_U_CALLBACK_STOP_44
U X509_STORE_CTX_get_ex_data
U X509_free
U XML_ErrorString
U XML_ExternalEntityParserCreate
U XML_GetCurrentColumnNumber
U XML_GetCurrentLineNumber
U XML_GetErrorCode
U XML_Parse
U XML_ParserCreate
U XML_ParserCreateNS
U XML_ParserFree
U XML_SetCdataSectionHandler
U XML_SetCharacterDataHandler
U XML_SetCommentHandler
U XML_SetDoctypeDeclHandler
U XML_SetElementHandler
U XML_SetExternalEntityRefHandler
U XML_SetNamespaceDeclHandler
U XML_SetNotationDeclHandler
U XML_SetProcessingInstructionHandler
U XML_SetReturnNSTriplet
U XML_SetUnparsedEntityDeclHandler
U XML_SetUserData
W _Z10getifaddrsPP7ifaddrs
T _Z11longValueOfP7_JNIEnvx
T _Z11setBlockingib
T _Z12THREAD_setupv
T _Z12lowestSetBitPy
T _Z13doubleValueOfP7_JNIEnvd
T _Z13floatExponentf
T _Z13floatMantissaf
T _Z13highestSetBitPy
T _Z14THREAD_cleanupv
T _Z14booleanValueOfP7_JNIEnvh
T _Z14doubleExponentd
T _Z14doubleMantissad
T _Z14integerValueOfP7_JNIEnvi
T _Z16addHighPrecisionPyiS_i
W _Z18recvNetlinkMessageiPcj
W _Z18sendNetlinkMessageiPKvj
T _Z20Float_intBitsToFloatP7_JNIEnvP7_jclassi
T _Z20compareHighPrecisionPyiS_i
T _Z21jniThrowBindExceptionP7_JNIEnvi
T _Z21multiplyHighPrecisionPyiS_iS_i
T _Z21register_java_io_FileP7_JNIEnv
T _Z21subtractHighPrecisionPyiS_i
T _Z21toDoubleHighPrecisionPyi
T _Z22byteArrayToInetAddressP7_JNIEnvP11_jbyteArray
T _Z22simpleAddHighPrecisionPyiy
T _Z23Float_floatToRawIntBitsP7_JNIEnvP7_jclassf
T _Z23jniThrowSocketExceptionP7_JNIEnvi
T _Z23register_java_lang_MathP7_JNIEnv
T _Z24byteArrayToSocketAddressP7_JNIEnvP7_jclassP11_jbyteArrayiP25__kernel_sockaddr_storage
T _Z24jniThrowConnectExceptionP7_JNIEnvi
T _Z24jniThrowOutOfMemoryErrorP7_JNIEnvPKc
T _Z24register_java_io_ConsoleP7_JNIEnv
T _Z24register_java_lang_FloatP7_JNIEnv
T _Z24socketAddressToByteArrayP7_JNIEnvP25__kernel_sockaddr_storage
T _Z25jniThrowSecurityExceptionP7_JNIEnvi
T _Z25lowestSetBitHighPrecisionPyi
T _Z25register_java_lang_DoubleP7_JNIEnv
T _Z25register_java_lang_SystemP7_JNIEnv
T _Z26highestSetBitHighPrecisionPyi
T _Z26jniThrowExceptionWithErrnoP7_JNIEnvPKci
T _Z26socketAddressToInetAddressP7_JNIEnvP25__kernel_sockaddr_storage
T _Z27register_java_math_NativeBNP7_JNIEnv
T _Z27register_java_nio_ByteOrderP7_JNIEnv
T _Z27register_libcore_io_IoUtilsP7_JNIEnv
T _Z27timesTenToTheEHighPrecisionPyii
T _Z28register_java_lang_CharacterP7_JNIEnv
T _Z28register_java_util_zip_CRC32P7_JNIEnv
T _Z28simpleShiftLeftHighPrecisionPyii
T _Z29register_java_lang_StrictMathP7_JNIEnv
T _Z29register_java_net_InetAddressP7_JNIEnv
T _Z30jniThrowSocketTimeoutExceptionP7_JNIEnvi
T _Z30register_java_util_zip_Adler32P7_JNIEnv
T _Z30register_libcore_icu_NativeIDNP7_JNIEnv
T _Z30register_libcore_icu_TimeZonesP7_JNIEnv
T _Z31register_java_io_FileDescriptorP7_JNIEnv
T _Z31register_java_lang_RealToStringP7_JNIEnv
T _Z31register_java_util_zip_DeflaterP7_JNIEnv
T _Z31register_java_util_zip_InflaterP7_JNIEnv
T _Z32register_java_util_regex_MatcherP7_JNIEnv
T _Z32register_java_util_regex_PatternP7_JNIEnv
T _Z33RealToString_bigIntDigitGeneratorP7_JNIEnvP8_jobjectxihi
T _Z33register_com_ibm_icu4jni_util_ICUP7_JNIEnv
T _Z33register_java_lang_ProcessManagerP7_JNIEnv
T _Z34register_java_io_ObjectInputStreamP7_JNIEnv
T _Z34register_java_io_ObjectStreamClassP7_JNIEnv
T _Z34register_java_net_NetworkInterfaceP7_JNIEnv
T _Z34register_java_nio_charset_CharsetsP7_JNIEnv
T _Z35register_java_io_ObjectOutputStreamP7_JNIEnv
T _Z37register_libcore_icu_NativeNormalizerP7_JNIEnv
T _Z37simpleAppendDecimalDigitHighPrecisionPyiy
T _Z38register_libcore_icu_NativePluralRulesP7_JNIEnv
T _Z43register_org_apache_harmony_text_NativeBidiP7_JNIEnv
T _Z43register_org_apache_harmony_xml_ExpatParserP7_JNIEnv
T _Z44register_com_ibm_icu4jni_text_NativeCollatorP7_JNIEnv
T _Z46register_org_apache_harmony_luni_util_fltparseP7_JNIEnv
T _Z49register_com_ibm_icu4jni_text_NativeBreakIteratorP7_JNIEnv
T _Z49register_com_ibm_icu4jni_text_NativeDecimalFormatP7_JNIEnv
T _Z50register_org_apache_harmony_luni_platform_OSMemoryP7_JNIEnv
T _Z51register_com_ibm_icu4jni_converters_NativeConverterP7_JNIEnv
T _Z51register_org_apache_harmony_dalvik_NativeTestTargetP7_JNIEnv
T _Z54register_org_apache_harmony_luni_platform_OSFileSystemP7_JNIEnv
T _Z57register_org_apache_harmony_luni_platform_OSNetworkSystemP7_JNIEnv
T _Z59register_org_apache_harmony_xnet_provider_jsse_NativeCryptoP7_JNIEnv
T _Z9getLocaleP7_JNIEnvP8_jstring
B _ZN12JniConstants10fieldClassE
B _ZN12JniConstants11doubleClassE
B _ZN12JniConstants11methodClassE
B _ZN12JniConstants11socketClassE
B _ZN12JniConstants11stringClassE
B _ZN12JniConstants12bidiRunClassE
B _ZN12JniConstants12booleanClassE
B _ZN12JniConstants12integerClassE
B _ZN12JniConstants13deflaterClassE
B _ZN12JniConstants13inflaterClassE
B _ZN12JniConstants14byteArrayClassE
B _ZN12JniConstants14vmRuntimeClassE
B _ZN12JniConstants15bigDecimalClassE
B _ZN12JniConstants15charsetICUClassE
B _ZN12JniConstants15localeDataClassE
B _ZN12JniConstants15socketImplClassE
B _ZN12JniConstants16constructorClassE
B _ZN12JniConstants16inetAddressClassE
B _ZN12JniConstants17realToStringClassE
B _ZN12JniConstants18parsePositionClassE
B _ZN12JniConstants19datagramPacketClassE
B _ZN12JniConstants21interfaceAddressClassE
B _ZN12JniConstants26fieldPositionIteratorClassE
B _ZN12JniConstants26multicastGroupRequestClassE
B _ZN12JniConstants27patternSyntaxExceptionClassE
T _ZN12JniConstants4initEP7_JNIEnv
B _ZN12JniConstants9byteClassE
B _ZN12JniConstants9longClassE
T _ZN30AsynchronousSocketCloseMonitor20signalBlockedThreadsEi
T _ZN30AsynchronousSocketCloseMonitor4initEv
T _ZN30AsynchronousSocketCloseMonitorC1Ei
T _ZN30AsynchronousSocketCloseMonitorC2Ei
T _ZN30AsynchronousSocketCloseMonitorD1Ev
T _ZN30AsynchronousSocketCloseMonitorD2Ev
U _ZN6icu_4410DateFormat11setTimeZoneERKNS_8TimeZoneE
U _ZN6icu_4410Normalizer12isNormalizedERKNS_13UnicodeStringE18UNormalizationModeiR10UErrorCode
U _ZN6icu_4410Normalizer9normalizeERKNS_13UnicodeStringE18UNormalizationModeiRS1_R10UErrorCode
U _ZN6icu_4410UnicodeSetC1Ev
U _ZN6icu_4410UnicodeSetD1Ev
U _ZN6icu_4411Formattable16getDecimalNumberER10UErrorCode
U _ZN6icu_4411FormattableC1Ev
U _ZN6icu_4411FormattableD1Ev
U _ZN6icu_4411PluralRules9forLocaleERKNS_6LocaleER10UErrorCode
U _ZN6icu_4411StringPieceC1EPKc
U _ZN6icu_4412NumberFormat22createCurrencyInstanceER10UErrorCode
U _ZN6icu_4412RegexPattern7compileERKNS_13UnicodeStringEjR11UParseErrorR10UErrorCode
U _ZN6icu_4413DecimalFormatC1ERKNS_13UnicodeStringEPNS_20DecimalFormatSymbolsER11UParseErrorR10UErrorCode
U _ZN6icu_4413ParsePositionD1Ev
U _ZN6icu_4413UnicodeString5setToEaPKti
U _ZN6icu_4413UnicodeString7toLowerERKNS_6LocaleE
U _ZN6icu_4413UnicodeString7toUpperERKNS_6LocaleE
U _ZN6icu_4413UnicodeStringC1EPKc
U _ZN6icu_4413UnicodeStringC1EPKcS2_
U _ZN6icu_4413UnicodeStringC1EPKciNS0_10EInvariantE
U _ZN6icu_4413UnicodeStringC1ERKS0_
U _ZN6icu_4413UnicodeStringC1Et
U _ZN6icu_4413UnicodeStringC1Ev
U _ZN6icu_4413UnicodeStringD1Ev
U _ZN6icu_4413UnicodeStringaSERKS0_
W _ZN6icu_4415MaybeStackArrayIcLi52EE12aliasInsteadEPci
W _ZN6icu_4415MaybeStackArrayIcLi52EE12releaseArrayEv
W _ZN6icu_4415MaybeStackArrayIcLi52EE13orphanOrCloneEiRi
W _ZN6icu_4415MaybeStackArrayIcLi52EE6resizeEii
W _ZN6icu_4415MaybeStackArrayIcLi52EEC1ERKS1_
W _ZN6icu_4415MaybeStackArrayIcLi52EEC1Ev
W _ZN6icu_4415MaybeStackArrayIcLi52EEC2ERKS1_
W _ZN6icu_4415MaybeStackArrayIcLi52EEC2Ev
W _ZN6icu_4415MaybeStackArrayIcLi52EED1Ev
W _ZN6icu_4415MaybeStackArrayIcLi52EED2Ev
W _ZN6icu_4415MaybeStackArrayIcLi52EEaSERKS1_
W _ZN6icu_4415MaybeStackArrayIcLi52EEeqERKS1_
W _ZN6icu_4415MaybeStackArrayIcLi52EEixEi
W _ZN6icu_4415MaybeStackArrayIcLi52EEneERKS1_
U _ZN6icu_4416SimpleDateFormatC1ERKNS_13UnicodeStringERKNS_6LocaleER10UErrorCode
U _ZN6icu_4416SimpleDateFormatD1Ev
U _ZN6icu_4420DecimalFormatSymbolsC1Ev
U _ZN6icu_4421FieldPositionIteratorC1Ev
U _ZN6icu_4421FieldPositionIteratorD1Ev
U _ZN6icu_446Locale14createFromNameEPKc
U _ZN6icu_446Locale15getISOCountriesEv
U _ZN6icu_446Locale15getISOLanguagesEv
U _ZN6icu_446LocaleD1Ev
U _ZN6icu_447UMemorynwEj
U _ZN6icu_448TimeZone14createTimeZoneERKNS_13UnicodeStringE
U _ZN6icu_448TimeZone17createEnumerationEPKc
T _ZN7android31register_dalvik_system_TouchDexEP7_JNIEnv
U _ZNK6icu_4410DateFormat6formatEdRNS_13UnicodeStringE
U _ZNK6icu_4410UnicodeSet11containsAllERKS0_
U _ZNK6icu_4411Formattable7getTypeEv
U _ZNK6icu_4411Formattable9getDoubleER10UErrorCode
U _ZNK6icu_4411PluralRules6selectEi
U _ZNK6icu_4412NumberFormat24getMinimumFractionDigitsEv
U _ZNK6icu_4413UnicodeString9doCompareEiiPKtii
W _ZNK6icu_4415MaybeStackArrayIcLi52EE11getCapacityEv
W _ZNK6icu_4415MaybeStackArrayIcLi52EE13getArrayLimitEv
W _ZNK6icu_4415MaybeStackArrayIcLi52EE8getAliasEv
W _ZNK6icu_4415MaybeStackArrayIcLi52EEcvPcEv
U _ZNK6icu_4421FieldPositionIterator7getDataEPii
U _ZNK6icu_446Locale14getISO3CountryEv
U _ZNK6icu_446Locale15getISO3LanguageEv
U _ZNK6icu_446Locale17getDisplayCountryERKS0_RNS_13UnicodeStringE
U _ZNK6icu_446Locale17getDisplayVariantERKS0_RNS_13UnicodeStringE
U _ZNK6icu_446Locale18getDisplayLanguageERKS0_RNS_13UnicodeStringE
U _ZNK6icu_448TimeZone14getDisplayNameEaNS0_12EDisplayTypeERKNS_6LocaleERNS_13UnicodeStringE
U _ZTVN6icu_4413ParsePositionE
U _ZdaPv
U _ZdlPv
U _Znaj
U _Znwj
T __FINI_ARRAY__
T __INIT_ARRAY__
U __aeabi_d2f
U __aeabi_d2iz
U __aeabi_dadd
U __aeabi_dcmpeq
U __aeabi_dcmpge
U __aeabi_dcmpgt
U __aeabi_dcmple
U __aeabi_dcmplt
U __aeabi_dcmpun
U __aeabi_ddiv
U __aeabi_dmul
U __aeabi_dsub
U __aeabi_fcmpeq
U __aeabi_fcmpun
U __aeabi_fdiv
U __aeabi_fmul
U __aeabi_i2d
U __aeabi_i2f
U __aeabi_idiv
U __aeabi_idivmod
U __aeabi_ldivmod
U __aeabi_llsl
U __aeabi_llsr
U __aeabi_lmul
U __aeabi_unwind_cpp_pr0
U __aeabi_unwind_cpp_pr1
U __android_log_print
U __android_log_write
A __bss_end__
A __bss_start
A __bss_start__
U __cxa_finalize
U __cxa_guard_acquire
U __cxa_guard_release
D __data_start
B __dso_handle
A __end__
U __errno
A __exidx_end
A __exidx_start
T __ieee754_acos
T __ieee754_asin
T __ieee754_atan2
T __ieee754_cosh
T __ieee754_exp
T __ieee754_fmod
T __ieee754_hypot
T __ieee754_log
T __ieee754_log10
T __ieee754_pow
T __ieee754_rem_pio2
T __ieee754_remainder
T __ieee754_sinh
T __ieee754_sqrt
T __kernel_cos
T __kernel_rem_pio2
T __kernel_sin
T __kernel_standard
T __kernel_tan
U __page_size
U __sF
U __stack_chk_fail
U __stack_chk_guard
A _bss_end__
A _edata
A _end
D _fdlib_version
A _stack
U abort
U accept
U access
U acos
U adler32
U asin
U asprintf
U atan
U atan2
U atoi
U bind
U bn_expand2
U cbrt
U ceil
U chdir
U chmod
U close
U closedir
U connect
U cos
U cosh
U crc32
U d2i_PKCS8_PRIV_KEY_INFO
U d2i_SSL_SESSION
U d2i_X509
U d2i_X509_NAME
U deflate
U deflateEnd
U deflateInit2_
U deflateParams
U deflateReset
U deflateSetDictionary
U dup2
U environ
U execv
U execvp
U exit
U exp
U expm1
U fclose
U fcntl
U fgets
U floor
U fopen
U fork
U fputs
U free
U freeaddrinfo
U fstat
U fsync
U ftruncate
U gai_strerror
U getaddrinfo
U getenv
U gethostname
U getnameinfo
U getrlimit
U getsockname
U getsockopt
U gettimeofday
U hypot
U i2d_SSL_SESSION
U i2d_X509
U i2d_X509_NAME
T icu4jni_error
T ieee_acos
T ieee_asin
T ieee_atan
T ieee_atan2
T ieee_cbrt
T ieee_ceil
T ieee_copysign
T ieee_cos
T ieee_cosh
T ieee_exp
T ieee_expm1
T ieee_fabs
T ieee_finite
T ieee_floor
T ieee_hypot
T ieee_isnan
T ieee_log
T ieee_log10
T ieee_log1p
T ieee_matherr
T ieee_nextafter
T ieee_pow
T ieee_remainder
T ieee_rint
T ieee_scalbn
T ieee_sin
T ieee_sinh
T ieee_sqrt
T ieee_tan
T ieee_tanh
U if_indextoname
U if_nametoindex
U inet_aton
U inflate
U inflateEnd
U inflateInit2_
U inflateReset
U inflateSetDictionary
U ioctl
U isatty
T jniCreateFileDescriptor
T jniGetFDFromFileDescriptor
T jniLogException
T jniRegisterNativeMethods
T jniRegisterSystemMethods
T jniSetFileDescriptorOfFD
T jniStrError
T jniThrowException
T jniThrowIOException
T jniThrowNullPointerException
T jniThrowRuntimeException
U kill
U listen
U log
U log10
U log1p
U lseek
U malloc
U memcpy
U memmove
U memset
U mincore
U mkdir
U mlock
U mmap
U msync
U munlock
U munmap
U nextafter
U nextafterf
U open
U opendir
U pipe
U pow
U property_get
U pthread_kill
U pthread_mutex_destroy
U pthread_mutex_init
U pthread_mutex_lock
U pthread_mutex_unlock
U pthread_self
U read
U readdir_r
U readlink
U readv
U recv
U recvfrom
T registerCoreLibrariesJni
T registerJniHelp
U remainder
U remove
U rename
U rint
U select
U send
U sendfile
U sendto
U setsockopt
U shutdown
U sigaction
U sin
U sinh
U sk_dup
U sk_free
U sk_new_null
U sk_num
U sk_push
U sk_value
U snprintf
U socket
U sprintf
U sqrt
U stat
U statfs
U strcat
U strchr
U strcmp
U strcpy
U strcpylen8to16
U strdup
U strerror
U strerror_r
U strlen
U strncmp
U strncpy
U strrchr
U strstr
U strtok_r
U tan
U tanh
U u_charDirection_44
U u_charType_44
U u_digit_44
U u_errorName_44
U u_getNumericValue_44
U u_getPropertyValueEnum_44
U u_isIDIgnorable_44
U u_isIDPart_44
U u_isIDStart_44
U u_isJavaSpaceChar_44
U u_isMirrored_44
U u_isWhitespace_44
U u_isalnum_44
U u_isalpha_44
U u_isdefined_44
U u_isdigit_44
U u_islower_44
U u_istitle_44
U u_isupper_44
U u_strncpy_44
U u_tolower_44
U u_totitle_44
U u_toupper_44
U ubidi_close_44
U ubidi_countRuns_44
U ubidi_getDirection_44
U ubidi_getLength_44
U ubidi_getLevels_44
U ubidi_getLogicalRun_44
U ubidi_getParaLevel_44
U ubidi_openSized_44
U ubidi_open_44
U ubidi_reorderVisual_44
U ubidi_setLine_44
U ubidi_setPara_44
U ublock_getCode_44
U ubrk_close_44
U ubrk_countAvailable_44
U ubrk_current_44
U ubrk_first_44
U ubrk_following_44
U ubrk_getAvailable_44
U ubrk_isBoundary_44
U ubrk_last_44
U ubrk_next_44
U ubrk_open_44
U ubrk_preceding_44
U ubrk_previous_44
U ubrk_safeClone_44
U ubrk_setText_44
U ucal_countAvailable_44
U ucal_getAvailable_44
U ucnv_cbFromUWriteBytes_44
U ucnv_cbToUWriteUChars_44
U ucnv_close_44
U ucnv_countAliases_44
U ucnv_countAvailable_44
U ucnv_fromUCountPending_44
U ucnv_fromUnicode_44
U ucnv_getAlias_44
U ucnv_getAvailableName_44
U ucnv_getCanonicalName_44
U ucnv_getFromUCallBack_44
U ucnv_getInvalidChars_44
U ucnv_getInvalidUChars_44
U ucnv_getMaxCharSize_44
U ucnv_getMinCharSize_44
U ucnv_getStandardName_44
U ucnv_getSubstChars_44
U ucnv_getToUCallBack_44
U ucnv_getUnicodeSet_44
U ucnv_open_44
U ucnv_resetFromUnicode_44
U ucnv_resetToUnicode_44
U ucnv_setFromUCallBack_44
U ucnv_setToUCallBack_44
U ucnv_toUCountPending_44
U ucnv_toUnicode_44
U ucol_closeElements_44
U ucol_close_44
U ucol_countAvailable_44
U ucol_getAttribute_44
U ucol_getAvailable_44
U ucol_getMaxExpansion_44
U ucol_getOffset_44
U ucol_getRules_44
U ucol_getSortKey_44
U ucol_next_44
U ucol_openElements_44
U ucol_openRules_44
U ucol_open_44
U ucol_previous_44
U ucol_reset_44
U ucol_safeClone_44
U ucol_setAttribute_44
U ucol_setOffset_44
U ucol_setText_44
U ucol_strcoll_44
U udat_countAvailable_44
U udat_getAvailable_44
U uidna_IDNToASCII_44
U uidna_IDNToUnicode_44
U uloc_countAvailable_44
U uloc_getAvailable_44
U unum_countAvailable_44
U unum_getAttribute_44
U unum_getAvailable_44
U unum_getTextAttribute_44
U unum_setAttribute_44
U unum_setSymbol_44
U unum_setTextAttribute_44
U uprv_free_44
U uprv_malloc_44
U ures_close_44
U ures_getByIndex_44
U ures_getByKey_44
U ures_getIntVector_44
U ures_getSize_44
U ures_getStringByIndex_44
U ures_getString_44
U ures_openDirect_44
U ures_open_44
U usleep
U utext_close_44
U utext_openUChars_44
U utime
U waitpid
U write
U writev
U zError
