T _Z10gglMulDiviiii
T _Z11gglFastDivxii
T _Z13gglSqrtRecipxi
T _Z19gglRecipQNormalizediPi
T _Z7gglDivQiii
T _Z7gglPowxii
T _Z8gglSqrtxi
T _Z9gglRecipQii
T _ZN7android10VectorImpl11setCapacityEj
T _ZN7android10VectorImpl12appendVectorERKS0_
T _ZN7android10VectorImpl13editArrayImplEv
T _ZN7android10VectorImpl13finish_vectorEv
T _ZN7android10VectorImpl13removeItemsAtEjj
T _ZN7android10VectorImpl14insertVectorAtERKS0_j
T _ZN7android10VectorImpl15release_storageEv
T _ZN7android10VectorImpl16editItemLocationEj
T _ZN7android10VectorImpl19reservedVectorImpl1Ev
T _ZN7android10VectorImpl19reservedVectorImpl2Ev
T _ZN7android10VectorImpl19reservedVectorImpl3Ev
T _ZN7android10VectorImpl19reservedVectorImpl4Ev
T _ZN7android10VectorImpl19reservedVectorImpl5Ev
T _ZN7android10VectorImpl19reservedVectorImpl6Ev
T _ZN7android10VectorImpl19reservedVectorImpl7Ev
T _ZN7android10VectorImpl19reservedVectorImpl8Ev
T _ZN7android10VectorImpl3addEPKv
T _ZN7android10VectorImpl3addEv
T _ZN7android10VectorImpl3popEv
T _ZN7android10VectorImpl4pushEPKv
T _ZN7android10VectorImpl4pushEv
T _ZN7android10VectorImpl5_growEjj
T _ZN7android10VectorImpl5clearEv
T _ZN7android10VectorImpl7_shrinkEjj
T _ZN7android10VectorImpl8insertAtEPKvjj
T _ZN7android10VectorImpl8insertAtEjj
T _ZN7android10VectorImpl9replaceAtEPKvj
T _ZN7android10VectorImpl9replaceAtEj
T _ZN7android10VectorImplC1ERKS0_
T _ZN7android10VectorImplC1Ejj
T _ZN7android10VectorImplC2ERKS0_
T _ZN7android10VectorImplC2Ejj
T _ZN7android10VectorImplD0Ev
T _ZN7android10VectorImplD1Ev
T _ZN7android10VectorImplD2Ev
T _ZN7android10VectorImplaSERKS0_
T _ZN7android10ggl_expandEjii
T _ZN7android11ggl_pick_cbEPNS_9context_tE
T _ZN7android12ARMAssembler10pcForLabelEPKc
T _ZN7android12ARMAssembler11disassembleEPKc
T _ZN7android12ARMAssembler14dataProcessingEiiiiij
T _ZN7android12ARMAssembler1BEiPKc
T _ZN7android12ARMAssembler1BEiPj
T _ZN7android12ARMAssembler2BLEiPKc
T _ZN7android12ARMAssembler2BLEiPj
T _ZN7android12ARMAssembler2BXEii
T _ZN7android12ARMAssembler3CLZEiii
T _ZN7android12ARMAssembler3LDMEiiiij
T _ZN7android12ARMAssembler3LDREiiij
T _ZN7android12ARMAssembler3MLAEiiiiii
T _ZN7android12ARMAssembler3MULEiiiii
T _ZN7android12ARMAssembler3PLDEij
T _ZN7android12ARMAssembler3STMEiiiij
T _ZN7android12ARMAssembler3STREiiij
T _ZN7android12ARMAssembler3SWIEij
T _ZN7android12ARMAssembler3SWPEiiii
T _ZN7android12ARMAssembler4LDRBEiiij
T _ZN7android12ARMAssembler4LDRHEiiij
T _ZN7android12ARMAssembler4QADDEiiii
T _ZN7android12ARMAssembler4QSUBEiiii
T _ZN7android12ARMAssembler4SMLAEiiiiii
T _ZN7android12ARMAssembler4SMULEiiiii
T _ZN7android12ARMAssembler4STRBEiiij
T _ZN7android12ARMAssembler4STRHEiiij
T _ZN7android12ARMAssembler4SWPBEiiii
T _ZN7android12ARMAssembler5LDRSBEiiij
T _ZN7android12ARMAssembler5LDRSHEiiij
T _ZN7android12ARMAssembler5QDADDEiiii
T _ZN7android12ARMAssembler5QDSUBEiiii
T _ZN7android12ARMAssembler5SMLALEiiiiii
T _ZN7android12ARMAssembler5SMLAWEiiiiii
T _ZN7android12ARMAssembler5SMUALEiiiiii
T _ZN7android12ARMAssembler5SMULLEiiiiii
T _ZN7android12ARMAssembler5SMULWEiiiii
T _ZN7android12ARMAssembler5UMUALEiiiiii
T _ZN7android12ARMAssembler5UMULLEiiiiii
T _ZN7android12ARMAssembler5labelEPKc
T _ZN7android12ARMAssembler5resetEv
T _ZN7android12ARMAssembler6UXTB16Eiiii
T _ZN7android12ARMAssembler6epilogEj
T _ZN7android12ARMAssembler6prologEv
T _ZN7android12ARMAssembler7commentEPKc
T _ZN7android12ARMAssembler8generateEPKc
T _ZN7android12ARMAssemblerC1ERKNS_2spINS_8AssemblyEEE
T _ZN7android12ARMAssemblerC2ERKNS_2spINS_8AssemblyEEE
T _ZN7android12ARMAssemblerD0Ev
T _ZN7android12ARMAssemblerD1Ev
T _ZN7android12ARMAssemblerD2Ev
T _ZN7android12GGLAssembler10mul_factorERNS0_11component_tERKNS0_9integer_tES5_
T _ZN7android12GGLAssembler11base_offsetERKNS0_9pointer_tES3_RKNS0_5reg_tE
T _ZN7android12GGLAssembler13build_maskingERNS0_7pixel_tERNS_17RegisterAllocator7ScratchE
T _ZN7android12GGLAssembler13component_addERNS0_11component_tERKNS0_9integer_tES5_
T _ZN7android12GGLAssembler13component_satERKNS0_11component_tE
T _ZN7android12GGLAssembler13init_texturesEPNS0_11tex_coord_tERKNS0_5reg_tES5_
T _ZN7android12GGLAssembler13scanline_coreERKNS_7needs_tEPKNS_9context_tE
T _ZN7android12GGLAssembler14blending_codesEii
T _ZN7android12GGLAssembler14build_blendingERNS0_11component_tERKNS0_7pixel_tEiRNS_17RegisterAllocator7ScratchE
T _ZN7android12GGLAssembler14build_logic_opERNS0_7pixel_tERNS_17RegisterAllocator7ScratchE
T _ZN7android12GGLAssembler14build_texturesERNS0_16fragment_parts_tERNS_17RegisterAllocator7ScratchE
T _ZN7android12GGLAssembler14decodeTMUNeedsERKNS_7needs_tEPKNS_9context_tE
T _ZN7android12GGLAssembler14mul_factor_addERNS0_11component_tERKNS0_9integer_tES5_RKS1_
T _ZN7android12GGLAssembler15build_componentERNS0_7pixel_tERKNS0_16fragment_parts_tEiRNS_17RegisterAllocator7ScratchE
T _ZN7android12GGLAssembler15build_iterate_fERKNS0_16fragment_parts_tE
T _ZN7android12GGLAssembler15build_iterate_zERKNS0_16fragment_parts_tE
T _ZN7android12GGLAssembler16build_alpha_testERNS0_11component_tERKNS0_16fragment_parts_tE
T _ZN7android12GGLAssembler16build_depth_testERKNS0_16fragment_parts_tEj
T _ZN7android12GGLAssembler18build_blend_factorERNS0_9integer_tEiiRKNS0_7pixel_tES2_S2_RNS_17RegisterAllocator7ScratchE
T _ZN7android12GGLAssembler18build_smooth_shadeERKNS0_16fragment_parts_tE
T _ZN7android12GGLAssembler18decodeLogicOpNeedsERKNS_7needs_tE
T _ZN7android12GGLAssembler19build_and_immediateEiiji
T _ZN7android12GGLAssembler19init_iterated_colorERNS0_16fragment_parts_tERKNS0_5reg_tE
T _ZN7android12GGLAssembler20build_iterated_colorERNS0_11component_tERKNS0_16fragment_parts_tEiRNS_17RegisterAllocator7ScratchE
T _ZN7android12GGLAssembler21build_blendFOneMinusFERNS0_11component_tERKNS0_9integer_tES5_S5_
T _ZN7android12GGLAssembler21build_blendOneMinusFFERNS0_11component_tERKNS0_9integer_tES5_S5_
T _ZN7android12GGLAssembler21build_scanline_prologERNS0_16fragment_parts_tERKNS_7needs_tE
T _ZN7android12GGLAssembler24build_incoming_componentERNS0_11component_tEiRKNS0_16fragment_parts_tEiRNS_17RegisterAllocator7ScratchES8_
T _ZN7android12GGLAssembler25build_texture_environmentERNS0_11component_tERKNS0_16fragment_parts_tEiRNS_17RegisterAllocator7ScratchE
T _ZN7android12GGLAssembler26build_coverage_applicationERNS0_11component_tERKNS0_16fragment_parts_tERNS_17RegisterAllocator7ScratchE
T _ZN7android12GGLAssembler33build_iterate_texture_coordinatesERKNS0_16fragment_parts_tE
T _ZN7android12GGLAssembler3addERNS0_11component_tERKS1_RKNS0_7pixel_tEi
T _ZN7android12GGLAssembler4loadERKNS0_9pointer_tERKNS0_7pixel_tEj
T _ZN7android12GGLAssembler5blendERNS0_11component_tERKS1_RKNS0_7pixel_tEii
T _ZN7android12GGLAssembler5decalERNS0_11component_tERKS1_RKNS0_7pixel_tEi
T _ZN7android12GGLAssembler5resetEi
T _ZN7android12GGLAssembler5storeERKNS0_9pointer_tERKNS0_7pixel_tEj
T _ZN7android12GGLAssembler6epilogEj
T _ZN7android12GGLAssembler6expandERNS0_11component_tERKS1_i
T _ZN7android12GGLAssembler6expandERNS0_9integer_tERKNS0_11component_tEi
T _ZN7android12GGLAssembler6expandERNS0_9integer_tERKS1_i
T _ZN7android12GGLAssembler6prologEv
T _ZN7android12GGLAssembler7extractERNS0_11component_tERKNS0_7pixel_tEi
T _ZN7android12GGLAssembler7extractERNS0_9integer_tERKNS0_7pixel_tEi
T _ZN7android12GGLAssembler7extractERNS0_9integer_tEiiii
T _ZN7android12GGLAssembler7filter8ERKNS0_16fragment_parts_tERNS0_7pixel_tERKNS0_14texture_unit_tEiiRNS0_9pointer_tEi
T _ZN7android12GGLAssembler8filter16ERKNS0_16fragment_parts_tERNS0_7pixel_tERKNS0_14texture_unit_tEiiRNS0_9pointer_tEi
T _ZN7android12GGLAssembler8filter24ERKNS0_16fragment_parts_tERNS0_7pixel_tERKNS0_14texture_unit_tEiiRNS0_9pointer_tEi
T _ZN7android12GGLAssembler8filter32ERKNS0_16fragment_parts_tERNS0_7pixel_tERKNS0_14texture_unit_tEiiRNS0_9pointer_tEi
T _ZN7android12GGLAssembler8modulateERNS0_11component_tERKS1_RKNS0_7pixel_tEi
T _ZN7android12GGLAssembler8scanlineERKNS_7needs_tEPKNS_9context_tE
T _ZN7android12GGLAssembler8wrappingEiiiii
T _ZN7android12GGLAssembler9build_fogERNS0_11component_tEiRNS_17RegisterAllocator7ScratchE
T _ZN7android12GGLAssembler9downshiftERNS0_7pixel_tEiNS0_11component_tERKNS0_5reg_tE
T _ZN7android12GGLAssemblerC1EPNS_21ARMAssemblerInterfaceE
T _ZN7android12GGLAssemblerC2EPNS_21ARMAssemblerInterfaceE
T _ZN7android12GGLAssemblerD0Ev
T _ZN7android12GGLAssemblerD1Ev
T _ZN7android12GGLAssemblerD2Ev
T _ZN7android12SharedBuffer5allocEj
T _ZN7android12SharedBuffer7deallocEPKS0_
T _ZN7android13ggl_init_trapEPNS_9context_tE
T _ZN7android14ggl_init_clearEPNS_9context_tE
T _ZN7android14ggl_pack_colorEPNS_9context_tEiiiii
T _ZN7android15ggl_init_pickerEPNS_9context_tE
T _ZN7android15ggl_init_rasterEPNS_9context_tE
T _ZN7android15ggl_set_surfaceEPNS_9context_tEPNS_9surface_tEPK10GGLSurface
T _ZN7android15ggl_system_timeEv
T _ZN7android16SortedVectorImpl25reservedSortedVectorImpl1Ev
T _ZN7android16SortedVectorImpl25reservedSortedVectorImpl2Ev
T _ZN7android16SortedVectorImpl25reservedSortedVectorImpl3Ev
T _ZN7android16SortedVectorImpl25reservedSortedVectorImpl4Ev
T _ZN7android16SortedVectorImpl25reservedSortedVectorImpl5Ev
T _ZN7android16SortedVectorImpl25reservedSortedVectorImpl6Ev
T _ZN7android16SortedVectorImpl25reservedSortedVectorImpl7Ev
T _ZN7android16SortedVectorImpl25reservedSortedVectorImpl8Ev
T _ZN7android16SortedVectorImpl3addEPKv
T _ZN7android16SortedVectorImpl5mergeERKNS_10VectorImplE
T _ZN7android16SortedVectorImpl5mergeERKS0_
T _ZN7android16SortedVectorImpl6removeEPKv
T _ZN7android16SortedVectorImplC1ERKNS_10VectorImplE
T _ZN7android16SortedVectorImplC1Ejj
T _ZN7android16SortedVectorImplC2ERKNS_10VectorImplE
T _ZN7android16SortedVectorImplC2Ejj
T _ZN7android16SortedVectorImplD0Ev
T _ZN7android16SortedVectorImplD1Ev
T _ZN7android16SortedVectorImplD2Ev
T _ZN7android16SortedVectorImplaSERKS0_
T _ZN7android16ggl_init_contextEPNS_9context_tE
T _ZN7android16ggl_init_textureEPNS_9context_tE
T _ZN7android16ggl_pick_textureEPNS_9context_tE
T _ZN7android17ARMAssemblerProxy10pcForLabelEPKc
T _ZN7android17ARMAssemblerProxy11disassembleEPKc
T _ZN7android17ARMAssemblerProxy14dataProcessingEiiiiij
T _ZN7android17ARMAssemblerProxy1BEiPKc
T _ZN7android17ARMAssemblerProxy1BEiPj
T _ZN7android17ARMAssemblerProxy2BLEiPKc
T _ZN7android17ARMAssemblerProxy2BLEiPj
T _ZN7android17ARMAssemblerProxy2BXEii
T _ZN7android17ARMAssemblerProxy3CLZEiii
T _ZN7android17ARMAssemblerProxy3LDMEiiiij
T _ZN7android17ARMAssemblerProxy3LDREiiij
T _ZN7android17ARMAssemblerProxy3MLAEiiiiii
T _ZN7android17ARMAssemblerProxy3MULEiiiii
T _ZN7android17ARMAssemblerProxy3PLDEij
T _ZN7android17ARMAssemblerProxy3STMEiiiij
T _ZN7android17ARMAssemblerProxy3STREiiij
T _ZN7android17ARMAssemblerProxy3SWIEij
T _ZN7android17ARMAssemblerProxy3SWPEiiii
T _ZN7android17ARMAssemblerProxy4LDRBEiiij
T _ZN7android17ARMAssemblerProxy4LDRHEiiij
T _ZN7android17ARMAssemblerProxy4QADDEiiii
T _ZN7android17ARMAssemblerProxy4QSUBEiiii
T _ZN7android17ARMAssemblerProxy4SMLAEiiiiii
T _ZN7android17ARMAssemblerProxy4SMULEiiiii
T _ZN7android17ARMAssemblerProxy4STRBEiiij
T _ZN7android17ARMAssemblerProxy4STRHEiiij
T _ZN7android17ARMAssemblerProxy4SWPBEiiii
T _ZN7android17ARMAssemblerProxy5LDRSBEiiij
T _ZN7android17ARMAssemblerProxy5LDRSHEiiij
T _ZN7android17ARMAssemblerProxy5QDADDEiiii
T _ZN7android17ARMAssemblerProxy5QDSUBEiiii
T _ZN7android17ARMAssemblerProxy5SMLALEiiiiii
T _ZN7android17ARMAssemblerProxy5SMLAWEiiiiii
T _ZN7android17ARMAssemblerProxy5SMUALEiiiiii
T _ZN7android17ARMAssemblerProxy5SMULLEiiiiii
T _ZN7android17ARMAssemblerProxy5SMULWEiiiii
T _ZN7android17ARMAssemblerProxy5UMUALEiiiiii
T _ZN7android17ARMAssemblerProxy5UMULLEiiiiii
T _ZN7android17ARMAssemblerProxy5labelEPKc
T _ZN7android17ARMAssemblerProxy5resetEv
T _ZN7android17ARMAssemblerProxy6UXTB16Eiiii
T _ZN7android17ARMAssemblerProxy6epilogEj
T _ZN7android17ARMAssemblerProxy6prologEv
T _ZN7android17ARMAssemblerProxy7commentEPKc
T _ZN7android17ARMAssemblerProxy8generateEPKc
T _ZN7android17ARMAssemblerProxy9setTargetEPNS_21ARMAssemblerInterfaceE
T _ZN7android17ARMAssemblerProxyC1EPNS_21ARMAssemblerInterfaceE
T _ZN7android17ARMAssemblerProxyC1Ev
T _ZN7android17ARMAssemblerProxyC2EPNS_21ARMAssemblerInterfaceE
T _ZN7android17ARMAssemblerProxyC2Ev
T _ZN7android17ARMAssemblerProxyD0Ev
T _ZN7android17ARMAssemblerProxyD1Ev
T _ZN7android17ARMAssemblerProxyD2Ev
T _ZN7android17RegisterAllocator10recycleRegEi
T _ZN7android17RegisterAllocator10reserveRegEi
T _ZN7android17RegisterAllocator12RegisterFile14recycleSeveralEj
T _ZN7android17RegisterAllocator12RegisterFile14reserveSeveralEj
T _ZN7android17RegisterAllocator12RegisterFile5resetEv
T _ZN7android17RegisterAllocator12RegisterFile6obtainEv
T _ZN7android17RegisterAllocator12RegisterFile7recycleEi
T _ZN7android17RegisterAllocator12RegisterFile7reserveEi
T _ZN7android17RegisterAllocator12RegisterFileC1ERKS1_
T _ZN7android17RegisterAllocator12RegisterFileC1Ev
T _ZN7android17RegisterAllocator12RegisterFileC2ERKS1_
T _ZN7android17RegisterAllocator12RegisterFileC2Ev
T _ZN7android17RegisterAllocator12RegisterFileD1Ev
T _ZN7android17RegisterAllocator12RegisterFileD2Ev
T _ZN7android17RegisterAllocator12registerFileEv
T _ZN7android17RegisterAllocator5resetEv
T _ZN7android17RegisterAllocator9obtainRegEv
T _ZN7android17ggl_init_scanlineEPNS_9context_tE
T _ZN7android17ggl_pick_scanlineEPNS_9context_tE
T _ZN7android17ggl_state_changedEPNS_9context_tEi
W _ZN7android17move_forward_typeINS_16key_value_pair_tINS_9CodeCache5key_tENS2_13cache_entry_tEEEEEvPT_PKS6_j
T _ZN7android18ggl_uninit_contextEPNS_9context_tE
W _ZN7android18move_backward_typeINS_16key_value_pair_tINS_9CodeCache5key_tENS2_13cache_entry_tEEEEEvPT_PKS6_j
T _ZN7android19ggl_uninit_scanlineEPNS_9context_tE
T _ZN7android21ARMAssemblerInterface10immed8_preEii
T _ZN7android21ARMAssemblerInterface11immed12_preEii
T _ZN7android21ARMAssemblerInterface11immed8_postEi
T _ZN7android21ARMAssemblerInterface12immed12_postEi
T _ZN7android21ARMAssemblerInterface13reg_scale_preEiiji
T _ZN7android21ARMAssemblerInterface14buildImmediateEjRjS1_
T _ZN7android21ARMAssemblerInterface14reg_scale_postEiij
T _ZN7android21ARMAssemblerInterface16isValidImmediateEj
T _ZN7android21ARMAssemblerInterface3immEj
T _ZN7android21ARMAssemblerInterface7reg_immEiij
T _ZN7android21ARMAssemblerInterface7reg_preEii
T _ZN7android21ARMAssemblerInterface7reg_regEiii
T _ZN7android21ARMAssemblerInterface7reg_rrxEi
T _ZN7android21ARMAssemblerInterface8reg_postEi
T _ZN7android21ARMAssemblerInterfaceD0Ev
T _ZN7android21ARMAssemblerInterfaceD1Ev
T _ZN7android21ARMAssemblerInterfaceD2Ev
W _ZN7android2spINS_8AssemblyEEaSERKS2_
T _ZN7android6AAEdge4dumpEv
T _ZN7android8Assembly21ensureMbaseExecutableEv
T _ZN7android8Assembly6resizeEj
T _ZN7android8Assembly9getMspaceEv
T _ZN7android8AssemblyC1Ej
T _ZN7android8AssemblyC2Ej
T _ZN7android8AssemblyD0Ev
T _ZN7android8AssemblyD1Ev
T _ZN7android8AssemblyD2Ev
T _ZN7android8ggl_pickEPNS_9context_tE
T _ZN7android9CodeCache5cacheERKNS_15AssemblyKeyBaseERKNS_2spINS_8AssemblyEEE
T _ZN7android9CodeCacheC1Ej
T _ZN7android9CodeCacheC2Ej
T _ZN7android9CodeCacheD1Ev
T _ZN7android9CodeCacheD2Ev
T _ZN7android9ggl_errorEPNS_9context_tEj
T _ZNK7android10VectorImpl12itemLocationEj
T _ZNK7android10VectorImpl8capacityEv
T _ZNK7android10VectorImpl8itemSizeEv
T _ZNK7android12ARMAssembler2pcEv
T _ZNK7android12ARMAssembler4baseEv
T _ZNK7android12GGLAssembler19isAlphaSourceNeededEv
T _ZNK7android12SharedBuffer10editResizeEj
T _ZNK7android12SharedBuffer11attemptEditEv
T _ZNK7android12SharedBuffer4editEv
T _ZNK7android12SharedBuffer5resetEj
T _ZNK7android12SharedBuffer7acquireEv
T _ZNK7android12SharedBuffer7releaseEj
W _ZNK7android12SortedVectorINS_16key_value_pair_tINS_9CodeCache5key_tENS2_13cache_entry_tEEEE10do_compareEPKvS8_
W _ZNK7android12SortedVectorINS_16key_value_pair_tINS_9CodeCache5key_tENS2_13cache_entry_tEEEE10do_destroyEPvj
W _ZNK7android12SortedVectorINS_16key_value_pair_tINS_9CodeCache5key_tENS2_13cache_entry_tEEEE12do_constructEPvj
W _ZNK7android12SortedVectorINS_16key_value_pair_tINS_9CodeCache5key_tENS2_13cache_entry_tEEEE15do_move_forwardEPvPKvj
W _ZNK7android12SortedVectorINS_16key_value_pair_tINS_9CodeCache5key_tENS2_13cache_entry_tEEEE16do_move_backwardEPvPKvj
W _ZNK7android12SortedVectorINS_16key_value_pair_tINS_9CodeCache5key_tENS2_13cache_entry_tEEEE7do_copyEPvPKvj
W _ZNK7android12SortedVectorINS_16key_value_pair_tINS_9CodeCache5key_tENS2_13cache_entry_tEEEE8do_splatEPvPKvj
W _ZNK7android12SortedVectorINS_16key_value_pair_tIPKcPjEEE10do_compareEPKvS8_
W _ZNK7android12SortedVectorINS_16key_value_pair_tIPKcPjEEE10do_destroyEPvj
W _ZNK7android12SortedVectorINS_16key_value_pair_tIPKcPjEEE12do_constructEPvj
W _ZNK7android12SortedVectorINS_16key_value_pair_tIPKcPjEEE15do_move_forwardEPvPKvj
W _ZNK7android12SortedVectorINS_16key_value_pair_tIPKcPjEEE16do_move_backwardEPvPKvj
W _ZNK7android12SortedVectorINS_16key_value_pair_tIPKcPjEEE7do_copyEPvPKvj
W _ZNK7android12SortedVectorINS_16key_value_pair_tIPKcPjEEE8do_splatEPvPKvj
W _ZNK7android12SortedVectorINS_16key_value_pair_tIPjPKcEEE10do_compareEPKvS8_
W _ZNK7android12SortedVectorINS_16key_value_pair_tIPjPKcEEE10do_destroyEPvj
W _ZNK7android12SortedVectorINS_16key_value_pair_tIPjPKcEEE12do_constructEPvj
W _ZNK7android12SortedVectorINS_16key_value_pair_tIPjPKcEEE15do_move_forwardEPvPKvj
W _ZNK7android12SortedVectorINS_16key_value_pair_tIPjPKcEEE16do_move_backwardEPvPKvj
W _ZNK7android12SortedVectorINS_16key_value_pair_tIPjPKcEEE7do_copyEPvPKvj
W _ZNK7android12SortedVectorINS_16key_value_pair_tIPjPKcEEE8do_splatEPvPKvj
T _ZNK7android16SortedVectorImpl13_indexOrderOfEPKvPj
T _ZNK7android16SortedVectorImpl7indexOfEPKv
T _ZNK7android16SortedVectorImpl7orderOfEPKv
T _ZNK7android17RegisterAllocator12RegisterFile11hasFreeRegsEv
T _ZNK7android17RegisterAllocator12RegisterFile13countFreeRegsEv
T _ZNK7android17RegisterAllocator12RegisterFile7touchedEv
T _ZNK7android17RegisterAllocator12RegisterFileeqERKS1_
W _ZNK7android6VectorINS_12ARMAssembler15branch_target_tEE10do_destroyEPvj
W _ZNK7android6VectorINS_12ARMAssembler15branch_target_tEE12do_constructEPvj
W _ZNK7android6VectorINS_12ARMAssembler15branch_target_tEE15do_move_forwardEPvPKvj
W _ZNK7android6VectorINS_12ARMAssembler15branch_target_tEE16do_move_backwardEPvPKvj
W _ZNK7android6VectorINS_12ARMAssembler15branch_target_tEE7do_copyEPvPKvj
W _ZNK7android6VectorINS_12ARMAssembler15branch_target_tEE8do_splatEPvPKvj
T _ZNK7android8Assembly4baseEv
T _ZNK7android8Assembly4sizeEv
T _ZNK7android8Assembly9decStrongEPKv
T _ZNK7android8Assembly9incStrongEPKv
T _ZNK7android9CodeCache6lookupERKNS_15AssemblyKeyBaseE
D _ZTVN7android10VectorImplE
V _ZTVN7android11AssemblyKeyINS_7needs_tEEE
D _ZTVN7android12ARMAssemblerE
D _ZTVN7android12GGLAssemblerE
V _ZTVN7android12SortedVectorINS_16key_value_pair_tINS_9CodeCache5key_tENS2_13cache_entry_tEEEEE
V _ZTVN7android12SortedVectorINS_16key_value_pair_tIPKcPjEEEE
V _ZTVN7android12SortedVectorINS_16key_value_pair_tIPjPKcEEEE
V _ZTVN7android15AssemblyKeyBaseE
V _ZTVN7android16ScanlineAssemblyE
D _ZTVN7android16SortedVectorImplE
D _ZTVN7android17ARMAssemblerProxyE
D _ZTVN7android21ARMAssemblerInterfaceE
V _ZTVN7android6VectorINS_12ARMAssembler15branch_target_tEEE
D _ZTVN7android8AssemblyE
U _ZdlPv
U _Znwj
T __FINI_ARRAY__
T __INIT_ARRAY__
U __aeabi_atexit
U __aeabi_f2d
U __aeabi_fmul
U __aeabi_i2f
U __aeabi_idiv
U __aeabi_idivmod
U __aeabi_lmul
U __aeabi_uidiv
U __aeabi_unwind_cpp_pr0
U __android_log_assert
U __android_log_print
A __bss_end__
A __bss_start
A __bss_start__
T __clzsi2
U __cxa_finalize
U __cxa_guard_acquire
U __cxa_guard_release
U __cxa_pure_virtual
A __data_start
B __dso_handle
A __end__
U __errno
A __exidx_end
A __exidx_start
U __stack_chk_fail
U __stack_chk_guard
A _bss_end__
A _edata
A _end
A _stack
U android_atomic_dec
U android_atomic_inc
U android_memset16
U android_memset32
U atoi
U cacheflush
U clock_gettime
U create_contiguous_mspace
T disasm
T disassemble
U free
T gglBitBlti
T gglGetPixelFormatTable
T gglInit
T gglUninit
T ggl_test_codegen
U malloc
U memcmp
U memcpy
U memmove
U memset
U mprotect
U mspace_free
U mspace_malloc
U mspace_realloc
U printf
U property_get
U pthread_mutex_destroy
U pthread_mutex_init
U pthread_mutex_lock
U pthread_mutex_unlock
U qemu_add_mapping
U qsort
U realloc
T rotate90CW_4x4_16v6
T scanline_col32cb16blend_arm
T scanline_t32cb16blend_arm
U sprintf
U strerror
U sysconf
