V _ZGVN7android9SingletonINS_13SurfaceClientEE5sLockE
V _ZGVN7android9SingletonINS_15ComposerServiceEE5sLockE
V _ZGVN7android9SingletonINS_8ComposerEE5sLockE
U _ZN7android10GraphicLog7logImplEiii
U _ZN7android10GraphicLogC1Ev
U _ZN7android10IInterface8asBinderEv
U _ZN7android10IInterfaceC2Ev
U _ZN7android10IInterfaceD0Ev
U _ZN7android10IInterfaceD1Ev
U _ZN7android10IInterfaceD2Ev
U _ZN7android10OverlayRef13writeToParcelEPNS_6ParcelERKNS_2spIS0_EE
U _ZN7android10OverlayRef14readFromParcelERKNS_6ParcelE
U _ZN7android10VectorImpl11setCapacityEj
U _ZN7android10VectorImpl13editArrayImplEv
U _ZN7android10VectorImpl13finish_vectorEv
U _ZN7android10VectorImpl13removeItemsAtEjj
U _ZN7android10VectorImpl16editItemLocationEj
U _ZN7android10VectorImpl19reservedVectorImpl1Ev
U _ZN7android10VectorImpl19reservedVectorImpl2Ev
U _ZN7android10VectorImpl19reservedVectorImpl3Ev
U _ZN7android10VectorImpl19reservedVectorImpl4Ev
U _ZN7android10VectorImpl19reservedVectorImpl5Ev
U _ZN7android10VectorImpl19reservedVectorImpl6Ev
U _ZN7android10VectorImpl19reservedVectorImpl7Ev
U _ZN7android10VectorImpl19reservedVectorImpl8Ev
U _ZN7android10VectorImpl5clearEv
U _ZN7android10VectorImpl8insertAtEjj
U _ZN7android10VectorImplC2ERKS0_
U _ZN7android10VectorImplC2Ejj
U _ZN7android10VectorImplD2Ev
W _ZN7android10getServiceINS_16ISurfaceComposerEEEiRKNS_8String16EPNS_2spIT_EE
W _ZN7android11BnInterfaceINS_16ISurfaceComposerEE10onAsBinderEv
W _ZN7android11BnInterfaceINS_22ISurfaceComposerClientEE10onAsBinderEv
W _ZN7android11BnInterfaceINS_8ISurfaceEE10onAsBinderEv
U _ZN7android11IMemoryHeap11asInterfaceERKNS_2spINS_7IBinderEEE
T _ZN7android12SharedClientC1Ev
T _ZN7android12SharedClientC2Ev
T _ZN7android12SharedClientD1Ev
T _ZN7android12SharedClientD2Ev
U _ZN7android13GraphicBuffer4lockEjRKNS_4RectEPPv
U _ZN7android13GraphicBuffer6unlockEv
U _ZN7android13GraphicBuffer8setIndexEi
U _ZN7android13GraphicBufferC1Ev
U _ZN7android13bytesPerPixelEi
T _ZN7android13layer_state_t4readERKNS_6ParcelE
U _ZN7android14IPCThreadState13flushCommandsEv
U _ZN7android14IPCThreadState13getCallingPidEv
U _ZN7android14IPCThreadState13getCallingUidEv
U _ZN7android14IPCThreadState4selfEv
T _ZN7android14SurfaceControl11setPositionEii
T _ZN7android14SurfaceControl13isSameSurfaceERKNS_2spIS0_EES4_
T _ZN7android14SurfaceControl13setFreezeTintEj
T _ZN7android14SurfaceControl20writeSurfaceToParcelERKNS_2spIS0_EEPNS_6ParcelE
T _ZN7android14SurfaceControl24setTransparentRegionHintERKNS_6RegionE
T _ZN7android14SurfaceControl4hideEv
T _ZN7android14SurfaceControl4showEi
T _ZN7android14SurfaceControl5clearEv
T _ZN7android14SurfaceControl6freezeEv
T _ZN7android14SurfaceControl7destroyEv
T _ZN7android14SurfaceControl7setSizeEjj
T _ZN7android14SurfaceControl8setAlphaEf
T _ZN7android14SurfaceControl8setFlagsEjj
T _ZN7android14SurfaceControl8setLayerEi
T _ZN7android14SurfaceControl8unfreezeEv
T _ZN7android14SurfaceControl9setMatrixEffff
T _ZN7android14SurfaceControlC1ERKNS_2spINS_21SurfaceComposerClientEEERKNS1_INS_8ISurfaceEEERKNS_22ISurfaceComposerClient14surface_data_tEjjij
T _ZN7android14SurfaceControlC2ERKNS_2spINS_21SurfaceComposerClientEEERKNS1_INS_8ISurfaceEEERKNS_22ISurfaceComposerClient14surface_data_tEjjij
T _ZN7android14SurfaceControlD0Ev
T _ZN7android14SurfaceControlD1Ev
T _ZN7android14SurfaceControlD2Ev
T _ZN7android15ComposerService15getControlBlockEv
T _ZN7android15ComposerService18getComposerServiceEv
T _ZN7android15ComposerServiceC1Ev
T _ZN7android15ComposerServiceC2Ev
B _ZN7android16ISurfaceComposer10descriptorE
T _ZN7android16ISurfaceComposer11asInterfaceERKNS_2spINS_7IBinderEEE
T _ZN7android16ISurfaceComposerC1Ev
T _ZN7android16ISurfaceComposerC2Ev
T _ZN7android16ISurfaceComposerD0Ev
T _ZN7android16ISurfaceComposerD1Ev
T _ZN7android16ISurfaceComposerD2Ev
T _ZN7android16ScreenshotClient6updateEjj
T _ZN7android16ScreenshotClient6updateEv
T _ZN7android16ScreenshotClient7releaseEv
T _ZN7android16ScreenshotClientC1Ev
T _ZN7android16ScreenshotClientC2Ev
W _ZN7android16SharedBufferBase15updateConditionINS_18SharedBufferClient11QueueUpdateEEEiT_
W _ZN7android16SharedBufferBase15updateConditionINS_18SharedBufferClient12CancelUpdateEEEiT_
W _ZN7android16SharedBufferBase15updateConditionINS_18SharedBufferClient13DequeueUpdateEEEiT_
W _ZN7android16SharedBufferBase15updateConditionINS_18SharedBufferServer12RetireUpdateEEEiT_
W _ZN7android16SharedBufferBase15updateConditionINS_18SharedBufferServer12StatusUpdateEEEiT_
T _ZN7android16SharedBufferBase16waitForConditionERKNS0_13ConditionBaseE
T _ZN7android16SharedBufferBaseC1EPNS_12SharedClientEii
T _ZN7android16SharedBufferBaseC2EPNS_12SharedClientEii
T _ZN7android16SharedBufferBaseD1Ev
T _ZN7android16SharedBufferBaseD2Ev
U _ZN7android16SortedVectorImpl25reservedSortedVectorImpl1Ev
U _ZN7android16SortedVectorImpl25reservedSortedVectorImpl2Ev
U _ZN7android16SortedVectorImpl25reservedSortedVectorImpl3Ev
U _ZN7android16SortedVectorImpl25reservedSortedVectorImpl4Ev
U _ZN7android16SortedVectorImpl25reservedSortedVectorImpl5Ev
U _ZN7android16SortedVectorImpl25reservedSortedVectorImpl6Ev
U _ZN7android16SortedVectorImpl25reservedSortedVectorImpl7Ev
U _ZN7android16SortedVectorImpl25reservedSortedVectorImpl8Ev
U _ZN7android16SortedVectorImpl3addEPKv
U _ZN7android16SortedVectorImpl6removeEPKv
U _ZN7android16SortedVectorImplC2Ejj
U _ZN7android16SortedVectorImplD2Ev
T _ZN7android17BnSurfaceComposer10onTransactEjRKNS_6ParcelEPS1_j
T _ZN7android17SharedBufferStack12setTransformEih
T _ZN7android17SharedBufferStack14setDirtyRegionEiRKNS_6RegionE
T _ZN7android17SharedBufferStack4initEi
T _ZN7android17SharedBufferStack7setCropEiRKNS_4RectE
T _ZN7android17SharedBufferStackC1Ev
T _ZN7android17SharedBufferStackC2Ev
W _ZN7android17move_forward_typeINS_13layer_state_tEEEvPT_PKS2_j
T _ZN7android18SharedBufferClient11undoDequeueEi
T _ZN7android18SharedBufferClient12setTransformEij
T _ZN7android18SharedBufferClient14setBufferCountEiRKNS0_22SetBufferCountCallbackE
T _ZN7android18SharedBufferClient14setDirtyRegionEiRKNS_6RegionE
T _ZN7android18SharedBufferClient4lockEi
T _ZN7android18SharedBufferClient5queueEi
T _ZN7android18SharedBufferClient6cancelEi
T _ZN7android18SharedBufferClient7dequeueEv
T _ZN7android18SharedBufferClient7setCropEiRKNS_4RectE
T _ZN7android18SharedBufferClientC1EPNS_12SharedClientEiii
T _ZN7android18SharedBufferClientC2EPNS_12SharedClientEiii
T _ZN7android18SharedBufferServer10BufferList3addEi
T _ZN7android18SharedBufferServer10BufferList6removeEi
T _ZN7android18SharedBufferServer13reallocateAllEv
T _ZN7android18SharedBufferServer13retireAndLockEv
T _ZN7android18SharedBufferServer19reallocateAllExceptEi
T _ZN7android18SharedBufferServer6resizeEi
T _ZN7android18SharedBufferServer9setStatusEi
T _ZN7android18SharedBufferServerC1EPNS_12SharedClientEiii
T _ZN7android18SharedBufferServerC2EPNS_12SharedClientEiii
T _ZN7android18SharedBufferServerD1Ev
T _ZN7android18SharedBufferServerD2Ev
U _ZN7android18getPixelFormatInfoEiPNS_15PixelFormatInfoE
W _ZN7android18move_backward_typeINS_13layer_state_tEEEvPT_PKS2_j
U _ZN7android19GraphicBufferMapper14registerBufferEPK15native_handle_t
U _ZN7android19GraphicBufferMapper16unregisterBufferEPK15native_handle_t
U _ZN7android19GraphicBufferMapperC1Ev
T _ZN7android21SurfaceComposerClient10onFirstRefEv
T _ZN7android21SurfaceComposerClient11setPositionEiii
T _ZN7android21SurfaceComposerClient13createSurfaceEiRKNS_7String8Eijjij
T _ZN7android21SurfaceComposerClient13createSurfaceEiijjij
T _ZN7android21SurfaceComposerClient13freezeDisplayEij
T _ZN7android21SurfaceComposerClient13setFreezeTintEij
T _ZN7android21SurfaceComposerClient14destroySurfaceEi
T _ZN7android21SurfaceComposerClient14getDisplayInfoEiPNS_11DisplayInfoE
T _ZN7android21SurfaceComposerClient14lockLayerStateEi
T _ZN7android21SurfaceComposerClient14setOrientationEiij
T _ZN7android21SurfaceComposerClient15getDisplayWidthEi
T _ZN7android21SurfaceComposerClient15openTransactionEv
T _ZN7android21SurfaceComposerClient15unfreezeDisplayEij
T _ZN7android21SurfaceComposerClient16closeTransactionEv
T _ZN7android21SurfaceComposerClient16getDisplayHeightEi
T _ZN7android21SurfaceComposerClient19getNumberOfDisplaysEv
T _ZN7android21SurfaceComposerClient19linkToComposerDeathERKNS_2spINS_7IBinder14DeathRecipientEEEPvj
T _ZN7android21SurfaceComposerClient21getDisplayOrientationEi
T _ZN7android21SurfaceComposerClient21openGlobalTransactionEv
T _ZN7android21SurfaceComposerClient22closeGlobalTransactionEv
T _ZN7android21SurfaceComposerClient24setTransparentRegionHintEiRKNS_6RegionE
T _ZN7android21SurfaceComposerClient4hideEi
T _ZN7android21SurfaceComposerClient4showEii
T _ZN7android21SurfaceComposerClient6freezeEi
T _ZN7android21SurfaceComposerClient7disposeEv
T _ZN7android21SurfaceComposerClient7setSizeEijj
T _ZN7android21SurfaceComposerClient8setAlphaEif
T _ZN7android21SurfaceComposerClient8setFlagsEijj
T _ZN7android21SurfaceComposerClient8setLayerEii
T _ZN7android21SurfaceComposerClient8unfreezeEi
T _ZN7android21SurfaceComposerClient9setMatrixEiffff
T _ZN7android21SurfaceComposerClientC1Ev
T _ZN7android21SurfaceComposerClientC2Ev
T _ZN7android21SurfaceComposerClientD0Ev
T _ZN7android21SurfaceComposerClientD1Ev
T _ZN7android21SurfaceComposerClientD2Ev
U _ZN7android21defaultServiceManagerEv
B _ZN7android22ISurfaceComposerClient10descriptorE
T _ZN7android22ISurfaceComposerClient11asInterfaceERKNS_2spINS_7IBinderEEE
T _ZN7android22ISurfaceComposerClient14surface_data_t14readFromParcelERKNS_6ParcelE
T _ZN7android22ISurfaceComposerClientC1Ev
T _ZN7android22ISurfaceComposerClientC2Ev
T _ZN7android22ISurfaceComposerClientD0Ev
T _ZN7android22ISurfaceComposerClientD1Ev
T _ZN7android22ISurfaceComposerClientD2Ev
U _ZN7android22checkCallingPermissionERKNS_8String16E
T _ZN7android23BnSurfaceComposerClient10onTransactEjRKNS_6ParcelEPS1_j
W _ZN7android2spINS_11IMemoryHeapEEC1ERKS2_
W _ZN7android2spINS_11IMemoryHeapEEaSERKS2_
W _ZN7android2spINS_13GraphicBufferEED1Ev
W _ZN7android2spINS_13GraphicBufferEEaSERKS2_
W _ZN7android2spINS_14SurfaceControlEEaSEPS1_
W _ZN7android2spINS_16ISurfaceComposerEED1Ev
W _ZN7android2spINS_16ISurfaceComposerEEaSEPS1_
W _ZN7android2spINS_16ISurfaceComposerEEaSERKS2_
W _ZN7android2spINS_16ISurfaceComposerEEaSINS_17BpSurfaceComposerEEERS2_PT_
W _ZN7android2spINS_22ISurfaceComposerClientEED1Ev
W _ZN7android2spINS_22ISurfaceComposerClientEEaSEPS1_
W _ZN7android2spINS_22ISurfaceComposerClientEEaSERKS2_
W _ZN7android2spINS_22ISurfaceComposerClientEEaSINS_23BpSurfaceComposerClientEEERS2_PT_
W _ZN7android2spINS_7IBinderEED1Ev
W _ZN7android2spINS_7SurfaceEEaSEPS1_
W _ZN7android2spINS_8ISurfaceEEC1ERKS2_
W _ZN7android2spINS_8ISurfaceEED1Ev
W _ZN7android2spINS_8ISurfaceEEaSEPS1_
W _ZN7android2spINS_8ISurfaceEEaSERKS2_
W _ZN7android2spINS_8ISurfaceEEaSINS_9BpSurfaceEEERS2_PT_
U _ZN7android4Rect11makeInvalidEv
U _ZN7android6Parcel10writeInt32Ei
U _ZN7android6Parcel12writeInplaceEj
U _ZN7android6Parcel12writeString8ERKNS_7String8E
U _ZN7android6Parcel17writeStrongBinderERKNS_2spINS_7IBinderEEE
U _ZN7android6Parcel19writeInterfaceTokenERKNS_8String16E
U _ZN7android6Parcel5writeEPKvj
U _ZN7android6Parcel5writeERKNS_11FlattenableE
U _ZN7android6ParcelC1Ev
U _ZN7android6ParcelD1Ev
U _ZN7android6Region3setERKNS_4RectE
U _ZN7android6Region3setEjj
U _ZN7android6Region4readEPKv
U _ZN7android6Region6orSelfERKNS_4RectE
U _ZN7android6Region7andSelfERKS0_
U _ZN7android6RegionC1ERKNS_4RectE
U _ZN7android6RegionC1ERKS0_
U _ZN7android6RegionC1Ev
U _ZN7android6RegionD1Ev
U _ZN7android6RegionaSERKS0_
U _ZN7android7BBinder10onTransactEjRKNS_6ParcelEPS1_j
U _ZN7android7BBinder10pingBinderEv
U _ZN7android7BBinder11linkToDeathERKNS_2spINS_7IBinder14DeathRecipientEEEPvj
U _ZN7android7BBinder11localBinderEv
U _ZN7android7BBinder12attachObjectEPKvPvS3_PFvS2_S3_S3_E
U _ZN7android7BBinder12detachObjectEPKv
U _ZN7android7BBinder13unlinkToDeathERKNS_2wpINS_7IBinder14DeathRecipientEEEPvjPS4_
U _ZN7android7BBinder4dumpEiRKNS_6VectorINS_8String16EEE
U _ZN7android7BBinder8transactEjRKNS_6ParcelEPS1_j
U _ZN7android7BBinderD0Ev
U _ZN7android7BBinderD1Ev
U _ZN7android7BBinderD2Ev
U _ZN7android7IBinder11localBinderEv
U _ZN7android7IBinder12remoteBinderEv
U _ZN7android7IBinder19queryLocalInterfaceERKNS_8String16E
U _ZN7android7IBinderD0Ev
U _ZN7android7IBinderD1Ev
U _ZN7android7RefBase10onFirstRefEv
U _ZN7android7RefBase12weakref_type16attemptIncStrongEPKv
U _ZN7android7RefBase12weakref_type7decWeakEPKv
U _ZN7android7RefBase12weakref_type7incWeakEPKv
U _ZN7android7RefBase13onLastWeakRefEPKv
U _ZN7android7RefBase15onLastStrongRefEPKv
U _ZN7android7RefBase20onIncStrongAttemptedEjPKv
U _ZN7android7RefBaseC2Ev
U _ZN7android7RefBaseD2Ev
U _ZN7android7String86appendEPKc
U _ZN7android7String8C1Ev
U _ZN7android7String8D1Ev
T _ZN7android7Surface10BufferInfo3setEj
T _ZN7android7Surface10BufferInfo3setEjjj
T _ZN7android7Surface10BufferInfoC1Ev
T _ZN7android7Surface10BufferInfoC2Ev
T _ZN7android7Surface10disconnectEi
T _ZN7android7Surface10lockBufferEP13ANativeWindowP23android_native_buffer_t
T _ZN7android7Surface10lockBufferEP23android_native_buffer_t
T _ZN7android7Surface11queueBufferEP13ANativeWindowP23android_native_buffer_t
T _ZN7android7Surface11queueBufferEP23android_native_buffer_t
T _ZN7android7Surface12cancelBufferEP13ANativeWindowP23android_native_buffer_t
T _ZN7android7Surface12cancelBufferEP23android_native_buffer_t
T _ZN7android7Surface13dequeueBufferEP13ANativeWindowPP23android_native_buffer_t
T _ZN7android7Surface13dequeueBufferEPP23android_native_buffer_t
T _ZN7android7Surface13dispatch_cropESt9__va_list
T _ZN7android7Surface13unlockAndPostEv
T _ZN7android7Surface13writeToParcelERKNS_2spIS0_EEPNS_6ParcelE
T _ZN7android7Surface14readFromParcelERKNS_6ParcelE
T _ZN7android7Surface14setBufferCountEi
T _ZN7android7Surface15getBufferLockedEijjjj
B _ZN7android7Surface15sCachedSurfacesE
T _ZN7android7Surface15setSwapIntervalEP13ANativeWindowi
T _ZN7android7Surface16dispatch_connectESt9__va_list
T _ZN7android7Surface16setSwapRectangleERKNS_4RectE
T _ZN7android7Surface17dispatch_setUsageESt9__va_list
T _ZN7android7Surface18setBuffersGeometryEiii
T _ZN7android7Surface19dispatch_disconnectESt9__va_list
B _ZN7android7Surface19sCachedSurfacesLockE
T _ZN7android7Surface19setBuffersTransformEi
T _ZN7android7Surface25cleanCachedSurfacesLockedEv
T _ZN7android7Surface25dispatch_set_buffer_countESt9__va_list
T _ZN7android7Surface29dispatch_set_buffers_geometryESt9__va_list
T _ZN7android7Surface30dispatch_set_buffers_transformESt9__va_list
T _ZN7android7Surface4cropEPKNS_4RectE
T _ZN7android7Surface4initEv
T _ZN7android7Surface4lockEPNS0_11SurfaceInfoEPNS_6RegionEb
T _ZN7android7Surface4lockEPNS0_11SurfaceInfoEb
T _ZN7android7Surface5queryEP13ANativeWindowiPi
T _ZN7android7Surface5queryEiPi
T _ZN7android7Surface7connectEi
T _ZN7android7Surface7isValidEv
T _ZN7android7Surface7performEP13ANativeWindowiz
T _ZN7android7Surface7performEiSt9__va_list
T _ZN7android7Surface8setUsageEj
T _ZN7android7SurfaceC1ERKNS_2spINS_14SurfaceControlEEE
T _ZN7android7SurfaceC1ERKNS_6ParcelERKNS_2spINS_7IBinderEEE
T _ZN7android7SurfaceC2ERKNS_2spINS_14SurfaceControlEEE
T _ZN7android7SurfaceC2ERKNS_6ParcelERKNS_2spINS_7IBinderEEE
T _ZN7android7SurfaceD0Ev
T _ZN7android7SurfaceD1Ev
T _ZN7android7SurfaceD2Ev
T _ZN7android8ISurface10BufferHeapC1EjjiiiRKNS_2spINS_11IMemoryHeapEEE
T _ZN7android8ISurface10BufferHeapC1EjjiiijjRKNS_2spINS_11IMemoryHeapEEE
T _ZN7android8ISurface10BufferHeapC1Ev
T _ZN7android8ISurface10BufferHeapC2EjjiiiRKNS_2spINS_11IMemoryHeapEEE
T _ZN7android8ISurface10BufferHeapC2EjjiiijjRKNS_2spINS_11IMemoryHeapEEE
T _ZN7android8ISurface10BufferHeapC2Ev
T _ZN7android8ISurface10BufferHeapD1Ev
T _ZN7android8ISurface10BufferHeapD2Ev
B _ZN7android8ISurface10descriptorE
T _ZN7android8ISurface11asInterfaceERKNS_2spINS_7IBinderEEE
T _ZN7android8ISurfaceC1Ev
T _ZN7android8ISurfaceC2Ev
T _ZN7android8ISurfaceD0Ev
T _ZN7android8ISurfaceD1Ev
T _ZN7android8ISurfaceD2Ev
U _ZN7android8String16C1EPKc
U _ZN7android8String16D1Ev
T _ZN7android9BnSurface10onTransactEjRKNS_6ParcelEPS1_j
U _ZN7android9BpRefBase10onFirstRefEv
U _ZN7android9BpRefBase15onLastStrongRefEPKv
U _ZN7android9BpRefBase20onIncStrongAttemptedEjPKv
U _ZN7android9BpRefBaseC2ERKNS_2spINS_7IBinderEEE
U _ZN7android9BpRefBaseD0Ev
U _ZN7android9BpRefBaseD1Ev
U _ZN7android9BpRefBaseD2Ev
U _ZN7android9CallStack6updateEii
U _ZN7android9CallStackC1Ev
U _ZN7android9CallStackD1Ev
U _ZN7android9SingletonINS_10GraphicLogEE5sLockE
U _ZN7android9SingletonINS_10GraphicLogEE9sInstanceE
W _ZN7android9SingletonINS_13SurfaceClientEE11getInstanceEv
V _ZN7android9SingletonINS_13SurfaceClientEE5sLockE
V _ZN7android9SingletonINS_13SurfaceClientEE9sInstanceE
W _ZN7android9SingletonINS_13SurfaceClientEEC1Ev
W _ZN7android9SingletonINS_13SurfaceClientEEC2Ev
W _ZN7android9SingletonINS_13SurfaceClientEED1Ev
W _ZN7android9SingletonINS_13SurfaceClientEED2Ev
W _ZN7android9SingletonINS_15ComposerServiceEE11getInstanceEv
V _ZN7android9SingletonINS_15ComposerServiceEE5sLockE
V _ZN7android9SingletonINS_15ComposerServiceEE9sInstanceE
W _ZN7android9SingletonINS_15ComposerServiceEEC1Ev
W _ZN7android9SingletonINS_15ComposerServiceEEC2Ev
W _ZN7android9SingletonINS_15ComposerServiceEED1Ev
W _ZN7android9SingletonINS_15ComposerServiceEED2Ev
U _ZN7android9SingletonINS_19GraphicBufferMapperEE5sLockE
U _ZN7android9SingletonINS_19GraphicBufferMapperEE9sInstanceE
W _ZN7android9SingletonINS_8ComposerEE11getInstanceEv
V _ZN7android9SingletonINS_8ComposerEE5sLockE
V _ZN7android9SingletonINS_8ComposerEE9sInstanceE
W _ZN7android9SingletonINS_8ComposerEEC1Ev
W _ZN7android9SingletonINS_8ComposerEEC2Ev
W _ZN7android9SingletonINS_8ComposerEED1Ev
W _ZN7android9SingletonINS_8ComposerEED2Ev
T _ZNK7android12SharedClient8validateEj
W _ZNK7android12SortedVectorINS_13layer_state_tEE10do_compareEPKvS4_
W _ZNK7android12SortedVectorINS_13layer_state_tEE10do_destroyEPvj
W _ZNK7android12SortedVectorINS_13layer_state_tEE12do_constructEPvj
W _ZNK7android12SortedVectorINS_13layer_state_tEE15do_move_forwardEPvPKvj
W _ZNK7android12SortedVectorINS_13layer_state_tEE16do_move_backwardEPvPKvj
W _ZNK7android12SortedVectorINS_13layer_state_tEE7do_copyEPvPKvj
W _ZNK7android12SortedVectorINS_13layer_state_tEE8do_splatEPvPKvj
W _ZNK7android12SortedVectorINS_16key_value_pair_tINS_2wpINS_7IBinderEEENS2_INS_7SurfaceEEEEEE10do_compareEPKvSA_
W _ZNK7android12SortedVectorINS_16key_value_pair_tINS_2wpINS_7IBinderEEENS2_INS_7SurfaceEEEEEE10do_destroyEPvj
W _ZNK7android12SortedVectorINS_16key_value_pair_tINS_2wpINS_7IBinderEEENS2_INS_7SurfaceEEEEEE12do_constructEPvj
W _ZNK7android12SortedVectorINS_16key_value_pair_tINS_2wpINS_7IBinderEEENS2_INS_7SurfaceEEEEEE15do_move_forwardEPvPKvj
W _ZNK7android12SortedVectorINS_16key_value_pair_tINS_2wpINS_7IBinderEEENS2_INS_7SurfaceEEEEEE16do_move_backwardEPvPKvj
W _ZNK7android12SortedVectorINS_16key_value_pair_tINS_2wpINS_7IBinderEEENS2_INS_7SurfaceEEEEEE7do_copyEPvPKvj
W _ZNK7android12SortedVectorINS_16key_value_pair_tINS_2wpINS_7IBinderEEENS2_INS_7SurfaceEEEEEE8do_splatEPvPKvj
W _ZNK7android12SortedVectorINS_2spINS_21SurfaceComposerClientEEEE10do_compareEPKvS6_
W _ZNK7android12SortedVectorINS_2spINS_21SurfaceComposerClientEEEE10do_destroyEPvj
W _ZNK7android12SortedVectorINS_2spINS_21SurfaceComposerClientEEEE12do_constructEPvj
W _ZNK7android12SortedVectorINS_2spINS_21SurfaceComposerClientEEEE15do_move_forwardEPvPKvj
W _ZNK7android12SortedVectorINS_2spINS_21SurfaceComposerClientEEEE16do_move_backwardEPvPKvj
W _ZNK7android12SortedVectorINS_2spINS_21SurfaceComposerClientEEEE7do_copyEPvPKvj
W _ZNK7android12SortedVectorINS_2spINS_21SurfaceComposerClientEEEE8do_splatEPvPKvj
W _ZNK7android12SortedVectorINS_2wpINS_21SurfaceComposerClientEEEE10do_compareEPKvS6_
W _ZNK7android12SortedVectorINS_2wpINS_21SurfaceComposerClientEEEE10do_destroyEPvj
W _ZNK7android12SortedVectorINS_2wpINS_21SurfaceComposerClientEEEE12do_constructEPvj
W _ZNK7android12SortedVectorINS_2wpINS_21SurfaceComposerClientEEEE15do_move_forwardEPvPKvj
W _ZNK7android12SortedVectorINS_2wpINS_21SurfaceComposerClientEEEE16do_move_backwardEPvPKvj
W _ZNK7android12SortedVectorINS_2wpINS_21SurfaceComposerClientEEEE7do_copyEPvPKvj
W _ZNK7android12SortedVectorINS_2wpINS_21SurfaceComposerClientEEEE8do_splatEPvPKvj
U _ZNK7android13GraphicBuffer8getIndexEv
T _ZNK7android13layer_state_t5writeERNS_6ParcelE
T _ZNK7android14SurfaceControl10getSurfaceEv
T _ZNK7android14SurfaceControl8validateEv
T _ZNK7android16ISurfaceComposer22getInterfaceDescriptorEv
T _ZNK7android16ScreenshotClient7getSizeEv
T _ZNK7android16ScreenshotClient8getWidthEv
T _ZNK7android16ScreenshotClient9getFormatEv
T _ZNK7android16ScreenshotClient9getHeightEv
T _ZNK7android16ScreenshotClient9getPixelsEv
T _ZNK7android16ScreenshotClient9getStrideEv
T _ZNK7android16SharedBufferBase11getIdentityEv
T _ZNK7android16SharedBufferBase4dumpEPKc
T _ZNK7android16SharedBufferBase9getStatusEv
U _ZNK7android16SortedVectorImpl7indexOfEPKv
T _ZNK7android17SharedBufferStack12getTransformEi
T _ZNK7android17SharedBufferStack14getDirtyRegionEi
T _ZNK7android17SharedBufferStack7getCropEi
T _ZNK7android18SharedBufferClient11computeTailEv
T _ZNK7android18SharedBufferClient13needNewBufferEi
T _ZNK7android18SharedBufferServer12getTransformEi
T _ZNK7android18SharedBufferServer14getDirtyRegionEi
T _ZNK7android18SharedBufferServer14getQueuedCountEv
T _ZNK7android18SharedBufferServer7getCropEi
T _ZNK7android18SharedBufferServer8getStatsEv
T _ZNK7android21SurfaceComposerClient10connectionEv
T _ZNK7android21SurfaceComposerClient9initCheckEv
T _ZNK7android22ISurfaceComposerClient14surface_data_t13writeToParcelEPNS_6ParcelE
T _ZNK7android22ISurfaceComposerClient22getInterfaceDescriptorEv
U _ZNK7android6Parcel11readInplaceEj
U _ZNK7android6Parcel11readString8Ev
U _ZNK7android6Parcel14checkInterfaceEPNS_7IBinderE
U _ZNK7android6Parcel16readStrongBinderEv
U _ZNK7android6Parcel4readEPvj
U _ZNK7android6Parcel4readERNS_11FlattenableE
U _ZNK7android6Parcel9readInt32Ev
U _ZNK7android6Region3endEv
U _ZNK7android6Region5beginEv
U _ZNK7android6Region5writeEPvj
U _ZNK7android6Region8getArrayEPj
U _ZNK7android6Region8subtractERKS0_
W _ZNK7android6VectorINS_2spINS_13GraphicBufferEEEE10do_destroyEPvj
W _ZNK7android6VectorINS_2spINS_13GraphicBufferEEEE12do_constructEPvj
W _ZNK7android6VectorINS_2spINS_13GraphicBufferEEEE15do_move_forwardEPvPKvj
W _ZNK7android6VectorINS_2spINS_13GraphicBufferEEEE16do_move_backwardEPvPKvj
W _ZNK7android6VectorINS_2spINS_13GraphicBufferEEEE7do_copyEPvPKvj
W _ZNK7android6VectorINS_2spINS_13GraphicBufferEEEE8do_splatEPvPKvj
U _ZNK7android7BBinder10findObjectEPKv
U _ZNK7android7BBinder13isBinderAliveEv
U _ZNK7android7BBinder22getInterfaceDescriptorEv
U _ZNK7android7IBinder13checkSubclassEPKv
U _ZNK7android7RefBase10createWeakEPKv
U _ZNK7android7RefBase9decStrongEPKv
U _ZNK7android7RefBase9incStrongEPKv
T _ZNK7android7Surface10BufferInfo14validateBufferERKNS_2spINS_13GraphicBufferEEE
T _ZNK7android7Surface10BufferInfo3getEPjS2_S2_S2_
T _ZNK7android7Surface11getISurfaceEv
T _ZNK7android7Surface13needNewBufferEiPjS1_S1_S1_
T _ZNK7android7Surface14getBufferIndexERKNS_2spINS_13GraphicBufferEEE
T _ZNK7android7Surface15getConnectedApiEv
T _ZNK7android7Surface8validateEv
T _ZNK7android8ISurface22getInterfaceDescriptorEv
U _ZNK7android9CallStack4dumpEPKc
V _ZTCN7android11BnInterfaceINS_16ISurfaceComposerEEE0_NS_10IInterfaceE
V _ZTCN7android11BnInterfaceINS_16ISurfaceComposerEEE0_S1_
V _ZTCN7android11BnInterfaceINS_16ISurfaceComposerEEE4_NS_7BBinderE
V _ZTCN7android11BnInterfaceINS_16ISurfaceComposerEEE4_NS_7IBinderE
V _ZTCN7android11BnInterfaceINS_22ISurfaceComposerClientEEE0_NS_10IInterfaceE
V _ZTCN7android11BnInterfaceINS_22ISurfaceComposerClientEEE0_S1_
V _ZTCN7android11BnInterfaceINS_22ISurfaceComposerClientEEE4_NS_7BBinderE
V _ZTCN7android11BnInterfaceINS_22ISurfaceComposerClientEEE4_NS_7IBinderE
V _ZTCN7android11BnInterfaceINS_8ISurfaceEEE0_NS_10IInterfaceE
V _ZTCN7android11BnInterfaceINS_8ISurfaceEEE0_S1_
V _ZTCN7android11BnInterfaceINS_8ISurfaceEEE4_NS_7BBinderE
V _ZTCN7android11BnInterfaceINS_8ISurfaceEEE4_NS_7IBinderE
V _ZTCN7android11BpInterfaceINS_16ISurfaceComposerEEE0_NS_10IInterfaceE
V _ZTCN7android11BpInterfaceINS_16ISurfaceComposerEEE0_S1_
V _ZTCN7android11BpInterfaceINS_16ISurfaceComposerEEE4_NS_9BpRefBaseE
V _ZTCN7android11BpInterfaceINS_22ISurfaceComposerClientEEE0_NS_10IInterfaceE
V _ZTCN7android11BpInterfaceINS_22ISurfaceComposerClientEEE0_S1_
V _ZTCN7android11BpInterfaceINS_22ISurfaceComposerClientEEE4_NS_9BpRefBaseE
V _ZTCN7android11BpInterfaceINS_8ISurfaceEEE0_NS_10IInterfaceE
V _ZTCN7android11BpInterfaceINS_8ISurfaceEEE0_S1_
V _ZTCN7android11BpInterfaceINS_8ISurfaceEEE4_NS_9BpRefBaseE
D _ZTCN7android16ISurfaceComposerE0_NS_10IInterfaceE
D _ZTCN7android17BnSurfaceComposerE0_NS_10IInterfaceE
D _ZTCN7android17BnSurfaceComposerE0_NS_11BnInterfaceINS_16ISurfaceComposerEEE
D _ZTCN7android17BnSurfaceComposerE0_NS_16ISurfaceComposerE
D _ZTCN7android17BnSurfaceComposerE4_NS_7BBinderE
D _ZTCN7android17BnSurfaceComposerE4_NS_7IBinderE
V _ZTCN7android17BpSurfaceComposerE0_NS_10IInterfaceE
V _ZTCN7android17BpSurfaceComposerE0_NS_11BpInterfaceINS_16ISurfaceComposerEEE
V _ZTCN7android17BpSurfaceComposerE0_NS_16ISurfaceComposerE
V _ZTCN7android17BpSurfaceComposerE4_NS_9BpRefBaseE
D _ZTCN7android22ISurfaceComposerClientE0_NS_10IInterfaceE
D _ZTCN7android23BnSurfaceComposerClientE0_NS_10IInterfaceE
D _ZTCN7android23BnSurfaceComposerClientE0_NS_11BnInterfaceINS_22ISurfaceComposerClientEEE
D _ZTCN7android23BnSurfaceComposerClientE0_NS_22ISurfaceComposerClientE
D _ZTCN7android23BnSurfaceComposerClientE4_NS_7BBinderE
D _ZTCN7android23BnSurfaceComposerClientE4_NS_7IBinderE
V _ZTCN7android23BpSurfaceComposerClientE0_NS_10IInterfaceE
V _ZTCN7android23BpSurfaceComposerClientE0_NS_11BpInterfaceINS_22ISurfaceComposerClientEEE
V _ZTCN7android23BpSurfaceComposerClientE0_NS_22ISurfaceComposerClientE
V _ZTCN7android23BpSurfaceComposerClientE4_NS_9BpRefBaseE
D _ZTCN7android8ISurfaceE0_NS_10IInterfaceE
D _ZTCN7android9BnSurfaceE0_NS_10IInterfaceE
D _ZTCN7android9BnSurfaceE0_NS_11BnInterfaceINS_8ISurfaceEEE
D _ZTCN7android9BnSurfaceE0_NS_8ISurfaceE
D _ZTCN7android9BnSurfaceE4_NS_7BBinderE
D _ZTCN7android9BnSurfaceE4_NS_7IBinderE
V _ZTCN7android9BpSurfaceE0_NS_10IInterfaceE
V _ZTCN7android9BpSurfaceE0_NS_11BpInterfaceINS_8ISurfaceEEE
V _ZTCN7android9BpSurfaceE0_NS_8ISurfaceE
V _ZTCN7android9BpSurfaceE4_NS_9BpRefBaseE
V _ZTTN7android11BnInterfaceINS_16ISurfaceComposerEEE
V _ZTTN7android11BnInterfaceINS_22ISurfaceComposerClientEEE
V _ZTTN7android11BnInterfaceINS_8ISurfaceEEE
V _ZTTN7android11BpInterfaceINS_16ISurfaceComposerEEE
V _ZTTN7android11BpInterfaceINS_22ISurfaceComposerClientEEE
V _ZTTN7android11BpInterfaceINS_8ISurfaceEEE
D _ZTTN7android16ISurfaceComposerE
D _ZTTN7android17BnSurfaceComposerE
V _ZTTN7android17BpSurfaceComposerE
D _ZTTN7android22ISurfaceComposerClientE
D _ZTTN7android23BnSurfaceComposerClientE
V _ZTTN7android23BpSurfaceComposerClientE
D _ZTTN7android8ISurfaceE
D _ZTTN7android9BnSurfaceE
V _ZTTN7android9BpSurfaceE
V _ZTVN7android11BnInterfaceINS_16ISurfaceComposerEEE
V _ZTVN7android11BnInterfaceINS_22ISurfaceComposerClientEEE
V _ZTVN7android11BnInterfaceINS_8ISurfaceEEE
V _ZTVN7android11BpInterfaceINS_16ISurfaceComposerEEE
V _ZTVN7android11BpInterfaceINS_22ISurfaceComposerClientEEE
V _ZTVN7android11BpInterfaceINS_8ISurfaceEEE
V _ZTVN7android12SortedVectorINS_13layer_state_tEEE
V _ZTVN7android12SortedVectorINS_16key_value_pair_tINS_2wpINS_7IBinderEEENS2_INS_7SurfaceEEEEEEE
V _ZTVN7android12SortedVectorINS_2spINS_21SurfaceComposerClientEEEEE
V _ZTVN7android12SortedVectorINS_2wpINS_21SurfaceComposerClientEEEEE
V _ZTVN7android13EGLNativeBaseI13ANativeWindowNS_7SurfaceENS_7RefBaseEEE
D _ZTVN7android14SurfaceControlE
D _ZTVN7android16ISurfaceComposerE
V _ZTVN7android16SharedBufferBase13ConditionBaseE
D _ZTVN7android17BnSurfaceComposerE
V _ZTVN7android17BpSurfaceComposerE
V _ZTVN7android18SharedBufferClient13LockConditionE
V _ZTVN7android18SharedBufferClient16DequeueConditionE
V _ZTVN7android18SharedBufferClient22SetBufferCountCallbackE
D _ZTVN7android21SurfaceComposerClientE
D _ZTVN7android22ISurfaceComposerClientE
D _ZTVN7android23BnSurfaceComposerClientE
V _ZTVN7android23BpSurfaceComposerClientE
V _ZTVN7android6VectorINS_2spINS_13GraphicBufferEEEEE
D _ZTVN7android7SurfaceE
D _ZTVN7android8ISurfaceE
D _ZTVN7android9BnSurfaceE
V _ZTVN7android9BpSurfaceE
V _ZTVZN7android7Surface14setBufferCountEiE17SetBufferCountIPC
T _ZThn4_N7android17BnSurfaceComposer10onTransactEjRKNS_6ParcelEPS1_j
T _ZThn4_N7android23BnSurfaceComposerClient10onTransactEjRKNS_6ParcelEPS1_j
T _ZThn4_N7android9BnSurface10onTransactEjRKNS_6ParcelEPS1_j
U _ZTv0_n12_N7android10IInterfaceD0Ev
U _ZTv0_n12_N7android10IInterfaceD1Ev
W _ZTv0_n12_N7android11BnInterfaceINS_16ISurfaceComposerEED0Ev
W _ZTv0_n12_N7android11BnInterfaceINS_16ISurfaceComposerEED1Ev
W _ZTv0_n12_N7android11BnInterfaceINS_22ISurfaceComposerClientEED0Ev
W _ZTv0_n12_N7android11BnInterfaceINS_22ISurfaceComposerClientEED1Ev
W _ZTv0_n12_N7android11BnInterfaceINS_8ISurfaceEED0Ev
W _ZTv0_n12_N7android11BnInterfaceINS_8ISurfaceEED1Ev
W _ZTv0_n12_N7android11BpInterfaceINS_16ISurfaceComposerEED0Ev
W _ZTv0_n12_N7android11BpInterfaceINS_16ISurfaceComposerEED1Ev
W _ZTv0_n12_N7android11BpInterfaceINS_22ISurfaceComposerClientEED0Ev
W _ZTv0_n12_N7android11BpInterfaceINS_22ISurfaceComposerClientEED1Ev
W _ZTv0_n12_N7android11BpInterfaceINS_8ISurfaceEED0Ev
W _ZTv0_n12_N7android11BpInterfaceINS_8ISurfaceEED1Ev
T _ZTv0_n12_N7android16ISurfaceComposerD0Ev
T _ZTv0_n12_N7android16ISurfaceComposerD1Ev
W _ZTv0_n12_N7android17BnSurfaceComposerD0Ev
W _ZTv0_n12_N7android17BnSurfaceComposerD1Ev
W _ZTv0_n12_N7android17BpSurfaceComposerD0Ev
W _ZTv0_n12_N7android17BpSurfaceComposerD1Ev
T _ZTv0_n12_N7android22ISurfaceComposerClientD0Ev
T _ZTv0_n12_N7android22ISurfaceComposerClientD1Ev
W _ZTv0_n12_N7android23BnSurfaceComposerClientD0Ev
W _ZTv0_n12_N7android23BnSurfaceComposerClientD1Ev
W _ZTv0_n12_N7android23BpSurfaceComposerClientD0Ev
W _ZTv0_n12_N7android23BpSurfaceComposerClientD1Ev
U _ZTv0_n12_N7android7BBinderD0Ev
U _ZTv0_n12_N7android7BBinderD1Ev
U _ZTv0_n12_N7android7IBinderD0Ev
U _ZTv0_n12_N7android7IBinderD1Ev
T _ZTv0_n12_N7android8ISurfaceD0Ev
T _ZTv0_n12_N7android8ISurfaceD1Ev
W _ZTv0_n12_N7android9BnSurfaceD0Ev
W _ZTv0_n12_N7android9BnSurfaceD1Ev
U _ZTv0_n12_N7android9BpRefBaseD0Ev
U _ZTv0_n12_N7android9BpRefBaseD1Ev
W _ZTv0_n12_N7android9BpSurfaceD0Ev
W _ZTv0_n12_N7android9BpSurfaceD1Ev
U _ZTv0_n16_N7android9BpRefBase10onFirstRefEv
U _ZTv0_n20_N7android9BpRefBase15onLastStrongRefEPKv
U _ZTv0_n24_N7android9BpRefBase20onIncStrongAttemptedEjPKv
U _ZdaPv
U _ZdlPv
U _Znaj
U _Znwj
T __FINI_ARRAY__
T __INIT_ARRAY__
U __aeabi_atexit
U __aeabi_idivmod
U __aeabi_ldivmod
U __aeabi_unwind_cpp_pr0
U __aeabi_unwind_cpp_pr1
U __android_log_print
A __bss_end__
A __bss_start
A __bss_start__
T __clzsi2
U __cxa_finalize
U __cxa_pure_virtual
A __data_start
B __dso_handle
A __end__
A __exidx_end
A __exidx_start
U __stack_chk_fail
U __stack_chk_guard
A _bss_end__
A _edata
A _end
A _stack
U android_atomic_and
U android_atomic_dec
U android_atomic_inc
U android_atomic_or
U android_atomic_release_cas
U android_atomic_release_store
U getpid
U memcpy
U memmove
U memset
U pthread_cond_broadcast
U pthread_cond_destroy
U pthread_cond_init
U pthread_cond_timedwait_relative_np
U pthread_condattr_destroy
U pthread_condattr_init
U pthread_condattr_setpshared
U pthread_mutex_destroy
U pthread_mutex_init
U pthread_mutex_lock
U pthread_mutex_trylock
U pthread_mutex_unlock
U pthread_mutexattr_destroy
U pthread_mutexattr_init
U pthread_mutexattr_setpshared
U pthread_rwlock_destroy
U pthread_rwlock_init
U pthread_rwlock_rdlock
U pthread_rwlock_unlock
U pthread_rwlock_wrlock
U snprintf
U strerror
U strzcmp16
U systemTime
U usleep
