T _Z10CleanUpDPBP12tagAVCHandleP12tagCommonObj
T _Z10DPBInitPicP12tagCommonObji
T _Z11ReOrderListP12tagCommonObj
T _Z11RefListInitP12tagCommonObj
T _Z11is_long_refP14tagPictureData
T _Z11predict_nnzP12tagCommonObjii
T _Z12SortPicByPOCPP14tagPictureDataii
T _Z12is_short_refP14tagPictureData
T _Z13DPBInitBufferP12tagAVCHandleP12tagCommonObj
T _Z13MemMgrCtrlOp1P12tagAVCHandleP12tagCommonObjP15tagDecPicBufferi
T _Z13MemMgrCtrlOp2P12tagAVCHandleP15tagDecPicBufferi
T _Z13MemMgrCtrlOp3P12tagAVCHandleP12tagCommonObjP15tagDecPicBufferjj
T _Z13MemMgrCtrlOp4P12tagAVCHandleP12tagCommonObjP15tagDecPicBufferj
T _Z13MemMgrCtrlOp5P12tagAVCHandleP12tagCommonObjP15tagDecPicBuffer
T _Z13MemMgrCtrlOp6P12tagAVCHandleP12tagCommonObjP15tagDecPicBufferj
T _Z14DeblockPictureP12tagCommonObj
T _Z14GetLongTermPicP12tagCommonObji
T _Z14SortFrameByPOCPP13tagFrameStoreii
T _Z15GetShortTermPicP12tagCommonObji
T _Z15ReorderLongTermP12tagCommonObjiPii
T _Z15SortPicByPicNumPP14tagPictureDatai
T _Z15mb_is_availableP13tagMacroblockjii
T _Z16ReorderShortTermP12tagCommonObjiPii
T _Z17ReorderRefPicListP12tagCommonObji
T _Z17SortPicByLTPicNumPP14tagPictureDatai
T _Z17StorePictureInDPBP12tagAVCHandleP12tagCommonObj
T _Z18predict_nnz_chromaP12tagCommonObjii
T _Z20AVCConfigureSequenceP12tagAVCHandleP12tagCommonObjb
T _Z20unmark_for_referenceP12tagAVCHandleP15tagDecPicBufferj
T _Z21SortFrameByLTFrameIdxPP13tagFrameStorei
T _Z22DPBReleaseCurrentFrameP12tagAVCHandleP12tagCommonObj
T _Z22sliding_window_processP12tagAVCHandleP12tagCommonObjP15tagDecPicBuffer
T _Z23SortFrameByFrameNumWrapPP13tagFrameStorei
T _Z23SortPicByPicNumLongTermPP14tagPictureDatai
T _Z23adaptive_memory_markingP12tagAVCHandleP12tagCommonObjP15tagDecPicBufferP14tagSliceHeader
T _Z24GetMotionVectorPredictorP12tagCommonObji
T _Z24InitNeighborAvailabilityP12tagCommonObji
T _Z26FmoGenerateType0MapUnitMapPiPjjj
T _Z26FmoGenerateType1MapUnitMapPiijj
T _Z26FmoGenerateType2MapUnitMapP14tagPicParamSetPiijj
T _Z26FmoGenerateType3MapUnitMapP12tagCommonObjP14tagPicParamSetPii
T _Z26FmoGenerateType4MapUnitMapPiiij
T _Z26FmoGenerateType5MapUnitMapPiP12tagCommonObjij
T _Z26FmoGenerateType6MapUnitMapPiS_j
T _Z49unmark_long_term_frame_for_reference_by_frame_idxP12tagAVCHandleP15tagDecPicBufferj
T _Z7FMOInitP12tagCommonObj
T _Z7InitDPBP12tagAVCHandleP12tagCommonObjiib
T __FINI_ARRAY__
T __INIT_ARRAY__
U __aeabi_uidiv
U __aeabi_uidivmod
U __aeabi_unwind_cpp_pr0
A __bss_end__
A __bss_start
A __bss_start__
U __cxa_finalize
A __data_start
B __dso_handle
A __end__
A __exidx_end
A __exidx_start
U __stack_chk_fail
U __stack_chk_guard
A _bss_end__
A _edata
A _end
A _stack
U memset
