T _ZN7android10ABitReader13fillReservoirEv
T _ZN7android10ABitReader7getBitsEj
T _ZN7android10ABitReader7putBitsEjj
T _ZN7android10ABitReader8skipBitsEj
T _ZN7android10ABitReaderC1EPKhj
T _ZN7android10ABitReaderC2EPKhj
W _ZN7android10Compare_EQIjjEENS_7AStringERKT_RKT0_
W _ZN7android10Compare_GEIjjEENS_7AStringERKT_RKT0_
W _ZN7android10Compare_GTIjjEENS_7AStringERKT_RKT0_
W _ZN7android10Compare_LEIjjEENS_7AStringERKT_RKT0_
W _ZN7android10Compare_LTIjjEENS_7AStringERKT_RKT0_
U _ZN7android10VectorImpl13finish_vectorEv
U _ZN7android10VectorImpl13removeItemsAtEjj
U _ZN7android10VectorImpl16editItemLocationEj
U _ZN7android10VectorImpl19reservedVectorImpl1Ev
U _ZN7android10VectorImpl19reservedVectorImpl2Ev
U _ZN7android10VectorImpl19reservedVectorImpl3Ev
U _ZN7android10VectorImpl19reservedVectorImpl4Ev
U _ZN7android10VectorImpl19reservedVectorImpl5Ev
U _ZN7android10VectorImpl19reservedVectorImpl6Ev
U _ZN7android10VectorImpl19reservedVectorImpl7Ev
U _ZN7android10VectorImpl19reservedVectorImpl8Ev
U _ZN7android10VectorImpl4pushEPKv
U _ZN7android10VectorImplC2Ejj
U _ZN7android10VectorImplD2Ev
T _ZN7android12StringPrintfEPKcz
T _ZN7android12decodeBase64ERKNS_7AStringE
T _ZN7android12encodeBase64EPKvjPNS_7AStringE
T _ZN7android13ALooperRoster10findLooperEi
T _ZN7android13ALooperRoster11postMessageERKNS_2spINS_8AMessageEEEx
T _ZN7android13ALooperRoster14deliverMessageERKNS_2spINS_8AMessageEEE
T _ZN7android13ALooperRoster15registerHandlerENS_2spINS_7ALooperEEERKNS1_INS_8AHandlerEEE
T _ZN7android13ALooperRoster17unregisterHandlerEi
T _ZN7android13ALooperRosterC1Ev
T _ZN7android13ALooperRosterC2Ev
B _ZN7android13gLooperRosterE
U _ZN7android16SortedVectorImpl25reservedSortedVectorImpl1Ev
U _ZN7android16SortedVectorImpl25reservedSortedVectorImpl2Ev
U _ZN7android16SortedVectorImpl25reservedSortedVectorImpl3Ev
U _ZN7android16SortedVectorImpl25reservedSortedVectorImpl4Ev
U _ZN7android16SortedVectorImpl25reservedSortedVectorImpl5Ev
U _ZN7android16SortedVectorImpl25reservedSortedVectorImpl6Ev
U _ZN7android16SortedVectorImpl25reservedSortedVectorImpl7Ev
U _ZN7android16SortedVectorImpl25reservedSortedVectorImpl8Ev
U _ZN7android16SortedVectorImpl3addEPKv
U _ZN7android16SortedVectorImplC2Ejj
U _ZN7android16SortedVectorImplD2Ev
W _ZN7android17move_forward_typeINS_16key_value_pair_tIiNS_13ALooperRoster11HandlerInfoEEEEEvPT_PKS5_j
W _ZN7android17move_forward_typeINS_4ListINS_7AStringEEEEEvPT_PKS4_j
W _ZN7android18move_backward_typeINS_16key_value_pair_tIiNS_13ALooperRoster11HandlerInfoEEEEEvPT_PKS5_j
W _ZN7android18move_backward_typeINS_4ListINS_7AStringEEEEEvPT_PKS4_j
W _ZN7android2spINS_7ALooper12LooperThreadEEaSEPS2_
W _ZN7android2spINS_7ALooper12LooperThreadEEaSERKS3_
W _ZN7android2spINS_7RefBaseEEaSEPS1_
W _ZN7android2spINS_8AHandlerEEaSERKS2_
W _ZN7android2spINS_8AMessageEEaSEPS1_
W _ZN7android2spINS_8AMessageEEaSERKS2_
W _ZN7android2wpINS_7ALooperEEaSERKNS_2spIS1_EE
W _ZN7android2wpINS_8AHandlerEEaSERKNS_2spIS1_EE
U _ZN7android6Thread10readyToRunEv
U _ZN7android6Thread11requestExitEv
U _ZN7android6Thread18requestExitAndWaitEv
U _ZN7android6Thread3runEPKcij
U _ZN7android6ThreadC2Eb
U _ZN7android6ThreadD0Ev
U _ZN7android6ThreadD1Ev
U _ZN7android6ThreadD2Ev
T _ZN7android7ABuffer18setFarewellMessageENS_2spINS_8AMessageEEE
T _ZN7android7ABuffer4metaEv
T _ZN7android7ABuffer8setRangeEjj
T _ZN7android7ABufferC1EPvj
T _ZN7android7ABufferC1Ej
T _ZN7android7ABufferC2EPvj
T _ZN7android7ABufferC2Ej
T _ZN7android7ABufferD0Ev
T _ZN7android7ABufferD1Ev
T _ZN7android7ABufferD2Ev
T _ZN7android7ALooper15registerHandlerERKNS_2spINS_8AHandlerEEE
T _ZN7android7ALooper17unregisterHandlerEi
T _ZN7android7ALooper4loopEv
T _ZN7android7ALooper4postERKNS_2spINS_8AMessageEEEx
T _ZN7android7ALooper4stopEv
T _ZN7android7ALooper5startEbbi
T _ZN7android7ALooper7setNameEPKc
T _ZN7android7ALooper8GetNowUsEv
T _ZN7android7ALooperC1Ev
T _ZN7android7ALooperC2Ev
T _ZN7android7ALooperD0Ev
T _ZN7android7ALooperD1Ev
T _ZN7android7ALooperD2Ev
T _ZN7android7AString11makeMutableEv
D _ZN7android7AString12kEmptyStringE
T _ZN7android7AString4trimEv
T _ZN7android7AString5clearEv
T _ZN7android7AString5eraseEjj
T _ZN7android7AString5setToEPKc
T _ZN7android7AString5setToEPKcj
T _ZN7android7AString5setToERKS0_jj
T _ZN7android7AString6appendEPKc
T _ZN7android7AString6appendEPKcj
T _ZN7android7AString6appendEPv
T _ZN7android7AString6appendERKS0_
T _ZN7android7AString6appendERKS0_jj
T _ZN7android7AString6appendEd
T _ZN7android7AString6appendEf
T _ZN7android7AString6appendEi
T _ZN7android7AString6appendEj
T _ZN7android7AString6appendEl
T _ZN7android7AString6appendEm
T _ZN7android7AString6appendEx
T _ZN7android7AString6appendEy
T _ZN7android7AString6insertEPKcjj
T _ZN7android7AString6insertERKS0_j
T _ZN7android7AString7tolowerEv
T _ZN7android7AStringC1EPKc
T _ZN7android7AStringC1EPKcj
T _ZN7android7AStringC1ERKS0_
T _ZN7android7AStringC1ERKS0_jj
T _ZN7android7AStringC1Ev
T _ZN7android7AStringC2EPKc
T _ZN7android7AStringC2EPKcj
T _ZN7android7AStringC2ERKS0_
T _ZN7android7AStringC2ERKS0_jj
T _ZN7android7AStringC2Ev
T _ZN7android7AStringD1Ev
T _ZN7android7AStringD2Ev
T _ZN7android7AStringaSERKS0_
U _ZN7android7RefBase10onFirstRefEv
U _ZN7android7RefBase12weakref_type16attemptIncStrongEPKv
U _ZN7android7RefBase12weakref_type7decWeakEPKv
U _ZN7android7RefBase12weakref_type7incWeakEPKv
U _ZN7android7RefBase13onLastWeakRefEPKv
U _ZN7android7RefBase15onLastStrongRefEPKv
U _ZN7android7RefBase20onIncStrongAttemptedEjPKv
U _ZN7android7RefBaseC2Ev
U _ZN7android7RefBaseD2Ev
T _ZN7android7hexdumpEPKvj
T _ZN7android8AHandler6looperEv
T _ZN7android8AMessage10setMessageEPKcRKNS_2spIS0_EE
T _ZN7android8AMessage10setPointerEPKcPv
T _ZN7android8AMessage12allocateItemEPKc
T _ZN7android8AMessage4postEx
T _ZN7android8AMessage5clearEv
T _ZN7android8AMessage7setSizeEPKcj
T _ZN7android8AMessage7setWhatEj
T _ZN7android8AMessage8freeItemEPNS0_4ItemE
T _ZN7android8AMessage8setFloatEPKcf
T _ZN7android8AMessage8setInt32EPKci
T _ZN7android8AMessage8setInt64EPKcx
T _ZN7android8AMessage9setDoubleEPKcd
T _ZN7android8AMessage9setObjectEPKcRKNS_2spINS_7RefBaseEEE
T _ZN7android8AMessage9setStringEPKcS2_l
T _ZN7android8AMessage9setTargetEi
T _ZN7android8AMessageC1Eji
T _ZN7android8AMessageC2Eji
T _ZN7android8AMessageD0Ev
T _ZN7android8AMessageD1Ev
T _ZN7android8AMessageD2Ev
T _ZN7android9AAtomizer4HashEPKc
T _ZN7android9AAtomizer7AtomizeEPKc
T _ZN7android9AAtomizer7atomizeEPKc
B _ZN7android9AAtomizer9gAtomizerE
T _ZN7android9AAtomizerC1Ev
T _ZN7android9AAtomizerC2Ev
T _ZNK7android10ABitReader11numBitsLeftEv
T _ZNK7android10ABitReader4dataEv
W _ZNK7android12SortedVectorINS_16key_value_pair_tIiNS_13ALooperRoster11HandlerInfoEEEE10do_compareEPKvS7_
W _ZNK7android12SortedVectorINS_16key_value_pair_tIiNS_13ALooperRoster11HandlerInfoEEEE10do_destroyEPvj
W _ZNK7android12SortedVectorINS_16key_value_pair_tIiNS_13ALooperRoster11HandlerInfoEEEE12do_constructEPvj
W _ZNK7android12SortedVectorINS_16key_value_pair_tIiNS_13ALooperRoster11HandlerInfoEEEE15do_move_forwardEPvPKvj
W _ZNK7android12SortedVectorINS_16key_value_pair_tIiNS_13ALooperRoster11HandlerInfoEEEE16do_move_backwardEPvPKvj
W _ZNK7android12SortedVectorINS_16key_value_pair_tIiNS_13ALooperRoster11HandlerInfoEEEE7do_copyEPvPKvj
W _ZNK7android12SortedVectorINS_16key_value_pair_tIiNS_13ALooperRoster11HandlerInfoEEEE8do_splatEPvPKvj
U _ZNK7android16SortedVectorImpl7indexOfEPKv
W _ZNK7android6VectorINS_4ListINS_7AStringEEEE10do_destroyEPvj
W _ZNK7android6VectorINS_4ListINS_7AStringEEEE12do_constructEPvj
W _ZNK7android6VectorINS_4ListINS_7AStringEEEE15do_move_forwardEPvPKvj
W _ZNK7android6VectorINS_4ListINS_7AStringEEEE16do_move_backwardEPvPKvj
W _ZNK7android6VectorINS_4ListINS_7AStringEEEE7do_copyEPvPKvj
W _ZNK7android6VectorINS_4ListINS_7AStringEEEE8do_splatEPvPKvj
T _ZNK7android7AString10startsWithEPKc
T _ZNK7android7AString4findEPKcj
T _ZNK7android7AString4hashEv
T _ZNK7android7AString4sizeEv
T _ZNK7android7AString5c_strEv
T _ZNK7android7AString5emptyEv
T _ZNK7android7AString7compareERKS0_
T _ZNK7android7AStringeqERKS0_
T _ZNK7android7AStringgtERKS0_
T _ZNK7android7AStringltERKS0_
U _ZNK7android7RefBase10createWeakEPKv
U _ZNK7android7RefBase9decStrongEPKv
U _ZNK7android7RefBase9incStrongEPKv
T _ZNK7android8AMessage10findDoubleEPKcPd
T _ZNK7android8AMessage10findObjectEPKcPNS_2spINS_7RefBaseEEE
T _ZNK7android8AMessage10findStringEPKcPNS_7AStringE
T _ZNK7android8AMessage11debugStringEi
T _ZNK7android8AMessage11findMessageEPKcPNS_2spIS0_EE
T _ZNK7android8AMessage11findPointerEPKcPPv
T _ZNK7android8AMessage3dupEv
T _ZNK7android8AMessage4whatEv
T _ZNK7android8AMessage6targetEv
T _ZNK7android8AMessage8findItemEPKcNS0_4TypeE
T _ZNK7android8AMessage8findSizeEPKcPj
T _ZNK7android8AMessage9findFloatEPKcPf
T _ZNK7android8AMessage9findInt32EPKcPi
T _ZNK7android8AMessage9findInt64EPKcPx
V _ZTCN7android7ALooper12LooperThreadE0_NS_6ThreadE
V _ZTTN7android7ALooper12LooperThreadE
V _ZTVN7android12SortedVectorINS_16key_value_pair_tIiNS_13ALooperRoster11HandlerInfoEEEEE
V _ZTVN7android4ListINS_7ALooper5EventEEE
V _ZTVN7android4ListINS_7AStringEEE
V _ZTVN7android6VectorINS_4ListINS_7AStringEEEEE
D _ZTVN7android7ABufferE
V _ZTVN7android7ALooper12LooperThreadE
D _ZTVN7android7ALooperE
D _ZTVN7android8AMessageE
U _ZTv0_n12_N7android6ThreadD0Ev
U _ZTv0_n12_N7android6ThreadD1Ev
W _ZTv0_n12_N7android7ALooper12LooperThreadD0Ev
W _ZTv0_n12_N7android7ALooper12LooperThreadD1Ev
U _ZdaPv
U _ZdlPv
U _Znaj
U _Znwj
T __FINI_ARRAY__
T __INIT_ARRAY__
U __aeabi_atexit
U __aeabi_f2d
U __aeabi_ldivmod
U __aeabi_lmul
U __aeabi_uidiv
U __aeabi_uidivmod
U __aeabi_unwind_cpp_pr0
U __android_log_assert
U __android_log_print
A __bss_end__
A __bss_start
A __bss_start__
U __cxa_finalize
U __cxa_pure_virtual
D __data_start
B __dso_handle
A __end__
A __exidx_end
A __exidx_start
U __stack_chk_fail
U __stack_chk_guard
A _bss_end__
U _ctype_
A _edata
A _end
A _stack
U _tolower_tab_
U free
U gettimeofday
U malloc
U memcmp
U memcpy
U memmove
U pthread_cond_destroy
U pthread_cond_init
U pthread_cond_signal
U pthread_cond_timedwait_relative_np
U pthread_cond_wait
U pthread_mutex_destroy
U pthread_mutex_init
U pthread_mutex_lock
U pthread_mutex_unlock
U realloc
U sprintf
U strcmp
U strdup
U strlen
U strncmp
U strstr
U vasprintf
