V _ZGVN7android9SingletonINS_12GLExtensionsEE5sLockE
U _ZN7android10GraphicLog10setEnabledEb
U _ZN7android10GraphicLog7logImplEii
U _ZN7android10GraphicLogC1Ev
U _ZN7android10IInterface8asBinderEv
U _ZN7android10IInterfaceD0Ev
U _ZN7android10IInterfaceD1Ev
U _ZN7android10OverlayRefC1EPK15native_handle_tRKNS_2spINS_8IOverlayEEEjjijj
U _ZN7android10PermissionC1EPKc
U _ZN7android10PermissionD1Ev
T _ZN7android10UserClient11detachLayerEPKNS_5LayerE
T _ZN7android10UserClient13createSurfaceEPNS_22ISurfaceComposerClient14surface_data_tEiRKNS_7String8Eijjij
T _ZN7android10UserClient14destroySurfaceEi
T _ZN7android10UserClient8setStateEiPKNS_13layer_state_tE
T _ZN7android10UserClientC1ERKNS_2spINS_14SurfaceFlingerEEE
T _ZN7android10UserClientC2ERKNS_2spINS_14SurfaceFlingerEEE
T _ZN7android10UserClientD0Ev
T _ZN7android10UserClientD1Ev
T _ZN7android10UserClientD2Ev
U _ZN7android10VectorImpl11setCapacityEj
U _ZN7android10VectorImpl13finish_vectorEv
U _ZN7android10VectorImpl13removeItemsAtEjj
U _ZN7android10VectorImpl19reservedVectorImpl1Ev
U _ZN7android10VectorImpl19reservedVectorImpl2Ev
U _ZN7android10VectorImpl19reservedVectorImpl3Ev
U _ZN7android10VectorImpl19reservedVectorImpl4Ev
U _ZN7android10VectorImpl19reservedVectorImpl5Ev
U _ZN7android10VectorImpl19reservedVectorImpl6Ev
U _ZN7android10VectorImpl19reservedVectorImpl7Ev
U _ZN7android10VectorImpl19reservedVectorImpl8Ev
U _ZN7android10VectorImpl3addEPKv
U _ZN7android10VectorImpl5clearEv
U _ZN7android10VectorImplC2Ejj
U _ZN7android10VectorImplD2Ev
U _ZN7android10VectorImplaSERKS0_
T _ZN7android10blurFilterEPK10GGLSurfaceii
W _ZN7android11BnInterfaceINS_16ISurfaceComposerEE10onAsBinderEv
W _ZN7android11BnInterfaceINS_22ISurfaceComposerClientEE10onAsBinderEv
W _ZN7android11BnInterfaceINS_8IOverlayEE10onAsBinderEv
W _ZN7android11BnInterfaceINS_8ISurfaceEE10onAsBinderEv
T _ZN7android11LayerBuffer10onFirstRefEv
T _ZN7android11LayerBuffer10postBufferEl
T _ZN7android11LayerBuffer11clearSourceEv
T _ZN7android11LayerBuffer12BufferSource10postBufferEl
T _ZN7android11LayerBuffer12BufferSource17unregisterBuffersEv
T _ZN7android11LayerBuffer12BufferSource9setBufferERKNS_2spINS0_6BufferEEE
T _ZN7android11LayerBuffer12BufferSourceC1ERS0_RKNS_8ISurface10BufferHeapE
T _ZN7android11LayerBuffer12BufferSourceC2ERS0_RKNS_8ISurface10BufferHeapE
T _ZN7android11LayerBuffer12BufferSourceD0Ev
T _ZN7android11LayerBuffer12BufferSourceD1Ev
T _ZN7android11LayerBuffer12BufferSourceD2Ev
T _ZN7android11LayerBuffer13OverlaySource13onTransactionEj
T _ZN7android11LayerBuffer13OverlaySource20onVisibilityResolvedERKNS_9TransformE
T _ZN7android11LayerBuffer13OverlaySource20onvalidateVisibilityERKNS_9TransformE
T _ZN7android11LayerBuffer13OverlaySource7destroyEv
T _ZN7android11LayerBuffer13OverlaySourceC1ERS0_PNS_2spINS_10OverlayRefEEEjjii
T _ZN7android11LayerBuffer13OverlaySourceC2ERS0_PNS_2spINS_10OverlayRefEEEjjii
T _ZN7android11LayerBuffer13OverlaySourceD0Ev
T _ZN7android11LayerBuffer13OverlaySourceD1Ev
T _ZN7android11LayerBuffer13OverlaySourceD2Ev
T _ZN7android11LayerBuffer13createOverlayEjjii
T _ZN7android11LayerBuffer13doTransactionEj
T _ZN7android11LayerBuffer13serverDestroyEv
B _ZN7android11LayerBuffer14sGrallocModuleE
T _ZN7android11LayerBuffer14unlockPageFlipERKNS_9TransformERNS_6RegionE
T _ZN7android11LayerBuffer15registerBuffersERKNS_8ISurface10BufferHeapE
T _ZN7android11LayerBuffer16setNeedsBlendingEb
T _ZN7android11LayerBuffer17unregisterBuffersEv
T _ZN7android11LayerBuffer18SurfaceLayerBuffer10postBufferEl
T _ZN7android11LayerBuffer18SurfaceLayerBuffer13createOverlayEjjii
T _ZN7android11LayerBuffer18SurfaceLayerBuffer15registerBuffersERKNS_8ISurface10BufferHeapE
T _ZN7android11LayerBuffer18SurfaceLayerBuffer17unregisterBuffersEv
T _ZN7android11LayerBuffer18SurfaceLayerBufferC1ERKNS_2spINS_14SurfaceFlingerEEERKNS2_IS0_EE
T _ZN7android11LayerBuffer18SurfaceLayerBufferC2ERKNS_2spINS_14SurfaceFlingerEEERKNS2_IS0_EE
T _ZN7android11LayerBuffer18SurfaceLayerBufferD0Ev
T _ZN7android11LayerBuffer18SurfaceLayerBufferD1Ev
T _ZN7android11LayerBuffer18SurfaceLayerBufferD2Ev
T _ZN7android11LayerBuffer18validateVisibilityERKNS_9TransformE
T _ZN7android11LayerBuffer5ditchEv
T _ZN7android11LayerBuffer6BufferC1ERKNS_8ISurface10BufferHeapElj
T _ZN7android11LayerBuffer6BufferC2ERKNS_8ISurface10BufferHeapElj
T _ZN7android11LayerBuffer6BufferD1Ev
T _ZN7android11LayerBuffer6BufferD2Ev
T _ZN7android11LayerBuffer6Source10postBufferEl
T _ZN7android11LayerBuffer6Source13onTransactionEj
T _ZN7android11LayerBuffer6Source17unregisterBuffersEv
T _ZN7android11LayerBuffer6Source20onVisibilityResolvedERKNS_9TransformE
T _ZN7android11LayerBuffer6SourceC1ERS0_
T _ZN7android11LayerBuffer6SourceC2ERS0_
T _ZN7android11LayerBuffer6SourceD0Ev
T _ZN7android11LayerBuffer6SourceD1Ev
T _ZN7android11LayerBuffer6SourceD2Ev
T _ZN7android11LayerBufferC1EPNS_14SurfaceFlingerEiRKNS_2spINS_6ClientEEE
T _ZN7android11LayerBufferC2EPNS_14SurfaceFlingerEiRKNS_2spINS_6ClientEEE
T _ZN7android11LayerBufferD0Ev
T _ZN7android11LayerBufferD1Ev
T _ZN7android11LayerBufferD2Ev
T _ZN7android11MessageList6insertERKNS_2spINS_11MessageBaseEEE
T _ZN7android11MessageList6removeENS_4ListINS_2spINS_11MessageBaseEEEE13_ListIteratorIS4_NS5_18NON_CONST_ITERATOREEE
T _ZN7android12GLExtensions17initWithGLStringsEPKhS2_S2_S2_PKcS4_S4_
T _ZN7android12GLExtensionsC1Ev
T _ZN7android12GLExtensionsC2Ev
T _ZN7android12GraphicPlane14setOrientationEi
T _ZN7android12GraphicPlane18setDisplayHardwareEPNS_15DisplayHardwareE
T _ZN7android12GraphicPlane19editDisplayHardwareEv
T _ZN7android12GraphicPlane22orientationToTransfromEiiiPNS_9TransformE
T _ZN7android12GraphicPlaneC1Ev
T _ZN7android12GraphicPlaneC2Ev
T _ZN7android12GraphicPlaneD1Ev
T _ZN7android12GraphicPlaneD2Ev
T _ZN7android12MessageQueue10dumpLockedERKNS_2spINS_11MessageBaseEEE
T _ZN7android12MessageQueue10invalidateEv
T _ZN7android12MessageQueue11postMessageERKNS_2spINS_11MessageBaseEEExj
T _ZN7android12MessageQueue11waitMessageEx
T _ZN7android12MessageQueue12queueMessageERKNS_2spINS_11MessageBaseEEExj
T _ZN7android12MessageQueue4dumpERKNS_2spINS_11MessageBaseEEE
T _ZN7android12MessageQueueC1Ev
T _ZN7android12MessageQueueC2Ev
T _ZN7android12MessageQueueD1Ev
T _ZN7android12MessageQueueD2Ev
U _ZN7android12SharedClientC1Ev
U _ZN7android12SharedClientD1Ev
U _ZN7android13GraphicBuffer26dumpAllocationsToSystemLogEv
U _ZN7android13GraphicBuffer4lockEP10GGLSurfacej
U _ZN7android13GraphicBuffer6unlockEv
U _ZN7android13GraphicBufferC1Ejjij
U _ZN7android13bytesPerPixelEi
U _ZN7android14IPCThreadState13flushCommandsEv
U _ZN7android14IPCThreadState13getCallingPidEv
U _ZN7android14IPCThreadState13getCallingUidEv
U _ZN7android14IPCThreadState4selfEv
U _ZN7android14MemoryHeapBaseC1EjjPKc
T _ZN7android14SurfaceFlinger10addLayer_lERKNS_2spINS_9LayerBaseEEE
T _ZN7android14SurfaceFlinger10onFirstRefEv
T _ZN7android14SurfaceFlinger10onTransactEjRKNS_6ParcelEPS1_j
T _ZN7android14SurfaceFlinger10readyToRunEv
T _ZN7android14SurfaceFlinger10threadLoopEv
T _ZN7android14SurfaceFlinger11removeLayerERKNS_2spINS_9LayerBaseEEE
T _ZN7android14SurfaceFlinger11signalEventEv
T _ZN7android14SurfaceFlinger12bootFinishedEv
T _ZN7android14SurfaceFlinger12destroyLayerEPKNS_9LayerBaseE
T _ZN7android14SurfaceFlinger12graphicPlaneEi
T _ZN7android14SurfaceFlinger12lockPageFlipERKNS0_11LayerVectorE
T _ZN7android14SurfaceFlinger12waitForEventEv
T _ZN7android14SurfaceFlinger13captureScreenEiPNS_2spINS_11IMemoryHeapEEEPjS5_Pijj
T _ZN7android14SurfaceFlinger13createSurfaceERKNS_2spINS_6ClientEEEiRKNS_7String8EPNS_22ISurfaceComposerClient14surface_data_tEijjij
T _ZN7android14SurfaceFlinger13freezeDisplayEij
T _ZN7android14SurfaceFlinger13handleRepaintEv
T _ZN7android14SurfaceFlinger13removeLayer_lERKNS_2spINS_9LayerBaseEEE
T _ZN7android14SurfaceFlinger13removeSurfaceERKNS_2spINS_6ClientEEEi
T _ZN7android14SurfaceFlinger14addClientLayerERKNS_2spINS_6ClientEEERKNS1_INS_15LayerBaseClientEEE
T _ZN7android14SurfaceFlinger14destroySurfaceERKNS_2wpINS_15LayerBaseClientEEE
T _ZN7android14SurfaceFlinger14handlePageFlipEv
T _ZN7android14SurfaceFlinger14screenAcquiredEi
T _ZN7android14SurfaceFlinger14screenReleasedEi
T _ZN7android14SurfaceFlinger14setBypassLayerERKNS_2spINS_9LayerBaseEEE
T _ZN7android14SurfaceFlinger14setClientStateERKNS_2spINS_6ClientEEEiPKNS_13layer_state_tE
T _ZN7android14SurfaceFlinger14setOrientationEiij
T _ZN7android14SurfaceFlinger14unlockPageFlipERKNS0_11LayerVectorE
T _ZN7android14SurfaceFlinger15composeSurfacesERKNS_6RegionE
T _ZN7android14SurfaceFlinger15postFramebufferEv
T _ZN7android14SurfaceFlinger15postMessageSyncERKNS_2spINS_11MessageBaseEEExj
T _ZN7android14SurfaceFlinger15unfreezeDisplayEij
T _ZN7android14SurfaceFlinger16createConnectionEv
T _ZN7android14SurfaceFlinger16createDimSurfaceERKNS_2spINS_6ClientEEEijjj
T _ZN7android14SurfaceFlinger16postMessageAsyncERKNS_2spINS_11MessageBaseEEExj
T _ZN7android14SurfaceFlinger17commitTransactionEv
T _ZN7android14SurfaceFlinger17createBlurSurfaceERKNS_2spINS_6ClientEEEijjj
T _ZN7android14SurfaceFlinger17debugFlashRegionsEv
T _ZN7android14SurfaceFlinger17handleBypassLayerEv
T _ZN7android14SurfaceFlinger17handleTransactionEj
T _ZN7android14SurfaceFlinger18purgatorizeLayer_lERKNS_2spINS_9LayerBaseEEE
T _ZN7android14SurfaceFlinger18turnElectronBeamOnEi
T _ZN7android14SurfaceFlinger19createNormalSurfaceERKNS_2spINS_6ClientEEEijjjRi
T _ZN7android14SurfaceFlinger19getTransactionFlagsEj
T _ZN7android14SurfaceFlinger19handleConsoleEventsEv
T _ZN7android14SurfaceFlinger19handleDestroyLayersEv
T _ZN7android14SurfaceFlinger19setTransactionFlagsEj
T _ZN7android14SurfaceFlinger19turnElectronBeamOffEi
T _ZN7android14SurfaceFlinger20peekTransactionFlagsEj
T _ZN7android14SurfaceFlinger21computeVisibleRegionsERNS0_11LayerVectorERNS_6RegionES4_
T _ZN7android14SurfaceFlinger21openGlobalTransactionEv
T _ZN7android14SurfaceFlinger22closeGlobalTransactionEv
T _ZN7android14SurfaceFlinger22createClientConnectionEv
T _ZN7android14SurfaceFlinger23captureScreenImplLockedEiPNS_2spINS_11IMemoryHeapEEEPjS5_Pijj
T _ZN7android14SurfaceFlinger23handleTransactionLockedEj
T _ZN7android14SurfaceFlinger24createPushBuffersSurfaceERKNS_2spINS_6ClientEEEijjj
T _ZN7android14SurfaceFlinger25invalidateLayerVisibilityERKNS_2spINS_9LayerBaseEEE
T _ZN7android14SurfaceFlinger27renderScreenToTextureLockedEiPjPfS2_
T _ZN7android14SurfaceFlinger28turnElectronBeamOnImplLockedEi
T _ZN7android14SurfaceFlinger29turnElectronBeamOffImplLockedEi
T _ZN7android14SurfaceFlinger33electronBeamOnAnimationImplLockedEv
T _ZN7android14SurfaceFlinger34electronBeamOffAnimationImplLockedEv
T _ZN7android14SurfaceFlinger4dumpEiRKNS_6VectorINS_8String16EEE
T _ZN7android14SurfaceFlinger4initEv
T _ZN7android14SurfaceFlinger8addLayerERKNS_2spINS_9LayerBaseEEE
T _ZN7android14SurfaceFlingerC1Ev
T _ZN7android14SurfaceFlingerC2Ev
T _ZN7android14SurfaceFlingerD0Ev
T _ZN7android14SurfaceFlingerD1Ev
T _ZN7android14SurfaceFlingerD2Ev
T _ZN7android14TextureManager11initTextureEPNS_5ImageEi
T _ZN7android14TextureManager11initTextureEPNS_7TextureE
T _ZN7android14TextureManager11isYuvFormatEi
T _ZN7android14TextureManager11loadTextureEPNS_7TextureERKNS_6RegionERK10GGLSurface
T _ZN7android14TextureManager12initEglImageEPNS_5ImageEPvRKNS_2spINS_13GraphicBufferEEE
T _ZN7android14TextureManager15activateTextureERKNS_7TextureEb
T _ZN7android14TextureManager16getTextureTargetEPKNS_5ImageE
T _ZN7android14TextureManager18deactivateTexturesEv
T _ZN7android14TextureManager20isSupportedYuvFormatEi
T _ZN7android14TextureManagerC1Ev
T _ZN7android14TextureManagerC2Ev
T _ZN7android15DisplayHardware4finiEv
T _ZN7android15DisplayHardware4initEj
T _ZN7android15DisplayHardwareC1ERKNS_2spINS_14SurfaceFlingerEEEj
T _ZN7android15DisplayHardwareC2ERKNS_2spINS_14SurfaceFlingerEEEj
T _ZN7android15DisplayHardwareD1Ev
T _ZN7android15DisplayHardwareD2Ev
T _ZN7android15LayerBaseClient10getSurfaceEv
T _ZN7android15LayerBaseClient7Surface10onTransactEjRKNS_6ParcelEPS2_j
T _ZN7android15LayerBaseClient7Surface10postBufferEl
T _ZN7android15LayerBaseClient7Surface13createOverlayEjjii
T _ZN7android15LayerBaseClient7Surface13requestBufferEijjjj
T _ZN7android15LayerBaseClient7Surface14setBufferCountEi
T _ZN7android15LayerBaseClient7Surface15registerBuffersERKNS_8ISurface10BufferHeapE
T _ZN7android15LayerBaseClient7Surface17unregisterBuffersEv
T _ZN7android15LayerBaseClient7SurfaceC1ERKNS_2spINS_14SurfaceFlingerEEEiRKNS2_IS0_EE
T _ZN7android15LayerBaseClient7SurfaceC2ERKNS_2spINS_14SurfaceFlingerEEEiRKNS2_IS0_EE
T _ZN7android15LayerBaseClient7SurfaceD0Ev
T _ZN7android15LayerBaseClient7SurfaceD1Ev
T _ZN7android15LayerBaseClient7SurfaceD2Ev
D _ZN7android15LayerBaseClient9sIdentityE
T _ZN7android15LayerBaseClientC1EPNS_14SurfaceFlingerEiRKNS_2spINS_6ClientEEE
T _ZN7android15LayerBaseClientC2EPNS_14SurfaceFlingerEiRKNS_2spINS_6ClientEEE
T _ZN7android15LayerBaseClientD0Ev
T _ZN7android15LayerBaseClientD1Ev
T _ZN7android15LayerBaseClientD2Ev
U _ZN7android16ISurfaceComposer10descriptorE
U _ZN7android16ISurfaceComposerC2Ev
U _ZN7android16ISurfaceComposerD0Ev
U _ZN7android16ISurfaceComposerD1Ev
U _ZN7android16ISurfaceComposerD2Ev
U _ZN7android16SortedVectorImpl25reservedSortedVectorImpl1Ev
U _ZN7android16SortedVectorImpl25reservedSortedVectorImpl2Ev
U _ZN7android16SortedVectorImpl25reservedSortedVectorImpl3Ev
U _ZN7android16SortedVectorImpl25reservedSortedVectorImpl4Ev
U _ZN7android16SortedVectorImpl25reservedSortedVectorImpl5Ev
U _ZN7android16SortedVectorImpl25reservedSortedVectorImpl6Ev
U _ZN7android16SortedVectorImpl25reservedSortedVectorImpl7Ev
U _ZN7android16SortedVectorImpl25reservedSortedVectorImpl8Ev
U _ZN7android16SortedVectorImpl3addEPKv
U _ZN7android16SortedVectorImpl6removeEPKv
U _ZN7android16SortedVectorImplC2Ejj
U _ZN7android16SortedVectorImplD2Ev
U _ZN7android16SortedVectorImplaSERKS0_
U _ZN7android17BnSurfaceComposer10onTransactEjRKNS_6ParcelEPS1_j
W _ZN7android17move_forward_typeINS_7String8EEEvPT_PKS2_j
U _ZN7android18SharedBufferServer13reallocateAllEv
U _ZN7android18SharedBufferServer13retireAndLockEv
U _ZN7android18SharedBufferServer19reallocateAllExceptEi
U _ZN7android18SharedBufferServer6resizeEi
U _ZN7android18SharedBufferServer9setStatusEi
U _ZN7android18SharedBufferServerC1EPNS_12SharedClientEiii
U _ZN7android18SharedBufferServerD1Ev
U _ZN7android18getPixelFormatInfoEiPNS_15PixelFormatInfoE
W _ZN7android18move_backward_typeINS_7String8EEEvPT_PKS2_j
T _ZN7android19DisplayHardwareBase10setCanDrawEb
T _ZN7android19DisplayHardwareBase18DisplayEventThread10readyToRunEv
T _ZN7android19DisplayHardwareBase18DisplayEventThread10threadLoopEv
T _ZN7android19DisplayHardwareBase18DisplayEventThreadC1ERKNS_2spINS_14SurfaceFlingerEEE
T _ZN7android19DisplayHardwareBase18DisplayEventThreadC2ERKNS_2spINS_14SurfaceFlingerEEE
T _ZN7android19DisplayHardwareBase18DisplayEventThreadD0Ev
T _ZN7android19DisplayHardwareBase18DisplayEventThreadD1Ev
T _ZN7android19DisplayHardwareBase18DisplayEventThreadD2Ev
T _ZN7android19DisplayHardwareBase20ConsoleManagerThread10readyToRunEv
T _ZN7android19DisplayHardwareBase20ConsoleManagerThread10sigHandlerEi
T _ZN7android19DisplayHardwareBase20ConsoleManagerThread10threadLoopEv
T _ZN7android19DisplayHardwareBase20ConsoleManagerThread11requestExitEv
B _ZN7android19DisplayHardwareBase20ConsoleManagerThread17sSignalCatcherPidE
T _ZN7android19DisplayHardwareBase20ConsoleManagerThreadC1ERKNS_2spINS_14SurfaceFlingerEEE
T _ZN7android19DisplayHardwareBase20ConsoleManagerThreadC2ERKNS_2spINS_14SurfaceFlingerEEE
T _ZN7android19DisplayHardwareBase20ConsoleManagerThreadD0Ev
T _ZN7android19DisplayHardwareBase20ConsoleManagerThreadD1Ev
T _ZN7android19DisplayHardwareBase20ConsoleManagerThreadD2Ev
T _ZN7android19DisplayHardwareBase22DisplayEventThreadBaseC1ERKNS_2spINS_14SurfaceFlingerEEE
T _ZN7android19DisplayHardwareBase22DisplayEventThreadBaseC2ERKNS_2spINS_14SurfaceFlingerEEE
T _ZN7android19DisplayHardwareBase22DisplayEventThreadBaseD0Ev
T _ZN7android19DisplayHardwareBase22DisplayEventThreadBaseD1Ev
T _ZN7android19DisplayHardwareBase22DisplayEventThreadBaseD2Ev
T _ZN7android19DisplayHardwareBaseC1ERKNS_2spINS_14SurfaceFlingerEEEj
T _ZN7android19DisplayHardwareBaseC2ERKNS_2spINS_14SurfaceFlingerEEEj
T _ZN7android19DisplayHardwareBaseD1Ev
T _ZN7android19DisplayHardwareBaseD2Ev
U _ZN7android22GraphicBufferAllocatorC1Ev
U _ZN7android22ISurfaceComposerClient10descriptorE
U _ZN7android22ISurfaceComposerClientC2Ev
U _ZN7android22ISurfaceComposerClientD0Ev
U _ZN7android22ISurfaceComposerClientD1Ev
U _ZN7android22ISurfaceComposerClientD2Ev
U _ZN7android23BnSurfaceComposerClient10onTransactEjRKNS_6ParcelEPS1_j
U _ZN7android23FramebufferNativeWindow18setUpdateRectangleERKNS_4RectE
U _ZN7android23FramebufferNativeWindow19compositionCompleteEv
U _ZN7android23FramebufferNativeWindowC1Ev
U _ZN7android23FramebufferNativeWindowD1Ev
W _ZN7android2spINS_10FreezeLockEEaSERKS2_
W _ZN7android2spINS_10OverlayRefEEaSEPS1_
W _ZN7android2spINS_10OverlayRefEEaSERKS2_
W _ZN7android2spINS_10UserClientEED1Ev
W _ZN7android2spINS_10UserClientEEaSERKS2_
W _ZN7android2spINS_11IMemoryHeapEED1Ev
W _ZN7android2spINS_11IMemoryHeapEEaSERKS2_
W _ZN7android2spINS_11IMemoryHeapEEaSINS_14MemoryHeapBaseEEERS2_PT_
W _ZN7android2spINS_11IMemoryHeapEEaSINS_14MemoryHeapBaseEEERS2_RKNS0_IT_EE
W _ZN7android2spINS_11LayerBuffer6BufferEEaSEPS2_
W _ZN7android2spINS_11LayerBuffer6BufferEEaSERKS3_
W _ZN7android2spINS_11LayerBuffer6SourceEED1Ev
W _ZN7android2spINS_11LayerBuffer6SourceEEaSERKS3_
W _ZN7android2spINS_11LayerBuffer6SourceEEaSINS1_12BufferSourceEEERS3_RKNS0_IT_EE
W _ZN7android2spINS_11LayerBuffer6SourceEEaSINS1_13OverlaySourceEEERS3_RKNS0_IT_EE
W _ZN7android2spINS_11LayerBufferEED1Ev
W _ZN7android2spINS_11MessageBaseEEaSEPS1_
W _ZN7android2spINS_11MessageBaseEEaSERKS2_
W _ZN7android2spINS_13GraphicBufferEED1Ev
W _ZN7android2spINS_13GraphicBufferEEaSEPS1_
W _ZN7android2spINS_13GraphicBufferEEaSERKS2_
W _ZN7android2spINS_14SurfaceFlingerEEC1ERKS2_
W _ZN7android2spINS_14SurfaceFlingerEED1Ev
W _ZN7android2spINS_15LayerBaseClient7SurfaceEEaSERKS3_
W _ZN7android2spINS_15LayerBaseClient7SurfaceEEaSINS_11LayerBuffer18SurfaceLayerBufferEEERS3_PT_
W _ZN7android2spINS_15LayerBaseClient7SurfaceEEaSINS_5Layer12SurfaceLayerEEERS3_PT_
W _ZN7android2spINS_15LayerBaseClientEED1Ev
W _ZN7android2spINS_15LayerBaseClientEEaSERKS2_
W _ZN7android2spINS_15LayerBaseClientEEaSINS_11LayerBufferEEERS2_RKNS0_IT_EE
W _ZN7android2spINS_15LayerBaseClientEEaSINS_5LayerEEERS2_RKNS0_IT_EE
W _ZN7android2spINS_15LayerBaseClientEEaSINS_8LayerDimEEERS2_RKNS0_IT_EE
W _ZN7android2spINS_15LayerBaseClientEEaSINS_9LayerBlurEEERS2_RKNS0_IT_EE
W _ZN7android2spINS_18SharedBufferServerEEaSERKS2_
W _ZN7android2spINS_19DisplayHardwareBase22DisplayEventThreadBaseEEaSINS1_18DisplayEventThreadEEERS3_PT_
W _ZN7android2spINS_19DisplayHardwareBase22DisplayEventThreadBaseEEaSINS1_20ConsoleManagerThreadEEERS3_PT_
W _ZN7android2spINS_22ISurfaceComposerClientEEaSINS_10UserClientEEERS2_RKNS0_IT_EE
W _ZN7android2spINS_22ISurfaceComposerClientEEaSINS_6ClientEEERS2_RKNS0_IT_EE
W _ZN7android2spINS_23FramebufferNativeWindowEEaSEPS1_
W _ZN7android2spINS_5LayerEED1Ev
W _ZN7android2spINS_5LayerEEaSERKS2_
W _ZN7android2spINS_6ClientEEC1EPS1_
W _ZN7android2spINS_6ClientEED1Ev
W _ZN7android2spINS_9LayerBaseEEC1INS_15LayerBaseClientEEERKNS0_IT_EE
W _ZN7android2spINS_9LayerBaseEED1Ev
W _ZN7android2wpINS_10UserClientEEaSERKNS_2spIS1_EE
W _ZN7android2wpINS_15LayerBaseClient7SurfaceEEaSERKNS_2spIS2_EE
W _ZN7android2wpINS_15LayerBaseClientEED1Ev
W _ZN7android2wpINS_5LayerEED1Ev
W _ZN7android2wpINS_5LayerEEaSEPS1_
U _ZN7android4Rect11makeInvalidEv
T _ZN7android5Layer10setBuffersEjjij
T _ZN7android5Layer12SurfaceLayer13requestBufferEijjjj
T _ZN7android5Layer12SurfaceLayer14setBufferCountEi
T _ZN7android5Layer12SurfaceLayerC1ERKNS_2spINS_14SurfaceFlingerEEERKNS2_IS0_EE
T _ZN7android5Layer12SurfaceLayerC2ERKNS_2spINS_14SurfaceFlingerEEERKNS2_IS0_EE
T _ZN7android5Layer12SurfaceLayerD0Ev
T _ZN7android5Layer12SurfaceLayerD1Ev
T _ZN7android5Layer12SurfaceLayerD2Ev
T _ZN7android5Layer12lockPageFlipERb
T _ZN7android5Layer13BufferManager11loadTextureERKNS_6RegionERK10GGLSurface
T _ZN7android5Layer13BufferManager12attachBufferEjRKNS_2spINS_13GraphicBufferEEE
T _ZN7android5Layer13BufferManager12detachBufferEj
T _ZN7android5Layer13BufferManager12initEglImageEPvRKNS_2spINS_13GraphicBufferEEE
T _ZN7android5Layer13BufferManager14destroyTextureEPNS_5ImageEPv
T _ZN7android5Layer13BufferManager20setActiveBufferIndexEj
T _ZN7android5Layer13BufferManager6resizeEj
T _ZN7android5Layer13BufferManager7destroyEPv
T _ZN7android5Layer13BufferManagerC1ERNS_14TextureManagerE
T _ZN7android5Layer13BufferManagerC2ERNS_14TextureManagerE
T _ZN7android5Layer13BufferManagerD1Ev
T _ZN7android5Layer13BufferManagerD2Ev
T _ZN7android5Layer13doTransactionEj
T _ZN7android5Layer13reloadTextureERKNS_6RegionE
T _ZN7android5Layer13requestBufferEijjjj
T _ZN7android5Layer13setBufferSizeEjj
T _ZN7android5Layer14setBufferCountEi
T _ZN7android5Layer14unlockPageFlipERKNS_9TransformERNS_6RegionE
T _ZN7android5Layer24updateBuffersOrientationEv
T _ZN7android5Layer7destroyEPKNS_7RefBaseE
T _ZN7android5Layer8setTokenERKNS_2spINS_10UserClientEEEPNS_12SharedClientEi
T _ZN7android5Layer9ClientRef6AccessC1ERKS1_
T _ZN7android5Layer9ClientRef6AccessC2ERKS1_
T _ZN7android5Layer9ClientRef6AccessD1Ev
T _ZN7android5Layer9ClientRef6AccessD2Ev
T _ZN7android5Layer9ClientRef8setTokenERKNS_2spINS_10UserClientEEERKNS2_INS_18SharedBufferServerEEEi
T _ZN7android5Layer9ClientRefC1Ev
T _ZN7android5Layer9ClientRefC2Ev
T _ZN7android5Layer9ClientRefD1Ev
T _ZN7android5Layer9ClientRefD2Ev
T _ZN7android5Layer9onRemovedEv
T _ZN7android5Layer9setBypassEb
T _ZN7android5LayerC1EPNS_14SurfaceFlingerEiRKNS_2spINS_6ClientEEE
T _ZN7android5LayerC2EPNS_14SurfaceFlingerEiRKNS_2spINS_6ClientEEE
T _ZN7android5LayerD0Ev
T _ZN7android5LayerD1Ev
T _ZN7android5LayerD2Ev
T _ZN7android6Client11attachLayerERKNS_2spINS_15LayerBaseClientEEE
T _ZN7android6Client11detachLayerEPKNS_15LayerBaseClientE
T _ZN7android6Client13createSurfaceEPNS_22ISurfaceComposerClient14surface_data_tEiRKNS_7String8Eijjij
T _ZN7android6Client14destroySurfaceEi
T _ZN7android6Client8setStateEiPKNS_13layer_state_tE
T _ZN7android6ClientC1ERKNS_2spINS_14SurfaceFlingerEEE
T _ZN7android6ClientC2ERKNS_2spINS_14SurfaceFlingerEEE
T _ZN7android6ClientD0Ev
T _ZN7android6ClientD1Ev
T _ZN7android6ClientD2Ev
U _ZN7android6Parcel10writeInt32Ei
U _ZN7android6Region12subtractSelfERKS0_
U _ZN7android6Region3setERKNS_4RectE
U _ZN7android6Region5clearEv
U _ZN7android6Region6orSelfERKNS_4RectE
U _ZN7android6Region6orSelfERKS0_
U _ZN7android6Region7andSelfERKS0_
U _ZN7android6RegionC1ERKNS_4RectE
U _ZN7android6RegionC1ERKS0_
U _ZN7android6RegionC1Ev
U _ZN7android6RegionD1Ev
U _ZN7android6RegionaSERKS0_
U _ZN7android6Thread10readyToRunEv
U _ZN7android6Thread11requestExitEv
U _ZN7android6Thread18requestExitAndWaitEv
U _ZN7android6Thread3runEPKcij
U _ZN7android6ThreadC2Eb
U _ZN7android6ThreadD0Ev
U _ZN7android6ThreadD1Ev
U _ZN7android6ThreadD2Ev
U _ZN7android7BBinder10onTransactEjRKNS_6ParcelEPS1_j
U _ZN7android7BBinder10pingBinderEv
U _ZN7android7BBinder11linkToDeathERKNS_2spINS_7IBinder14DeathRecipientEEEPvj
U _ZN7android7BBinder11localBinderEv
U _ZN7android7BBinder12attachObjectEPKvPvS3_PFvS2_S3_S3_E
U _ZN7android7BBinder12detachObjectEPKv
U _ZN7android7BBinder13unlinkToDeathERKNS_2wpINS_7IBinder14DeathRecipientEEEPvjPS4_
U _ZN7android7BBinder4dumpEiRKNS_6VectorINS_8String16EEE
U _ZN7android7BBinder8transactEjRKNS_6ParcelEPS1_j
U _ZN7android7BBinderC2Ev
U _ZN7android7BBinderD0Ev
U _ZN7android7BBinderD1Ev
U _ZN7android7BBinderD2Ev
U _ZN7android7IBinder11localBinderEv
U _ZN7android7IBinder12remoteBinderEv
U _ZN7android7IBinder19queryLocalInterfaceERKNS_8String16E
U _ZN7android7IBinderD0Ev
U _ZN7android7IBinderD1Ev
U _ZN7android7RefBase10onFirstRefEv
U _ZN7android7RefBase12setDestroyerEPNS0_9DestroyerE
U _ZN7android7RefBase12weakref_type16attemptIncStrongEPKv
U _ZN7android7RefBase12weakref_type7decWeakEPKv
U _ZN7android7RefBase12weakref_type7incWeakEPKv
U _ZN7android7RefBase13onLastWeakRefEPKv
U _ZN7android7RefBase15onLastStrongRefEPKv
U _ZN7android7RefBase20onIncStrongAttemptedEjPKv
U _ZN7android7RefBase9DestroyerD2Ev
U _ZN7android7RefBaseC2Ev
U _ZN7android7RefBaseD2Ev
U _ZN7android7String85setToEPKc
U _ZN7android7String85setToERKS0_
U _ZN7android7String86appendEPKc
U _ZN7android7String86appendERKS0_
U _ZN7android7String8C1EPKc
U _ZN7android7String8C1EPKcj
U _ZN7android7String8C1ERKS0_
U _ZN7android7String8C1Ev
U _ZN7android7String8D1Ev
U _ZN7android8EGLUtils27selectConfigForNativeWindowEPvPKiP13ANativeWindowPS1_
U _ZN7android8EGLUtils8strerrorEi
U _ZN7android8IOverlay10descriptorE
U _ZN7android8IOverlayC2Ev
U _ZN7android8IOverlayD0Ev
U _ZN7android8IOverlayD1Ev
U _ZN7android8IOverlayD2Ev
U _ZN7android8ISurface10BufferHeapC1Ev
U _ZN7android8ISurface10BufferHeapD1Ev
U _ZN7android8ISurface10descriptorE
U _ZN7android8ISurfaceC2Ev
U _ZN7android8ISurfaceD0Ev
U _ZN7android8ISurfaceD1Ev
U _ZN7android8ISurfaceD2Ev
T _ZN7android8LayerDim10initDimmerEPNS_14SurfaceFlingerEjj
B _ZN7android8LayerDim11sUseTextureE
B _ZN7android8LayerDim6sImageE
B _ZN7android8LayerDim6sTexIdE
B _ZN7android8LayerDim6sWidthE
B _ZN7android8LayerDim7sHeightE
T _ZN7android8LayerDimC1EPNS_14SurfaceFlingerEiRKNS_2spINS_6ClientEEE
T _ZN7android8LayerDimC2EPNS_14SurfaceFlingerEiRKNS_2spINS_6ClientEEE
T _ZN7android8LayerDimD0Ev
T _ZN7android8LayerDimD1Ev
T _ZN7android8LayerDimD2Ev
T _ZN7android8clz_implEi
U _ZN7android9BnOverlay10onTransactEjRKNS_6ParcelEPS1_j
U _ZN7android9BnSurface10onTransactEjRKNS_6ParcelEPS1_j
T _ZN7android9LayerBase10initStatesEjjj
T _ZN7android9LayerBase10invalidateEv
T _ZN7android9LayerBase11setPositionEii
T _ZN7android9LayerBase12graphicPlaneEi
T _ZN7android9LayerBase12lockPageFlipERb
T _ZN7android9LayerBase13doTransactionEj
T _ZN7android9LayerBase13setBufferCropERKNS_4RectE
T _ZN7android9LayerBase14unlockPageFlipERKNS_9TransformERNS_6RegionE
T _ZN7android9LayerBase16setCoveredRegionERKNS_6RegionE
T _ZN7android9LayerBase16setVisibleRegionERKNS_6RegionE
T _ZN7android9LayerBase17commitTransactionEv
T _ZN7android9LayerBase18requestTransactionEv
T _ZN7android9LayerBase18setBufferTransformEj
T _ZN7android9LayerBase18validateVisibilityERKNS_9TransformE
T _ZN7android9LayerBase19getTransactionFlagsEj
T _ZN7android9LayerBase19setTransactionFlagsEj
T _ZN7android9LayerBase24setTransparentRegionHintERKNS_6RegionE
T _ZN7android9LayerBase26forceVisibilityTransactionEv
T _ZN7android9LayerBase7setNameERKNS_7String8E
T _ZN7android9LayerBase7setSizeEjj
T _ZN7android9LayerBase8setAlphaEh
T _ZN7android9LayerBase8setFlagsEhh
T _ZN7android9LayerBase8setLayerEj
D _ZN7android9LayerBase9sSequenceE
T _ZN7android9LayerBase9setMatrixERKNS_13layer_state_t10matrix22_tE
T _ZN7android9LayerBaseC1EPNS_14SurfaceFlingerEi
T _ZN7android9LayerBaseC2EPNS_14SurfaceFlingerEi
T _ZN7android9LayerBaseD0Ev
T _ZN7android9LayerBaseD1Ev
T _ZN7android9LayerBaseD2Ev
T _ZN7android9LayerBlur13doTransactionEj
T _ZN7android9LayerBlur14unlockPageFlipERKNS_9TransformERNS_6RegionE
T _ZN7android9LayerBlur16setVisibleRegionERKNS_6RegionE
T _ZN7android9LayerBlurC1EPNS_14SurfaceFlingerEiRKNS_2spINS_6ClientEEE
T _ZN7android9LayerBlurC2EPNS_14SurfaceFlingerEiRKNS_2spINS_6ClientEEE
T _ZN7android9LayerBlurD0Ev
T _ZN7android9LayerBlurD1Ev
T _ZN7android9LayerBlurD2Ev
U _ZN7android9SingletonINS_10GraphicLogEE5sLockE
U _ZN7android9SingletonINS_10GraphicLogEE9sInstanceE
V _ZN7android9SingletonINS_12GLExtensionsEE5sLockE
V _ZN7android9SingletonINS_12GLExtensionsEE9sInstanceE
W _ZN7android9SingletonINS_12GLExtensionsEEC1Ev
W _ZN7android9SingletonINS_12GLExtensionsEEC2Ev
W _ZN7android9SingletonINS_12GLExtensionsEED1Ev
W _ZN7android9SingletonINS_12GLExtensionsEED2Ev
U _ZN7android9SingletonINS_22GraphicBufferAllocatorEE5sLockE
U _ZN7android9SingletonINS_22GraphicBufferAllocatorEE9sInstanceE
T _ZN7android9Transform3setEff
T _ZN7android9Transform3setEffff
T _ZN7android9Transform3setEjff
T _ZN7android9Transform5resetEv
T _ZN7android9Transform6isZeroEf
T _ZN7android9Transform8absIsOneEf
T _ZN7android9TransformC1ERKS0_
T _ZN7android9TransformC1Ej
T _ZN7android9TransformC1Ev
T _ZN7android9TransformC2ERKS0_
T _ZN7android9TransformC2Ej
T _ZN7android9TransformC2Ev
T _ZN7android9TransformD1Ev
T _ZN7android9TransformD2Ev
U _ZNK7android10Permission12checkCallingEv
U _ZNK7android10Permission5checkEij
T _ZNK7android10UserClient15getControlBlockEv
T _ZNK7android10UserClient18getTokenForSurfaceERKNS_2spINS_8ISurfaceEEE
T _ZNK7android10UserClient9initCheckEv
T _ZNK7android11LayerBuffer12BufferSource14initTempBufferEv
T _ZNK7android11LayerBuffer12BufferSource20clearTempBufferImageEv
T _ZNK7android11LayerBuffer12BufferSource6onDrawERKNS_6RegionE
T _ZNK7android11LayerBuffer12BufferSource9getBufferEv
T _ZNK7android11LayerBuffer13OverlaySource6onDrawERKNS_6RegionE
T _ZNK7android11LayerBuffer13createSurfaceEv
T _ZNK7android11LayerBuffer13needsBlendingEv
T _ZNK7android11LayerBuffer16drawForSreenShotEv
T _ZNK7android11LayerBuffer6Source6onDrawERKNS_6RegionE
T _ZNK7android11LayerBuffer6onDrawERKNS_6RegionE
T _ZNK7android11LayerBuffer9getSourceEv
T _ZNK7android12GLExtensions10getVersionEv
T _ZNK7android12GLExtensions11getRendererEv
T _ZNK7android12GLExtensions12getEglVendorEv
T _ZNK7android12GLExtensions12getExtensionEv
T _ZNK7android12GLExtensions12hasExtensionEPKc
T _ZNK7android12GLExtensions13getEglVersionEv
T _ZNK7android12GLExtensions15getEglExtensionEv
T _ZNK7android12GLExtensions9getVendorEv
T _ZNK7android12GraphicPlane11initializedEv
T _ZNK7android12GraphicPlane13getEGLDisplayEv
T _ZNK7android12GraphicPlane15displayHardwareEv
T _ZNK7android12GraphicPlane8getWidthEv
T _ZNK7android12GraphicPlane9getHeightEv
T _ZNK7android12GraphicPlane9transformEv
W _ZNK7android12SortedVectorINS_16key_value_pair_tINS_2wpINS_7IBinderEEENS2_INS_5LayerEEEEEE10do_compareEPKvSA_
W _ZNK7android12SortedVectorINS_16key_value_pair_tINS_2wpINS_7IBinderEEENS2_INS_5LayerEEEEEE10do_destroyEPvj
W _ZNK7android12SortedVectorINS_16key_value_pair_tINS_2wpINS_7IBinderEEENS2_INS_5LayerEEEEEE12do_constructEPvj
W _ZNK7android12SortedVectorINS_16key_value_pair_tINS_2wpINS_7IBinderEEENS2_INS_5LayerEEEEEE15do_move_forwardEPvPKvj
W _ZNK7android12SortedVectorINS_16key_value_pair_tINS_2wpINS_7IBinderEEENS2_INS_5LayerEEEEEE16do_move_backwardEPvPKvj
W _ZNK7android12SortedVectorINS_16key_value_pair_tINS_2wpINS_7IBinderEEENS2_INS_5LayerEEEEEE7do_copyEPvPKvj
W _ZNK7android12SortedVectorINS_16key_value_pair_tINS_2wpINS_7IBinderEEENS2_INS_5LayerEEEEEE8do_splatEPvPKvj
W _ZNK7android12SortedVectorINS_16key_value_pair_tIjNS_2wpINS_15LayerBaseClientEEEEEE10do_compareEPKvS8_
W _ZNK7android12SortedVectorINS_16key_value_pair_tIjNS_2wpINS_15LayerBaseClientEEEEEE10do_destroyEPvj
W _ZNK7android12SortedVectorINS_16key_value_pair_tIjNS_2wpINS_15LayerBaseClientEEEEEE12do_constructEPvj
W _ZNK7android12SortedVectorINS_16key_value_pair_tIjNS_2wpINS_15LayerBaseClientEEEEEE15do_move_forwardEPvPKvj
W _ZNK7android12SortedVectorINS_16key_value_pair_tIjNS_2wpINS_15LayerBaseClientEEEEEE16do_move_backwardEPvPKvj
W _ZNK7android12SortedVectorINS_16key_value_pair_tIjNS_2wpINS_15LayerBaseClientEEEEEE7do_copyEPvPKvj
W _ZNK7android12SortedVectorINS_16key_value_pair_tIjNS_2wpINS_15LayerBaseClientEEEEEE8do_splatEPvPKvj
W _ZNK7android12SortedVectorINS_2spINS_9LayerBaseEEEE10do_compareEPKvS6_
W _ZNK7android12SortedVectorINS_2spINS_9LayerBaseEEEE10do_destroyEPvj
W _ZNK7android12SortedVectorINS_2spINS_9LayerBaseEEEE12do_constructEPvj
W _ZNK7android12SortedVectorINS_2spINS_9LayerBaseEEEE15do_move_forwardEPvPKvj
W _ZNK7android12SortedVectorINS_2spINS_9LayerBaseEEEE16do_move_backwardEPvPKvj
W _ZNK7android12SortedVectorINS_2spINS_9LayerBaseEEEE7do_copyEPvPKvj
W _ZNK7android12SortedVectorINS_2spINS_9LayerBaseEEEE8do_splatEPvPKvj
W _ZNK7android12SortedVectorINS_7String8EE10do_compareEPKvS4_
W _ZNK7android12SortedVectorINS_7String8EE10do_destroyEPvj
W _ZNK7android12SortedVectorINS_7String8EE12do_constructEPvj
W _ZNK7android12SortedVectorINS_7String8EE15do_move_forwardEPvPKvj
W _ZNK7android12SortedVectorINS_7String8EE16do_move_backwardEPvPKvj
W _ZNK7android12SortedVectorINS_7String8EE7do_copyEPvPKvj
W _ZNK7android12SortedVectorINS_7String8EE8do_splatEPvPKvj
U _ZNK7android13GraphicBuffer15getNativeBufferEv
U _ZNK7android13GraphicBuffer9initCheckEv
T _ZNK7android14SurfaceFlinger12debugShowFPSEv
T _ZNK7android14SurfaceFlinger12drawWormholeEv
T _ZNK7android14SurfaceFlinger12graphicPlaneEi
T _ZNK7android14SurfaceFlinger13getFreezeLockEv
T _ZNK7android14SurfaceFlinger16getOverlayEngineEv
T _ZNK7android14SurfaceFlinger6signalEv
T _ZNK7android14SurfaceFlinger7getCblkEv
T _ZNK7android14SurfaceFlinger8getLayerERKNS_2spINS_8ISurfaceEEE
T _ZNK7android15DisplayHardware10getDensityEv
T _ZNK7android15DisplayHardware11makeCurrentEv
T _ZNK7android15DisplayHardware13acquireScreenEv
T _ZNK7android15DisplayHardware13releaseScreenEv
T _ZNK7android15DisplayHardware14getRefreshRateEv
T _ZNK7android15DisplayHardware16getPageFlipCountEv
T _ZNK7android15DisplayHardware16postBypassBufferEPK15native_handle_t
T _ZNK7android15DisplayHardware17getMaxTextureSizeEv
T _ZNK7android15DisplayHardware18getMaxViewportDimsEv
T _ZNK7android15DisplayHardware19compositionCompleteEv
T _ZNK7android15DisplayHardware21getCurrentBufferIndexEv
T _ZNK7android15DisplayHardware4flipERKNS_6RegionE
T _ZNK7android15DisplayHardware7getDpiXEv
T _ZNK7android15DisplayHardware7getDpiYEv
T _ZNK7android15DisplayHardware8getFlagsEv
T _ZNK7android15DisplayHardware8getWidthEv
T _ZNK7android15DisplayHardware9getFormatEv
T _ZNK7android15DisplayHardware9getHeightEv
T _ZNK7android15LayerBaseClient13createSurfaceEv
T _ZNK7android15LayerBaseClient4dumpERNS_7String8EPcj
T _ZNK7android15LayerBaseClient7Surface8getOwnerEv
U _ZNK7android15PixelFormatInfo15getScanlineSizeEj
U _ZNK7android16ISurfaceComposer22getInterfaceDescriptorEv
U _ZNK7android16SharedBufferBase4dumpEPKc
U _ZNK7android16SortedVectorImpl7indexOfEPKv
U _ZNK7android18SharedBufferServer12getTransformEi
U _ZNK7android18SharedBufferServer14getDirtyRegionEi
U _ZNK7android18SharedBufferServer14getQueuedCountEv
U _ZNK7android18SharedBufferServer7getCropEi
U _ZNK7android18SharedBufferServer8getStatsEv
T _ZNK7android19DisplayHardwareBase13acquireScreenEv
T _ZNK7android19DisplayHardwareBase13releaseScreenEv
T _ZNK7android19DisplayHardwareBase16isScreenAcquiredEv
T _ZNK7android19DisplayHardwareBase18DisplayEventThread13releaseScreenEv
T _ZNK7android19DisplayHardwareBase18DisplayEventThread9initCheckEv
T _ZNK7android19DisplayHardwareBase20ConsoleManagerThread13releaseScreenEv
T _ZNK7android19DisplayHardwareBase20ConsoleManagerThread9initCheckEv
T _ZNK7android19DisplayHardwareBase7canDrawEv
U _ZNK7android22GraphicBufferAllocator4dumpERNS_7String8E
U _ZNK7android22ISurfaceComposerClient22getInterfaceDescriptorEv
U _ZNK7android23FramebufferNativeWindow21getCurrentBufferIndexEv
W _ZNK7android2wpINS_10UserClientEE7promoteEv
W _ZNK7android2wpINS_14SurfaceFlingerEE7promoteEv
W _ZNK7android2wpINS_15LayerBaseClientEE7promoteEv
T _ZNK7android5Layer11isFixedSizeEv
T _ZNK7android5Layer13BufferManager15getActiveBufferEv
T _ZNK7android5Layer13BufferManager16getActiveTextureEv
T _ZNK7android5Layer13BufferManager20getActiveBufferIndexEv
T _ZNK7android5Layer13BufferManager9getBufferEj
T _ZNK7android5Layer13createSurfaceEv
T _ZNK7android5Layer14needsFilteringEv
T _ZNK7android5Layer16drawForSreenShotEv
T _ZNK7android5Layer17getEffectiveUsageEj
T _ZNK7android5Layer4dumpERNS_7String8EPcj
T _ZNK7android5Layer6onDrawERKNS_6RegionE
T _ZNK7android5Layer8getTokenEv
T _ZNK7android5Layer9ClientRef19getUserClientUnsafeEv
T _ZNK7android5Layer9ClientRef8getTokenEv
T _ZNK7android5Layer9ClientRef9getClientEv
T _ZNK7android5Layer9getClientEv
T _ZNK7android6Client12getLayerUserEi
T _ZNK7android6Client15getControlBlockEv
T _ZNK7android6Client18getTokenForSurfaceERKNS_2spINS_8ISurfaceEEE
T _ZNK7android6Client9initCheckEv
U _ZNK7android6Parcel14checkInterfaceEPNS_7IBinderE
U _ZNK7android6Parcel9readInt32Ev
U _ZNK7android6Region3endEv
U _ZNK7android6Region4dumpEPKcj
U _ZNK7android6Region4dumpERNS_7String8EPKcj
U _ZNK7android6Region5beginEv
U _ZNK7android6Region5mergeERKS0_
U _ZNK7android6Region8subtractERKS0_
U _ZNK7android6Region9intersectERKNS_4RectE
U _ZNK7android6Region9intersectERKS0_
U _ZNK7android6Region9translateEii
W _ZNK7android6VectorINS_2spINS_9LayerBaseEEEE10do_destroyEPvj
W _ZNK7android6VectorINS_2spINS_9LayerBaseEEEE12do_constructEPvj
W _ZNK7android6VectorINS_2spINS_9LayerBaseEEEE15do_move_forwardEPvPKvj
W _ZNK7android6VectorINS_2spINS_9LayerBaseEEEE16do_move_backwardEPvPKvj
W _ZNK7android6VectorINS_2spINS_9LayerBaseEEEE7do_copyEPvPKvj
W _ZNK7android6VectorINS_2spINS_9LayerBaseEEEE8do_splatEPvPKvj
W _ZNK7android6VectorIPKNS_9LayerBaseEE10do_destroyEPvj
W _ZNK7android6VectorIPKNS_9LayerBaseEE12do_constructEPvj
W _ZNK7android6VectorIPKNS_9LayerBaseEE15do_move_forwardEPvPKvj
W _ZNK7android6VectorIPKNS_9LayerBaseEE16do_move_backwardEPvPKvj
W _ZNK7android6VectorIPKNS_9LayerBaseEE7do_copyEPvPKvj
W _ZNK7android6VectorIPKNS_9LayerBaseEE8do_splatEPvPKvj
U _ZNK7android7BBinder10findObjectEPKv
U _ZNK7android7BBinder13isBinderAliveEv
U _ZNK7android7BBinder22getInterfaceDescriptorEv
U _ZNK7android7IBinder13checkSubclassEPKv
U _ZNK7android7RefBase10createWeakEPKv
U _ZNK7android7RefBase9decStrongEPKv
U _ZNK7android7RefBase9incStrongEPKv
U _ZNK7android8IOverlay22getInterfaceDescriptorEv
U _ZNK7android8ISurface22getInterfaceDescriptorEv
T _ZNK7android8LayerDim6onDrawERKNS_6RegionE
T _ZNK7android9LayerBase10drawRegionERKNS_6RegionE
T _ZNK7android9LayerBase12graphicPlaneEi
T _ZNK7android9LayerBase13visibleBoundsEv
T _ZNK7android9LayerBase14drawWithOpenGLERKNS_6RegionERKNS_7TextureE
T _ZNK7android9LayerBase15clearWithOpenGLERKNS_6RegionE
T _ZNK7android9LayerBase15clearWithOpenGLERKNS_6RegionEffff
T _ZNK7android9LayerBase16drawForSreenShotEv
T _ZNK7android9LayerBase4drawERKNS_6RegionE
T _ZNK7android9LayerBase4dumpERNS_7String8EPcj
T _ZNK7android9LayerBase7getNameEv
T _ZNK7android9LayerBlur6onDrawERKNS_6RegionE
T _ZNK7android9Transform10makeBoundsEii
T _ZNK7android9Transform11transformedEv
T _ZNK7android9Transform13preserveRectsEv
T _ZNK7android9Transform14getOrientationEv
T _ZNK7android9Transform2txEv
T _ZNK7android9Transform2tyEv
T _ZNK7android9Transform4dumpEPKc
T _ZNK7android9Transform4typeEv
T _ZNK7android9Transform7getTypeEv
T _ZNK7android9Transform9transformEPfii
T _ZNK7android9Transform9transformERKNS0_4vec2E
T _ZNK7android9Transform9transformERKNS0_4vec3E
T _ZNK7android9Transform9transformERKNS_4RectE
T _ZNK7android9Transform9transformERKNS_6RegionE
T _ZNK7android9TransformixEi
T _ZNK7android9TransformmlERKS0_
D _ZTCN7android10UserClientE0_NS_10IInterfaceE
D _ZTCN7android10UserClientE0_NS_11BnInterfaceINS_22ISurfaceComposerClientEEE
D _ZTCN7android10UserClientE0_NS_22ISurfaceComposerClientE
D _ZTCN7android10UserClientE0_NS_23BnSurfaceComposerClientE
D _ZTCN7android10UserClientE4_NS_7BBinderE
D _ZTCN7android10UserClientE4_NS_7IBinderE
V _ZTCN7android11BnInterfaceINS_16ISurfaceComposerEEE0_NS_10IInterfaceE
V _ZTCN7android11BnInterfaceINS_16ISurfaceComposerEEE0_S1_
V _ZTCN7android11BnInterfaceINS_16ISurfaceComposerEEE4_NS_7BBinderE
V _ZTCN7android11BnInterfaceINS_16ISurfaceComposerEEE4_NS_7IBinderE
V _ZTCN7android11BnInterfaceINS_22ISurfaceComposerClientEEE0_NS_10IInterfaceE
V _ZTCN7android11BnInterfaceINS_22ISurfaceComposerClientEEE0_S1_
V _ZTCN7android11BnInterfaceINS_22ISurfaceComposerClientEEE4_NS_7BBinderE
V _ZTCN7android11BnInterfaceINS_22ISurfaceComposerClientEEE4_NS_7IBinderE
V _ZTCN7android11BnInterfaceINS_8IOverlayEEE0_NS_10IInterfaceE
V _ZTCN7android11BnInterfaceINS_8IOverlayEEE0_S1_
V _ZTCN7android11BnInterfaceINS_8IOverlayEEE4_NS_7BBinderE
V _ZTCN7android11BnInterfaceINS_8IOverlayEEE4_NS_7IBinderE
V _ZTCN7android11BnInterfaceINS_8ISurfaceEEE0_NS_10IInterfaceE
V _ZTCN7android11BnInterfaceINS_8ISurfaceEEE0_S1_
V _ZTCN7android11BnInterfaceINS_8ISurfaceEEE4_NS_7BBinderE
V _ZTCN7android11BnInterfaceINS_8ISurfaceEEE4_NS_7IBinderE
V _ZTCN7android11LayerBuffer13OverlaySource14OverlayChannelE0_NS_10IInterfaceE
V _ZTCN7android11LayerBuffer13OverlaySource14OverlayChannelE0_NS_11BnInterfaceINS_8IOverlayEEE
V _ZTCN7android11LayerBuffer13OverlaySource14OverlayChannelE0_NS_8IOverlayE
V _ZTCN7android11LayerBuffer13OverlaySource14OverlayChannelE0_NS_9BnOverlayE
V _ZTCN7android11LayerBuffer13OverlaySource14OverlayChannelE4_NS_7BBinderE
V _ZTCN7android11LayerBuffer13OverlaySource14OverlayChannelE4_NS_7IBinderE
D _ZTCN7android11LayerBuffer18SurfaceLayerBufferE0_NS_10IInterfaceE
D _ZTCN7android11LayerBuffer18SurfaceLayerBufferE0_NS_11BnInterfaceINS_8ISurfaceEEE
D _ZTCN7android11LayerBuffer18SurfaceLayerBufferE0_NS_15LayerBaseClient7SurfaceE
D _ZTCN7android11LayerBuffer18SurfaceLayerBufferE0_NS_8ISurfaceE
D _ZTCN7android11LayerBuffer18SurfaceLayerBufferE0_NS_9BnSurfaceE
D _ZTCN7android11LayerBuffer18SurfaceLayerBufferE4_NS_7BBinderE
D _ZTCN7android11LayerBuffer18SurfaceLayerBufferE4_NS_7IBinderE
D _ZTCN7android14SurfaceFlingerE0_NS_10IInterfaceE
D _ZTCN7android14SurfaceFlingerE0_NS_11BnInterfaceINS_16ISurfaceComposerEEE
D _ZTCN7android14SurfaceFlingerE0_NS_16ISurfaceComposerE
D _ZTCN7android14SurfaceFlingerE0_NS_17BnSurfaceComposerE
D _ZTCN7android14SurfaceFlingerE16_NS_6ThreadE
D _ZTCN7android14SurfaceFlingerE4_NS_7BBinderE
D _ZTCN7android14SurfaceFlingerE4_NS_7IBinderE
D _ZTCN7android15LayerBaseClient7SurfaceE0_NS_10IInterfaceE
D _ZTCN7android15LayerBaseClient7SurfaceE0_NS_11BnInterfaceINS_8ISurfaceEEE
D _ZTCN7android15LayerBaseClient7SurfaceE0_NS_8ISurfaceE
D _ZTCN7android15LayerBaseClient7SurfaceE0_NS_9BnSurfaceE
D _ZTCN7android15LayerBaseClient7SurfaceE4_NS_7BBinderE
D _ZTCN7android15LayerBaseClient7SurfaceE4_NS_7IBinderE
D _ZTCN7android19DisplayHardwareBase18DisplayEventThreadE0_NS0_22DisplayEventThreadBaseE
D _ZTCN7android19DisplayHardwareBase18DisplayEventThreadE0_NS_6ThreadE
D _ZTCN7android19DisplayHardwareBase20ConsoleManagerThreadE0_NS0_22DisplayEventThreadBaseE
D _ZTCN7android19DisplayHardwareBase20ConsoleManagerThreadE0_NS_6ThreadE
D _ZTCN7android19DisplayHardwareBase22DisplayEventThreadBaseE0_NS_6ThreadE
D _ZTCN7android5Layer12SurfaceLayerE0_NS_10IInterfaceE
D _ZTCN7android5Layer12SurfaceLayerE0_NS_11BnInterfaceINS_8ISurfaceEEE
D _ZTCN7android5Layer12SurfaceLayerE0_NS_15LayerBaseClient7SurfaceE
D _ZTCN7android5Layer12SurfaceLayerE0_NS_8ISurfaceE
D _ZTCN7android5Layer12SurfaceLayerE0_NS_9BnSurfaceE
D _ZTCN7android5Layer12SurfaceLayerE4_NS_7BBinderE
D _ZTCN7android5Layer12SurfaceLayerE4_NS_7IBinderE
D _ZTCN7android6ClientE0_NS_10IInterfaceE
D _ZTCN7android6ClientE0_NS_11BnInterfaceINS_22ISurfaceComposerClientEEE
D _ZTCN7android6ClientE0_NS_22ISurfaceComposerClientE
D _ZTCN7android6ClientE0_NS_23BnSurfaceComposerClientE
D _ZTCN7android6ClientE4_NS_7BBinderE
D _ZTCN7android6ClientE4_NS_7IBinderE
D _ZTTN7android10UserClientE
V _ZTTN7android11BnInterfaceINS_16ISurfaceComposerEEE
V _ZTTN7android11BnInterfaceINS_22ISurfaceComposerClientEEE
V _ZTTN7android11BnInterfaceINS_8IOverlayEEE
V _ZTTN7android11BnInterfaceINS_8ISurfaceEEE
V _ZTTN7android11LayerBuffer13OverlaySource14OverlayChannelE
D _ZTTN7android11LayerBuffer18SurfaceLayerBufferE
D _ZTTN7android14SurfaceFlingerE
D _ZTTN7android15LayerBaseClient7SurfaceE
U _ZTTN7android17BnSurfaceComposerE
D _ZTTN7android19DisplayHardwareBase18DisplayEventThreadE
D _ZTTN7android19DisplayHardwareBase20ConsoleManagerThreadE
D _ZTTN7android19DisplayHardwareBase22DisplayEventThreadBaseE
U _ZTTN7android23BnSurfaceComposerClientE
D _ZTTN7android5Layer12SurfaceLayerE
D _ZTTN7android6ClientE
U _ZTTN7android9BnOverlayE
U _ZTTN7android9BnSurfaceE
D _ZTVN7android10UserClientE
V _ZTVN7android11BnInterfaceINS_16ISurfaceComposerEEE
V _ZTVN7android11BnInterfaceINS_22ISurfaceComposerClientEEE
V _ZTVN7android11BnInterfaceINS_8IOverlayEEE
V _ZTVN7android11BnInterfaceINS_8ISurfaceEEE
D _ZTVN7android11LayerBuffer12BufferSourceE
V _ZTVN7android11LayerBuffer13OverlaySource14OverlayChannelE
D _ZTVN7android11LayerBuffer13OverlaySourceE
D _ZTVN7android11LayerBuffer18SurfaceLayerBufferE
D _ZTVN7android11LayerBuffer6SourceE
D _ZTVN7android11LayerBufferE
V _ZTVN7android11MessageBaseE
V _ZTVN7android12SortedVectorINS_16key_value_pair_tINS_2wpINS_7IBinderEEENS2_INS_5LayerEEEEEEE
V _ZTVN7android12SortedVectorINS_16key_value_pair_tIjNS_2wpINS_15LayerBaseClientEEEEEEE
V _ZTVN7android12SortedVectorINS_2spINS_9LayerBaseEEEEE
V _ZTVN7android12SortedVectorINS_7String8EEE
V _ZTVN7android14SurfaceFlinger11LayerVectorE
D _ZTVN7android14SurfaceFlingerE
D _ZTVN7android15LayerBaseClient7SurfaceE
D _ZTVN7android15LayerBaseClientE
U _ZTVN7android17BnSurfaceComposerE
D _ZTVN7android19DisplayHardwareBase18DisplayEventThreadE
D _ZTVN7android19DisplayHardwareBase20ConsoleManagerThreadE
D _ZTVN7android19DisplayHardwareBase22DisplayEventThreadBaseE
U _ZTVN7android23BnSurfaceComposerClientE
V _ZTVN7android4ListINS_2spINS_11MessageBaseEEEEE
D _ZTVN7android5Layer12SurfaceLayerE
D _ZTVN7android5LayerE
D _ZTVN7android6ClientE
V _ZTVN7android6VectorINS_2spINS_9LayerBaseEEEEE
V _ZTVN7android6VectorIPKNS_9LayerBaseEEE
D _ZTVN7android8LayerDimE
U _ZTVN7android9BnOverlayE
U _ZTVN7android9BnSurfaceE
D _ZTVN7android9LayerBaseE
D _ZTVN7android9LayerBlurE
V _ZTVZN7android11LayerBuffer12BufferSourceD1EvE21MessageDestroyTexture
V _ZTVZN7android14SurfaceFlinger13captureScreenEiPNS_2spINS_11IMemoryHeapEEEPjS5_PijjE20MessageCaptureScreen
V _ZTVZN7android14SurfaceFlinger18turnElectronBeamOnEiE25MessageTurnElectronBeamOn
V _ZTVZN7android14SurfaceFlinger19turnElectronBeamOffEiE26MessageTurnElectronBeamOff
T _ZThn16_N7android14SurfaceFlinger10readyToRunEv
T _ZThn16_N7android14SurfaceFlinger10threadLoopEv
T _ZThn16_N7android14SurfaceFlingerD0Ev
T _ZThn16_N7android14SurfaceFlingerD1Ev
T _ZThn480_N7android5Layer7destroyEPKNS_7RefBaseE
T _ZThn480_N7android5LayerD0Ev
T _ZThn480_N7android5LayerD1Ev
T _ZThn4_N7android10UserClientD0Ev
T _ZThn4_N7android10UserClientD1Ev
T _ZThn4_N7android11LayerBuffer18SurfaceLayerBufferD0Ev
T _ZThn4_N7android11LayerBuffer18SurfaceLayerBufferD1Ev
T _ZThn4_N7android14SurfaceFlinger10onTransactEjRKNS_6ParcelEPS1_j
T _ZThn4_N7android14SurfaceFlinger4dumpEiRKNS_6VectorINS_8String16EEE
T _ZThn4_N7android14SurfaceFlingerD0Ev
T _ZThn4_N7android14SurfaceFlingerD1Ev
T _ZThn4_N7android15LayerBaseClient7Surface10onTransactEjRKNS_6ParcelEPS2_j
T _ZThn4_N7android15LayerBaseClient7SurfaceD0Ev
T _ZThn4_N7android15LayerBaseClient7SurfaceD1Ev
U _ZThn4_N7android17BnSurfaceComposer10onTransactEjRKNS_6ParcelEPS1_j
U _ZThn4_N7android23BnSurfaceComposerClient10onTransactEjRKNS_6ParcelEPS1_j
T _ZThn4_N7android5Layer12SurfaceLayerD0Ev
T _ZThn4_N7android5Layer12SurfaceLayerD1Ev
T _ZThn4_N7android6ClientD0Ev
T _ZThn4_N7android6ClientD1Ev
U _ZThn4_N7android9BnOverlay10onTransactEjRKNS_6ParcelEPS1_j
U _ZThn4_N7android9BnSurface10onTransactEjRKNS_6ParcelEPS1_j
U _ZTv0_n12_N7android10IInterfaceD0Ev
U _ZTv0_n12_N7android10IInterfaceD1Ev
T _ZTv0_n12_N7android10UserClientD0Ev
T _ZTv0_n12_N7android10UserClientD1Ev
W _ZTv0_n12_N7android11BnInterfaceINS_16ISurfaceComposerEED0Ev
W _ZTv0_n12_N7android11BnInterfaceINS_16ISurfaceComposerEED1Ev
W _ZTv0_n12_N7android11BnInterfaceINS_22ISurfaceComposerClientEED0Ev
W _ZTv0_n12_N7android11BnInterfaceINS_22ISurfaceComposerClientEED1Ev
W _ZTv0_n12_N7android11BnInterfaceINS_8IOverlayEED0Ev
W _ZTv0_n12_N7android11BnInterfaceINS_8IOverlayEED1Ev
W _ZTv0_n12_N7android11BnInterfaceINS_8ISurfaceEED0Ev
W _ZTv0_n12_N7android11BnInterfaceINS_8ISurfaceEED1Ev
W _ZTv0_n12_N7android11LayerBuffer13OverlaySource14OverlayChannelD0Ev
W _ZTv0_n12_N7android11LayerBuffer13OverlaySource14OverlayChannelD1Ev
T _ZTv0_n12_N7android11LayerBuffer18SurfaceLayerBufferD0Ev
T _ZTv0_n12_N7android11LayerBuffer18SurfaceLayerBufferD1Ev
T _ZTv0_n12_N7android14SurfaceFlingerD0Ev
T _ZTv0_n12_N7android14SurfaceFlingerD1Ev
T _ZTv0_n12_N7android15LayerBaseClient7SurfaceD0Ev
T _ZTv0_n12_N7android15LayerBaseClient7SurfaceD1Ev
U _ZTv0_n12_N7android16ISurfaceComposerD0Ev
U _ZTv0_n12_N7android16ISurfaceComposerD1Ev
W _ZTv0_n12_N7android17BnSurfaceComposerD0Ev
W _ZTv0_n12_N7android17BnSurfaceComposerD1Ev
T _ZTv0_n12_N7android19DisplayHardwareBase18DisplayEventThreadD0Ev
T _ZTv0_n12_N7android19DisplayHardwareBase18DisplayEventThreadD1Ev
T _ZTv0_n12_N7android19DisplayHardwareBase20ConsoleManagerThreadD0Ev
T _ZTv0_n12_N7android19DisplayHardwareBase20ConsoleManagerThreadD1Ev
T _ZTv0_n12_N7android19DisplayHardwareBase22DisplayEventThreadBaseD0Ev
T _ZTv0_n12_N7android19DisplayHardwareBase22DisplayEventThreadBaseD1Ev
U _ZTv0_n12_N7android22ISurfaceComposerClientD0Ev
U _ZTv0_n12_N7android22ISurfaceComposerClientD1Ev
W _ZTv0_n12_N7android23BnSurfaceComposerClientD0Ev
W _ZTv0_n12_N7android23BnSurfaceComposerClientD1Ev
T _ZTv0_n12_N7android5Layer12SurfaceLayerD0Ev
T _ZTv0_n12_N7android5Layer12SurfaceLayerD1Ev
T _ZTv0_n12_N7android6ClientD0Ev
T _ZTv0_n12_N7android6ClientD1Ev
U _ZTv0_n12_N7android6ThreadD0Ev
U _ZTv0_n12_N7android6ThreadD1Ev
U _ZTv0_n12_N7android7BBinderD0Ev
U _ZTv0_n12_N7android7BBinderD1Ev
U _ZTv0_n12_N7android7IBinderD0Ev
U _ZTv0_n12_N7android7IBinderD1Ev
U _ZTv0_n12_N7android8IOverlayD0Ev
U _ZTv0_n12_N7android8IOverlayD1Ev
U _ZTv0_n12_N7android8ISurfaceD0Ev
U _ZTv0_n12_N7android8ISurfaceD1Ev
W _ZTv0_n12_N7android9BnOverlayD0Ev
W _ZTv0_n12_N7android9BnOverlayD1Ev
W _ZTv0_n12_N7android9BnSurfaceD0Ev
W _ZTv0_n12_N7android9BnSurfaceD1Ev
T _ZTv0_n16_N7android14SurfaceFlinger10onFirstRefEv
W _ZTv0_n16_N7android19DisplayHardwareBase22DisplayEventThreadBase10onFirstRefEv
U _ZdaPv
U _ZdlPv
U _Znaj
U _Znwj
T __FINI_ARRAY__
T __INIT_ARRAY__
U __aeabi_atexit
U __aeabi_ddiv
U __aeabi_f2d
U __aeabi_f2iz
T __aeabi_f2uiz
U __aeabi_fadd
U __aeabi_fcmpgt
U __aeabi_fcmple
U __aeabi_fcmplt
U __aeabi_fdiv
U __aeabi_fmul
U __aeabi_fsub
U __aeabi_i2f
U __aeabi_l2d
U __aeabi_l2f
U __aeabi_ldivmod
U __aeabi_ui2f
U __aeabi_uidiv
U __aeabi_unwind_cpp_pr0
U __aeabi_unwind_cpp_pr1
U __android_log_print
A __bss_end__
A __bss_start
A __bss_start__
T __ctzsi2
U __cxa_finalize
U __cxa_pure_virtual
D __data_start
B __dso_handle
A __end__
U __errno
A __exidx_end
A __exidx_start
T __fixunssfsi
U __page_size
U __stack_chk_fail
U __stack_chk_guard
A _bss_end__
A _edata
A _end
A _stack
U access
U android_atomic_and
U android_atomic_dec
U android_atomic_inc
U android_atomic_or
U android_atomic_release_load
U atoi
U close
U eglCreateContext
U eglCreateImageKHR
U eglCreateWindowSurface
U eglDestroyImageKHR
U eglGetConfigAttrib
U eglGetConfigs
U eglGetDisplay
U eglGetError
U eglInitialize
U eglMakeCurrent
U eglQueryString
U eglQuerySurface
U eglSetSwapRectangleANDROID
U eglSurfaceAttrib
U eglSwapBuffers
U eglTerminate
U expf
U floorf
U free
U gettid
U glBindFramebufferOES
U glBindRenderbufferOES
U glBindTexture
U glBlendFunc
U glCheckFramebufferStatusOES
U glClear
U glClearColor
U glColor4f
U glColorMask
U glDeleteFramebuffersOES
U glDeleteRenderbuffersOES
U glDeleteTextures
U glDisable
U glDisableClientState
U glDrawArrays
U glEGLImageTargetTexture2DOES
U glEnable
U glEnableClientState
U glFramebufferRenderbufferOES
U glFramebufferTexture2DOES
U glGenFramebuffersOES
U glGenRenderbuffersOES
U glGenTextures
U glGetError
U glGetIntegerv
U glGetString
U glLoadIdentity
U glMatrixMode
U glOrthof
U glPixelStorei
U glPopMatrix
U glPushMatrix
U glReadPixels
U glRenderbufferStorageOES
U glScalef
U glScissor
U glShadeModel
U glTexCoordPointer
U glTexEnvx
U glTexImage2D
U glTexParameterx
U glTexSubImage2D
U glTranslatef
U glVertexPointer
U glViewport
U hw_get_module
U ioctl
U kill
U malloc
U memcpy
U memmove
U memset
U native_handle_delete
U open
U property_get
U property_set
U pthread_cond_broadcast
U pthread_cond_destroy
U pthread_cond_init
U pthread_cond_signal
U pthread_cond_timedwait_relative_np
U pthread_cond_wait
U pthread_mutex_destroy
U pthread_mutex_init
U pthread_mutex_lock
U pthread_mutex_trylock
U pthread_mutex_unlock
U read
U sigaction
U sigprocmask
U sigwait
U snprintf
U strchr
U strcmp
U strcpy
U strerror
U strlen
U strstr
U strzcmp16
U systemTime
U usleep
U write
