T _Locale_abbrev_dayofweek
T _Locale_abbrev_monthname
T _Locale_am_str
T _Locale_catclose
T _Locale_catgets
T _Locale_catopen
T _Locale_codecvt_create
T _Locale_codecvt_destroy
T _Locale_codecvt_name
T _Locale_collate_create
T _Locale_collate_default
T _Locale_collate_destroy
T _Locale_collate_name
T _Locale_create
T _Locale_ctype_create
T _Locale_ctype_default
T _Locale_ctype_destroy
T _Locale_ctype_name
T _Locale_ctype_table
T _Locale_currency_symbol
T _Locale_d_fmt
T _Locale_d_t_fmt
T _Locale_decimal_point
T _Locale_extract_collate_name
T _Locale_extract_ctype_name
T _Locale_extract_messages_name
T _Locale_extract_monetary_name
T _Locale_extract_numeric_name
T _Locale_extract_time_name
T _Locale_false
T _Locale_final
T _Locale_frac_digits
T _Locale_full_dayofweek
T _Locale_full_monthname
T _Locale_get_collate_hint
T _Locale_get_ctype_hint
T _Locale_get_messages_hint
T _Locale_get_monetary_hint
T _Locale_get_numeric_hint
T _Locale_get_time_hint
T _Locale_grouping
T _Locale_init
T _Locale_int_curr_symbol
T _Locale_int_frac_digits
T _Locale_long_d_fmt
T _Locale_long_d_t_fmt
T _Locale_messages_create
T _Locale_messages_default
T _Locale_messages_destroy
T _Locale_messages_name
T _Locale_mon_decimal_point
T _Locale_mon_grouping
T _Locale_mon_thousands_sep
T _Locale_monetary_create
T _Locale_monetary_default
T _Locale_monetary_destroy
T _Locale_monetary_name
T _Locale_n_cs_precedes
T _Locale_n_sep_by_space
T _Locale_n_sign_posn
T _Locale_negative_sign
T _Locale_numeric_create
T _Locale_numeric_default
T _Locale_numeric_destroy
T _Locale_numeric_name
T _Locale_p_cs_precedes
T _Locale_p_sep_by_space
T _Locale_p_sign_posn
T _Locale_pm_str
T _Locale_positive_sign
T _Locale_strcmp
T _Locale_strxfrm
T _Locale_t_fmt
T _Locale_thousands_sep
T _Locale_time_create
T _Locale_time_default
T _Locale_time_destroy
T _Locale_time_name
T _Locale_tolower
T _Locale_toupper
T _Locale_true
T _WLocale_abbrev_dayofweek
T _WLocale_abbrev_monthname
T _WLocale_am_str
T _WLocale_ctype
T _WLocale_currency_symbol
T _WLocale_decimal_point
T _WLocale_false
T _WLocale_full_dayofweek
T _WLocale_full_monthname
T _WLocale_int_curr_symbol
T _WLocale_is_stateless
T _WLocale_mb_cur_max
T _WLocale_mb_cur_min
T _WLocale_mbtowc
T _WLocale_mon_decimal_point
T _WLocale_mon_thousands_sep
T _WLocale_negative_sign
T _WLocale_pm_str
T _WLocale_positive_sign
T _WLocale_strcmp
T _WLocale_strxfrm
T _WLocale_thousands_sep
T _WLocale_tolower
T _WLocale_toupper
T _WLocale_true
T _WLocale_unshift
T _WLocale_wctomb
T _ZNKSt10istrstream5rdbufEv
T _ZNKSt10moneypunctIcLb0EE11do_groupingEv
T _ZNKSt10moneypunctIcLb0EE13do_neg_formatEv
T _ZNKSt10moneypunctIcLb0EE13do_pos_formatEv
T _ZNKSt10moneypunctIcLb0EE14do_curr_symbolEv
T _ZNKSt10moneypunctIcLb0EE14do_frac_digitsEv
T _ZNKSt10moneypunctIcLb0EE16do_decimal_pointEv
T _ZNKSt10moneypunctIcLb0EE16do_negative_signEv
T _ZNKSt10moneypunctIcLb0EE16do_positive_signEv
T _ZNKSt10moneypunctIcLb0EE16do_thousands_sepEv
T _ZNKSt10moneypunctIcLb1EE11do_groupingEv
T _ZNKSt10moneypunctIcLb1EE13do_neg_formatEv
T _ZNKSt10moneypunctIcLb1EE13do_pos_formatEv
T _ZNKSt10moneypunctIcLb1EE14do_curr_symbolEv
T _ZNKSt10moneypunctIcLb1EE14do_frac_digitsEv
T _ZNKSt10moneypunctIcLb1EE16do_decimal_pointEv
T _ZNKSt10moneypunctIcLb1EE16do_negative_signEv
T _ZNKSt10moneypunctIcLb1EE16do_positive_signEv
T _ZNKSt10moneypunctIcLb1EE16do_thousands_sepEv
T _ZNKSt10moneypunctIwLb0EE11do_groupingEv
T _ZNKSt10moneypunctIwLb0EE13do_neg_formatEv
T _ZNKSt10moneypunctIwLb0EE13do_pos_formatEv
T _ZNKSt10moneypunctIwLb0EE14do_curr_symbolEv
T _ZNKSt10moneypunctIwLb0EE14do_frac_digitsEv
T _ZNKSt10moneypunctIwLb0EE16do_decimal_pointEv
T _ZNKSt10moneypunctIwLb0EE16do_negative_signEv
T _ZNKSt10moneypunctIwLb0EE16do_positive_signEv
T _ZNKSt10moneypunctIwLb0EE16do_thousands_sepEv
T _ZNKSt10moneypunctIwLb1EE11do_groupingEv
T _ZNKSt10moneypunctIwLb1EE13do_neg_formatEv
T _ZNKSt10moneypunctIwLb1EE13do_pos_formatEv
T _ZNKSt10moneypunctIwLb1EE14do_curr_symbolEv
T _ZNKSt10moneypunctIwLb1EE14do_frac_digitsEv
T _ZNKSt10moneypunctIwLb1EE16do_decimal_pointEv
T _ZNKSt10moneypunctIwLb1EE16do_negative_signEv
T _ZNKSt10moneypunctIwLb1EE16do_positive_signEv
T _ZNKSt10moneypunctIwLb1EE16do_thousands_sepEv
T _ZNKSt10ostrstream5rdbufEv
T _ZNKSt10ostrstream6pcountEv
T _ZNKSt12_Locale_impl4Init8_M_countEv
T _ZNKSt12ctype_bynameIcE10do_tolowerEPcPKc
T _ZNKSt12ctype_bynameIcE10do_tolowerEc
T _ZNKSt12ctype_bynameIcE10do_toupperEPcPKc
T _ZNKSt12ctype_bynameIcE10do_toupperEc
T _ZNKSt12ctype_bynameIwE10do_scan_isENSt10ctype_base4maskEPKwS4_
T _ZNKSt12ctype_bynameIwE10do_tolowerEPwPKw
T _ZNKSt12ctype_bynameIwE10do_tolowerEw
T _ZNKSt12ctype_bynameIwE10do_toupperEPwPKw
T _ZNKSt12ctype_bynameIwE10do_toupperEw
T _ZNKSt12ctype_bynameIwE11do_scan_notENSt10ctype_base4maskEPKwS4_
T _ZNKSt12ctype_bynameIwE5do_isENSt10ctype_base4maskEw
T _ZNKSt12ctype_bynameIwE5do_isEPKwS2_PNSt10ctype_base4maskE
T _ZNKSt12strstreambuf6pcountEv
T _ZNKSt13bad_exception4whatEv
T _ZNKSt14codecvt_bynameIwc9mbstate_tE10do_unshiftERS0_PcS3_RS3_
T _ZNKSt14codecvt_bynameIwc9mbstate_tE11do_encodingEv
T _ZNKSt14codecvt_bynameIwc9mbstate_tE13do_max_lengthEv
T _ZNKSt14codecvt_bynameIwc9mbstate_tE16do_always_noconvEv
T _ZNKSt14codecvt_bynameIwc9mbstate_tE5do_inERS0_PKcS4_RS4_PwS6_RS6_
T _ZNKSt14codecvt_bynameIwc9mbstate_tE6do_outERS0_PKwS4_RS4_PcS6_RS6_
T _ZNKSt14codecvt_bynameIwc9mbstate_tE9do_lengthERS0_PKcS4_j
T _ZNKSt14collate_bynameIcE10do_compareEPKcS2_S2_S2_
T _ZNKSt14collate_bynameIcE12do_transformEPKcS2_
T _ZNKSt14collate_bynameIwE10do_compareEPKwS2_S2_S2_
T _ZNKSt14collate_bynameIwE12do_transformEPKwS2_
T _ZNKSt15messages_bynameIcE6do_getEiiiRKSs
T _ZNKSt15messages_bynameIcE7do_openERKSsRKSt6locale
T _ZNKSt15messages_bynameIcE8do_closeEi
T _ZNKSt15messages_bynameIwE6do_getEiiiRKSbIwSt11char_traitsIwESaIwEE
T _ZNKSt15messages_bynameIwE7do_openERKSsRKSt6locale
T _ZNKSt15messages_bynameIwE8do_closeEi
T _ZNKSt15numpunct_bynameIcE11do_groupingEv
T _ZNKSt15numpunct_bynameIcE11do_truenameEv
T _ZNKSt15numpunct_bynameIcE12do_falsenameEv
T _ZNKSt15numpunct_bynameIcE16do_decimal_pointEv
T _ZNKSt15numpunct_bynameIcE16do_thousands_sepEv
T _ZNKSt15numpunct_bynameIwE11do_groupingEv
T _ZNKSt15numpunct_bynameIwE11do_truenameEv
T _ZNKSt15numpunct_bynameIwE12do_falsenameEv
T _ZNKSt15numpunct_bynameIwE16do_decimal_pointEv
T _ZNKSt15numpunct_bynameIwE16do_thousands_sepEv
T _ZNKSt17__Named_exception4whatEv
T _ZNKSt17moneypunct_bynameIcLb0EE11do_groupingEv
T _ZNKSt17moneypunct_bynameIcLb0EE14do_curr_symbolEv
T _ZNKSt17moneypunct_bynameIcLb0EE14do_frac_digitsEv
T _ZNKSt17moneypunct_bynameIcLb0EE16do_decimal_pointEv
T _ZNKSt17moneypunct_bynameIcLb0EE16do_negative_signEv
T _ZNKSt17moneypunct_bynameIcLb0EE16do_positive_signEv
T _ZNKSt17moneypunct_bynameIcLb0EE16do_thousands_sepEv
T _ZNKSt17moneypunct_bynameIcLb1EE11do_groupingEv
T _ZNKSt17moneypunct_bynameIcLb1EE14do_curr_symbolEv
T _ZNKSt17moneypunct_bynameIcLb1EE14do_frac_digitsEv
T _ZNKSt17moneypunct_bynameIcLb1EE16do_decimal_pointEv
T _ZNKSt17moneypunct_bynameIcLb1EE16do_negative_signEv
T _ZNKSt17moneypunct_bynameIcLb1EE16do_positive_signEv
T _ZNKSt17moneypunct_bynameIcLb1EE16do_thousands_sepEv
T _ZNKSt17moneypunct_bynameIwLb0EE11do_groupingEv
T _ZNKSt17moneypunct_bynameIwLb0EE14do_curr_symbolEv
T _ZNKSt17moneypunct_bynameIwLb0EE14do_frac_digitsEv
T _ZNKSt17moneypunct_bynameIwLb0EE16do_decimal_pointEv
T _ZNKSt17moneypunct_bynameIwLb0EE16do_negative_signEv
T _ZNKSt17moneypunct_bynameIwLb0EE16do_positive_signEv
T _ZNKSt17moneypunct_bynameIwLb0EE16do_thousands_sepEv
T _ZNKSt17moneypunct_bynameIwLb1EE11do_groupingEv
T _ZNKSt17moneypunct_bynameIwLb1EE14do_curr_symbolEv
T _ZNKSt17moneypunct_bynameIwLb1EE14do_frac_digitsEv
T _ZNKSt17moneypunct_bynameIwLb1EE16do_decimal_pointEv
T _ZNKSt17moneypunct_bynameIwLb1EE16do_negative_signEv
T _ZNKSt17moneypunct_bynameIwLb1EE16do_positive_signEv
T _ZNKSt17moneypunct_bynameIwLb1EE16do_thousands_sepEv
T _ZNKSt4priv19_Catalog_locale_map6lookupEi
T _ZNKSt4priv9_Messages6do_getEiiiRKSbIwSt11char_traitsIwESaIwEE
T _ZNKSt4priv9_Messages6do_getEiiiRKSs
T _ZNKSt4priv9_Messages7do_openERKSsRKSt6locale
T _ZNKSt4priv9_Messages8do_closeEi
T _ZNKSt5ctypeIcE10do_tolowerEPcPKc
T _ZNKSt5ctypeIcE10do_tolowerEc
T _ZNKSt5ctypeIcE10do_toupperEPcPKc
T _ZNKSt5ctypeIcE10do_toupperEc
T _ZNKSt5ctypeIcE7scan_isENSt10ctype_base4maskEPKcS4_
T _ZNKSt5ctypeIcE8do_widenEPKcS2_Pc
T _ZNKSt5ctypeIcE8do_widenEc
T _ZNKSt5ctypeIcE8scan_notENSt10ctype_base4maskEPKcS4_
T _ZNKSt5ctypeIcE9do_narrowEPKcS2_cPc
T _ZNKSt5ctypeIcE9do_narrowEcc
T _ZNKSt5ctypeIwE10do_scan_isENSt10ctype_base4maskEPKwS4_
T _ZNKSt5ctypeIwE10do_tolowerEPwPKw
T _ZNKSt5ctypeIwE10do_tolowerEw
T _ZNKSt5ctypeIwE10do_toupperEPwPKw
T _ZNKSt5ctypeIwE10do_toupperEw
T _ZNKSt5ctypeIwE11do_scan_notENSt10ctype_base4maskEPKwS4_
T _ZNKSt5ctypeIwE5do_isENSt10ctype_base4maskEw
T _ZNKSt5ctypeIwE5do_isEPKwS2_PNSt10ctype_base4maskE
T _ZNKSt5ctypeIwE8do_widenEPKcS2_Pw
T _ZNKSt5ctypeIwE8do_widenEc
T _ZNKSt5ctypeIwE9do_narrowEPKwS2_cPc
T _ZNKSt5ctypeIwE9do_narrowEwc
T _ZNKSt6locale12_M_get_facetERKNS_2idE
T _ZNKSt6locale12_M_use_facetERKNS_2idE
T _ZNKSt6locale4nameEv
T _ZNKSt6localeeqERKS_
T _ZNKSt6localeneERKS_
T _ZNKSt7codecvtIcc9mbstate_tE10do_unshiftERS0_PcS3_RS3_
T _ZNKSt7codecvtIcc9mbstate_tE11do_encodingEv
T _ZNKSt7codecvtIcc9mbstate_tE13do_max_lengthEv
T _ZNKSt7codecvtIcc9mbstate_tE16do_always_noconvEv
T _ZNKSt7codecvtIcc9mbstate_tE5do_inERS0_PKcS4_RS4_PcS6_RS6_
T _ZNKSt7codecvtIcc9mbstate_tE6do_outERS0_PKcS4_RS4_PcS6_RS6_
T _ZNKSt7codecvtIcc9mbstate_tE9do_lengthERS0_PKcS4_j
T _ZNKSt7codecvtIwc9mbstate_tE10do_unshiftERS0_PcS3_RS3_
T _ZNKSt7codecvtIwc9mbstate_tE11do_encodingEv
T _ZNKSt7codecvtIwc9mbstate_tE13do_max_lengthEv
T _ZNKSt7codecvtIwc9mbstate_tE16do_always_noconvEv
T _ZNKSt7codecvtIwc9mbstate_tE5do_inERS0_PKcS4_RS4_PwS6_RS6_
T _ZNKSt7codecvtIwc9mbstate_tE6do_outERS0_PKwS4_RS4_PcS6_RS6_
T _ZNKSt7codecvtIwc9mbstate_tE9do_lengthERS0_PKcS4_j
T _ZNKSt7collateIcE10do_compareEPKcS2_S2_S2_
T _ZNKSt7collateIcE12do_transformEPKcS2_
T _ZNKSt7collateIcE7do_hashEPKcS2_
T _ZNKSt7collateIwE10do_compareEPKwS2_S2_S2_
T _ZNKSt7collateIwE12do_transformEPKwS2_
T _ZNKSt7collateIwE7do_hashEPKwS2_
W _ZNKSt7num_getIcSt19istreambuf_iteratorIcSt11char_traitsIcEEE6do_getES3_S3_RSt8ios_baseRiRPv
W _ZNKSt7num_getIcSt19istreambuf_iteratorIcSt11char_traitsIcEEE6do_getES3_S3_RSt8ios_baseRiRb
W _ZNKSt7num_getIcSt19istreambuf_iteratorIcSt11char_traitsIcEEE6do_getES3_S3_RSt8ios_baseRiRd
W _ZNKSt7num_getIcSt19istreambuf_iteratorIcSt11char_traitsIcEEE6do_getES3_S3_RSt8ios_baseRiRe
W _ZNKSt7num_getIcSt19istreambuf_iteratorIcSt11char_traitsIcEEE6do_getES3_S3_RSt8ios_baseRiRf
W _ZNKSt7num_getIcSt19istreambuf_iteratorIcSt11char_traitsIcEEE6do_getES3_S3_RSt8ios_baseRiRj
W _ZNKSt7num_getIcSt19istreambuf_iteratorIcSt11char_traitsIcEEE6do_getES3_S3_RSt8ios_baseRiRl
W _ZNKSt7num_getIcSt19istreambuf_iteratorIcSt11char_traitsIcEEE6do_getES3_S3_RSt8ios_baseRiRm
W _ZNKSt7num_getIcSt19istreambuf_iteratorIcSt11char_traitsIcEEE6do_getES3_S3_RSt8ios_baseRiRt
W _ZNKSt7num_getIcSt19istreambuf_iteratorIcSt11char_traitsIcEEE6do_getES3_S3_RSt8ios_baseRiRx
W _ZNKSt7num_getIcSt19istreambuf_iteratorIcSt11char_traitsIcEEE6do_getES3_S3_RSt8ios_baseRiRy
W _ZNKSt7num_getIwSt19istreambuf_iteratorIwSt11char_traitsIwEEE6do_getES3_S3_RSt8ios_baseRiRPv
W _ZNKSt7num_getIwSt19istreambuf_iteratorIwSt11char_traitsIwEEE6do_getES3_S3_RSt8ios_baseRiRb
W _ZNKSt7num_getIwSt19istreambuf_iteratorIwSt11char_traitsIwEEE6do_getES3_S3_RSt8ios_baseRiRd
W _ZNKSt7num_getIwSt19istreambuf_iteratorIwSt11char_traitsIwEEE6do_getES3_S3_RSt8ios_baseRiRe
W _ZNKSt7num_getIwSt19istreambuf_iteratorIwSt11char_traitsIwEEE6do_getES3_S3_RSt8ios_baseRiRf
W _ZNKSt7num_getIwSt19istreambuf_iteratorIwSt11char_traitsIwEEE6do_getES3_S3_RSt8ios_baseRiRj
W _ZNKSt7num_getIwSt19istreambuf_iteratorIwSt11char_traitsIwEEE6do_getES3_S3_RSt8ios_baseRiRl
W _ZNKSt7num_getIwSt19istreambuf_iteratorIwSt11char_traitsIwEEE6do_getES3_S3_RSt8ios_baseRiRm
W _ZNKSt7num_getIwSt19istreambuf_iteratorIwSt11char_traitsIwEEE6do_getES3_S3_RSt8ios_baseRiRt
W _ZNKSt7num_getIwSt19istreambuf_iteratorIwSt11char_traitsIwEEE6do_getES3_S3_RSt8ios_baseRiRx
W _ZNKSt7num_getIwSt19istreambuf_iteratorIwSt11char_traitsIwEEE6do_getES3_S3_RSt8ios_baseRiRy
W _ZNKSt7num_putIcSt19ostreambuf_iteratorIcSt11char_traitsIcEEE6do_putES3_RSt8ios_basecPKv
W _ZNKSt7num_putIcSt19ostreambuf_iteratorIcSt11char_traitsIcEEE6do_putES3_RSt8ios_basecb
W _ZNKSt7num_putIcSt19ostreambuf_iteratorIcSt11char_traitsIcEEE6do_putES3_RSt8ios_basecd
W _ZNKSt7num_putIcSt19ostreambuf_iteratorIcSt11char_traitsIcEEE6do_putES3_RSt8ios_basece
W _ZNKSt7num_putIcSt19ostreambuf_iteratorIcSt11char_traitsIcEEE6do_putES3_RSt8ios_basecl
W _ZNKSt7num_putIcSt19ostreambuf_iteratorIcSt11char_traitsIcEEE6do_putES3_RSt8ios_basecm
W _ZNKSt7num_putIcSt19ostreambuf_iteratorIcSt11char_traitsIcEEE6do_putES3_RSt8ios_basecx
W _ZNKSt7num_putIcSt19ostreambuf_iteratorIcSt11char_traitsIcEEE6do_putES3_RSt8ios_basecy
W _ZNKSt7num_putIwSt19ostreambuf_iteratorIwSt11char_traitsIwEEE6do_putES3_RSt8ios_basewPKv
W _ZNKSt7num_putIwSt19ostreambuf_iteratorIwSt11char_traitsIwEEE6do_putES3_RSt8ios_basewb
W _ZNKSt7num_putIwSt19ostreambuf_iteratorIwSt11char_traitsIwEEE6do_putES3_RSt8ios_basewd
W _ZNKSt7num_putIwSt19ostreambuf_iteratorIwSt11char_traitsIwEEE6do_putES3_RSt8ios_basewe
W _ZNKSt7num_putIwSt19ostreambuf_iteratorIwSt11char_traitsIwEEE6do_putES3_RSt8ios_basewl
W _ZNKSt7num_putIwSt19ostreambuf_iteratorIwSt11char_traitsIwEEE6do_putES3_RSt8ios_basewm
W _ZNKSt7num_putIwSt19ostreambuf_iteratorIwSt11char_traitsIwEEE6do_putES3_RSt8ios_basewx
W _ZNKSt7num_putIwSt19ostreambuf_iteratorIwSt11char_traitsIwEEE6do_putES3_RSt8ios_basewy
T _ZNKSt8numpunctIcE11do_groupingEv
T _ZNKSt8numpunctIcE11do_truenameEv
T _ZNKSt8numpunctIcE12do_falsenameEv
T _ZNKSt8numpunctIcE16do_decimal_pointEv
T _ZNKSt8numpunctIcE16do_thousands_sepEv
T _ZNKSt8numpunctIwE11do_groupingEv
T _ZNKSt8numpunctIwE11do_truenameEv
T _ZNKSt8numpunctIwE12do_falsenameEv
T _ZNKSt8numpunctIwE16do_decimal_pointEv
T _ZNKSt8numpunctIwE16do_thousands_sepEv
W _ZNKSt8time_getIcSt19istreambuf_iteratorIcSt11char_traitsIcEEE11do_get_dateES3_S3_RSt8ios_baseRiP2tm
W _ZNKSt8time_getIcSt19istreambuf_iteratorIcSt11char_traitsIcEEE11do_get_timeES3_S3_RSt8ios_baseRiP2tm
W _ZNKSt8time_getIcSt19istreambuf_iteratorIcSt11char_traitsIcEEE11do_get_yearES3_S3_RSt8ios_baseRiP2tm
W _ZNKSt8time_getIcSt19istreambuf_iteratorIcSt11char_traitsIcEEE14do_get_weekdayES3_S3_RSt8ios_baseRiP2tm
W _ZNKSt8time_getIcSt19istreambuf_iteratorIcSt11char_traitsIcEEE16do_get_monthnameES3_S3_RSt8ios_baseRiP2tm
W _ZNKSt8time_getIwSt19istreambuf_iteratorIwSt11char_traitsIwEEE11do_get_dateES3_S3_RSt8ios_baseRiP2tm
W _ZNKSt8time_getIwSt19istreambuf_iteratorIwSt11char_traitsIwEEE11do_get_timeES3_S3_RSt8ios_baseRiP2tm
W _ZNKSt8time_getIwSt19istreambuf_iteratorIwSt11char_traitsIwEEE11do_get_yearES3_S3_RSt8ios_baseRiP2tm
W _ZNKSt8time_getIwSt19istreambuf_iteratorIwSt11char_traitsIwEEE14do_get_weekdayES3_S3_RSt8ios_baseRiP2tm
W _ZNKSt8time_getIwSt19istreambuf_iteratorIwSt11char_traitsIwEEE16do_get_monthnameES3_S3_RSt8ios_baseRiP2tm
W _ZNKSt8time_putIcSt19ostreambuf_iteratorIcSt11char_traitsIcEEE6do_putES3_RSt8ios_basecPK2tmcc
W _ZNKSt8time_putIwSt19ostreambuf_iteratorIwSt11char_traitsIwEEE6do_putES3_RSt8ios_basewPK2tmcc
T _ZNKSt9exception4whatEv
W _ZNKSt9money_getIcSt19istreambuf_iteratorIcSt11char_traitsIcEEE6do_getES3_S3_bRSt8ios_baseRiRSs
W _ZNKSt9money_getIcSt19istreambuf_iteratorIcSt11char_traitsIcEEE6do_getES3_S3_bRSt8ios_baseRiRe
W _ZNKSt9money_getIwSt19istreambuf_iteratorIwSt11char_traitsIwEEE6do_getES3_S3_bRSt8ios_baseRiRSbIwS2_SaIwEE
W _ZNKSt9money_getIwSt19istreambuf_iteratorIwSt11char_traitsIwEEE6do_getES3_S3_bRSt8ios_baseRiRe
W _ZNKSt9money_putIcSt19ostreambuf_iteratorIcSt11char_traitsIcEEE6do_putES3_bRSt8ios_basecRKSs
W _ZNKSt9money_putIcSt19ostreambuf_iteratorIcSt11char_traitsIcEEE6do_putES3_bRSt8ios_basece
W _ZNKSt9money_putIwSt19ostreambuf_iteratorIwSt11char_traitsIwEEE6do_putES3_bRSt8ios_basewRKSbIwS2_SaIwEE
W _ZNKSt9money_putIwSt19ostreambuf_iteratorIwSt11char_traitsIwEEE6do_putES3_bRSt8ios_basewe
T _ZNKSt9strstream5rdbufEv
T _ZNKSt9strstream6pcountEv
W _ZNSbIcSt11char_traitsIcENSt4priv20__iostring_allocatorIcEEE10_M_reserveEj
W _ZNSbIcSt11char_traitsIcENSt4priv20__iostring_allocatorIcEEE13_M_insert_auxEPcc
W _ZNSbIcSt11char_traitsIcENSt4priv20__iostring_allocatorIcEEE9_M_appendEPKcS6_
W _ZNSbIcSt11char_traitsIcENSt4priv20__iostring_allocatorIcEEE9_M_assignEPKcS6_
W _ZNSbIwSt11char_traitsIwENSt4priv20__iostring_allocatorIwEEE10_M_reserveEj
W _ZNSbIwSt11char_traitsIwENSt4priv20__iostring_allocatorIwEEE13_M_insert_auxEPww
W _ZNSbIwSt11char_traitsIwESaIwEE10_M_reserveEj
W _ZNSbIwSt11char_traitsIwESaIwEE6appendEjw
W _ZNSbIwSt11char_traitsIwESaIwEE9_M_appendEPKwS4_
W _ZNSbIwSt11char_traitsIwESaIwEE9_M_assignEPKwS4_
W _ZNSbIwSt11char_traitsIwESaIwEEC1EPKwRKS1_
W _ZNSdD0Ev
W _ZNSdD1Ev
W _ZNSi16_M_formatted_getERc
W _ZNSi7putbackEc
W _ZNSo11_M_put_charEc
W _ZNSoC1EPSt15basic_streambufIcSt11char_traitsIcEE
W _ZNSoD0Ev
W _ZNSoD1Ev
W _ZNSs10_M_reserveEj
W _ZNSs6appendEjc
W _ZNSs9_M_appendEPKcS0_
W _ZNSs9_M_assignEPKcS0_
W _ZNSsC1EPKcRKSaIcE
T _ZNSt10_UnderflowIcSt11char_traitsIcEE7_M_doitEPSt13basic_filebufIcS1_E
T _ZNSt10istrstream3strEv
T _ZNSt10istrstreamC1EPKc
T _ZNSt10istrstreamC1EPKci
T _ZNSt10istrstreamC1EPc
T _ZNSt10istrstreamC1EPci
T _ZNSt10istrstreamC2EPKc
T _ZNSt10istrstreamC2EPKci
T _ZNSt10istrstreamC2EPc
T _ZNSt10istrstreamC2EPci
T _ZNSt10istrstreamD0Ev
T _ZNSt10istrstreamD1Ev
T _ZNSt10istrstreamD2Ev
D _ZNSt10moneypunctIcLb0EE2idE
R _ZNSt10moneypunctIcLb0EE4intlE
T _ZNSt10moneypunctIcLb0EEC1Ej
T _ZNSt10moneypunctIcLb0EEC2Ej
T _ZNSt10moneypunctIcLb0EED0Ev
T _ZNSt10moneypunctIcLb0EED1Ev
T _ZNSt10moneypunctIcLb0EED2Ev
D _ZNSt10moneypunctIcLb1EE2idE
R _ZNSt10moneypunctIcLb1EE4intlE
T _ZNSt10moneypunctIcLb1EEC1Ej
T _ZNSt10moneypunctIcLb1EEC2Ej
T _ZNSt10moneypunctIcLb1EED0Ev
T _ZNSt10moneypunctIcLb1EED1Ev
T _ZNSt10moneypunctIcLb1EED2Ev
D _ZNSt10moneypunctIwLb0EE2idE
R _ZNSt10moneypunctIwLb0EE4intlE
T _ZNSt10moneypunctIwLb0EEC1Ej
T _ZNSt10moneypunctIwLb0EEC2Ej
T _ZNSt10moneypunctIwLb0EED0Ev
T _ZNSt10moneypunctIwLb0EED1Ev
T _ZNSt10moneypunctIwLb0EED2Ev
D _ZNSt10moneypunctIwLb1EE2idE
R _ZNSt10moneypunctIwLb1EE4intlE
T _ZNSt10moneypunctIwLb1EEC1Ej
T _ZNSt10moneypunctIwLb1EEC2Ej
T _ZNSt10moneypunctIwLb1EED0Ev
T _ZNSt10moneypunctIwLb1EED1Ev
T _ZNSt10moneypunctIwLb1EED2Ev
T _ZNSt10ostrstream3strEv
T _ZNSt10ostrstream6freezeEb
T _ZNSt10ostrstreamC1EPcii
T _ZNSt10ostrstreamC1Ev
T _ZNSt10ostrstreamC2EPcii
T _ZNSt10ostrstreamC2Ev
T _ZNSt10ostrstreamD0Ev
T _ZNSt10ostrstreamD1Ev
T _ZNSt10ostrstreamD2Ev
T _ZNSt11logic_errorD0Ev
T _ZNSt11logic_errorD1Ev
T _ZNSt11logic_errorD2Ev
T _ZNSt11range_errorD0Ev
T _ZNSt11range_errorD1Ev
T _ZNSt11range_errorD2Ev
T _ZNSt12_Locale_impl13_S_initializeEv
T _ZNSt12_Locale_impl15_S_uninitializeEv
T _ZNSt12_Locale_impl17_M_throw_bad_castEv
T _ZNSt12_Locale_impl18insert_time_facetsERPKcPcP17_Locale_name_hint
T _ZNSt12_Locale_impl19insert_ctype_facetsERPKcPcP17_Locale_name_hint
T _ZNSt12_Locale_impl19make_classic_localeEv
T _ZNSt12_Locale_impl21insert_collate_facetsERPKcPcP17_Locale_name_hint
T _ZNSt12_Locale_impl21insert_numeric_facetsERPKcPcP17_Locale_name_hint
T _ZNSt12_Locale_impl22insert_messages_facetsERPKcPcP17_Locale_name_hint
T _ZNSt12_Locale_impl22insert_monetary_facetsERPKcPcP17_Locale_name_hint
T _ZNSt12_Locale_impl4InitC1Ev
T _ZNSt12_Locale_impl4InitC2Ev
T _ZNSt12_Locale_impl4InitD1Ev
T _ZNSt12_Locale_impl4InitD2Ev
T _ZNSt12_Locale_impl6insertEPNSt6locale5facetERKNS0_2idE
T _ZNSt12_Locale_impl6insertEPS_RKNSt6locale2idE
T _ZNSt12_Locale_implC1EPKc
T _ZNSt12_Locale_implC1ERKS_
T _ZNSt12_Locale_implC1EjPKc
T _ZNSt12_Locale_implC2EPKc
T _ZNSt12_Locale_implC2ERKS_
T _ZNSt12_Locale_implC2EjPKc
T _ZNSt12_Locale_implD1Ev
T _ZNSt12_Locale_implD2Ev
T _ZNSt12__node_alloc11_M_allocateERj
T _ZNSt12__node_alloc13_M_deallocateEPvj
T _ZNSt12ctype_bynameIcE7_M_initEv
T _ZNSt12ctype_bynameIcEC1EPKcj
T _ZNSt12ctype_bynameIcEC2EPKcj
T _ZNSt12ctype_bynameIcED0Ev
T _ZNSt12ctype_bynameIcED1Ev
T _ZNSt12ctype_bynameIcED2Ev
T _ZNSt12ctype_bynameIwEC1EPKcj
T _ZNSt12ctype_bynameIwEC2EPKcj
T _ZNSt12ctype_bynameIwED0Ev
T _ZNSt12ctype_bynameIwED1Ev
T _ZNSt12ctype_bynameIwED2Ev
T _ZNSt12domain_errorD0Ev
T _ZNSt12domain_errorD1Ev
T _ZNSt12domain_errorD2Ev
T _ZNSt12length_errorD0Ev
T _ZNSt12length_errorD1Ev
T _ZNSt12length_errorD2Ev
T _ZNSt12out_of_rangeD0Ev
T _ZNSt12out_of_rangeD1Ev
T _ZNSt12out_of_rangeD2Ev
T _ZNSt12strstreambuf3strEv
T _ZNSt12strstreambuf6freezeEb
T _ZNSt12strstreambuf6setbufEPci
T _ZNSt12strstreambuf7_M_freeEPc
T _ZNSt12strstreambuf7seekoffElii
T _ZNSt12strstreambuf7seekposESt4fposI9mbstate_tEi
T _ZNSt12strstreambuf8_M_allocEj
T _ZNSt12strstreambuf8_M_setupEPcS0_i
T _ZNSt12strstreambuf8overflowEi
T _ZNSt12strstreambuf9pbackfailEi
T _ZNSt12strstreambuf9underflowEv
T _ZNSt12strstreambufC1EPFPvjEPFvS0_E
T _ZNSt12strstreambufC1EPKai
T _ZNSt12strstreambufC1EPKci
T _ZNSt12strstreambufC1EPKhi
T _ZNSt12strstreambufC1EPaiS0_
T _ZNSt12strstreambufC1EPciS0_
T _ZNSt12strstreambufC1EPhiS0_
T _ZNSt12strstreambufC1Ei
T _ZNSt12strstreambufC2EPFPvjEPFvS0_E
T _ZNSt12strstreambufC2EPKai
T _ZNSt12strstreambufC2EPKci
T _ZNSt12strstreambufC2EPKhi
T _ZNSt12strstreambufC2EPaiS0_
T _ZNSt12strstreambufC2EPciS0_
T _ZNSt12strstreambufC2EPhiS0_
T _ZNSt12strstreambufC2Ei
T _ZNSt12strstreambufD0Ev
T _ZNSt12strstreambufD1Ev
T _ZNSt12strstreambufD2Ev
T _ZNSt13_Filebuf_base12_M_file_sizeEv
D _ZNSt13_Filebuf_base12_M_page_sizeE
T _ZNSt13_Filebuf_base13_S_initializeEv
T _ZNSt13_Filebuf_base7_M_mmapEll
T _ZNSt13_Filebuf_base7_M_openEPKci
T _ZNSt13_Filebuf_base7_M_openEPKcil
T _ZNSt13_Filebuf_base7_M_openEii
T _ZNSt13_Filebuf_base7_M_readEPci
T _ZNSt13_Filebuf_base7_M_seekEli
T _ZNSt13_Filebuf_base8_M_closeEv
T _ZNSt13_Filebuf_base8_M_unmapEPvl
T _ZNSt13_Filebuf_base8_M_writeEPci
T _ZNSt13_Filebuf_baseC1Ev
T _ZNSt13_Filebuf_baseC2Ev
T _ZNSt13bad_exceptionC1Ev
T _ZNSt13bad_exceptionC2Ev
T _ZNSt13bad_exceptionD0Ev
T _ZNSt13bad_exceptionD1Ev
T _ZNSt13bad_exceptionD2Ev
W _ZNSt13basic_filebufIcSt11char_traitsIcEE10_M_unshiftEv
W _ZNSt13basic_filebufIcSt11char_traitsIcEE12_M_seek_initEb
W _ZNSt13basic_filebufIcSt11char_traitsIcEE16_M_setup_codecvtERKSt6localeb
W _ZNSt13basic_filebufIcSt11char_traitsIcEE16_M_underflow_auxEv
W _ZNSt13basic_filebufIcSt11char_traitsIcEE19_M_allocate_buffersEPci
W _ZNSt13basic_filebufIcSt11char_traitsIcEE21_M_deallocate_buffersEv
W _ZNSt13basic_filebufIcSt11char_traitsIcEE23_M_switch_to_input_modeEv
W _ZNSt13basic_filebufIcSt11char_traitsIcEE24_M_switch_to_output_modeEv
W _ZNSt13basic_filebufIcSt11char_traitsIcEE4syncEv
W _ZNSt13basic_filebufIcSt11char_traitsIcEE5closeEv
W _ZNSt13basic_filebufIcSt11char_traitsIcEE5imbueERKSt6locale
W _ZNSt13basic_filebufIcSt11char_traitsIcEE6setbufEPci
W _ZNSt13basic_filebufIcSt11char_traitsIcEE7seekoffElii
W _ZNSt13basic_filebufIcSt11char_traitsIcEE7seekposESt4fposI9mbstate_tEi
W _ZNSt13basic_filebufIcSt11char_traitsIcEE8overflowEi
W _ZNSt13basic_filebufIcSt11char_traitsIcEE9pbackfailEi
W _ZNSt13basic_filebufIcSt11char_traitsIcEE9showmanycEv
W _ZNSt13basic_filebufIcSt11char_traitsIcEE9underflowEv
W _ZNSt13basic_filebufIcSt11char_traitsIcEEC1Ev
W _ZNSt13basic_filebufIcSt11char_traitsIcEED0Ev
W _ZNSt13basic_filebufIcSt11char_traitsIcEED1Ev
W _ZNSt13basic_filebufIwSt11char_traitsIwEE10_M_unshiftEv
W _ZNSt13basic_filebufIwSt11char_traitsIwEE12_M_seek_initEb
W _ZNSt13basic_filebufIwSt11char_traitsIwEE16_M_setup_codecvtERKSt6localeb
W _ZNSt13basic_filebufIwSt11char_traitsIwEE16_M_underflow_auxEv
W _ZNSt13basic_filebufIwSt11char_traitsIwEE18_M_exit_input_modeEv
W _ZNSt13basic_filebufIwSt11char_traitsIwEE19_M_allocate_buffersEPwi
W _ZNSt13basic_filebufIwSt11char_traitsIwEE19_M_allocate_buffersEv
W _ZNSt13basic_filebufIwSt11char_traitsIwEE21_M_deallocate_buffersEv
W _ZNSt13basic_filebufIwSt11char_traitsIwEE23_M_switch_to_input_modeEv
W _ZNSt13basic_filebufIwSt11char_traitsIwEE24_M_switch_to_output_modeEv
W _ZNSt13basic_filebufIwSt11char_traitsIwEE4syncEv
W _ZNSt13basic_filebufIwSt11char_traitsIwEE5closeEv
W _ZNSt13basic_filebufIwSt11char_traitsIwEE5imbueERKSt6locale
W _ZNSt13basic_filebufIwSt11char_traitsIwEE6setbufEPwi
W _ZNSt13basic_filebufIwSt11char_traitsIwEE7seekoffElii
W _ZNSt13basic_filebufIwSt11char_traitsIwEE7seekposESt4fposI9mbstate_tEi
W _ZNSt13basic_filebufIwSt11char_traitsIwEE8overflowEi
W _ZNSt13basic_filebufIwSt11char_traitsIwEE9pbackfailEi
W _ZNSt13basic_filebufIwSt11char_traitsIwEE9showmanycEv
W _ZNSt13basic_filebufIwSt11char_traitsIwEE9underflowEv
W _ZNSt13basic_filebufIwSt11char_traitsIwEEC1Ev
W _ZNSt13basic_filebufIwSt11char_traitsIwEED0Ev
W _ZNSt13basic_filebufIwSt11char_traitsIwEED1Ev
W _ZNSt13basic_ostreamIwSt11char_traitsIwEEC1EPSt15basic_streambufIwS1_E
W _ZNSt13basic_ostreamIwSt11char_traitsIwEED0Ev
W _ZNSt13basic_ostreamIwSt11char_traitsIwEED1Ev
T _ZNSt13runtime_errorD0Ev
T _ZNSt13runtime_errorD1Ev
T _ZNSt13runtime_errorD2Ev
T _ZNSt14__malloc_alloc18set_malloc_handlerEPFvvE
T _ZNSt14__malloc_alloc8allocateEj
T _ZNSt14codecvt_bynameIcc9mbstate_tEC1EPKcj
T _ZNSt14codecvt_bynameIcc9mbstate_tEC2EPKcj
T _ZNSt14codecvt_bynameIcc9mbstate_tED0Ev
T _ZNSt14codecvt_bynameIcc9mbstate_tED1Ev
T _ZNSt14codecvt_bynameIcc9mbstate_tED2Ev
T _ZNSt14codecvt_bynameIwc9mbstate_tEC1EPKcj
T _ZNSt14codecvt_bynameIwc9mbstate_tEC2EPKcj
T _ZNSt14codecvt_bynameIwc9mbstate_tED0Ev
T _ZNSt14codecvt_bynameIwc9mbstate_tED1Ev
T _ZNSt14codecvt_bynameIwc9mbstate_tED2Ev
T _ZNSt14collate_bynameIcEC1EPKcj
T _ZNSt14collate_bynameIcEC2EPKcj
T _ZNSt14collate_bynameIcED0Ev
T _ZNSt14collate_bynameIcED1Ev
T _ZNSt14collate_bynameIcED2Ev
T _ZNSt14collate_bynameIwEC1EPKcj
T _ZNSt14collate_bynameIwEC2EPKcj
T _ZNSt14collate_bynameIwED0Ev
T _ZNSt14collate_bynameIwED1Ev
T _ZNSt14collate_bynameIwED2Ev
T _ZNSt14overflow_errorD0Ev
T _ZNSt14overflow_errorD1Ev
T _ZNSt14overflow_errorD2Ev
W _ZNSt15basic_streambufIcSt11char_traitsIcEE10_M_xsputncEci
W _ZNSt15basic_streambufIcSt11char_traitsIcEE4syncEv
W _ZNSt15basic_streambufIcSt11char_traitsIcEE5imbueERKSt6locale
W _ZNSt15basic_streambufIcSt11char_traitsIcEE5uflowEv
W _ZNSt15basic_streambufIcSt11char_traitsIcEE6setbufEPci
W _ZNSt15basic_streambufIcSt11char_traitsIcEE6xsgetnEPci
W _ZNSt15basic_streambufIcSt11char_traitsIcEE6xsputnEPKci
W _ZNSt15basic_streambufIcSt11char_traitsIcEE7seekoffElii
W _ZNSt15basic_streambufIcSt11char_traitsIcEE7seekposESt4fposI9mbstate_tEi
W _ZNSt15basic_streambufIcSt11char_traitsIcEE8overflowEi
W _ZNSt15basic_streambufIcSt11char_traitsIcEE8pubimbueERKSt6locale
W _ZNSt15basic_streambufIcSt11char_traitsIcEE9pbackfailEi
W _ZNSt15basic_streambufIcSt11char_traitsIcEE9showmanycEv
W _ZNSt15basic_streambufIcSt11char_traitsIcEE9underflowEv
W _ZNSt15basic_streambufIcSt11char_traitsIcEEC2Ev
W _ZNSt15basic_streambufIcSt11char_traitsIcEED0Ev
W _ZNSt15basic_streambufIcSt11char_traitsIcEED1Ev
W _ZNSt15basic_streambufIwSt11char_traitsIwEE10_M_xsputncEwi
W _ZNSt15basic_streambufIwSt11char_traitsIwEE4syncEv
W _ZNSt15basic_streambufIwSt11char_traitsIwEE5imbueERKSt6locale
W _ZNSt15basic_streambufIwSt11char_traitsIwEE5uflowEv
W _ZNSt15basic_streambufIwSt11char_traitsIwEE6setbufEPwi
W _ZNSt15basic_streambufIwSt11char_traitsIwEE6xsgetnEPwi
W _ZNSt15basic_streambufIwSt11char_traitsIwEE6xsputnEPKwi
W _ZNSt15basic_streambufIwSt11char_traitsIwEE7seekoffElii
W _ZNSt15basic_streambufIwSt11char_traitsIwEE7seekposESt4fposI9mbstate_tEi
W _ZNSt15basic_streambufIwSt11char_traitsIwEE8overflowEi
W _ZNSt15basic_streambufIwSt11char_traitsIwEE8pubimbueERKSt6locale
W _ZNSt15basic_streambufIwSt11char_traitsIwEE9pbackfailEi
W _ZNSt15basic_streambufIwSt11char_traitsIwEE9showmanycEv
W _ZNSt15basic_streambufIwSt11char_traitsIwEE9underflowEv
W _ZNSt15basic_streambufIwSt11char_traitsIwEED0Ev
W _ZNSt15basic_streambufIwSt11char_traitsIwEED1Ev
T _ZNSt15messages_bynameIcEC1EP16_Locale_messages
T _ZNSt15messages_bynameIcEC1EPKcj
T _ZNSt15messages_bynameIcEC2EP16_Locale_messages
T _ZNSt15messages_bynameIcEC2EPKcj
T _ZNSt15messages_bynameIcED0Ev
T _ZNSt15messages_bynameIcED1Ev
T _ZNSt15messages_bynameIcED2Ev
T _ZNSt15messages_bynameIwEC1EP16_Locale_messages
T _ZNSt15messages_bynameIwEC1EPKcj
T _ZNSt15messages_bynameIwEC2EP16_Locale_messages
T _ZNSt15messages_bynameIwEC2EPKcj
T _ZNSt15messages_bynameIwED0Ev
T _ZNSt15messages_bynameIwED1Ev
T _ZNSt15messages_bynameIwED2Ev
T _ZNSt15numpunct_bynameIcEC1EPKcj
T _ZNSt15numpunct_bynameIcEC2EPKcj
T _ZNSt15numpunct_bynameIcED0Ev
T _ZNSt15numpunct_bynameIcED1Ev
T _ZNSt15numpunct_bynameIcED2Ev
T _ZNSt15numpunct_bynameIwEC1EPKcj
T _ZNSt15numpunct_bynameIwEC2EPKcj
T _ZNSt15numpunct_bynameIwED0Ev
T _ZNSt15numpunct_bynameIwED1Ev
T _ZNSt15numpunct_bynameIwED2Ev
T _ZNSt15underflow_errorD0Ev
T _ZNSt15underflow_errorD1Ev
T _ZNSt15underflow_errorD2Ev
T _ZNSt16invalid_argumentD0Ev
T _ZNSt16invalid_argumentD1Ev
T _ZNSt16invalid_argumentD2Ev
T _ZNSt17__Named_exceptionC1ERKS_
T _ZNSt17__Named_exceptionC1ERKSs
T _ZNSt17__Named_exceptionC2ERKS_
T _ZNSt17__Named_exceptionC2ERKSs
T _ZNSt17__Named_exceptionD0Ev
T _ZNSt17__Named_exceptionD1Ev
T _ZNSt17__Named_exceptionD2Ev
T _ZNSt17__Named_exceptionaSERKS_
T _ZNSt17__node_alloc_impl11_M_allocateERj
B _ZNSt17__node_alloc_impl11_S_end_freeE
B _ZNSt17__node_alloc_impl12_S_free_listE
B _ZNSt17__node_alloc_impl12_S_heap_sizeE
T _ZNSt17__node_alloc_impl13_M_deallocateEPvj
B _ZNSt17__node_alloc_impl13_S_start_freeE
T _ZNSt17__node_alloc_impl14_S_chunk_allocEjRi
T _ZNSt17__node_alloc_impl9_S_refillEj
T _ZNSt17moneypunct_bynameIcLb0EEC1EP16_Locale_monetary
T _ZNSt17moneypunct_bynameIcLb0EEC1EPKcj
T _ZNSt17moneypunct_bynameIcLb0EEC2EP16_Locale_monetary
T _ZNSt17moneypunct_bynameIcLb0EEC2EPKcj
T _ZNSt17moneypunct_bynameIcLb0EED0Ev
T _ZNSt17moneypunct_bynameIcLb0EED1Ev
T _ZNSt17moneypunct_bynameIcLb0EED2Ev
T _ZNSt17moneypunct_bynameIcLb1EEC1EP16_Locale_monetary
T _ZNSt17moneypunct_bynameIcLb1EEC1EPKcj
T _ZNSt17moneypunct_bynameIcLb1EEC2EP16_Locale_monetary
T _ZNSt17moneypunct_bynameIcLb1EEC2EPKcj
T _ZNSt17moneypunct_bynameIcLb1EED0Ev
T _ZNSt17moneypunct_bynameIcLb1EED1Ev
T _ZNSt17moneypunct_bynameIcLb1EED2Ev
T _ZNSt17moneypunct_bynameIwLb0EEC1EP16_Locale_monetary
T _ZNSt17moneypunct_bynameIwLb0EEC1EPKcj
T _ZNSt17moneypunct_bynameIwLb0EEC2EP16_Locale_monetary
T _ZNSt17moneypunct_bynameIwLb0EEC2EPKcj
T _ZNSt17moneypunct_bynameIwLb0EED0Ev
T _ZNSt17moneypunct_bynameIwLb0EED1Ev
T _ZNSt17moneypunct_bynameIwLb0EED2Ev
T _ZNSt17moneypunct_bynameIwLb1EEC1EP16_Locale_monetary
T _ZNSt17moneypunct_bynameIwLb1EEC1EPKcj
T _ZNSt17moneypunct_bynameIwLb1EEC2EP16_Locale_monetary
T _ZNSt17moneypunct_bynameIwLb1EEC2EPKcj
T _ZNSt17moneypunct_bynameIwLb1EED0Ev
T _ZNSt17moneypunct_bynameIwLb1EED1Ev
T _ZNSt17moneypunct_bynameIwLb1EED2Ev
W _ZNSt19istreambuf_iteratorIcSt11char_traitsIcEEppEi
W _ZNSt19istreambuf_iteratorIwSt11char_traitsIwEEppEi
W _ZNSt4priv10_Stl_primeIbE13_S_prev_sizesEjRPKjS4_
W _ZNSt4priv10__copy_auxIPKwSt19ostreambuf_iteratorIwSt11char_traitsIwEEEET0_T_S8_S7_RKSt12__false_type
W _ZNSt4priv10__copy_auxIPwSt19ostreambuf_iteratorIwSt11char_traitsIwEEEET0_T_S7_S6_RKSt12__false_type
T _ZNSt4priv11_GetFacetIdEPKSt7num_getIcSt19istreambuf_iteratorIcSt11char_traitsIcEEE
T _ZNSt4priv11_GetFacetIdEPKSt7num_getIwSt19istreambuf_iteratorIwSt11char_traitsIwEEE
T _ZNSt4priv11_GetFacetIdEPKSt7num_putIcSt19ostreambuf_iteratorIcSt11char_traitsIcEEE
T _ZNSt4priv11_GetFacetIdEPKSt7num_putIwSt19ostreambuf_iteratorIwSt11char_traitsIwEEE
T _ZNSt4priv11_GetFacetIdEPKSt8time_getIcSt19istreambuf_iteratorIcSt11char_traitsIcEEE
T _ZNSt4priv11_GetFacetIdEPKSt8time_getIwSt19istreambuf_iteratorIwSt11char_traitsIwEEE
T _ZNSt4priv11_GetFacetIdEPKSt8time_putIcSt19ostreambuf_iteratorIcSt11char_traitsIcEEE
T _ZNSt4priv11_GetFacetIdEPKSt8time_putIwSt19ostreambuf_iteratorIwSt11char_traitsIwEEE
T _ZNSt4priv11_GetFacetIdEPKSt9money_getIcSt19istreambuf_iteratorIcSt11char_traitsIcEEE
T _ZNSt4priv11_GetFacetIdEPKSt9money_getIwSt19istreambuf_iteratorIwSt11char_traitsIwEEE
T _ZNSt4priv11_GetFacetIdEPKSt9money_putIcSt19ostreambuf_iteratorIcSt11char_traitsIcEEE
T _ZNSt4priv11_GetFacetIdEPKSt9money_putIwSt19ostreambuf_iteratorIwSt11char_traitsIwEEE
W _ZNSt4priv11__copy_signISt19istreambuf_iteratorIcSt11char_traitsIcEEcEET_S5_S5_RNS_16__basic_iostringIcEET0_S9_
W _ZNSt4priv11__copy_signISt19istreambuf_iteratorIwSt11char_traitsIwEEwEET_S5_S5_RNS_16__basic_iostringIcEET0_S9_
W _ZNSt4priv11__put_floatISt19ostreambuf_iteratorIcSt11char_traitsIcEEEET_RNS_16__basic_iostringIcEES5_RSt8ios_basecccjRKSs
W _ZNSt4priv11__put_floatISt19ostreambuf_iteratorIwSt11char_traitsIwEEEET_RNS_16__basic_iostringIcEES5_RSt8ios_basewwwjRKSs
W _ZNSt4priv11__subformatIcNS_10_Time_InfoEEEvRNS_16__basic_iostringIT_EERKSt5ctypeIS3_ERKSsRKT0_PK2tm
W _ZNSt4priv11__subformatIwNS_11_WTime_InfoEEEvRNS_16__basic_iostringIT_EERKSt5ctypeIS3_ERKSsRKT0_PK2tm
W _ZNSt4priv12_String_baseIcSaIcEE17_M_allocate_blockEj
W _ZNSt4priv12_String_baseIwSaIwEE17_M_allocate_blockEj
T _ZNSt4priv12__get_fdigitERwPKw
W _ZNSt4priv12__get_stringISt19istreambuf_iteratorIcSt11char_traitsIcEEPcEESt4pairIT_bES7_S7_T0_S9_
W _ZNSt4priv12__get_stringISt19istreambuf_iteratorIwSt11char_traitsIwEEPwEESt4pairIT_bES7_S7_T0_S9_
W _ZNSt4priv12__init_bostrIcSt11char_traitsIcEEEbRSt13basic_ostreamIT_T0_E
W _ZNSt4priv12__read_floatISt19istreambuf_iteratorIcSt11char_traitsIcEEcEEbRNS_16__basic_iostringIcEERT_S9_RKSt5ctypeIT0_ERKSt8numpunctISB_E
W _ZNSt4priv12__read_floatISt19istreambuf_iteratorIwSt11char_traitsIwEEwEEbRNS_16__basic_iostringIcEERT_S9_RKSt5ctypeIT0_ERKSt8numpunctISB_E
W _ZNSt4priv13__copy_digitsISt19istreambuf_iteratorIcSt11char_traitsIcEEcEEbRT_S5_RNS_16__basic_iostringIcEEPKT0_
W _ZNSt4priv13__copy_digitsISt19istreambuf_iteratorIwSt11char_traitsIwEEwEEbRT_S5_RNS_16__basic_iostringIcEEPKT0_
W _ZNSt4priv13__do_put_boolIcSt19ostreambuf_iteratorIcSt11char_traitsIcEEEET0_S5_RSt8ios_baseT_b
W _ZNSt4priv13__do_put_boolIwSt19ostreambuf_iteratorIwSt11char_traitsIwEEEET0_S5_RSt8ios_baseT_b
W _ZNSt4priv13__get_integerISt19istreambuf_iteratorIcSt11char_traitsIcEEjcEEbRT_S6_iRT0_ibT1_RKSsRKSt12__false_type
W _ZNSt4priv13__get_integerISt19istreambuf_iteratorIcSt11char_traitsIcEElcEEbRT_S6_iRT0_ibT1_RKSsRKSt11__true_type
W _ZNSt4priv13__get_integerISt19istreambuf_iteratorIcSt11char_traitsIcEEmcEEbRT_S6_iRT0_ibT1_RKSsRKSt12__false_type
W _ZNSt4priv13__get_integerISt19istreambuf_iteratorIcSt11char_traitsIcEEtcEEbRT_S6_iRT0_ibT1_RKSsRKSt12__false_type
W _ZNSt4priv13__get_integerISt19istreambuf_iteratorIcSt11char_traitsIcEExcEEbRT_S6_iRT0_ibT1_RKSsRKSt11__true_type
W _ZNSt4priv13__get_integerISt19istreambuf_iteratorIcSt11char_traitsIcEEycEEbRT_S6_iRT0_ibT1_RKSsRKSt12__false_type
W _ZNSt4priv13__get_integerISt19istreambuf_iteratorIwSt11char_traitsIwEEjwEEbRT_S6_iRT0_ibT1_RKSsRKSt12__false_type
W _ZNSt4priv13__get_integerISt19istreambuf_iteratorIwSt11char_traitsIwEElwEEbRT_S6_iRT0_ibT1_RKSsRKSt11__true_type
W _ZNSt4priv13__get_integerISt19istreambuf_iteratorIwSt11char_traitsIwEEmwEEbRT_S6_iRT0_ibT1_RKSsRKSt12__false_type
W _ZNSt4priv13__get_integerISt19istreambuf_iteratorIwSt11char_traitsIwEEtwEEbRT_S6_iRT0_ibT1_RKSsRKSt12__false_type
W _ZNSt4priv13__get_integerISt19istreambuf_iteratorIwSt11char_traitsIwEExwEEbRT_S6_iRT0_ibT1_RKSsRKSt11__true_type
W _ZNSt4priv13__get_integerISt19istreambuf_iteratorIwSt11char_traitsIwEEywEEbRT_S6_iRT0_ibT1_RKSsRKSt12__false_type
W _ZNSt4priv13__put_integerISt19ostreambuf_iteratorIcSt11char_traitsIcEEEET_PcS6_S5_RSt8ios_baseic
W _ZNSt4priv13__put_integerISt19ostreambuf_iteratorIwSt11char_traitsIwEEEET_PcS6_S5_RSt8ios_baseiw
T _ZNSt4priv13__write_floatERNS_16__basic_iostringIcEEiid
T _ZNSt4priv13__write_floatERNS_16__basic_iostringIcEEiie
T _ZNSt4priv14_Pthread_alloc10deallocateEPvj
T _ZNSt4priv14_Pthread_alloc10deallocateEPvjPNS_31_Pthread_alloc_per_thread_stateE
T _ZNSt4priv14_Pthread_alloc10reallocateEPvjRj
T _ZNSt4priv14_Pthread_alloc23_S_get_per_thread_stateEv
T _ZNSt4priv14_Pthread_alloc8allocateERj
T _ZNSt4priv14_Pthread_alloc8allocateERjPNS_31_Pthread_alloc_per_thread_stateE
T _ZNSt4priv14__acquire_timeERPKcPcP17_Locale_name_hintPi
W _ZNSt4priv14__copy_trivialEPKvS1_Pv
W _ZNSt4priv14__do_get_floatISt19istreambuf_iteratorIcSt11char_traitsIcEEdcEET_RS5_S6_RSt8ios_baseRiRT0_PT1_
W _ZNSt4priv14__do_get_floatISt19istreambuf_iteratorIcSt11char_traitsIcEEecEET_RS5_S6_RSt8ios_baseRiRT0_PT1_
W _ZNSt4priv14__do_get_floatISt19istreambuf_iteratorIcSt11char_traitsIcEEfcEET_RS5_S6_RSt8ios_baseRiRT0_PT1_
W _ZNSt4priv14__do_get_floatISt19istreambuf_iteratorIwSt11char_traitsIwEEdwEET_RS5_S6_RSt8ios_baseRiRT0_PT1_
W _ZNSt4priv14__do_get_floatISt19istreambuf_iteratorIwSt11char_traitsIwEEewEET_RS5_S6_RSt8ios_baseRiRT0_PT1_
W _ZNSt4priv14__do_get_floatISt19istreambuf_iteratorIwSt11char_traitsIwEEfwEET_RS5_S6_RSt8ios_baseRiRT0_PT1_
W _ZNSt4priv14__do_put_floatIcSt19ostreambuf_iteratorIcSt11char_traitsIcEEdEET0_S5_RSt8ios_baseT_T1_
W _ZNSt4priv14__do_put_floatIcSt19ostreambuf_iteratorIcSt11char_traitsIcEEeEET0_S5_RSt8ios_baseT_T1_
W _ZNSt4priv14__do_put_floatIwSt19ostreambuf_iteratorIwSt11char_traitsIwEEdEET0_S5_RSt8ios_baseT_T1_
W _ZNSt4priv14__do_put_floatIwSt19ostreambuf_iteratorIwSt11char_traitsIwEEeEET0_S5_RSt8ios_baseT_T1_
W _ZNSt4priv14__money_do_getIcSt19istreambuf_iteratorIcSt11char_traitsIcEESsEET0_S5_S5_bRSt8ios_baseRiRT1_RbPT_
W _ZNSt4priv14__money_do_getIwSt19istreambuf_iteratorIwSt11char_traitsIwEESbIwS3_SaIwEEEET0_S7_S7_bRSt8ios_baseRiRT1_RbPT_
T _ZNSt4priv14__narrow_atomsEv
T _ZNSt4priv14__release_timeEP12_Locale_time
T _ZNSt4priv15__acquire_ctypeERPKcPcP17_Locale_name_hintPi
T _ZNSt4priv15__release_ctypeEP13_Locale_ctype
W _ZNSt4priv15__ucopy_trivialEPKvS1_Pv
T _ZNSt4priv15__write_integerEPcil
W _ZNSt4priv16__do_get_integerISt19istreambuf_iteratorIcSt11char_traitsIcEEjcEET_RS5_S6_RSt8ios_baseRiRT0_PT1_
W _ZNSt4priv16__do_get_integerISt19istreambuf_iteratorIcSt11char_traitsIcEElcEET_RS5_S6_RSt8ios_baseRiRT0_PT1_
W _ZNSt4priv16__do_get_integerISt19istreambuf_iteratorIcSt11char_traitsIcEEmcEET_RS5_S6_RSt8ios_baseRiRT0_PT1_
W _ZNSt4priv16__do_get_integerISt19istreambuf_iteratorIcSt11char_traitsIcEEtcEET_RS5_S6_RSt8ios_baseRiRT0_PT1_
W _ZNSt4priv16__do_get_integerISt19istreambuf_iteratorIcSt11char_traitsIcEExcEET_RS5_S6_RSt8ios_baseRiRT0_PT1_
W _ZNSt4priv16__do_get_integerISt19istreambuf_iteratorIcSt11char_traitsIcEEycEET_RS5_S6_RSt8ios_baseRiRT0_PT1_
W _ZNSt4priv16__do_get_integerISt19istreambuf_iteratorIwSt11char_traitsIwEEjwEET_RS5_S6_RSt8ios_baseRiRT0_PT1_
W _ZNSt4priv16__do_get_integerISt19istreambuf_iteratorIwSt11char_traitsIwEElwEET_RS5_S6_RSt8ios_baseRiRT0_PT1_
W _ZNSt4priv16__do_get_integerISt19istreambuf_iteratorIwSt11char_traitsIwEEmwEET_RS5_S6_RSt8ios_baseRiRT0_PT1_
W _ZNSt4priv16__do_get_integerISt19istreambuf_iteratorIwSt11char_traitsIwEEtwEET_RS5_S6_RSt8ios_baseRiRT0_PT1_
W _ZNSt4priv16__do_get_integerISt19istreambuf_iteratorIwSt11char_traitsIwEExwEET_RS5_S6_RSt8ios_baseRiRT0_PT1_
W _ZNSt4priv16__do_get_integerISt19istreambuf_iteratorIwSt11char_traitsIwEEywEET_RS5_S6_RSt8ios_baseRiRT0_PT1_
W _ZNSt4priv16__do_put_integerIcSt19ostreambuf_iteratorIcSt11char_traitsIcEElEET0_S5_RSt8ios_baseT_T1_
W _ZNSt4priv16__do_put_integerIcSt19ostreambuf_iteratorIcSt11char_traitsIcEEmEET0_S5_RSt8ios_baseT_T1_
W _ZNSt4priv16__do_put_integerIcSt19ostreambuf_iteratorIcSt11char_traitsIcEExEET0_S5_RSt8ios_baseT_T1_
W _ZNSt4priv16__do_put_integerIcSt19ostreambuf_iteratorIcSt11char_traitsIcEEyEET0_S5_RSt8ios_baseT_T1_
W _ZNSt4priv16__do_put_integerIwSt19ostreambuf_iteratorIwSt11char_traitsIwEElEET0_S5_RSt8ios_baseT_T1_
W _ZNSt4priv16__do_put_integerIwSt19ostreambuf_iteratorIwSt11char_traitsIwEEmEET0_S5_RSt8ios_baseT_T1_
W _ZNSt4priv16__do_put_integerIwSt19ostreambuf_iteratorIwSt11char_traitsIwEExEET0_S5_RSt8ios_baseT_T1_
W _ZNSt4priv16__do_put_integerIwSt19ostreambuf_iteratorIwSt11char_traitsIwEEyEET0_S5_RSt8ios_baseT_T1_
T _ZNSt4priv16__valid_groupingEPKcS1_S1_S1_
T _ZNSt4priv16stdio_istreambuf5uflowEv
T _ZNSt4priv16stdio_istreambuf9pbackfailEi
T _ZNSt4priv16stdio_istreambuf9showmanycEv
T _ZNSt4priv16stdio_istreambuf9underflowEv
T _ZNSt4priv16stdio_istreambufD0Ev
T _ZNSt4priv16stdio_istreambufD1Ev
T _ZNSt4priv16stdio_istreambufD2Ev
T _ZNSt4priv16stdio_ostreambuf8overflowEi
T _ZNSt4priv16stdio_ostreambuf9showmanycEv
T _ZNSt4priv16stdio_ostreambufD0Ev
T _ZNSt4priv16stdio_ostreambufD1Ev
T _ZNSt4priv16stdio_ostreambufD2Ev
T _ZNSt4priv17__acquire_codecvtERPKcPcP17_Locale_name_hintPi
T _ZNSt4priv17__acquire_collateERPKcPcP17_Locale_name_hintPi
T _ZNSt4priv17__acquire_numericERPKcPcP17_Locale_name_hintPi
T _ZNSt4priv17__digit_val_tableEj
T _ZNSt4priv17__insert_groupingEPcS0_RKSsccci
T _ZNSt4priv17__insert_groupingEPwS0_RKSswwwi
T _ZNSt4priv17__insert_groupingERNS_16__basic_iostringIcEEjRKSsccci
T _ZNSt4priv17__insert_groupingERNS_16__basic_iostringIwEEjRKSswwwi
T _ZNSt4priv17__release_codecvtEP15_Locale_codecvt
T _ZNSt4priv17__release_collateEP15_Locale_collate
T _ZNSt4priv17__release_numericEP15_Locale_numeric
T _ZNSt4priv17__string_to_floatERKNS_16__basic_iostringIcEERd
T _ZNSt4priv17__string_to_floatERKNS_16__basic_iostringIcEERe
T _ZNSt4priv17__string_to_floatERKNS_16__basic_iostringIcEERf
T _ZNSt4priv18__acquire_messagesERPKcPcP17_Locale_name_hintPi
T _ZNSt4priv18__acquire_monetaryERPKcPcP17_Locale_name_hintPi
W _ZNSt4priv18__do_get_alphaboolISt19istreambuf_iteratorIcSt11char_traitsIcEEcEET_RS5_S6_RSt8ios_baseRiRbPT0_
W _ZNSt4priv18__do_get_alphaboolISt19istreambuf_iteratorIwSt11char_traitsIwEEwEET_RS5_S6_RSt8ios_baseRiRbPT0_
W _ZNSt4priv18__get_base_or_zeroISt19istreambuf_iteratorIcSt11char_traitsIcEEcEEiRT_S6_iRKSt5ctypeIT0_E
W _ZNSt4priv18__get_base_or_zeroISt19istreambuf_iteratorIwSt11char_traitsIwEEwEEiRT_S6_iRKSt5ctypeIT0_E
T _ZNSt4priv18__get_floor_digitsERNS_16__basic_iostringIcEEe
T _ZNSt4priv18__release_messagesEP16_Locale_messages
T _ZNSt4priv18__release_monetaryEP16_Locale_monetary
T _ZNSt4priv19_Catalog_locale_map5eraseEi
T _ZNSt4priv19_Catalog_locale_map6insertEiRKSt6locale
T _ZNSt4priv19_Pthread_alloc_impl10deallocateEPvj
T _ZNSt4priv19_Pthread_alloc_impl10deallocateEPvjPNS_31_Pthread_alloc_per_thread_stateE
T _ZNSt4priv19_Pthread_alloc_impl10reallocateEPvjRj
B _ZNSt4priv19_Pthread_alloc_impl11_S_end_freeE
B _ZNSt4priv19_Pthread_alloc_impl12_S_heap_sizeE
T _ZNSt4priv19_Pthread_alloc_impl13_S_destructorEPv
B _ZNSt4priv19_Pthread_alloc_impl13_S_start_freeE
T _ZNSt4priv19_Pthread_alloc_impl14_S_chunk_allocEjRjPNS_31_Pthread_alloc_per_thread_stateE
B _ZNSt4priv19_Pthread_alloc_impl18_S_key_initializedE
B _ZNSt4priv19_Pthread_alloc_impl23_S_chunk_allocator_lockE
T _ZNSt4priv19_Pthread_alloc_impl23_S_get_per_thread_stateEv
T _ZNSt4priv19_Pthread_alloc_impl23_S_new_per_thread_stateEv
B _ZNSt4priv19_Pthread_alloc_impl25_S_free_per_thread_statesE
B _ZNSt4priv19_Pthread_alloc_impl6_S_keyE
T _ZNSt4priv19_Pthread_alloc_impl8allocateERj
T _ZNSt4priv19_Pthread_alloc_impl8allocateERjPNS_31_Pthread_alloc_per_thread_stateE
T _ZNSt4priv19__get_fdigit_or_sepERwwPKw
T _ZNSt4priv19__hex_char_table_hiEv
T _ZNSt4priv19__hex_char_table_loEv
W _ZNSt4priv20__get_formatted_timeISt19istreambuf_iteratorIcSt11char_traitsIcEEcNS_10_Time_InfoEEEPKcT_S8_S7_S7_PT0_RKT1_RKSt8ios_baseRiP2tm
W _ZNSt4priv20__get_formatted_timeISt19istreambuf_iteratorIwSt11char_traitsIwEEwNS_11_WTime_InfoEEEPKcT_S8_S7_S7_PT0_RKT1_RKSt8ios_baseRiP2tm
W _ZNSt4priv20__get_monetary_valueISt19istreambuf_iteratorIcSt11char_traitsIcEESt20back_insert_iteratorISsEcEEbRT_S7_T0_RKSt5ctypeIT1_ESB_iSB_RKSsRb
W _ZNSt4priv20__get_monetary_valueISt19istreambuf_iteratorIwSt11char_traitsIwEESt20back_insert_iteratorISbIwS3_SaIwEEEwEEbRT_S9_T0_RKSt5ctypeIT1_ESD_iSD_RKSsRb
T _ZNSt4priv20stdio_streambuf_base4syncEv
T _ZNSt4priv20stdio_streambuf_base6setbufEPci
T _ZNSt4priv20stdio_streambuf_base7seekoffElii
T _ZNSt4priv20stdio_streambuf_base7seekposESt4fposI9mbstate_tEi
T _ZNSt4priv20stdio_streambuf_baseC1EP7__sFILE
T _ZNSt4priv20stdio_streambuf_baseC2EP7__sFILE
T _ZNSt4priv20stdio_streambuf_baseD0Ev
T _ZNSt4priv20stdio_streambuf_baseD1Ev
T _ZNSt4priv20stdio_streambuf_baseD2Ev
T _ZNSt4priv21_Initialize_get_floatERKSt5ctypeIwERwS4_S4_S4_Pw
T _ZNSt4priv21__adjust_float_bufferERNS_16__basic_iostringIcEEc
W _ZNSt4priv21__copy_float_and_fillIwSt19ostreambuf_iteratorIwSt11char_traitsIwEEEET0_PKT_S8_S5_iiS6_S6_S6_
W _ZNSt4priv21__copy_grouped_digitsISt19istreambuf_iteratorIcSt11char_traitsIcEEcEEbRT_S5_RNS_16__basic_iostringIcEEPKT0_SA_RKSsRb
W _ZNSt4priv21__copy_grouped_digitsISt19istreambuf_iteratorIwSt11char_traitsIwEEwEEbRT_S5_RNS_16__basic_iostringIcEEPKT0_SA_RKSsRb
W _ZNSt4priv21__get_decimal_integerIPcecEEbRT_S3_RT0_PT1_
W _ZNSt4priv21__get_decimal_integerIPwewEEbRT_S3_RT0_PT1_
W _ZNSt4priv21__get_decimal_integerISt19istreambuf_iteratorIcSt11char_traitsIcEEicEEbRT_S6_RT0_PT1_
W _ZNSt4priv21__get_decimal_integerISt19istreambuf_iteratorIwSt11char_traitsIwEEiwEEbRT_S6_RT0_PT1_
T _ZNSt4priv22__convert_float_bufferERKNS_16__basic_iostringIcEERNS0_IwEERKSt5ctypeIwEwb
W _ZNSt4priv22__get_digit_from_tableEj
W _ZNSt4priv22__get_money_digits_auxERNS_16__basic_iostringIwEERSt8ios_basee
T _ZNSt4priv22__write_formatted_timeERNS_16__basic_iostringIcEERKSt5ctypeIcEccRKNS_10_Time_InfoEPK2tm
T _ZNSt4priv22__write_formatted_timeERNS_16__basic_iostringIwEERKSt5ctypeIwEccRKNS_11_WTime_InfoEPK2tm
W _ZNSt4priv23__copy_integer_and_fillIwSt19ostreambuf_iteratorIwSt11char_traitsIwEEEET0_PKT_iS5_iiS6_S6_S6_
W _ZNSt4priv23__write_formatted_timeTIcNS_10_Time_InfoEEEvRNS_16__basic_iostringIT_EERKSt5ctypeIS3_EccRKT0_PK2tm
W _ZNSt4priv23__write_formatted_timeTIwNS_11_WTime_InfoEEEvRNS_16__basic_iostringIT_EERKSt5ctypeIS3_EccRKT0_PK2tm
W _ZNSt4priv24__write_decimal_backwardIlEEPcS1_T_iRKSt11__true_type
W _ZNSt4priv24__write_decimal_backwardIxEEPcS1_T_iRKSt11__true_type
W _ZNSt4priv24__write_integer_backwardIlEEPcS1_iT_
W _ZNSt4priv24__write_integer_backwardImEEPcS1_iT_
W _ZNSt4priv24__write_integer_backwardIxEEPcS1_iT_
W _ZNSt4priv24__write_integer_backwardIyEEPcS1_iT_
T _ZNSt4priv31_Pthread_alloc_per_thread_state9_M_refillEj
T _ZNSt4priv5_Bs_G12_S_first_oneEh
T _ZNSt4priv5_Bs_G8_S_countEPKhS2_
W _ZNSt4priv6__findIPKwwEET_S3_S3_RKT0_RKSt26random_access_iterator_tag
W _ZNSt4priv7__matchISt19istreambuf_iteratorIcSt11char_traitsIcEEPKSsEEjRT_S8_T0_S9_
W _ZNSt4priv7__matchISt19istreambuf_iteratorIwSt11char_traitsIwEEPKSbIwS3_SaIwEEEEjRT_SA_T0_SB_
W _ZNSt4priv7__powerISt7complexIdEiSt10multipliesIS2_EEET_S5_T0_T1_
W _ZNSt4priv7__powerISt7complexIeEiSt10multipliesIS2_EEET_S5_T0_T1_
W _ZNSt4priv7__powerISt7complexIfEiSt10multipliesIS2_EEET_S5_T0_T1_
W _ZNSt4priv8__fill_nISt19ostreambuf_iteratorIcSt11char_traitsIcEEicEET_S5_T0_RKT1_
W _ZNSt4priv8__fill_nISt19ostreambuf_iteratorIwSt11char_traitsIwEEiwEET_S5_T0_RKT1_
T _ZNSt4priv9_MessagesC1EbP16_Locale_messages
T _ZNSt4priv9_MessagesC1EbPKc
T _ZNSt4priv9_MessagesC2EbP16_Locale_messages
T _ZNSt4priv9_MessagesC2EbPKc
T _ZNSt4priv9_MessagesD1Ev
T _ZNSt4priv9_MessagesD2Ev
W _ZNSt4priv9__find_ifIPKcNS_14_Eq_char_boundISt11char_traitsIcEEEEET_S7_S7_T0_RKSt26random_access_iterator_tag
W _ZNSt4priv9__find_ifIPKcSt14_Ctype_is_maskEET_S4_S4_T0_RKSt26random_access_iterator_tag
W _ZNSt4priv9__find_ifIPKcSt15_Ctype_not_maskEET_S4_S4_T0_RKSt26random_access_iterator_tag
W _ZNSt4priv9__find_ifIPKwNS_23_Ctype_byname_w_is_maskEEET_S4_S4_T0_RKSt26random_access_iterator_tag
W _ZNSt4priv9__find_ifIPKwSt12unary_negateINS_23_Ctype_byname_w_is_maskEEEET_S6_S6_T0_RKSt26random_access_iterator_tag
W _ZNSt4priv9__find_ifIPKwSt12unary_negateISt16_Ctype_w_is_maskEEET_S6_S6_T0_RKSt26random_access_iterator_tag
W _ZNSt4priv9__find_ifIPKwSt16_Ctype_w_is_maskEET_S4_S4_T0_RKSt26random_access_iterator_tag
W _ZNSt4priv9__find_ifIPcNS_8GroupPosEEET_S3_S3_T0_RKSt26random_access_iterator_tag
W _ZNSt4priv9__get_numIcSt11char_traitsIcEdEEiRSt13basic_istreamIT_T0_ERT1_
W _ZNSt4priv9__get_numIcSt11char_traitsIcEeEEiRSt13basic_istreamIT_T0_ERT1_
W _ZNSt4priv9__get_numIcSt11char_traitsIcEfEEiRSt13basic_istreamIT_T0_ERT1_
W _ZNSt4priv9__put_numIcSt11char_traitsIcEdEERSt13basic_ostreamIT_T0_ES7_T1_
W _ZNSt4priv9__put_numIcSt11char_traitsIcEeEERSt13basic_ostreamIT_T0_ES7_T1_
T _ZNSt4priv9time_initIcEC1EP12_Locale_time
T _ZNSt4priv9time_initIcEC1EPKc
T _ZNSt4priv9time_initIcEC1Ev
T _ZNSt4priv9time_initIcEC2EP12_Locale_time
T _ZNSt4priv9time_initIcEC2EPKc
T _ZNSt4priv9time_initIcEC2Ev
T _ZNSt4priv9time_initIwEC1EP12_Locale_time
T _ZNSt4priv9time_initIwEC1EPKc
T _ZNSt4priv9time_initIwEC1Ev
T _ZNSt4priv9time_initIwEC2EP12_Locale_time
T _ZNSt4priv9time_initIwEC2EPKc
T _ZNSt4priv9time_initIwEC2Ev
R _ZNSt5ctypeIcE10table_sizeE
T _ZNSt5ctypeIcE13classic_tableEv
D _ZNSt5ctypeIcE2idE
T _ZNSt5ctypeIcEC1EPKNSt10ctype_base4maskEbj
T _ZNSt5ctypeIcEC2EPKNSt10ctype_base4maskEbj
T _ZNSt5ctypeIcED0Ev
T _ZNSt5ctypeIcED1Ev
T _ZNSt5ctypeIcED2Ev
D _ZNSt5ctypeIwE2idE
T _ZNSt5ctypeIwED0Ev
T _ZNSt5ctypeIwED1Ev
T _ZNSt5ctypeIwED2Ev
T _ZNSt6locale21_M_throw_on_null_nameEv
T _ZNSt6locale25_M_throw_on_combine_errorERKSs
T _ZNSt6locale28_M_throw_on_creation_failureEiPKcS1_
D _ZNSt6locale2id6_S_maxE
R _ZNSt6locale3allE
R _ZNSt6locale4noneE
R _ZNSt6locale4timeE
R _ZNSt6locale5ctypeE
T _ZNSt6locale5facetD0Ev
T _ZNSt6locale5facetD1Ev
T _ZNSt6locale5facetD2Ev
T _ZNSt6locale6globalERKS_
T _ZNSt6locale7classicEv
R _ZNSt6locale7collateE
R _ZNSt6locale7numericE
R _ZNSt6locale8messagesE
R _ZNSt6locale8monetaryE
T _ZNSt6locale9_M_insertEPNS_5facetERNS_2idE
T _ZNSt6localeC1EPKc
T _ZNSt6localeC1EPSt12_Locale_impl
T _ZNSt6localeC1ERKS_
T _ZNSt6localeC1ERKS_PKci
T _ZNSt6localeC1ERKS_S1_i
T _ZNSt6localeC1Ev
T _ZNSt6localeC2EPKc
T _ZNSt6localeC2EPSt12_Locale_impl
T _ZNSt6localeC2ERKS_
T _ZNSt6localeC2ERKS_PKci
T _ZNSt6localeC2ERKS_S1_i
T _ZNSt6localeC2Ev
T _ZNSt6localeD1Ev
T _ZNSt6localeD2Ev
T _ZNSt6localeaSERKS_
W _ZNSt6vectorIPNSt4priv16_Slist_node_baseESaIS2_EE14_M_fill_assignEjRKS2_
W _ZNSt6vectorIPNSt4priv16_Slist_node_baseESaIS2_EE7reserveEj
W _ZNSt6vectorIPNSt6locale5facetESaIS2_EE14_M_fill_insertEPS2_jRKS2_
W _ZNSt6vectorIPNSt6locale5facetESaIS2_EE18_M_fill_insert_auxEPS2_jRKS2_RKSt12__false_type
W _ZNSt6vectorIPNSt6locale5facetESaIS2_EE7reserveEj
W _ZNSt6vectorIPNSt6locale5facetESaIS2_EEaSERKS4_
D _ZNSt7codecvtIcc9mbstate_tE2idE
T _ZNSt7codecvtIcc9mbstate_tED0Ev
T _ZNSt7codecvtIcc9mbstate_tED1Ev
T _ZNSt7codecvtIcc9mbstate_tED2Ev
D _ZNSt7codecvtIwc9mbstate_tE2idE
T _ZNSt7codecvtIwc9mbstate_tED0Ev
T _ZNSt7codecvtIwc9mbstate_tED1Ev
T _ZNSt7codecvtIwc9mbstate_tED2Ev
D _ZNSt7collateIcE2idE
T _ZNSt7collateIcED0Ev
T _ZNSt7collateIcED1Ev
T _ZNSt7collateIcED2Ev
D _ZNSt7collateIwE2idE
T _ZNSt7collateIwED0Ev
T _ZNSt7collateIwED1Ev
T _ZNSt7collateIwED2Ev
T _ZNSt7complexIdE4_divERKdS2_S2_RdS3_
T _ZNSt7complexIdE4_divERKdS2_S2_S2_RdS3_
T _ZNSt7complexIeE4_divERKeS2_S2_ReS3_
T _ZNSt7complexIeE4_divERKeS2_S2_S2_ReS3_
T _ZNSt7complexIfE4_divERKfS2_S2_RfS3_
T _ZNSt7complexIfE4_divERKfS2_S2_S2_RfS3_
V _ZNSt7num_getIcSt19istreambuf_iteratorIcSt11char_traitsIcEEE2idE
V _ZNSt7num_getIwSt19istreambuf_iteratorIwSt11char_traitsIwEEE2idE
V _ZNSt7num_putIcSt19ostreambuf_iteratorIcSt11char_traitsIcEEE2idE
V _ZNSt7num_putIwSt19ostreambuf_iteratorIwSt11char_traitsIwEEE2idE
R _ZNSt8ios_base10floatfieldE
R _ZNSt8ios_base10scientificE
R _ZNSt8ios_base11adjustfieldE
D _ZNSt8ios_base12_S_is_syncedE
T _ZNSt8ios_base13_M_copy_stateERKS_
T _ZNSt8ios_base13_S_initializeEv
T _ZNSt8ios_base15_S_uninitializeEv
T _ZNSt8ios_base15sync_with_stdioEb
T _ZNSt8ios_base16_M_throw_failureEv
T _ZNSt8ios_base17register_callbackEPFvNS_5eventERS_iEi
T _ZNSt8ios_base19_M_invoke_callbacksENS_5eventE
R _ZNSt8ios_base2inE
R _ZNSt8ios_base3appE
R _ZNSt8ios_base3ateE
R _ZNSt8ios_base3begE
R _ZNSt8ios_base3curE
R _ZNSt8ios_base3decE
R _ZNSt8ios_base3endE
R _ZNSt8ios_base3hexE
R _ZNSt8ios_base3octE
R _ZNSt8ios_base3outE
B _ZNSt8ios_base4Init8_S_countE
T _ZNSt8ios_base4InitC1Ev
T _ZNSt8ios_base4InitC2Ev
T _ZNSt8ios_base4InitD1Ev
T _ZNSt8ios_base4InitD2Ev
R _ZNSt8ios_base4leftE
R _ZNSt8ios_base5fixedE
T _ZNSt8ios_base5imbueERKSt6locale
T _ZNSt8ios_base5iwordEi
T _ZNSt8ios_base5pwordEi
R _ZNSt8ios_base5rightE
R _ZNSt8ios_base5truncE
R _ZNSt8ios_base6badbitE
R _ZNSt8ios_base6binaryE
R _ZNSt8ios_base6eofbitE
R _ZNSt8ios_base6skipwsE
T _ZNSt8ios_base6xallocEv
R _ZNSt8ios_base7failbitE
T _ZNSt8ios_base7failureC1ERKSs
T _ZNSt8ios_base7failureC2ERKSs
T _ZNSt8ios_base7failureD0Ev
T _ZNSt8ios_base7failureD1Ev
T _ZNSt8ios_base7failureD2Ev
R _ZNSt8ios_base7goodbitE
R _ZNSt8ios_base7showposE
R _ZNSt8ios_base7unitbufE
R _ZNSt8ios_base8internalE
R _ZNSt8ios_base8showbaseE
R _ZNSt8ios_base9basefieldE
R _ZNSt8ios_base9boolalphaE
R _ZNSt8ios_base9showpointE
R _ZNSt8ios_base9uppercaseE
T _ZNSt8ios_baseC1Ev
T _ZNSt8ios_baseC2Ev
T _ZNSt8ios_baseD0Ev
T _ZNSt8ios_baseD1Ev
T _ZNSt8ios_baseD2Ev
D _ZNSt8messagesIcE2idE
T _ZNSt8messagesIcEC1Ej
T _ZNSt8messagesIcEC2Ej
D _ZNSt8messagesIwE2idE
T _ZNSt8messagesIwEC1Ej
T _ZNSt8messagesIwEC2Ej
D _ZNSt8numpunctIcE2idE
T _ZNSt8numpunctIcED0Ev
T _ZNSt8numpunctIcED1Ev
T _ZNSt8numpunctIcED2Ev
D _ZNSt8numpunctIwE2idE
T _ZNSt8numpunctIwED0Ev
T _ZNSt8numpunctIwED1Ev
T _ZNSt8numpunctIwED2Ev
V _ZNSt8time_getIcSt19istreambuf_iteratorIcSt11char_traitsIcEEE2idE
V _ZNSt8time_getIwSt19istreambuf_iteratorIwSt11char_traitsIwEEE2idE
V _ZNSt8time_putIcSt19ostreambuf_iteratorIcSt11char_traitsIcEEE2idE
V _ZNSt8time_putIwSt19ostreambuf_iteratorIwSt11char_traitsIwEEE2idE
W _ZNSt9basic_iosIcSt11char_traitsIcEE4initEPSt15basic_streambufIcS1_E
W _ZNSt9basic_iosIcSt11char_traitsIcEE5imbueERKSt6locale
W _ZNSt9basic_iosIcSt11char_traitsIcEE5rdbufEPSt15basic_streambufIcS1_E
W _ZNSt9basic_iosIcSt11char_traitsIcEEC2Ev
W _ZNSt9basic_iosIwSt11char_traitsIwEE4initEPSt15basic_streambufIwS1_E
W _ZNSt9basic_iosIwSt11char_traitsIwEE5imbueERKSt6locale
W _ZNSt9basic_iosIwSt11char_traitsIwEE5rdbufEPSt15basic_streambufIwS1_E
T _ZNSt9exceptionC1Ev
T _ZNSt9exceptionC2Ev
T _ZNSt9exceptionD0Ev
T _ZNSt9exceptionD1Ev
T _ZNSt9exceptionD2Ev
W _ZNSt9hashtableISt4pairIKSsS0_IPvjEESsSt4hashISsENSt4priv15_HashMapTraitsTIS4_EENS7_10_Select1stIS4_EESt8equal_toISsESaIS4_EE18_M_insert_noresizeEjRKS4_
W _ZNSt9hashtableISt4pairIKSsS0_IPvjEESsSt4hashISsENSt4priv15_HashMapTraitsTIS4_EENS7_10_Select1stIS4_EESt8equal_toISsESaIS4_EE22insert_unique_noresizeERKS4_
W _ZNSt9hashtableISt4pairIKSsS0_IPvjEESsSt4hashISsENSt4priv15_HashMapTraitsTIS4_EENS7_10_Select1stIS4_EESt8equal_toISsESaIS4_EE5eraseENS7_12_Ht_iteratorINS7_15_Slist_iteratorIS4_St16_Nonconst_traitsIS4_EEENS7_28_ConstNonLocalHashMapTraitsTIS4_EEEE
W _ZNSt9hashtableISt4pairIKSsS0_IPvjEESsSt4hashISsENSt4priv15_HashMapTraitsTIS4_EENS7_10_Select1stIS4_EESt8equal_toISsESaIS4_EE9_M_reduceEv
W _ZNSt9hashtableISt4pairIKSsS0_IPvjEESsSt4hashISsENSt4priv15_HashMapTraitsTIS4_EENS7_10_Select1stIS4_EESt8equal_toISsESaIS4_EE9_M_rehashEj
W _ZNSt9hashtableISt4pairIKiSt6localeEiSt4hashIiENSt4priv15_HashMapTraitsTIS3_EENS6_10_Select1stIS3_EESt8equal_toIiESaIS3_EE10_M_enlargeEj
W _ZNSt9hashtableISt4pairIKiSt6localeEiSt4hashIiENSt4priv15_HashMapTraitsTIS3_EENS6_10_Select1stIS3_EESt8equal_toIiESaIS3_EE18_M_insert_noresizeEjRKS3_
W _ZNSt9hashtableISt4pairIKiSt6localeEiSt4hashIiENSt4priv15_HashMapTraitsTIS3_EENS6_10_Select1stIS3_EESt8equal_toIiESaIS3_EE22insert_unique_noresizeERKS3_
W _ZNSt9hashtableISt4pairIKiSt6localeEiSt4hashIiENSt4priv15_HashMapTraitsTIS3_EENS6_10_Select1stIS3_EESt8equal_toIiESaIS3_EE5clearEv
W _ZNSt9hashtableISt4pairIKiSt6localeEiSt4hashIiENSt4priv15_HashMapTraitsTIS3_EENS6_10_Select1stIS3_EESt8equal_toIiESaIS3_EE5eraseERS1_
W _ZNSt9hashtableISt4pairIKiSt6localeEiSt4hashIiENSt4priv15_HashMapTraitsTIS3_EENS6_10_Select1stIS3_EESt8equal_toIiESaIS3_EE9_M_reduceEv
W _ZNSt9hashtableISt4pairIKiSt6localeEiSt4hashIiENSt4priv15_HashMapTraitsTIS3_EENS6_10_Select1stIS3_EESt8equal_toIiESaIS3_EE9_M_rehashEj
V _ZNSt9money_getIcSt19istreambuf_iteratorIcSt11char_traitsIcEEE2idE
V _ZNSt9money_getIwSt19istreambuf_iteratorIwSt11char_traitsIwEEE2idE
V _ZNSt9money_putIcSt19ostreambuf_iteratorIcSt11char_traitsIcEEE2idE
V _ZNSt9money_putIwSt19ostreambuf_iteratorIwSt11char_traitsIwEEE2idE
T _ZNSt9strstream3strEv
T _ZNSt9strstream6freezeEb
T _ZNSt9strstreamC1EPcii
T _ZNSt9strstreamC1Ev
T _ZNSt9strstreamC2EPcii
T _ZNSt9strstreamC2Ev
T _ZNSt9strstreamD0Ev
T _ZNSt9strstreamD1Ev
T _ZNSt9strstreamD2Ev
T _ZSt10_get_facetPNSt6locale5facetE
W _ZSt12_M_init_skipIcSt11char_traitsIcEEbRSt13basic_istreamIT_T0_E
W _ZSt14_M_init_noskipIcSt11char_traitsIcEEbRSt13basic_istreamIT_T0_E
T _ZSt14_release_facetRPNSt6locale5facetE
T _ZSt16_get_Locale_implPSt12_Locale_impl
B _ZSt18__oom_handler_lock
T _ZSt20_release_Locale_implRPSt12_Locale_impl
T _ZSt22_Stl_get_global_localev
T _ZSt23_Stl_get_classic_localev
T _ZSt23__stl_throw_range_errorPKc
T _ZSt24__stl_throw_length_errorPKc
T _ZSt24__stl_throw_out_of_rangePKc
T _ZSt25__stl_throw_runtime_errorPKc
T _ZSt26__stl_throw_overflow_errorPKc
T _ZSt26_copy_Nameless_Locale_implPSt12_Locale_impl
T _ZSt28__stl_throw_invalid_argumentPKc
T _ZSt3absIdET_RKSt7complexIS0_E
T _ZSt3absIeET_RKSt7complexIS0_E
T _ZSt3absIfET_RKSt7complexIS0_E
T _ZSt3argIdET_RKSt7complexIS0_E
T _ZSt3argIeET_RKSt7complexIS0_E
T _ZSt3argIfET_RKSt7complexIS0_E
B _ZSt3cin
T _ZSt3cosRKSt7complexIdE
T _ZSt3cosRKSt7complexIeE
T _ZSt3cosRKSt7complexIfE
T _ZSt3expRKSt7complexIdE
T _ZSt3expRKSt7complexIeE
T _ZSt3expRKSt7complexIfE
T _ZSt3logRKSt7complexIdE
T _ZSt3logRKSt7complexIeE
T _ZSt3logRKSt7complexIfE
T _ZSt3powRKSt7complexIdERKd
T _ZSt3powRKSt7complexIdES2_
T _ZSt3powRKSt7complexIdEi
T _ZSt3powRKSt7complexIeERKe
T _ZSt3powRKSt7complexIeES2_
T _ZSt3powRKSt7complexIeEi
T _ZSt3powRKSt7complexIfERKf
T _ZSt3powRKSt7complexIfES2_
T _ZSt3powRKSt7complexIfEi
T _ZSt3powRKdRKSt7complexIdE
T _ZSt3powRKeRKSt7complexIeE
T _ZSt3powRKfRKSt7complexIfE
T _ZSt3sinRKSt7complexIdE
T _ZSt3sinRKSt7complexIeE
T _ZSt3sinRKSt7complexIfE
T _ZSt3tanRKSt7complexIdE
T _ZSt3tanRKSt7complexIeE
T _ZSt3tanRKSt7complexIfE
B _ZSt4cerr
B _ZSt4clog
W _ZSt4copyIPKcSt19ostreambuf_iteratorIcSt11char_traitsIcEEET0_T_S7_S6_
W _ZSt4copyIPcSt19ostreambuf_iteratorIcSt11char_traitsIcEEET0_T_S6_S5_
T _ZSt4coshRKSt7complexIdE
T _ZSt4coshRKSt7complexIeE
T _ZSt4coshRKSt7complexIfE
B _ZSt4cout
T _ZSt4sinhRKSt7complexIdE
T _ZSt4sinhRKSt7complexIeE
T _ZSt4sinhRKSt7complexIfE
T _ZSt4sqrtRKSt7complexIdE
T _ZSt4sqrtRKSt7complexIeE
T _ZSt4sqrtRKSt7complexIfE
T _ZSt4tanhRKSt7complexIdE
T _ZSt4tanhRKSt7complexIeE
T _ZSt4tanhRKSt7complexIfE
B _ZSt4wcin
T _ZSt5log10RKSt7complexIdE
T _ZSt5log10RKSt7complexIeE
T _ZSt5log10RKSt7complexIfE
T _ZSt5polarIdESt7complexIT_ERKS1_S4_
T _ZSt5polarIeESt7complexIT_ERKS1_S4_
T _ZSt5polarIfESt7complexIT_ERKS1_S4_
B _ZSt5wcerr
B _ZSt5wclog
B _ZSt5wcout
W _ZSt9use_facetISt5ctypeIcEERKT_RKSt6locale
W _ZSt9use_facetISt5ctypeIwEERKT_RKSt6locale
W _ZSt9use_facetISt7num_getIcSt19istreambuf_iteratorIcSt11char_traitsIcEEEERKT_RKSt6locale
W _ZSt9use_facetISt7num_putIcSt19ostreambuf_iteratorIcSt11char_traitsIcEEEERKT_RKSt6locale
W _ZSteqIcSt11char_traitsIcESaIcEEbRKSbIT_T0_T1_EPKS3_
T _ZStlsRSoRKSt7complexIdE
T _ZStlsRSoRKSt7complexIeE
T _ZStlsRSoRKSt7complexIfE
W _ZStneIcSt11char_traitsIcEEbRKSt19istreambuf_iteratorIT_T0_ES7_
W _ZStneIwSt11char_traitsIwEEbRKSt19istreambuf_iteratorIT_T0_ES7_
W _ZStplIcSt11char_traitsIcESaIcEESbIT_T0_T1_ERKS6_PKS3_
T _ZStrsRSiRSt7complexIdE
T _ZStrsRSiRSt7complexIeE
T _ZStrsRSiRSt7complexIfE
V _ZTCSd0_Si
V _ZTCSd8_So
D _ZTCSt10istrstream0_Si
D _ZTCSt10ostrstream0_So
D _ZTCSt9strstream0_Sd
D _ZTCSt9strstream0_Si
D _ZTCSt9strstream8_So
V _ZTTSd
V _ZTTSi
V _ZTTSo
D _ZTTSt10istrstream
D _ZTTSt10ostrstream
V _ZTTSt13basic_istreamIwSt11char_traitsIwEE
V _ZTTSt13basic_ostreamIwSt11char_traitsIwEE
D _ZTTSt9strstream
D _ZTVNSt4priv16stdio_istreambufE
D _ZTVNSt4priv16stdio_ostreambufE
D _ZTVNSt4priv20stdio_streambuf_baseE
D _ZTVNSt6locale5facetE
D _ZTVNSt8ios_base7failureE
V _ZTVSd
V _ZTVSi
V _ZTVSo
D _ZTVSt10istrstream
D _ZTVSt10moneypunctIcLb0EE
D _ZTVSt10moneypunctIcLb1EE
D _ZTVSt10moneypunctIwLb0EE
D _ZTVSt10moneypunctIwLb1EE
D _ZTVSt10ostrstream
D _ZTVSt11logic_error
D _ZTVSt11range_error
D _ZTVSt12ctype_bynameIcE
D _ZTVSt12ctype_bynameIwE
D _ZTVSt12domain_error
D _ZTVSt12length_error
D _ZTVSt12out_of_range
D _ZTVSt12strstreambuf
D _ZTVSt13bad_exception
V _ZTVSt13basic_filebufIcSt11char_traitsIcEE
V _ZTVSt13basic_filebufIwSt11char_traitsIwEE
V _ZTVSt13basic_istreamIwSt11char_traitsIwEE
V _ZTVSt13basic_ostreamIwSt11char_traitsIwEE
D _ZTVSt13runtime_error
D _ZTVSt14codecvt_bynameIcc9mbstate_tE
D _ZTVSt14codecvt_bynameIwc9mbstate_tE
D _ZTVSt14collate_bynameIcE
D _ZTVSt14collate_bynameIwE
D _ZTVSt14overflow_error
V _ZTVSt15basic_streambufIcSt11char_traitsIcEE
V _ZTVSt15basic_streambufIwSt11char_traitsIwEE
D _ZTVSt15messages_bynameIcE
D _ZTVSt15messages_bynameIwE
D _ZTVSt15numpunct_bynameIcE
D _ZTVSt15numpunct_bynameIwE
V _ZTVSt15time_get_bynameIcSt19istreambuf_iteratorIcSt11char_traitsIcEEE
V _ZTVSt15time_get_bynameIwSt19istreambuf_iteratorIwSt11char_traitsIwEEE
V _ZTVSt15time_put_bynameIcSt19ostreambuf_iteratorIcSt11char_traitsIcEEE
V _ZTVSt15time_put_bynameIwSt19ostreambuf_iteratorIwSt11char_traitsIwEEE
D _ZTVSt15underflow_error
D _ZTVSt16invalid_argument
D _ZTVSt17__Named_exception
D _ZTVSt17moneypunct_bynameIcLb0EE
D _ZTVSt17moneypunct_bynameIcLb1EE
D _ZTVSt17moneypunct_bynameIwLb0EE
D _ZTVSt17moneypunct_bynameIwLb1EE
D _ZTVSt5ctypeIcE
D _ZTVSt5ctypeIwE
D _ZTVSt7codecvtIcc9mbstate_tE
D _ZTVSt7codecvtIwc9mbstate_tE
D _ZTVSt7collateIcE
D _ZTVSt7collateIwE
V _ZTVSt7num_getIcSt19istreambuf_iteratorIcSt11char_traitsIcEEE
V _ZTVSt7num_getIwSt19istreambuf_iteratorIwSt11char_traitsIwEEE
V _ZTVSt7num_putIcSt19ostreambuf_iteratorIcSt11char_traitsIcEEE
V _ZTVSt7num_putIwSt19ostreambuf_iteratorIwSt11char_traitsIwEEE
D _ZTVSt8ios_base
V _ZTVSt8messagesIcE
V _ZTVSt8messagesIwE
D _ZTVSt8numpunctIcE
D _ZTVSt8numpunctIwE
V _ZTVSt8time_getIcSt19istreambuf_iteratorIcSt11char_traitsIcEEE
V _ZTVSt8time_getIwSt19istreambuf_iteratorIwSt11char_traitsIwEEE
V _ZTVSt8time_putIcSt19ostreambuf_iteratorIcSt11char_traitsIcEEE
V _ZTVSt8time_putIwSt19ostreambuf_iteratorIwSt11char_traitsIwEEE
V _ZTVSt9basic_iosIcSt11char_traitsIcEE
V _ZTVSt9basic_iosIwSt11char_traitsIwEE
D _ZTVSt9exception
V _ZTVSt9money_getIcSt19istreambuf_iteratorIcSt11char_traitsIcEEE
V _ZTVSt9money_getIwSt19istreambuf_iteratorIwSt11char_traitsIwEEE
V _ZTVSt9money_putIcSt19ostreambuf_iteratorIcSt11char_traitsIcEEE
V _ZTVSt9money_putIwSt19ostreambuf_iteratorIwSt11char_traitsIwEEE
D _ZTVSt9strstream
W _ZThn8_NSdD0Ev
W _ZThn8_NSdD1Ev
T _ZThn8_NSt9strstreamD0Ev
T _ZThn8_NSt9strstreamD1Ev
W _ZTv0_n12_NSdD0Ev
W _ZTv0_n12_NSdD1Ev
W _ZTv0_n12_NSiD0Ev
W _ZTv0_n12_NSiD1Ev
W _ZTv0_n12_NSoD0Ev
W _ZTv0_n12_NSoD1Ev
T _ZTv0_n12_NSt10istrstreamD0Ev
T _ZTv0_n12_NSt10istrstreamD1Ev
T _ZTv0_n12_NSt10ostrstreamD0Ev
T _ZTv0_n12_NSt10ostrstreamD1Ev
W _ZTv0_n12_NSt13basic_istreamIwSt11char_traitsIwEED0Ev
W _ZTv0_n12_NSt13basic_istreamIwSt11char_traitsIwEED1Ev
W _ZTv0_n12_NSt13basic_ostreamIwSt11char_traitsIwEED0Ev
W _ZTv0_n12_NSt13basic_ostreamIwSt11char_traitsIwEED1Ev
T _ZTv0_n12_NSt9strstreamD0Ev
T _ZTv0_n12_NSt9strstreamD1Ev
V _ZZNSt16_Node_Alloc_Lock8_S_MutexEvE5mutex
V _ZZNSt4priv10_Stl_primeIbE9_S_primesERjE5_list
U _ZdaPv
U _ZdlPv
U _Znaj
U _Znwj
U __aeabi_atexit
U __aeabi_d2f
U __aeabi_dadd
U __aeabi_dcmpeq
U __aeabi_dcmpge
U __aeabi_dcmpgt
U __aeabi_dcmple
U __aeabi_dcmplt
U __aeabi_ddiv
U __aeabi_dmul
U __aeabi_dsub
U __aeabi_f2d
T __aeabi_f2uiz
U __aeabi_fadd
U __aeabi_fcmpeq
U __aeabi_fcmpge
U __aeabi_fcmpgt
U __aeabi_fcmple
U __aeabi_fcmplt
U __aeabi_fdiv
U __aeabi_fmul
U __aeabi_fsub
U __aeabi_i2d
U __aeabi_idiv
U __aeabi_idivmod
U __aeabi_ldivmod
T __aeabi_llsl
T __aeabi_llsr
U __aeabi_lmul
U __aeabi_ui2f
U __aeabi_uidiv
U __aeabi_uidivmod
U __aeabi_uldivmod
U __aeabi_unwind_cpp_pr0
U __aeabi_unwind_cpp_pr1
T __ashldi3
A __bss_end__
A __bss_start
A __bss_start__
U __cxa_guard_acquire
U __cxa_guard_release
D __data_start
U __dso_handle
A __end__
A __exidx_end
A __exidx_start
T __fixunssfsi
T __lshrdi3
U __sF
U __stack_chk_fail
U __stack_chk_guard
A _bss_end__
U _ctype_
A _edata
A _end
A _stack
U _tolower_tab_
U _toupper_tab_
U abort
U atan2
U atan2f
U close
U cos
U cosf
U cosh
U coshf
U exit
U exp
U expf
U fcntl
U fflush
U fgetpos
U fputs
U free
U fseek
U fsetpos
U fstat
U getc
U hypot
U iswalpha
U iswcntrl
U iswdigit
U iswlower
U iswprint
U iswpunct
U iswspace
U iswupper
U iswxdigit
U log
U log10
U logf
U lseek
U malloc
U memcmp
U memcpy
U memmove
U memset
U mktime
U mmap
U munmap
U open
U pthread_getspecific
U pthread_key_create
U pthread_mutex_destroy
U pthread_mutex_init
U pthread_mutex_lock
U pthread_mutex_unlock
U pthread_setspecific
U putc
U puts
U read
U realloc
U setlocale
U setvbuf
U sin
U sinf
U sinh
U sinhf
U snprintf
U sprintf
U sqrt
U sqrtf
U strchr
U strcmp
U strlen
U strncpy
U sysconf
U towlower
U towupper
U ungetc
U wcscmp
U wcsncpy
U write
