T JNI_OnLoad
U _ZN7android10AudioTrack13setSampleRateEi
U _ZN7android10AudioTrack4stopEv
U _ZN7android10AudioTrack5pauseEv
U _ZN7android10AudioTrack5startEv
U _ZN7android10AudioTrack7setLoopEjji
U _ZN7android10AudioTrack9setVolumeEff
U _ZN7android10AudioTrackC1EijiiijPFviPvS1_ES1_ii
U _ZN7android10AudioTrackD1Ev
T _ZN7android10SoundEvent3setERKNS_2spINS_6SampleEEEiffiif
U _ZN7android10VectorImpl11setCapacityEj
U _ZN7android10VectorImpl13finish_vectorEv
U _ZN7android10VectorImpl13removeItemsAtEjj
U _ZN7android10VectorImpl19reservedVectorImpl1Ev
U _ZN7android10VectorImpl19reservedVectorImpl2Ev
U _ZN7android10VectorImpl19reservedVectorImpl3Ev
U _ZN7android10VectorImpl19reservedVectorImpl4Ev
U _ZN7android10VectorImpl19reservedVectorImpl5Ev
U _ZN7android10VectorImpl19reservedVectorImpl6Ev
U _ZN7android10VectorImpl19reservedVectorImpl7Ev
U _ZN7android10VectorImpl19reservedVectorImpl8Ev
U _ZN7android10VectorImpl4pushEPKv
U _ZN7android10VectorImpl5clearEv
U _ZN7android10VectorImplC2Ejj
U _ZN7android10VectorImplD2Ev
U _ZN7android11AudioSystem19getOutputFrameCountEPii
U _ZN7android11AudioSystem21getOutputSamplingRateEPii
U _ZN7android11MediaPlayer6decodeEPKcPjPiS4_
U _ZN7android11MediaPlayer6decodeEixxPjPiS2_
T _ZN7android12SoundChannel10autoResumeEv
T _ZN7android12SoundChannel11setVolume_lEff
T _ZN7android12SoundChannel4dumpEv
T _ZN7android12SoundChannel4initEPNS_9SoundPoolE
T _ZN7android12SoundChannel4playERKNS_2spINS_6SampleEEEiffiif
T _ZN7android12SoundChannel4stopEv
T _ZN7android12SoundChannel5pauseEv
T _ZN7android12SoundChannel6resumeEv
T _ZN7android12SoundChannel6stop_lEv
T _ZN7android12SoundChannel7processEiPv
T _ZN7android12SoundChannel7setLoopEi
T _ZN7android12SoundChannel7setRateEf
T _ZN7android12SoundChannel8callbackEiPvS1_
T _ZN7android12SoundChannel9autoPauseEv
T _ZN7android12SoundChannel9nextEventEv
T _ZN7android12SoundChannel9setVolumeEff
T _ZN7android12SoundChannelD1Ev
T _ZN7android12SoundChannelD2Ev
U _ZN7android14AndroidRuntime21registerNativeMethodsEP7_JNIEnvPKcPK15JNINativeMethodi
U _ZN7android14AndroidRuntime9getJNIEnvEv
D _ZN7android14kMaxSampleRateE
T _ZN7android15SoundPoolThread10loadSampleEi
T _ZN7android15SoundPoolThread11beginThreadEPv
T _ZN7android15SoundPoolThread12doLoadSampleEi
T _ZN7android15SoundPoolThread3runEv
T _ZN7android15SoundPoolThread4quitEv
T _ZN7android15SoundPoolThread4readEv
T _ZN7android15SoundPoolThread5writeENS_12SoundPoolMsgE
T _ZN7android15SoundPoolThreadC1EPNS_9SoundPoolE
T _ZN7android15SoundPoolThreadC2EPNS_9SoundPoolE
T _ZN7android15SoundPoolThreadD1Ev
T _ZN7android15SoundPoolThreadD2Ev
U _ZN7android16SortedVectorImpl25reservedSortedVectorImpl1Ev
U _ZN7android16SortedVectorImpl25reservedSortedVectorImpl2Ev
U _ZN7android16SortedVectorImpl25reservedSortedVectorImpl3Ev
U _ZN7android16SortedVectorImpl25reservedSortedVectorImpl4Ev
U _ZN7android16SortedVectorImpl25reservedSortedVectorImpl5Ev
U _ZN7android16SortedVectorImpl25reservedSortedVectorImpl6Ev
U _ZN7android16SortedVectorImpl25reservedSortedVectorImpl7Ev
U _ZN7android16SortedVectorImpl25reservedSortedVectorImpl8Ev
U _ZN7android16SortedVectorImpl3addEPKv
U _ZN7android16SortedVectorImpl6removeEPKv
U _ZN7android16SortedVectorImplC2Ejj
U _ZN7android16SortedVectorImplD2Ev
D _ZN7android18kDefaultFrameCountE
D _ZN7android18kDefaultSampleRateE
D _ZN7android19kDefaultBufferCountE
U _ZN7android25getParcelFileDescriptorFDEP7_JNIEnvP8_jobject
W _ZN7android2spINS_6SampleEEC1ERKS2_
W _ZN7android2spINS_6SampleEED1Ev
W _ZN7android2spINS_6SampleEEaSERKS2_
W _ZN7android2spINS_7IMemoryEED1Ev
W _ZN7android2spINS_7IMemoryEEaSERKS2_
T _ZN7android6Sample4initEv
T _ZN7android6Sample6doLoadEv
T _ZN7android6SampleC1EiPKc
T _ZN7android6SampleC1Eiixx
T _ZN7android6SampleC2EiPKc
T _ZN7android6SampleC2Eiixx
T _ZN7android6SampleD0Ev
T _ZN7android6SampleD1Ev
T _ZN7android6SampleD2Ev
U _ZN7android7RefBase10onFirstRefEv
U _ZN7android7RefBase13onLastWeakRefEPKv
U _ZN7android7RefBase15onLastStrongRefEPKv
U _ZN7android7RefBase20onIncStrongAttemptedEjPKv
U _ZN7android7RefBaseC2Ev
U _ZN7android7RefBaseD2Ev
T _ZN7android9SoundPool10autoResumeEv
T _ZN7android9SoundPool11beginThreadEPv
T _ZN7android9SoundPool11findChannelEi
T _ZN7android9SoundPool11moveToFrontEPNS_12SoundChannelE
T _ZN7android9SoundPool11setCallbackEPFvNS_14SoundPoolEventEPS0_PvES3_
T _ZN7android9SoundPool11setPriorityEii
T _ZN7android9SoundPool12startThreadsEv
T _ZN7android9SoundPool15allocateChannelEi
T _ZN7android9SoundPool15findNextChannelEi
T _ZN7android9SoundPool16addToRestartListEPNS_12SoundChannelE
T _ZN7android9SoundPool3runEv
T _ZN7android9SoundPool4doneEPNS_12SoundChannelE
T _ZN7android9SoundPool4dumpEv
T _ZN7android9SoundPool4loadEPKci
T _ZN7android9SoundPool4loadEixxi
T _ZN7android9SoundPool4playEiffiif
T _ZN7android9SoundPool4quitEv
T _ZN7android9SoundPool4stopEi
T _ZN7android9SoundPool5pauseEi
T _ZN7android9SoundPool6doLoadERNS_2spINS_6SampleEEE
T _ZN7android9SoundPool6notifyENS_14SoundPoolEventE
T _ZN7android9SoundPool6resumeEi
T _ZN7android9SoundPool6unloadEi
T _ZN7android9SoundPool7setLoopEii
T _ZN7android9SoundPool7setRateEif
T _ZN7android9SoundPool9autoPauseEv
T _ZN7android9SoundPool9setVolumeEiff
T _ZN7android9SoundPoolC1Eiii
T _ZN7android9SoundPoolC2Eiii
T _ZN7android9SoundPoolD1Ev
T _ZN7android9SoundPoolD2Ev
U _ZNK7android10AudioTrack10frameCountEv
U _ZNK7android10AudioTrack9frameSizeEv
U _ZNK7android10AudioTrack9initCheckEv
W _ZNK7android12SortedVectorINS_16key_value_pair_tIiNS_2spINS_6SampleEEEEEE10do_compareEPKvS8_
W _ZNK7android12SortedVectorINS_16key_value_pair_tIiNS_2spINS_6SampleEEEEEE10do_destroyEPvj
W _ZNK7android12SortedVectorINS_16key_value_pair_tIiNS_2spINS_6SampleEEEEEE12do_constructEPvj
W _ZNK7android12SortedVectorINS_16key_value_pair_tIiNS_2spINS_6SampleEEEEEE15do_move_forwardEPvPKvj
W _ZNK7android12SortedVectorINS_16key_value_pair_tIiNS_2spINS_6SampleEEEEEE16do_move_backwardEPvPKvj
W _ZNK7android12SortedVectorINS_16key_value_pair_tIiNS_2spINS_6SampleEEEEEE7do_copyEPvPKvj
W _ZNK7android12SortedVectorINS_16key_value_pair_tIiNS_2spINS_6SampleEEEEEE8do_splatEPvPKvj
U _ZNK7android16SortedVectorImpl7indexOfEPKv
W _ZNK7android6VectorINS_12SoundPoolMsgEE10do_destroyEPvj
W _ZNK7android6VectorINS_12SoundPoolMsgEE12do_constructEPvj
W _ZNK7android6VectorINS_12SoundPoolMsgEE15do_move_forwardEPvPKvj
W _ZNK7android6VectorINS_12SoundPoolMsgEE16do_move_backwardEPvPKvj
W _ZNK7android6VectorINS_12SoundPoolMsgEE7do_copyEPvPKvj
W _ZNK7android6VectorINS_12SoundPoolMsgEE8do_splatEPvPKvj
U _ZNK7android7IMemory4sizeEv
U _ZNK7android7IMemory7pointerEv
U _ZNK7android7RefBase9decStrongEPKv
U _ZNK7android7RefBase9incStrongEPKv
V _ZTVN7android12SortedVectorINS_16key_value_pair_tIiNS_2spINS_6SampleEEEEEEE
V _ZTVN7android4ListIPNS_12SoundChannelEEE
D _ZTVN7android6SampleE
V _ZTVN7android6VectorINS_12SoundPoolMsgEEE
U _ZdaPv
U _ZdlPv
U _Znaj
U _Znwj
T __FINI_ARRAY__
T __INIT_ARRAY__
U __aeabi_d2uiz
U __aeabi_dadd
U __aeabi_f2d
U __aeabi_fmul
U __aeabi_i2f
T __aeabi_llsl
U __aeabi_uidiv
U __aeabi_unwind_cpp_pr0
U __android_log_print
T __ashldi3
A __bss_end__
A __bss_start
A __bss_start__
U __cxa_finalize
D __data_start
B __dso_handle
A __end__
A __exidx_end
A __exidx_start
A _bss_end__
A _edata
A _end
A _stack
U androidCreateThreadEtc
U close
U dup
U jniThrowException
U memcpy
U memmove
U memset
U pthread_cond_destroy
U pthread_cond_init
U pthread_cond_signal
U pthread_cond_wait
U pthread_mutex_destroy
U pthread_mutex_init
U pthread_mutex_lock
U pthread_mutex_unlock
U strdup
