T ACELP_2t64_fx
T ACELP_4t64_fx
T AMRDecode
T AMREncode
T AMREncodeExit
T AMREncodeInit
T AMREncodeReset
T AMR_Enc_Encode
T AVCBitstreamSaveWord
T AVCBitstreamUseOverrunBuffer
T AVCCandidateSelection
T AVCEncodeSlice
T AVCFindHalfPelMB
T AVCFindMin
T AVCFullSearch
T AVCMBMotionComp
T AVCMBMotionSearch
T AVCMotionEstimation
T AVCMoveNeighborSAD
T AVCPaddingEdge
T AVCPrepareCurMB
T AVCRasterIntraUpdate
T AVCSAD_MB_HalfPel_Cxh
T AVCSAD_MB_HalfPel_Cxhyh
T AVCSAD_MB_HalfPel_Cyh
T AVCSAD_Macroblock_C
T AVC_BitstreamFillCache
T A_Refl
T AacEncClose
T AacEncEncode
T AacEncOpen
T AacInitDefaultConfig
T AdaptiveSmooth_NoMMX
T AdjThrInit
T AdjThrUpdate
T AdjustBitrate
T AdjustThresholds
T AmrWbInterpol
T AmrWbUp_samp
T ApplyTnsMultTableToRatios
T AutoCorrelation
T Autocorr
T Az_isp
R BandwithCoefTab
T Bgn_scd
T Bgn_scd_reset
T BitStreamCreateEnc
U Bits2prm
T BitstreamAppendEnc
T BitstreamAppendPacket
T BitstreamAppendPacketNoOffset
T BitstreamByteAlign
T BitstreamByteAlignNoForceStuffing
T BitstreamCheckEndBuffer
T BitstreamClose
T BitstreamCloseEnc
T BitstreamEncInit
T BitstreamEncReset
T BitstreamFillCache
T BitstreamFlushBits
T BitstreamGetPos
T BitstreamInit
T BitstreamMpeg4ByteAlignStuffing
T BitstreamOpen
T BitstreamPrependPacket
T BitstreamPutBits
T BitstreamPutGT16Bits
T BitstreamRead1Bit
T BitstreamRead1Bits
W BitstreamRead1Bits_INLINE
T BitstreamReadBits
T BitstreamReadBits16
W BitstreamReadBits16_INLINE
T BitstreamReadBits32
T BitstreamReadBits32HC
T BitstreamRepos
T BitstreamReset
T BitstreamSavePartial
T BitstreamSaveWord
T BitstreamSetOverrunBuffer
T BitstreamShortHeaderByteAlignStuffing
W BitstreamShow13Bits
T BitstreamShowBits
W BitstreamShowBits16
T BitstreamShowBits32
T BitstreamShowBits32HC
T BitstreamTrailingBits
T BitstreamUseOverrunBuffer
T BitstreamWrite1Bit
T BitstreamWriteBits
T Block1x1DCTIntra
T Block1x1DCTwSub
T Block2x2DCT_AANIntra
T Block2x2DCT_AANwSub
T Block4x4DCT_AANIntra
T Block4x4DCT_AANwSub
T BlockCodeCoeff_Normal
T BlockCodeCoeff_RVLC
T BlockCodeCoeff_ShortHeader
T BlockDCT_AANIntra
T BlockDCT_AANwSub
T BlockIDCT
T BlockIDCTMotionComp
T BlockIDCT_intra
T BlockQuantDequantH263DCInter
T BlockQuantDequantH263DCIntra
T BlockQuantDequantH263Inter
T BlockQuantDequantH263Intra
T BlockQuantDequantMPEGDCInter
T BlockQuantDequantMPEGDCIntra
T BlockQuantDequantMPEGInter
T BlockQuantDequantMPEGIntra
T BlockSwitching
T BuildInterface
T CN_dithering
T CalcBandEnergy
T CalcBandEnergyMS
T CalcFormFactor
T CalcThreshold
T CalcVopDisplayTime
T CalcWindowEnergy
T CandidateSelection
T Cb_gain_average
T Cb_gain_average_reset
T ChooseMode_C
T CleanMotionSearchModule
T CleanupRateControlModule
T CodeMB_H263
T CodeMB_MPEG
T CombinedHorzVertFilter
T CombinedHorzVertFilter_NoSoftDeblocking
T CombinedHorzVertRingFilter
T ComputeMBSum_C
T ConcealPacket
T ConcealTexture_I
T ConcealTexture_P
T Convolve
T Convolve_asm
U Copy
T CopyBitBuf
T CopyVopMB
T Copy_B_from_Vop
T Copy_B_into_Vop
T Copy_MB
T Copy_MB_from_Vop
T Copy_MB_into_Vop
R CosTable_16
R CosTable_48
T CreateBitBuffer
T DCACPred
T D_plsf_3
T D_plsf_5
T D_plsf_reset
T Dec_gain
T Dec_lag3
T Dec_lag6
T Decim_12k8
T DecodeDataPart_I_VideoPacket
T DecodeDataPart_P_VideoPacket
T DecodeFrameCombinedMode
T DecodeFrameDataPartMode
T DecodeGOVHeader
T DecodeShortHeader
T DecodeUserData
T DecodeVOLHeader
T DecodeVOPHeader
T Decoder_amr
T Decoder_amr_init
T Decoder_amr_reset
T Deemph
T Deemph2
T Deemph_32
T Deemph_32_asm
T DeleteBitBuffer
T Deringing_Chroma
T Deringing_Luma
T Disf_ns
U Div_32
T Dot_product12
T Dot_product12_asm
T Dpisf_2s_36b
T Dpisf_2s_46b
U EAS_CloseFile
U EAS_Config
U EAS_Init
U EAS_OpenFile
U EAS_ParseMetaData
U EAS_Prepare
U EAS_Shutdown
T EncGetPredOutside
T EncPrediction_Chrom
T EncPrediction_INTER
T EncPrediction_INTER4V
T Enc_lag3
T Enc_lag6
T EncodeCBP
T EncodeFrameCombinedMode
T EncodeFrameDataPartMode
T EncodeHRD
T EncodeIntra4x4Mode
T EncodeIntraPCM
T EncodeMB
T EncodeMBHeader
T EncodePPS
T EncodeSPS
T EncodeSlice
T EncodeSliceCombinedMode
T EncodeSliceDataPartMode
T EncodeSliceHeader
T EncodeVUI
T EncodeVideoPacketHeader
T EncodeVop
T EstimateScaleFactors
T Ex_ctrl
T Filt_6k_7k
T Filt_6k_7k_asm
T FinalizeBitConsumption
T FindHalfPelBlk
T FindHalfPelMB
T FindMaxMin
T FindMin
T FindMostProbableI4Mode
T GSMDecodeFrameExit
T GSMEncodeFrame
T GSMEncodeFrameExit
T GSMFrameDecode
T GSMInitDecode
T GSMInitEncode
T G_code
T G_pitch
T GenerateHalfPelPred
T GenerateQuartPelPred
T GetAvgFrameQP
T GetBitsAvail
T GetHalfPelBlkRegion
T GetHalfPelMBRegion_C
T GetMBData
T GetMBData_DataPart
T GetMBheader
T GetMBheaderDataPart_DQUANT_DC
T GetMBheaderDataPart_P
T GetNrBitsAvailable
T GetPredAdvBy0x0
T GetPredAdvBy0x1
T GetPredAdvBy1x0
T GetPredAdvBy1x1
T GetPredAdvancedBy0x0
T GetPredAdvancedBy0x1
T GetPredAdvancedBy1x0
T GetPredAdvancedBy1x1
T GetPredOutside
T GetSRIndex
T Get_isp_pol
T Get_isp_pol_16kHz
T Gp_clip
T Gp_clip_test_gain_pit
T Gp_clip_test_isf
T H263_Deblock
T HP400_12k8
T HP50_12k8
T HTFMPrepareCurMB
T HalfPel1_SAD_Blk
T HalfPel1_SAD_MB
T HalfPel2_SAD_Blk
T HalfPel2_SAD_MB
T Hp_wsp
R If2DecBytesPerFrame
R If2EncBytesPerFrame
T InitBlockSwitching
T InitElementBits
T InitElementInfo
T InitFrame
T InitHTFM
T InitMotionSearchModule
T InitPOC
T InitPreEchoControl
T InitPsyConfigurationLong
T InitPsyConfigurationShort
T InitRateControlModule
T InitSlice
T InitTnsConfigurationLong
T InitTnsConfigurationShort
T Init_D_plsf_3
T Init_Decim_12k8
T Init_Filt_6k_7k
T Init_HP400_12k8
T Init_HP50_12k8
T Init_Hp_wsp
T Init_Lagconc
T Init_Levinson
T Init_Q_gain2
T Init_gp_clip
T Int_isp
U Int_lpc_1and3
U Int_lpc_1to3
T Int_lsf
T Interpol_3or6
T InterpretMBType
T InterpretSubMBTypeB
T InterpretSubMBTypeP
T IntraDC_dpcm
U Inv_sqrt
T IsIntraFrame
T Isf_isp
T Isp_Az
T Isp_isf
T Isqrt
T Isqrt_n
T LP_Decim2
T L_Comp
T L_Extract
U L_abs
U L_deposit_h
U L_deposit_l
T L_negate
U L_shr_r
T Lag_window
T Levinson
T Levinson_exit
T Levinson_init
T Levinson_reset
T Lg2_normalized
U Log2
R LongWindowKBD
R Long_Window_KBD_fxp
R Long_Window_sine_fxp
U Lsf_lsp
U Lsp_Az
U Lsp_lsf
T MBInterIdct
T MBIntraSearch
T MBMotionComp
T MBMotionSearch
T MBVlcEncodeCombined_I_VOP
T MBVlcEncodeCombined_P_VOP
T MBVlcEncodeDataPar_I_VOP
T MBVlcEncodeDataPar_P_VOP
T MBlockIDCT
U MD5_Final
U MD5_Init
U MD5_Update
T MR475_gain_quant
T MR475_update_unq_pred
T MR795_gain_quant
T Mdct_Long
T Mdct_Short
T Med_olag
T MotionEstimation
T MoveNeighborSAD
W Mpy_32
W Mpy_32_16
T MsStereoProcessing
T Norm_corr_asm
T PVAVCAnnexBGetNALUnit
T PVAVCCleanUpDecoder
T PVAVCCleanUpEncoder
T PVAVCDecGetNALType
T PVAVCDecGetOutput
T PVAVCDecGetSeqInfo
T PVAVCDecPicParamSet
T PVAVCDecReset
T PVAVCDecSEI
T PVAVCDecSeqParamSet
T PVAVCDecodeSlice
T PVAVCEncGetFrameStats
T PVAVCEncGetMaxOutputBufferSize
T PVAVCEncGetNALType
T PVAVCEncGetOverrunBuffer
T PVAVCEncGetRecon
T PVAVCEncIDRRequest
T PVAVCEncInitialize
T PVAVCEncReleaseRecon
T PVAVCEncSetInput
T PVAVCEncUpdateBitRate
T PVAVCEncUpdateFrameRate
T PVAVCEncUpdateIDRInterval
T PVAVCEncUpdateIMBRefresh
T PVAVCEncodeNAL
T PVAllocVideoData
T PVCleanUpVideoDecoder
T PVCleanUpVideoEncoder
T PVDecPostProcess
T PVDecSetEnhReference
T PVDecSetReference
T PVDecodeVideoFrame
T PVDecodeVopBody
T PVDecodeVopHeader
T PVEncodeFrameSet
T PVEncodeSlice
T PVEncodeVideoFrame
T PVExtractVolHeader
T PVGetBufferDimensions
T PVGetDecBitrate
T PVGetDecBitstreamMode
T PVGetDecFramerate
T PVGetDecMemoryUsage
T PVGetDecOutputFrame
T PVGetDefaultEncOption
T PVGetEncMemoryUsage
T PVGetH263ProfileLevelID
T PVGetHintTrack
T PVGetLayerID
T PVGetMPEG4ProfileLevelID
T PVGetMaxVideoFrameSize
T PVGetOverrunBuffer
T PVGetVBVSize
T PVGetVideoDimensions
T PVGetVideoTimeStamp
T PVGetVolHeader
T PVGetVolInfo
T PVIFrameRequest
T PVInitVideoDecoder
T PVInitVideoEncoder
T PVLocateFrameHeader
T PVLocateH263FrameHeader
T PVLocateM4VFrameBoundary
T PVMP4AudioDecodeFrame
T PVMP4AudioDecoderConfig
T PVMP4AudioDecoderDisableAacPlus
T PVMP4AudioDecoderGetMemRequirements
T PVMP4AudioDecoderInitLibrary
T PVMP4AudioDecoderResetBuffer
T PVResetVideoDecoder
T PVSearchNextH263Frame
T PVSearchNextM4VFrame
T PVSetPostProcType
T PVSetReferenceYUV
T PVUpdateBitRate
T PVUpdateEncFrameRate
T PVUpdateIFrameInterval
T PVUpdateNumIntraMBRefresh
T PV_BitstreamByteAlign
T PV_BitstreamFlushBitsCheck
T PV_BitstreamShowBitsByteAlign
T PV_BitstreamShowBitsByteAlignNoForceStuffing
R PV_CBPYtab
R PV_DCT3Dtab0
R PV_DCT3Dtab1
R PV_DCT3Dtab2
R PV_DCT3Dtab3
R PV_DCT3Dtab4
R PV_DCT3Dtab5
R PV_DCT3Dtab6
R PV_DCT3Dtab7
R PV_DCT3Dtab8
T PV_DeScaleMVD
T PV_DecodeMBVec
T PV_DecodePredictedIntraDC
T PV_DecodeVop
T PV_GetMBvectors
T PV_GobHeader
T PV_H263SliceHeader
R PV_MCBPCtab
R PV_MCBPCtab1
R PV_MCBPCtabintra
T PV_ReadVideoPacketHeader
R PV_TMNMVtab0
R PV_TMNMVtab1
R PV_TMNMVtab2
T PV_VlcDecCBPY
T PV_VlcDecIntraDCPredSize
T PV_VlcDecMCBPC_com_inter
T PV_VlcDecMCBPC_com_inter_H263
T PV_VlcDecMCBPC_com_intra
T PV_VlcDecMV
T PackBits
T PaddingEdge
T Parm_serial
T Pit_shrp
T Pitch_fr
T Pitch_fr4
T Pitch_fr_exit
T Pitch_fr_init
T Pitch_fr_reset
T Pitch_med_ol
T Pitch_ol
T Pitch_ol_wgh
T PostFilter
T PostMDCT
T PostPOC
T PostProcSemaphore
T Post_Filter
T Post_Filter_reset
T Post_Process
T Post_Process_reset
U Pow2
T PreEchoControl
T PreMDCT
T Pre_Process
T Pre_Process_exit
T Pre_Process_init
T Pre_Process_reset
T Pred_lt4
U Pred_lt_3or6
T Preemph
T Preemph2
T PrepareCurMB
T Prm2bits
T PsyDelete
T PsyNew
T PsyOutDelete
T PsyOutNew
T PutCBPY
T PutCoeff_Inter
T PutCoeff_Inter_Last
T PutCoeff_Inter_RVLC
T PutCoeff_Inter_RVLC_Last
T PutCoeff_Intra
T PutCoeff_Intra_Last
T PutCoeff_Intra_RVLC
T PutCoeff_Intra_RVLC_Last
T PutDCsize_chrom
T PutDCsize_lum
T PutLevelCoeff_Inter
T PutLevelCoeff_Inter_Last
T PutLevelCoeff_Intra
T PutLevelCoeff_Intra_Last
T PutMCBPC_Inter
T PutMCBPC_Intra
T PutMV
T PutRunCoeff_Inter
T PutRunCoeff_Inter_Last
T PutRunCoeff_Intra
T PutRunCoeff_Intra_Last
T PutSKIPPED_B
T PutSKIPPED_MB
T PutSkippedBlock
T QCDelete
T QCInit
T QCMain
T QCNew
T QCOutDelete
T QCOutNew
T Q_gain2
U Q_plsf_3
T Qpisf_2s_36b
T Qpisf_2s_46b
T Qua_gain
T QuantizeSpectrum
T RCCalculateMAD
T RCDetermineFrameNum
T RCInitChromaQP
T RCInitFrameQP
T RCInitGOP
T RCInitMBQP
T RCPostMB
T RCRestoreQP
T RCUpdateBuffer
T RCUpdateFrame
T RC_Cleanup
T RC_GetSkipNextFrame
T RC_Initialize
T RC_ResetSkipNextFrame
T RC_UpdateBXRCParams
T RC_UpdateBuffer
T RC_VopQPSetting
T RC_VopUpdateStat
T Radix4FFT
T Radix4First
T Radix8First
T Random
T RasterIntraUpdate
T Reorder_isf
U Reorder_lsf
T ResetBitBuf
T ResetIntraUpdate
T ResetIntraUpdateRegion
T Reset_encoder
U Residu
T Residu_opt
T RunLevel
R RvlcDCTtabInter
R RvlcDCTtabIntra
T RvlcDecTCOEFInter
T RvlcDecTCOEFIntra
T SAD_Blk_HalfPel_C
T SAD_Block_C
T SAD_MB_HP_HTFM_Collectxh
T SAD_MB_HP_HTFM_Collectxhyh
T SAD_MB_HP_HTFM_Collectyh
T SAD_MB_HP_HTFMxh
T SAD_MB_HP_HTFMxhyh
T SAD_MB_HP_HTFMyh
T SAD_MB_HTFM
T SAD_MB_HTFM_Collect
T SAD_MB_HalfPel_Cxh
T SAD_MB_HalfPel_Cxhyh
T SAD_MB_HalfPel_Cyh
T SAD_Macroblock_C
T SATDChroma
T SATD_MB
T Sad8x8
T ScaleMVD
T Scale_sig
T Scale_sig_opt
T Serial_parm
T Serial_parm_1bit
T SetEGBitstring
T SetEncodeParam
U Set_zero
R ShortWindowSine
R Short_Window_KBD_fxp
R Short_Window_sine_fxp
T SkippedMBMotionComp
T Speech_Decode_Frame_reset
T Speech_Encode_Frame_First
T Speech_Encode_Frame_reset
T SpreadingMax
T Sub_VQ
U Syn_filt
T Syn_filt_32
T Syn_filt_32_asm
T Syn_filt_asm
T SyncBlockSwitching
T Test_build_code
T Test_search_2i40
T TnsDetect
T TnsEncode
T TnsSync
T Transform_Real
T UpdateHTFM
T Updt_tar
T VO_L_Extract
T VerifyLevel
T VerifyProfile
T VertInterpWClip
T VideoDecoderErrorDetected
T VlcDecTCOEFInter
T VlcDecTCOEFIntra
T VlcDecTCOEFShortHeader
T VlcDecTCOEFShortHeader_AnnexI
T VlcDecTCOEFShortHeader_AnnexIT
T VlcDecTCOEFShortHeader_AnnexT
T VlcDequantH263InterBlock
T VlcDequantH263IntraBlock
T VlcDequantH263IntraBlock_SH
R W_256rx4
R W_64rx4
U Weight_Ai
T Weight_a
R WmfDecBytesPerFrame
R WmfEncBytesPerFrame
T WriteBits
T WriteBitstream
T WriteMVcomponent
U _Z10CleanUpDPBP12tagAVCHandleP12tagCommonObj
U _Z10DPBInitPicP12tagCommonObji
T _Z10EBSPtoRBSPPhPi
T _Z10copy_blockPhS_ii
T _Z10ePadChromaPhiiiii
T _Z10pic_timingP12tagDecObjectP15tagDecBitstream
T _Z11CalcNumBitsj
T _Z11CreateAlignPhiiS_ii
T _Z11DecodeSliceP12tagDecObject
U _Z11ReOrderListP12tagCommonObj
U _Z11RefListInitP12tagCommonObj
U _Z11predict_nnzP12tagCommonObjii
T _Z11sbr_get_cpeP14SBR_FRAME_DATAS0_P10BIT_BUFFER
T _Z11sei_payloadP12tagDecObjectP15tagDecBitstreamjj
T _Z11set_mc_infoP7MC_Info19eMP4AudioObjectTypeiiiPP9FrameInfoPi
T _Z11sub_mb_predP12tagCommonObjP13tagMacroblockP15tagDecBitstream
T _Z12ConcealSliceP12tagDecObjectii
T _Z12Intra_4x4_DCP12tagCommonObjiiP23tagNeighborAvailability
T _Z12ce_RunBeforeP15tagDecBitstreamPii
T _Z12eCreateAlignPhiiS_ii
T _Z12get_ele_listP7EleListP4BITSi
T _Z12init_sbr_deciiP7SBR_DECP14SBR_FRAME_DATA
T _Z13ChromaDCTransPsii
U _Z13DPBInitBufferP12tagAVCHandleP12tagCommonObj
T _Z13HorzInterp1MCPhiS_iiii
T _Z13HorzInterp2MCPiiPhiiii
T _Z13HorzInterp3MCPhiPiiii
T _Z13MBIntraSearchP12tagEncObjectP13tagMacroblocki
T _Z13SaveRDSamplesP12tagMultiPassi
T _Z13VertInterp1MCPhiS_iiii
T _Z13VertInterp2MCPhiPiiii
T _Z13VertInterp3MCPiiPhiiii
T _Z13apply_ms_syntPK9FrameInfoPKiS3_S3_PiS4_S4_S4_
T _Z13ce_TotalZerosP15tagDecBitstreamPii
T _Z13indexLow2Highiii
T _Z13sbr_crc_checkP10BIT_BUFFERj
T _Z13sbr_reset_decP14SBR_FRAME_DATAP7SBR_DECi
U _Z14DeblockPictureP12tagCommonObj
T _Z14DecodeIntraPCMP12tagCommonObjP15tagDecBitstream
T _Z14EncodeVop_NoMEP15tagVideoEncData
T _Z14Intra16DCTransPsii
T _Z14Intra_16x16_DCP12tagCommonObji
T _Z14LumaMotionCompPhiiiiS_iii
T _Z14ce_LevelPrefixP15tagDecBitstreamPj
T _Z14hrd_parametersP12tagDecObjectP15tagDecBitstreamP12tagHRDParams
T _Z14insertion_sortPss
T _Z14recovery_pointP12tagDecObjectP15tagDecBitstream
T _Z14tns_inv_filterPiiiPKiiiS_
T _Z14vui_parametersP12tagDecObjectP15tagDecBitstreamP14tagSeqParamSet
T _Z15ComputeFrameMADP12tagCommonObjP17tagAVCRateControl
T _Z15Copy_Blk_to_VopPhS_i
T _Z15EncodeGOBHeaderP15tagVideoEncDataiii
T _Z15EncodeGOVHeaderP12tagBitstreamj
T _Z15EncodeVOPHeaderP12tagBitstreamP6tagVolP6tagVOP
T _Z15EncodeVOS_StartP19tagvideoEncControls
T _Z15Intra_Chroma_DCP12tagCommonObjiPhS1_
T _Z15Lag_max_wrapperP9vadState1PiPssssssS2_iS1_
T _Z15gen_rand_vectorPiiS_i
T _Z15get_adif_headerP13tDec_Int_FileP10ProgConfig
T _Z15get_adts_headerP13tDec_Int_FilePjPii
T _Z15get_prog_configP13tDec_Int_FileP10ProgConfig
T _Z15intensity_rightiiiiiiiPKiPiS0_S1_
W _Z15zero_run_searchPjPsP16tagRunLevelBlocki
T _Z16AVCSaveRDSamplesP12tagMultiPassi
T _Z16ChromaMotionCompPhiiiiS_iii
T _Z16DetermineVopTypeP15tagVideoEncDatai
T _Z16DiagonalInterpMCPhS_iS_iii
T _Z16InterpretMBModeBP13tagMacroblockj
T _Z16InterpretMBModeIP13tagMacroblockj
T _Z16InterpretMBModePP13tagMacroblockj
T _Z16IntraDecisionABEP12tagEncObjectiPhi
T _Z16IntraDecisionABEPiPhib
T _Z16PVUpdateVBVDelayP19tagvideoEncControlsf
T _Z16buffering_periodP12tagDecObjectP15tagDecBitstream
T _Z16get_sbr_stopfreqii
T _Z17ChromaFullMC_SIMDPhiiiS_iii
T _Z17DecodeSliceHeaderP12tagDecObjectP12tagCommonObjP15tagDecBitstream
T _Z17EncodeShortHeaderP12tagBitstreamP6tagVOP
T _Z17InterMBPredictionP12tagCommonObj
T _Z17InterpretMBModeSIP13tagMacroblockj
T _Z17IntraMBPredictionP12tagCommonObj
T _Z17Intra_16x16_PlaneP12tagCommonObji
U _Z17StorePictureInDPBP12tagAVCHandleP12tagCommonObj
T _Z17get_sbr_startfreqii
T _Z17updateRC_PostProcP11rateControlP15tagVideoEncData
T _Z17updateRC_PostProcP17tagAVCRateControlP12tagMultiPass
T _Z17updateRateControlP11rateControlP15tagVideoEncData
T _Z17updateRateControlP17tagAVCRateControli
T _Z18DecodeIntra4x4ModeP12tagCommonObjP13tagMacroblockP15tagDecBitstream
T _Z18Intra_4x4_VerticalP12tagCommonObji
T _Z18Intra_Chroma_PlaneP12tagCommonObjiPhS1_
T _Z18TransQuantChromaDCP12tagEncObjectPsii
T _Z18energy_new_WrapperPssPi
T _Z18energy_old_WrapperPssPi
T _Z18fill_frame_num_gapP12tagAVCHandleP12tagCommonObj
T _Z18find_adts_syncwordPjP4BITSij
T _Z18mapLowResEnergyValiPiiii
U _Z18predict_nnz_chromaP12tagCommonObjii
T _Z19GetEGBitstring32bitP15tagDecBitstreamPiPj
T _Z19InterpretSubMBModeBP13tagMacroblockPj
T _Z19InterpretSubMBModePP13tagMacroblockPj
T _Z19Intra_4x4_Down_LeftP12tagCommonObjiP23tagNeighborAvailability
T _Z19TransQuantIntra16DCP12tagEncObject
T _Z19UpdateSkipNextFrameP15tagVideoEncDataPmPi9PV_STATUS
T _Z19dec_ref_pic_markingP12tagCommonObjP15tagDecBitstreamP14tagSliceHeader
T _Z19long_term_synthesis15WINDOW_SEQUENCEiPsPiS1_S1_S1_S1_iiii
T _Z19pns_intensity_rightiPK9FrameInfoPKiS3_S3_S3_S3_PiiS4_S4_S4_S4_S4_
T _Z19sbr_get_header_dataP15SBR_HEADER_DATAP10BIT_BUFFER14SBR_SYNC_STATE
U _Z20AVCConfigureSequenceP12tagAVCHandleP12tagCommonObjb
T _Z20DetermineCodingLayerP15tagVideoEncDataPim
T _Z20Intra_16x16_VerticalP12tagCommonObj
T _Z20Intra_4x4_HorizontalP12tagCommonObjii
T _Z20fwd_long_complex_rotPiS_i
T _Z20residual_block_cavlcP12tagDecObjectiiPiS1_S1_
T _Z20targetBitCalculationP12tagEncObjectP12tagCommonObjP17tagAVCRateControlP12tagMultiPass
T _Z20targetBitCalculationPv
T _Z21ChromaDiagonalMC_SIMDPhiiiS_iii
T _Z21ChromaVerticalMC_SIMDPhiiiS_iii
T _Z21Intra_Chroma_VerticalP12tagCommonObjPhS1_
T _Z21SetProfile_BufferSizeP15tagVideoEncDatafi
T _Z21ce_TotalZerosChromaDCP15tagDecBitstreamPii
T _Z21fwd_short_complex_rotPiS_i
T _Z21inv_short_complex_rotPiS_i
T _Z21sbr_update_freq_scalePiS_iiiii
T _Z22ChromaDiagonalMC2_SIMDPhiiiS_iii
T _Z22ChromaVerticalMC2_SIMDPhiiiS_iii
U _Z22DPBReleaseCurrentFrameP12tagAVCHandleP12tagCommonObj
T _Z22Intra_16x16_HorizontalP12tagCommonObji
T _Z22get_GA_specific_configP13tDec_Int_FileP4BITSj19eMP4AudioObjectType
T _Z22sbr_aliasing_reductionPiS_S_S_S_S_iiPA4_iS_
T _Z22sbr_envelope_unmappingP14SBR_FRAME_DATAS0_
T _Z23ChromaHorizontalMC_SIMDPhiiiS_iii
T _Z23Intra_4x4_Horizontal_UpP12tagCommonObjii
T _Z23Intra_4x4_Vertical_LeftP12tagCommonObjiP23tagNeighborAvailability
T _Z23Intra_Chroma_HorizontalP12tagCommonObjiPhS1_
T _Z23ref_pic_list_reorderingP12tagCommonObjP15tagDecBitstreamP14tagSliceHeaderi
T _Z23sbr_get_additional_dataP14SBR_FRAME_DATAP10BIT_BUFFER
T _Z24ChromaHorizontalMC2_SIMDPhiiiS_iii
U _Z24GetMotionVectorPredictorP12tagCommonObji
U _Z24InitNeighborAvailabilityP12tagCommonObji
T _Z24sbr_get_dir_control_dataP14SBR_FRAME_DATAP10BIT_BUFFER
T _Z25PVLocateH263FrameBoundaryP12tagBitstream
T _Z25ce_TotalCoeffTrailingOnesP15tagDecBitstreamPiS1_i
T _Z25get_audio_specific_configP13tDec_Int_File
T _Z25sbr_extract_extended_dataP10BIT_BUFFERP6PS_DEC
T _Z26sbr_inv_filt_levelemphasisP9INVF_MODES0_iPiS1_
T _Z27sbr_find_start_andstop_bandiiiPiS_
T _Z28calculateQuantizer_MultipassP12tagEncObjectP12tagCommonObjP17tagAVCRateControlP12tagMultiPass
T _Z28calculateQuantizer_MultipassPv
T _Z28sbr_requantize_envelope_dataP14SBR_FRAME_DATA
T _Z29Intra_4x4_Diagonal_Down_RightP12tagCommonObjii
T _Z30dec_ref_pic_marking_repetitionP12tagDecObjectP15tagDecBitstream
T _Z33Intra_4x4_Diagonal_Vertical_RightP12tagCommonObjii
T _Z33ce_TotalCoeffTrailingOnesChromaDCP15tagDecBitstreamPiS1_
T _Z34Intra_4x4_Diagonal_Horizontal_DownP12tagCommonObjii
T _Z34motion_constrained_slice_group_setP12tagDecObjectP15tagDecBitstream
T _Z3q_pPss
T _Z4se_vP15tagDecBitstreamPi
T _Z4te_vP15tagDecBitstreamPjj
T _Z4ue_vP15tagDecBitstreamPj
T _Z5transPhiS_Ps
T _Z6cumSumiPiiS_
T _Z6insertPsss
T _Z6itransPsPhS0_i
U _Z7FMOInitP12tagCommonObj
T _Z7VOS_EndP19tagvideoEncControls
T _Z7get_dsePaP4BITS
T _Z7ictransPsPhS0_i
T _Z7mb_predP12tagCommonObjP13tagMacroblockP15tagDecBitstream
T _Z7ms_syntiiiiPiS_S_S_
W _Z7sum_absiiiiiiii
T _Z8DecodeMBP12tagDecObject
T _Z8QP2Qstepi
T _Z8Qstep2QPd
T _Z8idct_colPs
T _Z8pns_corriiiiiiPiPKiS_
T _Z8residualP12tagDecObjectP13tagMacroblock
T _Z8sbr_openiP7SBR_DECP15SBRDECODER_DATAb
T _Z9CalcBandsPiiii
T _Z9CreatePadPhiiiiS_ii
T _Z9DecodeCBPP13tagMacroblockP15tagDecBitstream
T _Z9DecodePOCP12tagCommonObj
T _Z9DecodePPSP12tagDecObjectP12tagCommonObjP15tagDecBitstream
T _Z9DecodeSEIP12tagDecObjectP15tagDecBitstream
T _Z9DecodeSPSP12tagDecObjectP15tagDecBitstream
T _Z9FullPelMCPhiS_iii
T _Z9Intra_4x4P12tagCommonObjiiPh
T _Z9lt_decode15WINDOW_SEQUENCEP4BITSiP14LT_PRED_STATUS
T _Z9se_v32bitP15tagDecBitstreamPi
T _Z9shellsortPii
T _ZN7android10AACDecoder4readEPPNS_11MediaBufferEPKNS_11MediaSource11ReadOptionsE
T _ZN7android10AACDecoder4stopEv
T _ZN7android10AACDecoder5startEPNS_8MetaDataE
T _ZN7android10AACDecoder9getFormatEv
T _ZN7android10AACDecoder9initCheckEv
T _ZN7android10AACDecoderC1ERKNS_2spINS_11MediaSourceEEE
T _ZN7android10AACDecoderC2ERKNS_2spINS_11MediaSourceEEE
T _ZN7android10AACDecoderD0Ev
T _ZN7android10AACDecoderD1Ev
T _ZN7android10AACDecoderD2Ev
T _ZN7android10AACEncoder26setAudioSpecificConfigDataEv
T _ZN7android10AACEncoder4readEPPNS_11MediaBufferEPKNS_11MediaSource11ReadOptionsE
T _ZN7android10AACEncoder4stopEv
T _ZN7android10AACEncoder5startEPNS_8MetaDataE
T _ZN7android10AACEncoder9getFormatEv
T _ZN7android10AACEncoder9initCheckEv
T _ZN7android10AACEncoderC1ERKNS_2spINS_11MediaSourceEEERKNS1_INS_8MetaDataEEE
T _ZN7android10AACEncoderC2ERKNS_2spINS_11MediaSourceEEERKNS1_INS_8MetaDataEEE
T _ZN7android10AACEncoderD0Ev
T _ZN7android10AACEncoderD1Ev
T _ZN7android10AACEncoderD2Ev
U _ZN7android10ABitReader7getBitsEj
U _ZN7android10ABitReader8skipBitsEj
U _ZN7android10ABitReaderC1EPKhj
T _ZN7android10ARTPSource10timeUpdateEjy
T _ZN7android10ARTPSource11byeReceivedEv
T _ZN7android10ARTPSource11queuePacketERKNS_2spINS_7ABufferEEE
T _ZN7android10ARTPSource16processRTPPacketERKNS_2spINS_7ABufferEEE
T _ZN7android10ARTPSource17addReceiverReportERKNS_2spINS_7ABufferEEE
T _ZN7android10ARTPSource6addFIRERKNS_2spINS_7ABufferEEE
T _ZN7android10ARTPSourceC1EjRKNS_2spINS_19ASessionDescriptionEEEjRKNS1_INS_8AMessageEEE
T _ZN7android10ARTPSourceC2EjRKNS_2spINS_19ASessionDescriptionEEEjRKNS1_INS_8AMessageEEE
T _ZN7android10AVCDecoder11UnbindFrameEPvi
T _ZN7android10AVCDecoder11activateSPSEjj
T _ZN7android10AVCDecoder13releaseFramesEv
T _ZN7android10AVCDecoder16BindFrameWrapperEPviPPh
T _ZN7android10AVCDecoder17drainOutputBufferEv
T _ZN7android10AVCDecoder18ActivateSPSWrapperEPvjj
T _ZN7android10AVCDecoder20addCodecSpecificDataEPKhj
T _ZN7android10AVCDecoder20signalBufferReturnedEPNS_11MediaBufferE
T _ZN7android10AVCDecoder4readEPPNS_11MediaBufferEPKNS_11MediaSource11ReadOptionsE
T _ZN7android10AVCDecoder4stopEv
T _ZN7android10AVCDecoder5startEPNS_8MetaDataE
T _ZN7android10AVCDecoder9bindFrameEiPPh
T _ZN7android10AVCDecoder9getFormatEv
T _ZN7android10AVCDecoderC1ERKNS_2spINS_11MediaSourceEEE
T _ZN7android10AVCDecoderC2ERKNS_2spINS_11MediaSourceEEE
T _ZN7android10AVCDecoderD0Ev
T _ZN7android10AVCDecoderD1Ev
T _ZN7android10AVCDecoderD2Ev
T _ZN7android10AVCEncoder16bindOutputBufferEiPPh
T _ZN7android10AVCEncoder18allocOutputBuffersEjj
T _ZN7android10AVCEncoder18unbindOutputBufferEi
T _ZN7android10AVCEncoder20releaseOutputBuffersEv
T _ZN7android10AVCEncoder20signalBufferReturnedEPNS_11MediaBufferE
T _ZN7android10AVCEncoder4readEPPNS_11MediaBufferEPKNS_11MediaSource11ReadOptionsE
T _ZN7android10AVCEncoder4stopEv
T _ZN7android10AVCEncoder5startEPNS_8MetaDataE
T _ZN7android10AVCEncoder9getFormatEv
T _ZN7android10AVCEncoder9initCheckERKNS_2spINS_8MetaDataEEE
T _ZN7android10AVCEncoderC1ERKNS_2spINS_11MediaSourceEEERKNS1_INS_8MetaDataEEE
T _ZN7android10AVCEncoderC2ERKNS_2spINS_11MediaSourceEEERKNS1_INS_8MetaDataEEE
T _ZN7android10AVCEncoderD0Ev
T _ZN7android10AVCEncoderD1Ev
T _ZN7android10AVCEncoderD2Ev
U _ZN7android10AudioTrack4stopEv
U _ZN7android10AudioTrack5flushEv
U _ZN7android10AudioTrack5pauseEv
U _ZN7android10AudioTrack5startEv
U _ZN7android10AudioTrackC1EijiiijPFviPvS1_ES1_ii
U _ZN7android10AudioTrackD1Ev
W _ZN7android10Compare_EQIccEENS_7AStringERKT_RKT0_
W _ZN7android10Compare_EQIiiEENS_7AStringERKT_RKT0_
W _ZN7android10Compare_EQIjjEENS_7AStringERKT_RKT0_
W _ZN7android10Compare_EQIllEENS_7AStringERKT_RKT0_
W _ZN7android10Compare_GEIiiEENS_7AStringERKT_RKT0_
W _ZN7android10Compare_GEIjjEENS_7AStringERKT_RKT0_
W _ZN7android10Compare_GEIliEENS_7AStringERKT_RKT0_
W _ZN7android10Compare_GEIxxEENS_7AStringERKT_RKT0_
W _ZN7android10Compare_GTIPcPKcEENS_7AStringERKT_RKT0_
W _ZN7android10Compare_GTIPcS1_EENS_7AStringERKT_RKT0_
W _ZN7android10Compare_GTIjjEENS_7AStringERKT_RKT0_
W _ZN7android10Compare_LEIiiEENS_7AStringERKT_RKT0_
W _ZN7android10Compare_LEIjjEENS_7AStringERKT_RKT0_
W _ZN7android10Compare_LTIjjEENS_7AStringERKT_RKT0_
W _ZN7android10Compare_NEIiiEENS_7AStringERKT_RKT0_
W _ZN7android10Compare_NEIjjEENS_7AStringERKT_RKT0_
T _ZN7android10DataSource13CreateFromURIEPKcPKNS_11KeyedVectorINS_7String8ES4_EE
B _ZN7android10DataSource13gSnifferMutexE
T _ZN7android10DataSource15RegisterSnifferEPFbRKNS_2spIS0_EEPNS_7String8EPfPNS1_INS_8AMessageEEEE
T _ZN7android10DataSource23RegisterDefaultSniffersEv
T _ZN7android10DataSource5sniffEPNS_7String8EPfPNS_2spINS_8AMessageEEE
T _ZN7android10DataSource7getSizeEPl
B _ZN7android10DataSource9gSniffersE
T _ZN7android10DataSource9getUInt16ElPt
T _ZN7android10FileSource6readAtElPvj
T _ZN7android10FileSource7getSizeEPl
T _ZN7android10FileSourceC1EPKc
T _ZN7android10FileSourceC1Eixx
T _ZN7android10FileSourceC2EPKc
T _ZN7android10FileSourceC2Eixx
T _ZN7android10FileSourceD0Ev
T _ZN7android10FileSourceD1Ev
T _ZN7android10FileSourceD2Ev
T _ZN7android10HTTPStream10disconnectEv
D _ZN7android10HTTPStream10kStatusKeyE
T _ZN7android10HTTPStream12receive_lineEPcj
T _ZN7android10HTTPStream14receive_headerEPi
T _ZN7android10HTTPStream17setReceiveTimeoutEi
T _ZN7android10HTTPStream4sendEPKc
T _ZN7android10HTTPStream4sendEPKcj
T _ZN7android10HTTPStream7connectEPKci
T _ZN7android10HTTPStream7receiveEPvj
T _ZN7android10HTTPStreamC1Ev
T _ZN7android10HTTPStreamC2Ev
T _ZN7android10HTTPStreamD1Ev
T _ZN7android10HTTPStreamD2Ev
U _ZN7android10IInterfaceD0Ev
U _ZN7android10IInterfaceD1Ev
T _ZN7android10JPEGSource4readEPPNS_11MediaBufferEPKNS_11MediaSource11ReadOptionsE
T _ZN7android10JPEGSource4stopEv
T _ZN7android10JPEGSource5startEPNS_8MetaDataE
T _ZN7android10JPEGSource9getFormatEv
T _ZN7android10JPEGSource9parseJPEGEv
T _ZN7android10JPEGSourceC1ERKNS_2spINS_10DataSourceEEE
T _ZN7android10JPEGSourceC2ERKNS_2spINS_10DataSourceEEE
T _ZN7android10JPEGSourceD0Ev
T _ZN7android10JPEGSourceD1Ev
T _ZN7android10JPEGSourceD2Ev
T _ZN7android10LiveSource12loadPlaylistEb
T _ZN7android10LiveSource12switchToNextEv
T _ZN7android10LiveSource15SortByBandwidthEPKNS0_13BandwidthItemES3_
T _ZN7android10LiveSource20determineSeekabilityEv
T _ZN7android10LiveSource6readAtElPvj
T _ZN7android10LiveSource6seekToEx
T _ZN7android10LiveSource8fetchM3UEPKcPNS_2spINS_7ABufferEEE
T _ZN7android10LiveSourceC1EPKc
T _ZN7android10LiveSourceC2EPKc
T _ZN7android10LiveSourceD0Ev
T _ZN7android10LiveSourceD1Ev
T _ZN7android10LiveSourceD2Ev
T _ZN7android10MP3Decoder4initEv
T _ZN7android10MP3Decoder4readEPPNS_11MediaBufferEPKNS_11MediaSource11ReadOptionsE
T _ZN7android10MP3Decoder4stopEv
T _ZN7android10MP3Decoder5startEPNS_8MetaDataE
T _ZN7android10MP3Decoder9getFormatEv
T _ZN7android10MP3DecoderC1ERKNS_2spINS_11MediaSourceEEE
T _ZN7android10MP3DecoderC2ERKNS_2spINS_11MediaSourceEEE
T _ZN7android10MP3DecoderD0Ev
T _ZN7android10MP3DecoderD1Ev
T _ZN7android10MP3DecoderD2Ev
T _ZN7android10SniffMPEG4ERKNS_2spINS_10DataSourceEEEPNS_7String8EPfPNS0_INS_8AMessageEEE
T _ZN7android10VPXDecoder4readEPPNS_11MediaBufferEPKNS_11MediaSource11ReadOptionsE
T _ZN7android10VPXDecoder4stopEv
T _ZN7android10VPXDecoder5startEPNS_8MetaDataE
T _ZN7android10VPXDecoder9getFormatEv
T _ZN7android10VPXDecoderC1ERKNS_2spINS_11MediaSourceEEE
T _ZN7android10VPXDecoderC2ERKNS_2spINS_11MediaSourceEEE
T _ZN7android10VPXDecoderD0Ev
T _ZN7android10VPXDecoderD1Ev
T _ZN7android10VPXDecoderD2Ev
U _ZN7android10VectorImpl13finish_vectorEv
U _ZN7android10VectorImpl13removeItemsAtEjj
U _ZN7android10VectorImpl16editItemLocationEj
U _ZN7android10VectorImpl19reservedVectorImpl1Ev
U _ZN7android10VectorImpl19reservedVectorImpl2Ev
U _ZN7android10VectorImpl19reservedVectorImpl3Ev
U _ZN7android10VectorImpl19reservedVectorImpl4Ev
U _ZN7android10VectorImpl19reservedVectorImpl5Ev
U _ZN7android10VectorImpl19reservedVectorImpl6Ev
U _ZN7android10VectorImpl19reservedVectorImpl7Ev
U _ZN7android10VectorImpl19reservedVectorImpl8Ev
U _ZN7android10VectorImpl3popEv
U _ZN7android10VectorImpl4pushEPKv
U _ZN7android10VectorImpl4pushEv
U _ZN7android10VectorImpl4sortEPFiPKvS2_E
U _ZN7android10VectorImpl5clearEv
U _ZN7android10VectorImplC2ERKS0_
U _ZN7android10VectorImplC2Ejj
U _ZN7android10VectorImplD2Ev
T _ZN7android11ARTPSession11countTracksEv
T _ZN7android11ARTPSession13MakeUDPSocketEj
T _ZN7android11ARTPSession17onMessageReceivedERKNS_2spINS_8AMessageEEE
T _ZN7android11ARTPSession5setupERKNS_2spINS_19ASessionDescriptionEEE
T _ZN7android11ARTPSession7trackAtEj
T _ZN7android11ARTPSessionC1Ev
T _ZN7android11ARTPSessionC2Ev
T _ZN7android11ARTPSessionD0Ev
T _ZN7android11ARTPSessionD1Ev
T _ZN7android11ARTPSessionD2Ev
T _ZN7android11AudioPlayer10fillBufferEPvj
T _ZN7android11AudioPlayer10reachedEOSEPi
T _ZN7android11AudioPlayer13AudioCallbackEiPv
T _ZN7android11AudioPlayer13AudioCallbackEiPvS1_
T _ZN7android11AudioPlayer13getRealTimeUsEv
T _ZN7android11AudioPlayer14getMediaTimeUsEv
T _ZN7android11AudioPlayer17AudioSinkCallbackEPNS_15MediaPlayerBase9AudioSinkEPvjS4_
T _ZN7android11AudioPlayer19getMediaTimeMappingEPxS1_
T _ZN7android11AudioPlayer5pauseEb
T _ZN7android11AudioPlayer5resetEv
T _ZN7android11AudioPlayer5startEb
T _ZN7android11AudioPlayer6resumeEv
T _ZN7android11AudioPlayer6seekToEx
T _ZN7android11AudioPlayer9isSeekingEv
T _ZN7android11AudioPlayer9setSourceERKNS_2spINS_11MediaSourceEEE
T _ZN7android11AudioPlayerC1ERKNS_2spINS_15MediaPlayerBase9AudioSinkEEEPNS_13AwesomePlayerE
T _ZN7android11AudioPlayerC2ERKNS_2spINS_15MediaPlayerBase9AudioSinkEEEPNS_13AwesomePlayerE
T _ZN7android11AudioPlayerD0Ev
T _ZN7android11AudioPlayerD1Ev
T _ZN7android11AudioPlayerD2Ev
U _ZN7android11AudioRecord11getPositionEPj
U _ZN7android11AudioRecord13getSampleRateEv
U _ZN7android11AudioRecord18getInputFramesLostEv
U _ZN7android11AudioRecord4readEPvj
U _ZN7android11AudioRecord4stopEv
U _ZN7android11AudioRecord5startEv
U _ZN7android11AudioRecordC1EijijijPFviPvS1_ES1_ii
U _ZN7android11AudioRecordD1Ev
T _ZN7android11AudioSource10rampVolumeEiiPhj
T _ZN7android11AudioSource15getMaxAmplitudeEv
T _ZN7android11AudioSource17trackMaxAmplitudeEPsi
T _ZN7android11AudioSource4readEPPNS_11MediaBufferEPKNS_11MediaSource11ReadOptionsE
T _ZN7android11AudioSource4stopEv
T _ZN7android11AudioSource5startEPNS_8MetaDataE
T _ZN7android11AudioSource9getFormatEv
T _ZN7android11AudioSourceC1Eijj
T _ZN7android11AudioSourceC2Eijj
T _ZN7android11AudioSourceD0Ev
T _ZN7android11AudioSourceD1Ev
T _ZN7android11AudioSourceD2Ev
W _ZN7android11BnInterfaceINS_12IOMXObserverEE10onAsBinderEv
T _ZN7android11G711Decoder10DecodeALawEPsPKhj
T _ZN7android11G711Decoder10DecodeMLawEPsPKhj
T _ZN7android11G711Decoder4readEPPNS_11MediaBufferEPKNS_11MediaSource11ReadOptionsE
T _ZN7android11G711Decoder4stopEv
T _ZN7android11G711Decoder5startEPNS_8MetaDataE
T _ZN7android11G711Decoder9getFormatEv
T _ZN7android11G711DecoderC1ERKNS_2spINS_11MediaSourceEEE
T _ZN7android11G711DecoderC2ERKNS_2spINS_11MediaSourceEEE
T _ZN7android11G711DecoderD0Ev
T _ZN7android11G711DecoderD1Ev
T _ZN7android11G711DecoderD2Ev
T _ZN7android11MPEG4Source4readEPPNS_11MediaBufferEPKNS_11MediaSource11ReadOptionsE
T _ZN7android11MPEG4Source4stopEv
T _ZN7android11MPEG4Source5startEPNS_8MetaDataE
T _ZN7android11MPEG4Source9getFormatEv
T _ZN7android11MPEG4SourceC1ERKNS_2spINS_8MetaDataEEERKNS1_INS_10DataSourceEEEiRKNS1_INS_11SampleTableEEE
T _ZN7android11MPEG4SourceC2ERKNS_2spINS_8MetaDataEEERKNS1_INS_10DataSourceEEEiRKNS1_INS_11SampleTableEEE
T _ZN7android11MPEG4SourceD0Ev
T _ZN7android11MPEG4SourceD1Ev
T _ZN7android11MPEG4SourceD2Ev
T _ZN7android11MPEG4Writer10reachedEOSEv
T _ZN7android11MPEG4Writer10threadFuncEv
T _ZN7android11MPEG4Writer10writeInt16Es
T _ZN7android11MPEG4Writer10writeInt32Ei
T _ZN7android11MPEG4Writer10writeInt64Ex
T _ZN7android11MPEG4Writer11addSample_lEPNS_11MediaBufferE
T _ZN7android11MPEG4Writer11bufferChunkERKNS0_5ChunkE
T _ZN7android11MPEG4Writer11startTracksEPNS_8MetaDataE
T _ZN7android11MPEG4Writer11writeChunksEv
T _ZN7android11MPEG4Writer11writeFourccEPKc
T _ZN7android11MPEG4Writer12writeCStringEPKc
T _ZN7android11MPEG4Writer13ThreadWrapperEPv
T _ZN7android11MPEG4Writer13writeOneChunkEv
T _ZN7android11MPEG4Writer14getDriftTimeUsEv
T _ZN7android11MPEG4Writer14setDriftTimeUsEx
T _ZN7android11MPEG4Writer15writeFirstChunkEPNS0_9ChunkInfoE
T _ZN7android11MPEG4Writer16stopWriterThreadEv
T _ZN7android11MPEG4Writer16useNalLengthFourEv
T _ZN7android11MPEG4Writer17startWriterThreadEv
T _ZN7android11MPEG4Writer19estimateMoovBoxSizeEi
T _ZN7android11MPEG4Writer19getStartTimestampUsEv
T _ZN7android11MPEG4Writer19setStartTimestampUsEx
T _ZN7android11MPEG4Writer19trackProgressStatusEPKNS0_5TrackExi
T _ZN7android11MPEG4Writer20exceedsFileSizeLimitEv
T _ZN7android11MPEG4Writer21setInterleaveDurationEj
T _ZN7android11MPEG4Writer22writeCompositionMatrixEi
T _ZN7android11MPEG4Writer24exceedsFileDurationLimitEv
T _ZN7android11MPEG4Writer25addLengthPrefixedSample_lEPNS_11MediaBufferE
T _ZN7android11MPEG4Writer4dumpEiRKNS_6VectorINS_8String16EEE
T _ZN7android11MPEG4Writer4lockEv
T _ZN7android11MPEG4Writer4stopEv
T _ZN7android11MPEG4Writer5Track10reachedEOSEv
T _ZN7android11MPEG4Writer5Track11bufferChunkEx
T _ZN7android11MPEG4Writer5Track11threadEntryEv
T _ZN7android11MPEG4Writer5Track12setTimeScaleEv
T _ZN7android11MPEG4Writer5Track13ThreadWrapperEPv
T _ZN7android11MPEG4Writer5Track13parseParamSetEPKhjiPj
T _ZN7android11MPEG4Writer5Track14addChunkOffsetEl
T _ZN7android11MPEG4Writer5Track15adjustMediaTimeEPx
T _ZN7android11MPEG4Writer5Track15updateDriftTimeERKNS_2spINS_8MetaDataEEE
T _ZN7android11MPEG4Writer5Track16writeTrackHeaderEib
T _ZN7android11MPEG4Writer5Track19trackProgressStatusExi
T _ZN7android11MPEG4Writer5Track20addOneStscTableEntryEjj
T _ZN7android11MPEG4Writer5Track20addOneStssTableEntryEj
T _ZN7android11MPEG4Writer5Track20addOneSttsTableEntryEjx
T _ZN7android11MPEG4Writer5Track23updateTrackSizeEstimateEv
T _ZN7android11MPEG4Writer5Track24copyAVCCodecSpecificDataEPKhj
T _ZN7android11MPEG4Writer5Track24makeAVCCodecSpecificDataEPKhj
T _ZN7android11MPEG4Writer5Track25parseAVCCodecSpecificDataEPKhj
T _ZN7android11MPEG4Writer5Track26initTrackingProgressStatusEPNS_8MetaDataE
T _ZN7android11MPEG4Writer5Track45getCodecSpecificDataFromInputFormatIfPossibleEv
T _ZN7android11MPEG4Writer5Track4stopEv
T _ZN7android11MPEG4Writer5Track5pauseEv
T _ZN7android11MPEG4Writer5Track5startEPNS_8MetaDataE
T _ZN7android11MPEG4Writer5TrackC1EPS0_RKNS_2spINS_11MediaSourceEEE
T _ZN7android11MPEG4Writer5TrackC2EPS0_RKNS_2spINS_11MediaSourceEEE
T _ZN7android11MPEG4Writer5TrackD1Ev
T _ZN7android11MPEG4Writer5TrackD2Ev
T _ZN7android11MPEG4Writer5pauseEv
T _ZN7android11MPEG4Writer5startEPNS_8MetaDataE
T _ZN7android11MPEG4Writer5writeEPKvj
T _ZN7android11MPEG4Writer6endBoxEv
T _ZN7android11MPEG4Writer6unlockEv
T _ZN7android11MPEG4Writer8beginBoxEPKc
T _ZN7android11MPEG4Writer9addSourceERKNS_2spINS_11MediaSourceEEE
T _ZN7android11MPEG4Writer9numTracksEv
T _ZN7android11MPEG4Writer9writeInt8Ea
T _ZN7android11MPEG4WriterC1EPKc
T _ZN7android11MPEG4WriterC1Ei
T _ZN7android11MPEG4WriterC2EPKc
T _ZN7android11MPEG4WriterC2Ei
T _ZN7android11MPEG4WriterD0Ev
T _ZN7android11MPEG4WriterD1Ev
T _ZN7android11MPEG4WriterD2Ev
T _ZN7android11MediaBuffer10nextBufferEv
T _ZN7android11MediaBuffer11setObserverEPNS_19MediaBufferObserverE
T _ZN7android11MediaBuffer13setNextBufferEPS0_
T _ZN7android11MediaBuffer5claimEv
T _ZN7android11MediaBuffer5cloneEv
T _ZN7android11MediaBuffer5resetEv
T _ZN7android11MediaBuffer7add_refEv
T _ZN7android11MediaBuffer7releaseEv
T _ZN7android11MediaBuffer9meta_dataEv
T _ZN7android11MediaBuffer9set_rangeEjj
T _ZN7android11MediaBufferC1EPvj
T _ZN7android11MediaBufferC1Ej
T _ZN7android11MediaBufferC2EPvj
T _ZN7android11MediaBufferC2Ej
T _ZN7android11MediaBufferD0Ev
T _ZN7android11MediaBufferD1Ev
T _ZN7android11MediaBufferD2Ev
T _ZN7android11MediaSource11ReadOptions11clearSeekToEv
T _ZN7android11MediaSource11ReadOptions12setSkipFrameEx
T _ZN7android11MediaSource11ReadOptions14clearSkipFrameEv
T _ZN7android11MediaSource11ReadOptions5resetEv
T _ZN7android11MediaSource11ReadOptions9setLateByEx
T _ZN7android11MediaSource11ReadOptions9setSeekToExNS1_8SeekModeE
T _ZN7android11MediaSource11ReadOptionsC1Ev
T _ZN7android11MediaSource11ReadOptionsC2Ev
T _ZN7android11MediaSourceC1Ev
T _ZN7android11MediaSourceC2Ev
T _ZN7android11MediaSourceD0Ev
T _ZN7android11MediaSourceD1Ev
T _ZN7android11MediaSourceD2Ev
T _ZN7android11QueryCodecsERKNS_2spINS_4IOMXEEEPKcbPNS_6VectorINS_17CodecCapabilitiesEEE
T _ZN7android11SampleTable15getSampleSize_lEjPj
T _ZN7android11SampleTable16findSampleAtTimeEjPjj
T _ZN7android11SampleTable16getMaxSampleSizeEPj
R _ZN7android11SampleTable17kSampleSizeType32E
T _ZN7android11SampleTable18findSyncSampleNearEjPjj
R _ZN7android11SampleTable18kChunkOffsetType32E
R _ZN7android11SampleTable18kChunkOffsetType64E
T _ZN7android11SampleTable19findThumbnailSampleEPj
T _ZN7android11SampleTable19setSampleSizeParamsEjlj
T _ZN7android11SampleTable19setSyncSampleParamsElj
T _ZN7android11SampleTable20getMetaDataForSampleEjPlPjS2_Pb
T _ZN7android11SampleTable20setChunkOffsetParamsEjlj
T _ZN7android11SampleTable21setTimeToSampleParamsElj
R _ZN7android11SampleTable22kSampleSizeTypeCompactE
T _ZN7android11SampleTable22setSampleToChunkParamsElj
T _ZN7android11SampleTableC1ERKNS_2spINS_10DataSourceEEE
T _ZN7android11SampleTableC2ERKNS_2spINS_10DataSourceEEE
T _ZN7android11SampleTableD0Ev
T _ZN7android11SampleTableD1Ev
T _ZN7android11SampleTableD2Ev
T _ZN7android12AMRExtractor11countTracksEv
T _ZN7android12AMRExtractor11getMetaDataEv
T _ZN7android12AMRExtractor16getTrackMetaDataEjj
T _ZN7android12AMRExtractor8getTrackEj
T _ZN7android12AMRExtractorC1ERKNS_2spINS_10DataSourceEEE
T _ZN7android12AMRExtractorC2ERKNS_2spINS_10DataSourceEEE
T _ZN7android12AMRExtractorD0Ev
T _ZN7android12AMRExtractorD1Ev
T _ZN7android12AMRExtractorD2Ev
T _ZN7android12AMRNBDecoder4readEPPNS_11MediaBufferEPKNS_11MediaSource11ReadOptionsE
T _ZN7android12AMRNBDecoder4stopEv
T _ZN7android12AMRNBDecoder5startEPNS_8MetaDataE
T _ZN7android12AMRNBDecoder9getFormatEv
T _ZN7android12AMRNBDecoderC1ERKNS_2spINS_11MediaSourceEEE
T _ZN7android12AMRNBDecoderC2ERKNS_2spINS_11MediaSourceEEE
T _ZN7android12AMRNBDecoderD0Ev
T _ZN7android12AMRNBDecoderD1Ev
T _ZN7android12AMRNBDecoderD2Ev
T _ZN7android12AMRNBEncoder4readEPPNS_11MediaBufferEPKNS_11MediaSource11ReadOptionsE
T _ZN7android12AMRNBEncoder4stopEv
T _ZN7android12AMRNBEncoder5startEPNS_8MetaDataE
T _ZN7android12AMRNBEncoder9getFormatEv
T _ZN7android12AMRNBEncoderC1ERKNS_2spINS_11MediaSourceEEERKNS1_INS_8MetaDataEEE
T _ZN7android12AMRNBEncoderC2ERKNS_2spINS_11MediaSourceEEERKNS1_INS_8MetaDataEEE
T _ZN7android12AMRNBEncoderD0Ev
T _ZN7android12AMRNBEncoderD1Ev
T _ZN7android12AMRNBEncoderD2Ev
T _ZN7android12AMRWBDecoder4readEPPNS_11MediaBufferEPKNS_11MediaSource11ReadOptionsE
T _ZN7android12AMRWBDecoder4stopEv
T _ZN7android12AMRWBDecoder5startEPNS_8MetaDataE
T _ZN7android12AMRWBDecoder9getFormatEv
T _ZN7android12AMRWBDecoderC1ERKNS_2spINS_11MediaSourceEEE
T _ZN7android12AMRWBDecoderC2ERKNS_2spINS_11MediaSourceEEE
T _ZN7android12AMRWBDecoderD0Ev
T _ZN7android12AMRWBDecoderD1Ev
T _ZN7android12AMRWBDecoderD2Ev
T _ZN7android12AMRWBEncoder4readEPPNS_11MediaBufferEPKNS_11MediaSource11ReadOptionsE
T _ZN7android12AMRWBEncoder4stopEv
T _ZN7android12AMRWBEncoder5startEPNS_8MetaDataE
T _ZN7android12AMRWBEncoder9getFormatEv
T _ZN7android12AMRWBEncoder9initCheckEv
T _ZN7android12AMRWBEncoderC1ERKNS_2spINS_11MediaSourceEEERKNS1_INS_8MetaDataEEE
T _ZN7android12AMRWBEncoderC2ERKNS_2spINS_11MediaSourceEEERKNS1_INS_8MetaDataEEE
T _ZN7android12AMRWBEncoderD0Ev
T _ZN7android12AMRWBEncoderD1Ev
T _ZN7android12AMRWBEncoderD2Ev
T _ZN7android12CameraSource16CreateFromCameraERKNS_2spINS_6CameraEEE
T _ZN7android12CameraSource19releaseQueuedFramesEv
T _ZN7android12CameraSource20signalBufferReturnedEPNS_11MediaBufferE
T _ZN7android12CameraSource21dataCallbackTimestampExiRKNS_2spINS_7IMemoryEEE
T _ZN7android12CameraSource24releaseOneRecordingFrameERKNS_2spINS_7IMemoryEEE
T _ZN7android12CameraSource4readEPPNS_11MediaBufferEPKNS_11MediaSource11ReadOptionsE
T _ZN7android12CameraSource4stopEv
T _ZN7android12CameraSource5startEPNS_8MetaDataE
T _ZN7android12CameraSource6CreateEv
T _ZN7android12CameraSource9getFormatEv
T _ZN7android12CameraSourceC1ERKNS_2spINS_6CameraEEE
T _ZN7android12CameraSourceC2ERKNS_2spINS_6CameraEEE
T _ZN7android12CameraSourceD0Ev
T _ZN7android12CameraSourceD1Ev
T _ZN7android12CameraSourceD2Ev
U _ZN7android12IOMXObserver10descriptorE
U _ZN7android12IOMXObserverC2Ev
U _ZN7android12IOMXObserverD0Ev
U _ZN7android12IOMXObserverD1Ev
U _ZN7android12IOMXObserverD2Ev
T _ZN7android12MP3Extractor11countTracksEv
T _ZN7android12MP3Extractor11getMetaDataEv
T _ZN7android12MP3Extractor16getTrackMetaDataEjj
T _ZN7android12MP3Extractor8getTrackEj
T _ZN7android12MP3ExtractorC1ERKNS_2spINS_10DataSourceEEERKNS1_INS_8AMessageEEE
T _ZN7android12MP3ExtractorC2ERKNS_2spINS_10DataSourceEEERKNS1_INS_8AMessageEEE
U _ZN7android12MediaScanner16processDirectoryEPKcS2_RNS_18MediaScannerClientEPFbPvES5_
U _ZN7android12MediaScannerC2Ev
U _ZN7android12MediaScannerD2Ev
U _ZN7android12MemoryDealerC1EjPKc
T _ZN7android12OggExtractor11countTracksEv
T _ZN7android12OggExtractor11getMetaDataEv
T _ZN7android12OggExtractor16getTrackMetaDataEjj
T _ZN7android12OggExtractor8getTrackEj
T _ZN7android12OggExtractorC1ERKNS_2spINS_10DataSourceEEE
T _ZN7android12OggExtractorC2ERKNS_2spINS_10DataSourceEEE
T _ZN7android12OggExtractorD0Ev
T _ZN7android12OggExtractorD1Ev
T _ZN7android12OggExtractorD2Ev
T _ZN7android12SniffMPEG2TSERKNS_2spINS_10DataSourceEEEPNS_7String8EPfPNS0_INS_8AMessageEEE
U _ZN7android12StringPrintfEPKcz
T _ZN7android12WAVExtractor11countTracksEv
T _ZN7android12WAVExtractor11getMetaDataEv
T _ZN7android12WAVExtractor16getTrackMetaDataEjj
T _ZN7android12WAVExtractor4initEv
T _ZN7android12WAVExtractor8getTrackEj
T _ZN7android12WAVExtractorC1ERKNS_2spINS_10DataSourceEEE
T _ZN7android12WAVExtractorC2ERKNS_2spINS_10DataSourceEEE
T _ZN7android12WAVExtractorD0Ev
T _ZN7android12WAVExtractorD1Ev
T _ZN7android12WAVExtractorD2Ev
W _ZN7android12compare_typeINS_16key_value_pair_tINS_6stringES2_EEEEiRKT_S6_
W _ZN7android12compare_typeINS_16key_value_pair_tINS_7AStringES2_EEEEiRKT_S6_
W _ZN7android12compare_typeINS_16key_value_pair_tINS_7String8ES2_EEEEiRKT_S6_
U _ZN7android12decodeBase64ERKNS_7AStringE
U _ZN7android12encodeBase64EPKvjPNS_7AStringE
T _ZN7android13AAMRAssembler10packetLostEv
T _ZN7android13AAMRAssembler12assembleMoreERKNS_2spINS_10ARTPSourceEEE
T _ZN7android13AAMRAssembler13onByeReceivedEv
T _ZN7android13AAMRAssembler9addPacketERKNS_2spINS_10ARTPSourceEEE
T _ZN7android13AAMRAssemblerC1ERKNS_2spINS_8AMessageEEEbRKNS_7AStringE
T _ZN7android13AAMRAssemblerC2ERKNS_2spINS_8AMessageEEEbRKNS_7AStringE
T _ZN7android13AAMRAssemblerD0Ev
T _ZN7android13AAMRAssemblerD1Ev
T _ZN7android13AAMRAssemblerD2Ev
T _ZN7android13AAVCAssembler10addNALUnitERKNS_2spINS_10ARTPSourceEEE
T _ZN7android13AAVCAssembler10packetLostEv
T _ZN7android13AAVCAssembler12assembleMoreERKNS_2spINS_10ARTPSourceEEE
T _ZN7android13AAVCAssembler13onByeReceivedEv
T _ZN7android13AAVCAssembler16addSingleNALUnitERKNS_2spINS_7ABufferEEE
T _ZN7android13AAVCAssembler16submitAccessUnitEv
T _ZN7android13AAVCAssembler20addFragmentedNALUnitEPNS_4ListINS_2spINS_7ABufferEEEEE
T _ZN7android13AAVCAssembler30addSingleTimeAggregationPacketERKNS_2spINS_7ABufferEEE
T _ZN7android13AAVCAssemblerC1ERKNS_2spINS_8AMessageEEE
T _ZN7android13AAVCAssemblerC2ERKNS_2spINS_8AMessageEEE
T _ZN7android13AAVCAssemblerD0Ev
T _ZN7android13AAVCAssemblerD1Ev
T _ZN7android13AAVCAssemblerD2Ev
T _ZN7android13APacketSource10flushQueueEv
T _ZN7android13APacketSource15queueAccessUnitERKNS_2spINS_7ABufferEEE
T _ZN7android13APacketSource18getQueueDurationUsEPb
T _ZN7android13APacketSource19getNormalPlayTimeUsEv
T _ZN7android13APacketSource22updateNormalPlayTime_lERKNS_2spINS_7ABufferEEE
T _ZN7android13APacketSource24setNormalPlayTimeMappingEjx
T _ZN7android13APacketSource4readEPPNS_11MediaBufferEPKNS_11MediaSource11ReadOptionsE
T _ZN7android13APacketSource4stopEv
T _ZN7android13APacketSource5startEPNS_8MetaDataE
T _ZN7android13APacketSource9getFormatEv
T _ZN7android13APacketSource9signalEOSEi
T _ZN7android13APacketSourceC1ERKNS_2spINS_19ASessionDescriptionEEEj
T _ZN7android13APacketSourceC2ERKNS_2spINS_19ASessionDescriptionEEEj
T _ZN7android13APacketSourceD0Ev
T _ZN7android13APacketSourceD1Ev
T _ZN7android13APacketSourceD2Ev
T _ZN7android13ARTPAssembler16onPacketReceivedERKNS_2spINS_10ARTPSourceEEE
T _ZN7android13ARTPAssembler9CopyTimesERKNS_2spINS_7ABufferEEES5_
T _ZN7android13ARTPAssemblerC1Ev
T _ZN7android13ARTPAssemblerC2Ev
T _ZN7android13AwesomePlayer10getBitrateEPx
T _ZN7android13AwesomePlayer10setLoopingEb
T _ZN7android13AwesomePlayer11getDurationEPx
T _ZN7android13AwesomePlayer11getPositionEPx
T _ZN7android13AwesomePlayer11setISurfaceERKNS_2spINS_8ISurfaceEEE
T _ZN7android13AwesomePlayer11setListenerERKNS_2wpINS_15MediaPlayerBaseEEE
T _ZN7android13AwesomePlayer12abortPrepareEi
T _ZN7android13AwesomePlayer12onStreamDoneEv
T _ZN7android13AwesomePlayer12onVideoEventEv
T _ZN7android13AwesomePlayer12postAudioEOSEv
T _ZN7android13AwesomePlayer12prepareAsyncEv
T _ZN7android13AwesomePlayer12setAudioSinkERKNS_2spINS_15MediaPlayerBase9AudioSinkEEE
T _ZN7android13AwesomePlayer13setDataSourceEPKcPKNS_11KeyedVectorINS_7String8ES4_EE
T _ZN7android13AwesomePlayer13setDataSourceEixx
T _ZN7android13AwesomePlayer14initRenderer_lEv
T _ZN7android13AwesomePlayer14onRTSPSeekDoneEv
T _ZN7android13AwesomePlayer14prepareAsync_lEv
T _ZN7android13AwesomePlayer14setAudioSourceENS_2spINS_11MediaSourceEEE
T _ZN7android13AwesomePlayer14setVideoSourceENS_2spINS_11MediaSourceEEE
T _ZN7android13AwesomePlayer15partial_reset_lEv
T _ZN7android13AwesomePlayer15setDataSource_lEPKcPKNS_11KeyedVectorINS_7String8ES4_EE
T _ZN7android13AwesomePlayer15setDataSource_lERKNS_2spINS_10DataSourceEEE
T _ZN7android13AwesomePlayer15setDataSource_lERKNS_2spINS_14MediaExtractorEEE
T _ZN7android13AwesomePlayer16initAudioDecoderEv
T _ZN7android13AwesomePlayer16initVideoDecoderEj
T _ZN7android13AwesomePlayer16notifyListener_lEiii
T _ZN7android13AwesomePlayer16postVideoEvent_lEx
T _ZN7android13AwesomePlayer17onBufferingUpdateEv
T _ZN7android13AwesomePlayer18cancelPlayerEventsEb
T _ZN7android13AwesomePlayer18onCheckAudioStatusEv
T _ZN7android13AwesomePlayer19ContinuePreparationEPv
T _ZN7android13AwesomePlayer19getCachedDuration_lEPxPb
T _ZN7android13AwesomePlayer19onPrepareAsyncEventEv
T _ZN7android13AwesomePlayer20finishAsyncPrepare_lEv
T _ZN7android13AwesomePlayer20postBufferingEvent_lEv
T _ZN7android13AwesomePlayer21OnRTSPSeekDoneWrapperEPv
T _ZN7android13AwesomePlayer21finishSeekIfNecessaryEx
T _ZN7android13AwesomePlayer21finishSetDataSource_lEv
T _ZN7android13AwesomePlayer21postAudioSeekCompleteEv
T _ZN7android13AwesomePlayer21postStreamDoneEvent_lEi
T _ZN7android13AwesomePlayer22seekAudioIfNecessary_lEv
T _ZN7android13AwesomePlayer27postCheckAudioStatusEvent_lEv
T _ZN7android13AwesomePlayer4playEv
T _ZN7android13AwesomePlayer5pauseEv
T _ZN7android13AwesomePlayer5resetEv
T _ZN7android13AwesomePlayer6play_lEv
T _ZN7android13AwesomePlayer6resumeEv
T _ZN7android13AwesomePlayer6seekToEx
T _ZN7android13AwesomePlayer7pause_lEb
T _ZN7android13AwesomePlayer7prepareEv
T _ZN7android13AwesomePlayer7reset_lEv
T _ZN7android13AwesomePlayer7suspendEv
T _ZN7android13AwesomePlayer8seekTo_lEx
T _ZN7android13AwesomePlayer9prepare_lEv
T _ZN7android13AwesomePlayerC1Ev
T _ZN7android13AwesomePlayerC2Ev
T _ZN7android13AwesomePlayerD1Ev
T _ZN7android13AwesomePlayerD2Ev
T _ZN7android13BlockIterator4seekEx
T _ZN7android13BlockIterator5resetEv
T _ZN7android13BlockIterator7advanceEv
T _ZN7android13BlockIteratorC1EPN9mkvparser7SegmentEm
T _ZN7android13BlockIteratorC2EPN9mkvparser7SegmentEm
U _ZN7android13BnOMXObserver10onTransactEjRKNS_6ParcelEPS1_j
T _ZN7android13MPEG2TSSource4readEPPNS_11MediaBufferEPKNS_11MediaSource11ReadOptionsE
T _ZN7android13MPEG2TSSource4stopEv
T _ZN7android13MPEG2TSSource5startEPNS_8MetaDataE
T _ZN7android13MPEG2TSSource9getFormatEv
T _ZN7android13MPEG2TSSourceC1ERKNS_2spINS_16MPEG2TSExtractorEEERKNS1_INS_19AnotherPacketSourceEEEb
T _ZN7android13MPEG2TSSourceC2ERKNS_2spINS_16MPEG2TSExtractorEEERKNS1_INS_19AnotherPacketSourceEEEb
T _ZN7android13MPEG2TSWriter10SourceInfo12postAVCFrameEPNS_11MediaBufferE
T _ZN7android13MPEG2TSWriter10SourceInfo14flushAACFramesEv
T _ZN7android13MPEG2TSWriter10SourceInfo15appendAACFramesEPNS_11MediaBufferE
T _ZN7android13MPEG2TSWriter10SourceInfo17onMessageReceivedERKNS_2spINS_8AMessageEEE
T _ZN7android13MPEG2TSWriter10SourceInfo24extractCodecSpecificDataEv
T _ZN7android13MPEG2TSWriter10SourceInfo26incrementContinuityCounterEv
T _ZN7android13MPEG2TSWriter10SourceInfo4stopEv
T _ZN7android13MPEG2TSWriter10SourceInfo5startERKNS_2spINS_8AMessageEEE
T _ZN7android13MPEG2TSWriter10SourceInfoC1ERKNS_2spINS_11MediaSourceEEE
T _ZN7android13MPEG2TSWriter10SourceInfoC2ERKNS_2spINS_11MediaSourceEEE
T _ZN7android13MPEG2TSWriter10SourceInfoD0Ev
T _ZN7android13MPEG2TSWriter10SourceInfoD1Ev
T _ZN7android13MPEG2TSWriter10SourceInfoD2Ev
T _ZN7android13MPEG2TSWriter10reachedEOSEv
T _ZN7android13MPEG2TSWriter15writeAccessUnitEiRKNS_2spINS_7ABufferEEE
T _ZN7android13MPEG2TSWriter15writeProgramMapEv
T _ZN7android13MPEG2TSWriter17onMessageReceivedERKNS_2spINS_8AMessageEEE
T _ZN7android13MPEG2TSWriter28writeProgramAssociationTableEv
T _ZN7android13MPEG2TSWriter4dumpEiRKNS_6VectorINS_8String16EEE
T _ZN7android13MPEG2TSWriter4initEv
T _ZN7android13MPEG2TSWriter4stopEv
T _ZN7android13MPEG2TSWriter5pauseEv
T _ZN7android13MPEG2TSWriter5startEPNS_8MetaDataE
T _ZN7android13MPEG2TSWriter7writeTSEv
T _ZN7android13MPEG2TSWriter9addSourceERKNS_2spINS_11MediaSourceEEE
T _ZN7android13MPEG2TSWriterC1EPKc
T _ZN7android13MPEG2TSWriterC1Ei
T _ZN7android13MPEG2TSWriterC2EPKc
T _ZN7android13MPEG2TSWriterC2Ei
T _ZN7android13MPEG2TSWriterD0Ev
T _ZN7android13MPEG2TSWriterD1Ev
T _ZN7android13MPEG2TSWriterD2Ev
T _ZN7android13SniffMatroskaERKNS_2spINS_10DataSourceEEEPNS_7String8EPfPNS0_INS_8AMessageEEE
T _ZN7android13VorbisDecoder12decodePacketEPNS_11MediaBufferES2_
T _ZN7android13VorbisDecoder4readEPPNS_11MediaBufferEPKNS_11MediaSource11ReadOptionsE
T _ZN7android13VorbisDecoder4stopEv
T _ZN7android13VorbisDecoder5startEPNS_8MetaDataE
T _ZN7android13VorbisDecoder9getFormatEv
T _ZN7android13VorbisDecoderC1ERKNS_2spINS_11MediaSourceEEE
T _ZN7android13VorbisDecoderC2ERKNS_2spINS_11MediaSourceEEE
T _ZN7android13VorbisDecoderD0Ev
T _ZN7android13VorbisDecoderD1Ev
T _ZN7android13VorbisDecoderD2Ev
T _ZN7android14AH263Assembler10packetLostEv
T _ZN7android14AH263Assembler12assembleMoreERKNS_2spINS_10ARTPSourceEEE
T _ZN7android14AH263Assembler13onByeReceivedEv
T _ZN7android14AH263Assembler16submitAccessUnitEv
T _ZN7android14AH263Assembler9addPacketERKNS_2spINS_10ARTPSourceEEE
T _ZN7android14AH263AssemblerC1ERKNS_2spINS_8AMessageEEE
T _ZN7android14AH263AssemblerC2ERKNS_2spINS_8AMessageEEE
T _ZN7android14AH263AssemblerD0Ev
T _ZN7android14AH263AssemblerD1Ev
T _ZN7android14AH263AssemblerD2Ev
T _ZN7android14ARTPConnection10findSourceEPNS0_10StreamInfoEj
T _ZN7android14ARTPConnection11onAddStreamERKNS_2spINS_8AMessageEEE
T _ZN7android14ARTPConnection12MakePortPairEPiS1_Pj
T _ZN7android14ARTPConnection12injectPacketEiRKNS_2spINS_7ABufferEEE
T _ZN7android14ARTPConnection12removeStreamEii
T _ZN7android14ARTPConnection13onPollStreamsEv
T _ZN7android14ARTPConnection13postPollEventEv
T _ZN7android14ARTPConnection14fakeTimestampsEv
T _ZN7android14ARTPConnection14onInjectPacketERKNS_2spINS_8AMessageEEE
T _ZN7android14ARTPConnection14onRemoveStreamERKNS_2spINS_8AMessageEEE
R _ZN7android14ARTPConnection16kSelectTimeoutUsE
T _ZN7android14ARTPConnection16onFakeTimestampsEv
T _ZN7android14ARTPConnection17onMessageReceivedERKNS_2spINS_8AMessageEEE
T _ZN7android14ARTPConnection7parseSREPNS0_10StreamInfoEPKhj
T _ZN7android14ARTPConnection7receiveEPNS0_10StreamInfoEb
T _ZN7android14ARTPConnection8parseBYEEPNS0_10StreamInfoEPKhj
T _ZN7android14ARTPConnection8parseRTPEPNS0_10StreamInfoERKNS_2spINS_7ABufferEEE
T _ZN7android14ARTPConnection9addStreamEiiRKNS_2spINS_19ASessionDescriptionEEEjRKNS1_INS_8AMessageEEEb
T _ZN7android14ARTPConnection9parseRTCPEPNS0_10StreamInfoERKNS_2spINS_7ABufferEEE
T _ZN7android14ARTPConnectionC1Ej
T _ZN7android14ARTPConnectionC2Ej
T _ZN7android14ARTPConnectionD0Ev
T _ZN7android14ARTPConnectionD1Ev
T _ZN7android14ARTPConnectionD2Ev
U _ZN7android14ColorConverter7convertEjjPKvjPvj
U _ZN7android14ColorConverterC1E20OMX_COLOR_FORMATTYPES1_
U _ZN7android14ColorConverterD1Ev
U _ZN7android14IPCThreadState13flushCommandsEv
U _ZN7android14IPCThreadState20clearCallingIdentityEv
U _ZN7android14IPCThreadState22restoreCallingIdentityEx
U _ZN7android14IPCThreadState4selfEv
T _ZN7android14M4vH263Decoder13releaseFramesEv
T _ZN7android14M4vH263Decoder14allocateFramesEii
T _ZN7android14M4vH263Decoder20signalBufferReturnedEPNS_11MediaBufferE
T _ZN7android14M4vH263Decoder4readEPPNS_11MediaBufferEPKNS_11MediaSource11ReadOptionsE
T _ZN7android14M4vH263Decoder4stopEv
T _ZN7android14M4vH263Decoder5startEPNS_8MetaDataE
T _ZN7android14M4vH263Decoder9getFormatEv
T _ZN7android14M4vH263DecoderC1ERKNS_2spINS_11MediaSourceEEE
T _ZN7android14M4vH263DecoderC2ERKNS_2spINS_11MediaSourceEEE
T _ZN7android14M4vH263DecoderD0Ev
T _ZN7android14M4vH263DecoderD1Ev
T _ZN7android14M4vH263DecoderD2Ev
T _ZN7android14M4vH263Encoder20signalBufferReturnedEPNS_11MediaBufferE
T _ZN7android14M4vH263Encoder4readEPPNS_11MediaBufferEPKNS_11MediaSource11ReadOptionsE
T _ZN7android14M4vH263Encoder4stopEv
T _ZN7android14M4vH263Encoder5startEPNS_8MetaDataE
T _ZN7android14M4vH263Encoder9getFormatEv
T _ZN7android14M4vH263Encoder9initCheckERKNS_2spINS_8MetaDataEEE
T _ZN7android14M4vH263EncoderC1ERKNS_2spINS_11MediaSourceEEERKNS1_INS_8MetaDataEEE
T _ZN7android14M4vH263EncoderC2ERKNS_2spINS_11MediaSourceEEERKNS1_INS_8MetaDataEEE
T _ZN7android14M4vH263EncoderD0Ev
T _ZN7android14M4vH263EncoderD1Ev
T _ZN7android14M4vH263EncoderD2Ev
T _ZN7android14MPEG4Extractor10parseChunkEPli
T _ZN7android14MPEG4Extractor11countTracksEv
T _ZN7android14MPEG4Extractor11getMetaDataEv
T _ZN7android14MPEG4Extractor11verifyTrackEPNS0_5TrackE
T _ZN7android14MPEG4Extractor12readMetaDataEv
T _ZN7android14MPEG4Extractor13parseMetaDataElj
T _ZN7android14MPEG4Extractor16getTrackMetaDataEjj
T _ZN7android14MPEG4Extractor16parseTrackHeaderEll
T _ZN7android14MPEG4Extractor39updateAudioTrackInfoFromESDS_MPEG4AudioEPKvj
T _ZN7android14MPEG4Extractor8getTrackEj
T _ZN7android14MPEG4ExtractorC1ERKNS_2spINS_10DataSourceEEE
T _ZN7android14MPEG4ExtractorC2ERKNS_2spINS_10DataSourceEEE
T _ZN7android14MPEG4ExtractorD0Ev
T _ZN7android14MPEG4ExtractorD1Ev
T _ZN7android14MPEG4ExtractorD2Ev
T _ZN7android14MatroskaSource18clearPendingFramesEv
T _ZN7android14MatroskaSource4readEPPNS_11MediaBufferEPKNS_11MediaSource11ReadOptionsE
T _ZN7android14MatroskaSource4stopEv
T _ZN7android14MatroskaSource5startEPNS_8MetaDataE
T _ZN7android14MatroskaSource9getFormatEv
T _ZN7android14MatroskaSource9readBlockEv
T _ZN7android14MatroskaSourceC1ERKNS_2spINS_17MatroskaExtractorEEEj
T _ZN7android14MatroskaSourceC2ERKNS_2spINS_17MatroskaExtractorEEEj
T _ZN7android14MatroskaSourceD0Ev
T _ZN7android14MatroskaSourceD1Ev
T _ZN7android14MatroskaSourceD2Ev
T _ZN7android14MediaExtractor11getMetaDataEv
T _ZN7android14MediaExtractor6CreateERKNS_2spINS_10DataSourceEEEPKc
T _ZN7android14SampleIterator14findChunkRangeEj
T _ZN7android14SampleIterator14findSampleTimeEjPj
T _ZN7android14SampleIterator14getChunkOffsetEjPl
T _ZN7android14SampleIterator19getSampleSizeDirectEjPj
T _ZN7android14SampleIterator5resetEv
T _ZN7android14SampleIterator6seekToEj
T _ZN7android14SampleIteratorC1EPNS_11SampleTableE
T _ZN7android14SampleIteratorC2EPNS_11SampleTableE
T _ZN7android14ThreadedSource12clearQueue_lEv
T _ZN7android14ThreadedSource16postDecodeMore_lEv
T _ZN7android14ThreadedSource17onMessageReceivedERKNS_2spINS_8AMessageEEE
T _ZN7android14ThreadedSource4readEPPNS_11MediaBufferEPKNS_11MediaSource11ReadOptionsE
T _ZN7android14ThreadedSource4stopEv
T _ZN7android14ThreadedSource5startEPNS_8MetaDataE
T _ZN7android14ThreadedSource9getFormatEv
T _ZN7android14ThreadedSourceC1ERKNS_2spINS_11MediaSourceEEE
T _ZN7android14ThreadedSourceC2ERKNS_2spINS_11MediaSourceEEE
T _ZN7android14ThreadedSourceD0Ev
T _ZN7android14ThreadedSourceD1Ev
T _ZN7android14ThreadedSourceD2Ev
T _ZN7android14abs_differenceEjj
T _ZN7android14getNextNALUnitEPPKhPjS2_S3_b
T _ZN7android15ARTSPConnection10disconnectERKNS_2spINS_8AMessageEEE
T _ZN7android15ARTSPConnection11receiveLineEPNS_7AStringE
T _ZN7android15ARTSPConnection11sendRequestEPKcRKNS_2spINS_8AMessageEEE
T _ZN7android15ARTSPConnection12onDisconnectERKNS_2spINS_8AMessageEEE
T _ZN7android15ARTSPConnection13onSendRequestERKNS_2spINS_8AMessageEEE
T _ZN7android15ARTSPConnection15parseAuthMethodERKNS_2spINS_13ARTSPResponseEEE
R _ZN7android15ARTSPConnection16kSelectTimeoutUsE
T _ZN7android15ARTSPConnection17addAuthenticationEPNS_7AStringE
T _ZN7android15ARTSPConnection17observeBinaryDataERKNS_2spINS_8AMessageEEE
T _ZN7android15ARTSPConnection17onMessageReceivedERKNS_2spINS_8AMessageEEE
T _ZN7android15ARTSPConnection17onReceiveResponseEv
T _ZN7android15ARTSPConnection17receiveBinaryDataEv
T _ZN7android15ARTSPConnection18receiveRTSPReponseEv
T _ZN7android15ARTSPConnection19handleServerRequestERKNS_2spINS_13ARTSPResponseEEE
T _ZN7android15ARTSPConnection20flushPendingRequestsEv
T _ZN7android15ARTSPConnection20onCompleteConnectionERKNS_2spINS_8AMessageEEE
T _ZN7android15ARTSPConnection22notifyResponseListenerERKNS_2spINS_13ARTSPResponseEEE
T _ZN7android15ARTSPConnection23ParseSingleUnsignedLongEPKcPm
T _ZN7android15ARTSPConnection23postReceiveReponseEventEv
T _ZN7android15ARTSPConnection7connectEPKcRKNS_2spINS_8AMessageEEE
T _ZN7android15ARTSPConnection7receiveEPvj
T _ZN7android15ARTSPConnection8ParseURLEPKcPNS_7AStringEPjS4_S4_S4_
T _ZN7android15ARTSPConnection9onConnectERKNS_2spINS_8AMessageEEE
T _ZN7android15ARTSPConnectionC1Ev
T _ZN7android15ARTSPConnectionC2Ev
T _ZN7android15ARTSPConnectionD0Ev
T _ZN7android15ARTSPConnectionD1Ev
T _ZN7android15ARTSPConnectionD2Ev
T _ZN7android15ARTSPController10disconnectEv
T _ZN7android15ARTSPController11countTracksEv
T _ZN7android15ARTSPController16getTrackMetaDataEjj
T _ZN7android15ARTSPController17onMessageReceivedERKNS_2spINS_8AMessageEEE
T _ZN7android15ARTSPController18getQueueDurationUsEPb
T _ZN7android15ARTSPController19getNormalPlayTimeUsEv
T _ZN7android15ARTSPController7connectEPKc
T _ZN7android15ARTSPController8getTrackEj
T _ZN7android15ARTSPController9seekAsyncExPFvPvES1_
T _ZN7android15ARTSPControllerC1ERKNS_2spINS_7ALooperEEE
T _ZN7android15ARTSPControllerC2ERKNS_2spINS_7ALooperEEE
T _ZN7android15ARTSPControllerD0Ev
T _ZN7android15ARTSPControllerD1Ev
T _ZN7android15ARTSPControllerD2Ev
T _ZN7android15MPEG4DataSource10clearCacheEv
T _ZN7android15MPEG4DataSource14setCachedRangeElj
T _ZN7android15MPEG4DataSource5flagsEv
T _ZN7android15MPEG4DataSource6readAtElPvj
T _ZN7android15MPEG4DataSource7getSizeEPl
T _ZN7android15MPEG4DataSourceC1ERKNS_2spINS_10DataSourceEEE
T _ZN7android15MPEG4DataSourceC2ERKNS_2spINS_10DataSourceEEE
T _ZN7android15MPEG4DataSourceD0Ev
T _ZN7android15MPEG4DataSourceD1Ev
T _ZN7android15MPEG4DataSourceD2Ev
T _ZN7android15NuCachedSource210cachedSizeEv
T _ZN7android15NuCachedSource212readInternalElPvj
T _ZN7android15NuCachedSource213fetchInternalEv
T _ZN7android15NuCachedSource214seekInternal_lEl
T _ZN7android15NuCachedSource217onMessageReceivedERKNS_2spINS_8AMessageEEE
T _ZN7android15NuCachedSource219approxDataRemainingEPb
T _ZN7android15NuCachedSource219clearCacheAndResumeEv
T _ZN7android15NuCachedSource221approxDataRemaining_lEPb
T _ZN7android15NuCachedSource230restartPrefetcherIfNecessary_lEb
T _ZN7android15NuCachedSource25flagsEv
T _ZN7android15NuCachedSource26onReadERKNS_2spINS_8AMessageEEE
T _ZN7android15NuCachedSource26readAtElPvj
T _ZN7android15NuCachedSource27getSizeEPl
T _ZN7android15NuCachedSource27onFetchEv
T _ZN7android15NuCachedSource27suspendEv
T _ZN7android15NuCachedSource29onSuspendEv
T _ZN7android15NuCachedSource2C1ERKNS_2spINS_10DataSourceEEE
T _ZN7android15NuCachedSource2C2ERKNS_2spINS_10DataSourceEEE
T _ZN7android15NuCachedSource2D0Ev
T _ZN7android15NuCachedSource2D1Ev
T _ZN7android15NuCachedSource2D2Ev
T _ZN7android15ShoutcastSource4readEPPNS_11MediaBufferEPKNS_11MediaSource11ReadOptionsE
T _ZN7android15ShoutcastSource4stopEv
T _ZN7android15ShoutcastSource5startEPNS_8MetaDataE
T _ZN7android15ShoutcastSource9getFormatEv
T _ZN7android15ShoutcastSourceC1EPNS_10HTTPStreamE
T _ZN7android15ShoutcastSourceC2EPNS_10HTTPStreamE
T _ZN7android15ShoutcastSourceD0Ev
T _ZN7android15ShoutcastSourceD1Ev
T _ZN7android15ShoutcastSourceD2Ev
T _ZN7android15ThrottledSource5flagsEv
T _ZN7android15ThrottledSource6readAtElPvj
T _ZN7android15ThrottledSource7getSizeEPl
T _ZN7android15ThrottledSourceC1ERKNS_2spINS_10DataSourceEEEi
T _ZN7android15ThrottledSourceC2ERKNS_2spINS_10DataSourceEEEi
T _ZN7android15TimedEventQueue11cancelEventEi
T _ZN7android15TimedEventQueue11threadEntryEv
T _ZN7android15TimedEventQueue12cancelEventsEPFbPvRKNS_2spINS0_5EventEEEES1_b
T _ZN7android15TimedEventQueue13ThreadWrapperEPv
T _ZN7android15TimedEventQueue13getRealTimeUsEv
T _ZN7android15TimedEventQueue14postTimedEventERKNS_2spINS0_5EventEEEx
T _ZN7android15TimedEventQueue15postEventToBackERKNS_2spINS0_5EventEEE
T _ZN7android15TimedEventQueue18postEventWithDelayERKNS_2spINS0_5EventEEEx
T _ZN7android15TimedEventQueue22removeEventFromQueue_lEi
T _ZN7android15TimedEventQueue4stopEb
T _ZN7android15TimedEventQueue5startEv
T _ZN7android15TimedEventQueue9postEventERKNS_2spINS0_5EventEEE
T _ZN7android15TimedEventQueueC1Ev
T _ZN7android15TimedEventQueueC2Ev
T _ZN7android15TimedEventQueueD1Ev
T _ZN7android15TimedEventQueueD2Ev
U _ZN7android16CameraParameters19PIXEL_FORMAT_RGB565E
U _ZN7android16CameraParameters20PIXEL_FORMAT_YUV422IE
U _ZN7android16CameraParameters21PIXEL_FORMAT_YUV420SPE
U _ZN7android16CameraParameters21PIXEL_FORMAT_YUV422SPE
U _ZN7android16CameraParameters22KEY_VIDEO_FRAME_FORMATE
U _ZN7android16CameraParameters9unflattenERKNS_7String8E
U _ZN7android16CameraParametersD1Ev
T _ZN7android16MPEG2TSExtractor11countTracksEv
T _ZN7android16MPEG2TSExtractor11getMetaDataEv
T _ZN7android16MPEG2TSExtractor13setLiveSourceERKNS_2spINS_10LiveSourceEEE
T _ZN7android16MPEG2TSExtractor16getTrackMetaDataEjj
T _ZN7android16MPEG2TSExtractor4initEv
T _ZN7android16MPEG2TSExtractor6seekToEx
T _ZN7android16MPEG2TSExtractor8feedMoreEv
T _ZN7android16MPEG2TSExtractor8getTrackEj
T _ZN7android16MPEG2TSExtractorC1ERKNS_2spINS_10DataSourceEEE
T _ZN7android16MPEG2TSExtractorC2ERKNS_2spINS_10DataSourceEEE
T _ZN7android16MediaBufferGroup10add_bufferEPNS_11MediaBufferE
T _ZN7android16MediaBufferGroup14acquire_bufferEPPNS_11MediaBufferE
T _ZN7android16MediaBufferGroup20signalBufferReturnedEPNS_11MediaBufferE
T _ZN7android16MediaBufferGroupC1Ev
T _ZN7android16MediaBufferGroupC2Ev
T _ZN7android16MediaBufferGroupD0Ev
T _ZN7android16MediaBufferGroupD1Ev
T _ZN7android16MediaBufferGroupD2Ev
T _ZN7android16NuHTTPDataSource10disconnectEv
T _ZN7android16NuHTTPDataSource12internalReadEPvj
T _ZN7android16NuHTTPDataSource15MakeFullHeadersEPKNS_11KeyedVectorINS_7String8ES2_EEPS2_
T _ZN7android16NuHTTPDataSource20applyTimeoutResponseEv
T _ZN7android16NuHTTPDataSource5flagsEv
T _ZN7android16NuHTTPDataSource6readAtElPvj
T _ZN7android16NuHTTPDataSource7connectEPKcPKNS_11KeyedVectorINS_7String8ES4_EEl
T _ZN7android16NuHTTPDataSource7connectEPKcRKNS_7String8El
T _ZN7android16NuHTTPDataSource7connectEPKcjS2_RKNS_7String8El
T _ZN7android16NuHTTPDataSource7getSizeEPl
T _ZN7android16NuHTTPDataSourceC1Ev
T _ZN7android16NuHTTPDataSourceC2Ev
T _ZN7android16NuHTTPDataSourceD0Ev
T _ZN7android16NuHTTPDataSourceD1Ev
T _ZN7android16NuHTTPDataSourceD2Ev
U _ZN7android16SoftwareRendererC1E20OMX_COLOR_FORMATTYPERKNS_2spINS_8ISurfaceEEEjjjji
U _ZN7android16SortedVectorImpl25reservedSortedVectorImpl1Ev
U _ZN7android16SortedVectorImpl25reservedSortedVectorImpl2Ev
U _ZN7android16SortedVectorImpl25reservedSortedVectorImpl3Ev
U _ZN7android16SortedVectorImpl25reservedSortedVectorImpl4Ev
U _ZN7android16SortedVectorImpl25reservedSortedVectorImpl5Ev
U _ZN7android16SortedVectorImpl25reservedSortedVectorImpl6Ev
U _ZN7android16SortedVectorImpl25reservedSortedVectorImpl7Ev
U _ZN7android16SortedVectorImpl25reservedSortedVectorImpl8Ev
U _ZN7android16SortedVectorImpl3addEPKv
U _ZN7android16SortedVectorImplC2Ejj
U _ZN7android16SortedVectorImplD2Ev
U _ZN7android16SortedVectorImplaSERKS0_
T _ZN7android16SystemTimeSource13getRealTimeUsEv
T _ZN7android16SystemTimeSource15GetSystemTimeUsEv
T _ZN7android16SystemTimeSourceC1Ev
T _ZN7android16SystemTimeSourceC2Ev
T _ZN7android17FindAVCDimensionsERKNS_2spINS_7ABufferEEEPiS5_
T _ZN7android17MatroskaExtractor11countTracksEv
T _ZN7android17MatroskaExtractor11getMetaDataEv
T _ZN7android17MatroskaExtractor14findThumbnailsEv
T _ZN7android17MatroskaExtractor16getTrackMetaDataEjj
T _ZN7android17MatroskaExtractor8getTrackEj
T _ZN7android17MatroskaExtractor9addTracksEv
T _ZN7android17MatroskaExtractorC1ERKNS_2spINS_10DataSourceEEE
T _ZN7android17MatroskaExtractorC2ERKNS_2spINS_10DataSourceEEE
T _ZN7android17MatroskaExtractorD0Ev
T _ZN7android17MatroskaExtractorD1Ev
T _ZN7android17MatroskaExtractorD2Ev
T _ZN7android17MyVorbisExtractor12findNextPageElPl
T _ZN7android17MyVorbisExtractor12seekToOffsetEl
T _ZN7android17MyVorbisExtractor12verifyHeaderEPNS_11MediaBufferEh
T _ZN7android17MyVorbisExtractor13approxBitrateEv
T _ZN7android17MyVorbisExtractor14readNextPacketEPPNS_11MediaBufferE
T _ZN7android17MyVorbisExtractor15extractAlbumArtEPKvj
T _ZN7android17MyVorbisExtractor17parseFileMetaDataEv
T _ZN7android17MyVorbisExtractor23findPrevGranulePositionEl
T _ZN7android17MyVorbisExtractor4initEv
T _ZN7android17MyVorbisExtractor8readPageElPNS0_4PageE
T _ZN7android17MyVorbisExtractorC1ERKNS_2spINS_10DataSourceEEE
T _ZN7android17MyVorbisExtractorC2ERKNS_2spINS_10DataSourceEEE
T _ZN7android17MyVorbisExtractorD0Ev
T _ZN7android17MyVorbisExtractorD1Ev
T _ZN7android17MyVorbisExtractorD2Ev
W _ZN7android17move_forward_typeINS_10LiveSource13BandwidthItemEEEvPT_PKS3_j
W _ZN7android17move_forward_typeINS_11ARTPSession9TrackInfoEEEvPT_PKS3_j
W _ZN7android17move_forward_typeINS_11KeyedVectorINS_7AStringES2_EEEEvPT_PKS4_j
W _ZN7android17move_forward_typeINS_16key_value_pair_tINS_6stringES2_EEEEvPT_PKS4_j
W _ZN7android17move_forward_typeINS_16key_value_pair_tINS_7AStringES2_EEEEvPT_PKS4_j
W _ZN7android17move_forward_typeINS_16key_value_pair_tINS_7String8ES2_EEEEvPT_PKS4_j
W _ZN7android17move_forward_typeINS_16key_value_pair_tIiNS_7String8EEEEEvPT_PKS4_j
W _ZN7android17move_forward_typeINS_16key_value_pair_tIjNS_8MetaData10typed_dataEEEEEvPT_PKS5_j
W _ZN7android17move_forward_typeINS_17MatroskaExtractor9TrackInfoEEEvPT_PKS3_j
W _ZN7android17move_forward_typeINS_7AStringEEEvPT_PKS2_j
W _ZN7android17move_forward_typeINS_7String8EEEvPT_PKS2_j
W _ZN7android17move_forward_typeINS_8OMXCodec10BufferInfoEEEvPT_PKS3_j
W _ZN7android17move_forward_typeINS_9M3UParser4ItemEEEvPT_PKS3_j
W _ZN7android17move_forward_typeINS_9MyHandler9TrackInfoEEEvPT_PKS3_j
U _ZN7android18MediaScannerClient12addStringTagEPKcS2_
U _ZN7android18MediaScannerClient7endFileEv
U _ZN7android18MediaScannerClient9beginFileEv
U _ZN7android18MediaScannerClient9setLocaleEPKc
T _ZN7android18addVorbisCodecInfoERKNS_2spINS_8MetaDataEEEPKvj
W _ZN7android18move_backward_typeINS_10LiveSource13BandwidthItemEEEvPT_PKS3_j
W _ZN7android18move_backward_typeINS_11ARTPSession9TrackInfoEEEvPT_PKS3_j
W _ZN7android18move_backward_typeINS_11KeyedVectorINS_7AStringES2_EEEEvPT_PKS4_j
W _ZN7android18move_backward_typeINS_16key_value_pair_tINS_6stringES2_EEEEvPT_PKS4_j
W _ZN7android18move_backward_typeINS_16key_value_pair_tINS_7AStringES2_EEEEvPT_PKS4_j
W _ZN7android18move_backward_typeINS_16key_value_pair_tINS_7String8ES2_EEEEvPT_PKS4_j
W _ZN7android18move_backward_typeINS_16key_value_pair_tIiNS_7String8EEEEEvPT_PKS4_j
W _ZN7android18move_backward_typeINS_16key_value_pair_tIjNS_8MetaData10typed_dataEEEEEvPT_PKS5_j
W _ZN7android18move_backward_typeINS_17MatroskaExtractor9TrackInfoEEEvPT_PKS3_j
W _ZN7android18move_backward_typeINS_7AStringEEEvPT_PKS2_j
W _ZN7android18move_backward_typeINS_7String8EEEvPT_PKS2_j
W _ZN7android18move_backward_typeINS_8OMXCodec10BufferInfoEEEvPT_PKS3_j
W _ZN7android18move_backward_typeINS_9M3UParser4ItemEEEvPT_PKS3_j
W _ZN7android18move_backward_typeINS_9MyHandler9TrackInfoEEEvPT_PKS3_j
T _ZN7android19ASessionDescription13parseNTPRangeEPKcPfS3_
T _ZN7android19ASessionDescription15ParseFormatDescEPKcPiS3_
T _ZN7android19ASessionDescription5parseEPKvj
T _ZN7android19ASessionDescription5setToEPKvj
T _ZN7android19ASessionDescriptionC1Ev
T _ZN7android19ASessionDescriptionC2Ev
T _ZN7android19ASessionDescriptionD0Ev
T _ZN7android19ASessionDescriptionD1Ev
T _ZN7android19ASessionDescriptionD2Ev
T _ZN7android19AnotherPacketSource15queueAccessUnitERKNS_2spINS_7ABufferEEE
T _ZN7android19AnotherPacketSource18hasBufferAvailableEPi
T _ZN7android19AnotherPacketSource18queueDiscontinuityEv
T _ZN7android19AnotherPacketSource4readEPPNS_11MediaBufferEPKNS_11MediaSource11ReadOptionsE
T _ZN7android19AnotherPacketSource4stopEv
T _ZN7android19AnotherPacketSource5clearEv
T _ZN7android19AnotherPacketSource5startEPNS_8MetaDataE
T _ZN7android19AnotherPacketSource9getFormatEv
T _ZN7android19AnotherPacketSource9signalEOSEi
T _ZN7android19AnotherPacketSourceC1ERKNS_2spINS_8MetaDataEEE
T _ZN7android19AnotherPacketSourceC2ERKNS_2spINS_8MetaDataEEE
T _ZN7android19AnotherPacketSourceD0Ev
T _ZN7android19AnotherPacketSourceD1Ev
T _ZN7android19AnotherPacketSourceD2Ev
U _ZN7android19IMediaPlayerService11asInterfaceERKNS_2spINS_7IBinderEEE
T _ZN7android20AMPEG4AudioAssembler10packetLostEv
T _ZN7android20AMPEG4AudioAssembler12assembleMoreERKNS_2spINS_10ARTPSourceEEE
T _ZN7android20AMPEG4AudioAssembler13onByeReceivedEv
T _ZN7android20AMPEG4AudioAssembler16submitAccessUnitEv
T _ZN7android20AMPEG4AudioAssembler17removeLATMFramingERKNS_2spINS_7ABufferEEE
T _ZN7android20AMPEG4AudioAssembler9addPacketERKNS_2spINS_10ARTPSourceEEE
T _ZN7android20AMPEG4AudioAssemblerC1ERKNS_2spINS_8AMessageEEERKNS_7AStringE
T _ZN7android20AMPEG4AudioAssemblerC2ERKNS_2spINS_8AMessageEEERKNS_7AStringE
T _ZN7android20AMPEG4AudioAssemblerD0Ev
T _ZN7android20AMPEG4AudioAssemblerD1Ev
T _ZN7android20AMPEG4AudioAssemblerD2Ev
T _ZN7android20AwesomeLocalRenderer4initEbPKc20OMX_COLOR_FORMATTYPERKNS_2spINS_8ISurfaceEEEjjjji
T _ZN7android20CameraSourceListener17postDataTimestampExiRKNS_2spINS_7IMemoryEEE
T _ZN7android20CameraSourceListener6notifyEiii
T _ZN7android20CameraSourceListener8postDataEiRKNS_2spINS_7IMemoryEEE
T _ZN7android20CameraSourceListenerC1ERKNS_2spINS_12CameraSourceEEE
T _ZN7android20CameraSourceListenerC2ERKNS_2spINS_12CameraSourceEEE
T _ZN7android20CameraSourceListenerD0Ev
T _ZN7android20CameraSourceListenerD1Ev
T _ZN7android20CameraSourceListenerD2Ev
T _ZN7android21ElementaryStreamQueue10appendDataEPKvjx
T _ZN7android21ElementaryStreamQueue17dequeueAccessUnitEv
T _ZN7android21ElementaryStreamQueue20dequeueAccessUnitAACEv
T _ZN7android21ElementaryStreamQueue21dequeueAccessUnitH264Ev
T _ZN7android21ElementaryStreamQueue24MakeAACCodecSpecificDataEjjj
T _ZN7android21ElementaryStreamQueue5clearEv
T _ZN7android21ElementaryStreamQueue9getFormatEv
T _ZN7android21ElementaryStreamQueueC1ENS0_4ModeE
T _ZN7android21ElementaryStreamQueueC2ENS0_4ModeE
U _ZN7android21defaultServiceManagerEv
U _ZN7android22MediaMetadataRetriever13setDataSourceEPKc
U _ZN7android22MediaMetadataRetriever13setDataSourceEixx
U _ZN7android22MediaMetadataRetriever15extractAlbumArtEv
U _ZN7android22MediaMetadataRetriever15extractMetadataEi
U _ZN7android22MediaMetadataRetrieverC1Ev
T _ZN7android23StagefrightMediaScanner11processFileEPKcS2_RNS_18MediaScannerClientE
T _ZN7android23StagefrightMediaScanner15extractAlbumArtEi
T _ZN7android23StagefrightMediaScannerC1Ev
T _ZN7android23StagefrightMediaScannerC2Ev
T _ZN7android23StagefrightMediaScannerD0Ev
T _ZN7android23StagefrightMediaScannerD1Ev
T _ZN7android23StagefrightMediaScannerD2Ev
D _ZN7android24MEDIA_MIMETYPE_AUDIO_AACE
D _ZN7android24MEDIA_MIMETYPE_AUDIO_RAWE
D _ZN7android24MEDIA_MIMETYPE_VIDEO_AVCE
D _ZN7android24MEDIA_MIMETYPE_VIDEO_RAWE
D _ZN7android24MEDIA_MIMETYPE_VIDEO_VPXE
T _ZN7android24MakeAACCodecSpecificDataEPKc
T _ZN7android24MakeAVCCodecSpecificDataERKNS_2spINS_7ABufferEEE
T _ZN7android25AMPEG4ElementaryAssembler10packetLostEv
T _ZN7android25AMPEG4ElementaryAssembler12assembleMoreERKNS_2spINS_10ARTPSourceEEE
T _ZN7android25AMPEG4ElementaryAssembler13onByeReceivedEv
T _ZN7android25AMPEG4ElementaryAssembler16submitAccessUnitEv
T _ZN7android25AMPEG4ElementaryAssembler9addPacketERKNS_2spINS_10ARTPSourceEEE
T _ZN7android25AMPEG4ElementaryAssemblerC1ERKNS_2spINS_8AMessageEEERKNS_7AStringES8_
T _ZN7android25AMPEG4ElementaryAssemblerC2ERKNS_2spINS_8AMessageEEERKNS_7AStringES8_
T _ZN7android25AMPEG4ElementaryAssemblerD0Ev
T _ZN7android25AMPEG4ElementaryAssemblerD1Ev
T _ZN7android25AMPEG4ElementaryAssemblerD2Ev
D _ZN7android25MEDIA_MIMETYPE_AUDIO_MPEGE
D _ZN7android25MEDIA_MIMETYPE_IMAGE_JPEGE
D _ZN7android25MEDIA_MIMETYPE_VIDEO_H263E
T _ZN7android25MakeAACCodecSpecificData2EPKc
D _ZN7android26MEDIA_MIMETYPE_AUDIO_QCELPE
D _ZN7android26MEDIA_MIMETYPE_VIDEO_MPEG4E
D _ZN7android27MEDIA_MIMETYPE_AUDIO_AMR_NBE
D _ZN7android27MEDIA_MIMETYPE_AUDIO_AMR_WBE
D _ZN7android27MEDIA_MIMETYPE_AUDIO_VORBISE
D _ZN7android28MEDIA_MIMETYPE_CONTAINER_OGGE
D _ZN7android28MEDIA_MIMETYPE_CONTAINER_WAVE
T _ZN7android28StagefrightMetadataRetriever13parseMetaDataEv
T _ZN7android28StagefrightMetadataRetriever13setDataSourceEPKc
T _ZN7android28StagefrightMetadataRetriever13setDataSourceEixx
T _ZN7android28StagefrightMetadataRetriever14getFrameAtTimeExi
T _ZN7android28StagefrightMetadataRetriever15extractAlbumArtEv
T _ZN7android28StagefrightMetadataRetriever15extractMetadataEi
T _ZN7android28StagefrightMetadataRetrieverC1Ev
T _ZN7android28StagefrightMetadataRetrieverC2Ev
T _ZN7android28StagefrightMetadataRetrieverD0Ev
T _ZN7android28StagefrightMetadataRetrieverD1Ev
T _ZN7android28StagefrightMetadataRetrieverD2Ev
W _ZN7android2spINS_10ARTPSourceEED1Ev
W _ZN7android2spINS_10ARTPSourceEEaSEPS1_
W _ZN7android2spINS_10ARTPSourceEEaSERKS2_
W _ZN7android2spINS_10DataSourceEEC1ERKS2_
W _ZN7android2spINS_10DataSourceEED1Ev
W _ZN7android2spINS_10DataSourceEEaSERKS2_
W _ZN7android2spINS_10DataSourceEEaSINS_10FileSourceEEERS2_PT_
W _ZN7android2spINS_10DataSourceEEaSINS_15MPEG4DataSourceEEERS2_RKNS0_IT_EE
W _ZN7android2spINS_10DataSourceEEaSINS_15NuCachedSource2EEERS2_PT_
W _ZN7android2spINS_10DataSourceEEaSINS_15NuCachedSource2EEERS2_RKNS0_IT_EE
W _ZN7android2spINS_10DataSourceEEaSINS_16NuHTTPDataSourceEEERS2_RKNS0_IT_EE
W _ZN7android2spINS_10LiveSourceEEaSERKS2_
W _ZN7android2spINS_11ARTPSessionEEaSEPS1_
W _ZN7android2spINS_11MediaSourceEE5clearEv
W _ZN7android2spINS_11MediaSourceEED1Ev
W _ZN7android2spINS_11MediaSourceEEaSERKS2_
W _ZN7android2spINS_11SampleTableEEaSEPS1_
W _ZN7android2spINS_12MemoryDealerEEaSEPS1_
W _ZN7android2spINS_13APacketSourceEED1Ev
W _ZN7android2spINS_13APacketSourceEEaSERKS2_
W _ZN7android2spINS_13ARTPAssemblerEEaSINS_13AAMRAssemblerEEERS2_PT_
W _ZN7android2spINS_13ARTPAssemblerEEaSINS_13AAVCAssemblerEEERS2_PT_
W _ZN7android2spINS_13ARTPAssemblerEEaSINS_14AH263AssemblerEEERS2_PT_
W _ZN7android2spINS_13ARTPAssemblerEEaSINS_20AMPEG4AudioAssemblerEEERS2_PT_
W _ZN7android2spINS_13ARTPAssemblerEEaSINS_25AMPEG4ElementaryAssemblerEEERS2_PT_
W _ZN7android2spINS_14ARTPConnectionEEaSEPS1_
W _ZN7android2spINS_14MediaExtractorEEaSERKS2_
W _ZN7android2spINS_15ARTSPControllerEEaSEPS1_
W _ZN7android2spINS_15AwesomeRendererEEaSINS_20AwesomeLocalRendererEEERS2_PT_
W _ZN7android2spINS_15AwesomeRendererEEaSINS_21AwesomeRemoteRendererEEERS2_PT_
W _ZN7android2spINS_15MediaPlayerBase9AudioSinkEEaSERKS3_
W _ZN7android2spINS_15NuCachedSource2EEaSEPS1_
W _ZN7android2spINS_15TimedEventQueue5EventEED1Ev
W _ZN7android2spINS_15TimedEventQueue5EventEEaSERKS3_
W _ZN7android2spINS_15TimedEventQueue5EventEEaSINS_12AwesomeEventEEERS3_PT_
W _ZN7android2spINS_16NuHTTPDataSourceEEaSEPS1_
W _ZN7android2spINS_17AHandlerReflectorINS_13MPEG2TSWriterEEEEaSEPS3_
W _ZN7android2spINS_17AHandlerReflectorINS_15ARTSPControllerEEEEaSEPS3_
W _ZN7android2spINS_19ASessionDescriptionEEaSEPS1_
W _ZN7android2spINS_19ASessionDescriptionEEaSERKS2_
W _ZN7android2spINS_19AnotherPacketSourceEEaSEPS1_
W _ZN7android2spINS_20IMediaRecorderClientEEaSERKS2_
W _ZN7android2spINS_4IOMXEED1Ev
W _ZN7android2spINS_4IOMXEEaSERKS2_
W _ZN7android2spINS_7ABufferEEC1EPS1_
W _ZN7android2spINS_7ABufferEEC1ERKS2_
W _ZN7android2spINS_7ABufferEED1Ev
W _ZN7android2spINS_7ABufferEEaSEPS1_
W _ZN7android2spINS_7ABufferEEaSERKS2_
W _ZN7android2spINS_7ALooperEEaSEPS1_
W _ZN7android2spINS_7IMemoryEEaSERKS2_
W _ZN7android2spINS_7RefBaseEED1Ev
W _ZN7android2spINS_8AMessageEEC1EPS1_
W _ZN7android2spINS_8AMessageEED1Ev
W _ZN7android2spINS_8AMessageEEaSEPS1_
W _ZN7android2spINS_8AMessageEEaSERKS2_
W _ZN7android2spINS_8ISurfaceEEaSERKS2_
W _ZN7android2spINS_8MetaDataEEC1EPS1_
W _ZN7android2spINS_8MetaDataEED1Ev
W _ZN7android2spINS_8MetaDataEEaSEPS1_
W _ZN7android2spINS_8MetaDataEEaSERKS2_
W _ZN7android2spINS_9M3UParserEEaSEPS1_
W _ZN7android2spINS_9MyHandlerEEaSEPS1_
W _ZN7android2wpINS_15MediaPlayerBaseEEaSERKS2_
W _ZN7android2wpINS_8OMXCodecEEaSERKNS_2spIS1_EE
D _ZN7android30MEDIA_MIMETYPE_AUDIO_G711_ALAWE
D _ZN7android30MEDIA_MIMETYPE_AUDIO_G711_MLAWE
D _ZN7android30MEDIA_MIMETYPE_CONTAINER_MPEG4E
T _ZN7android31MakeMPEG4VideoCodecSpecificDataEPKcPiS2_
D _ZN7android32MEDIA_MIMETYPE_CONTAINER_MPEG2TSE
D _ZN7android33MEDIA_MIMETYPE_CONTAINER_MATROSKAE
T _ZN7android3ID320ParseSyncsafeIntegerEPKhPj
T _ZN7android3ID323removeUnsynchronizationEv
T _ZN7android3ID327removeUnsynchronizationV2_4Ev
T _ZN7android3ID37parseV1ERKNS_2spINS_10DataSourceEEE
T _ZN7android3ID37parseV2ERKNS_2spINS_10DataSourceEEE
T _ZN7android3ID38Iterator4nextEv
T _ZN7android3ID38Iterator9findFrameEv
T _ZN7android3ID38IteratorC1ERKS0_PKc
T _ZN7android3ID38IteratorC2ERKS0_PKc
T _ZN7android3ID38IteratorD1Ev
T _ZN7android3ID38IteratorD2Ev
T _ZN7android3ID3C1ERKNS_2spINS_10DataSourceEEE
T _ZN7android3ID3C2ERKNS_2spINS_10DataSourceEEE
T _ZN7android3ID3D1Ev
T _ZN7android3ID3D2Ev
T _ZN7android4ESDS17parseESDescriptorEjj
T _ZN7android4ESDS28parseDecoderConfigDescriptorEjj
T _ZN7android4ESDS5parseEv
T _ZN7android4ESDSC1EPKvj
T _ZN7android4ESDSC2EPKvj
T _ZN7android4ESDSD1Ev
T _ZN7android4ESDSD2Ev
T _ZN7android5IsIDRERKNS_2spINS_7ABufferEEE
U _ZN7android6Camera11setListenerERKNS_2spINS_14CameraListenerEEE
U _ZN7android6Camera13stopRecordingEv
U _ZN7android6Camera14startRecordingEv
U _ZN7android6Camera21releaseRecordingFrameERKNS_2spINS_7IMemoryEEE
U _ZN7android6Camera7connectEi
T _ZN7android6U16_ATEPKh
T _ZN7android6U32_ATEPKh
T _ZN7android6U64_ATEPKh
T _ZN7android6hton64Ey
T _ZN7android6ntoh64Ey
D _ZN7android6string4nposE
T _ZN7android6string5clearEv
T _ZN7android6string5eraseEjj
T _ZN7android6stringC1EPKc
T _ZN7android6stringC1EPKcj
T _ZN7android6stringC1ERKS0_jj
T _ZN7android6stringC1Ev
T _ZN7android6stringC2EPKc
T _ZN7android6stringC2EPKcj
T _ZN7android6stringC2ERKS0_jj
T _ZN7android6stringC2Ev
T _ZN7android6stringpLEc
U _ZN7android7ABuffer4metaEv
U _ZN7android7ABuffer8setRangeEjj
U _ZN7android7ABufferC1Ej
U _ZN7android7ALooper15registerHandlerERKNS_2spINS_8AHandlerEEE
U _ZN7android7ALooper17unregisterHandlerEi
U _ZN7android7ALooper4stopEv
U _ZN7android7ALooper5startEbbi
U _ZN7android7ALooper7setNameEPKc
U _ZN7android7ALooper8GetNowUsEv
U _ZN7android7ALooperC1Ev
U _ZN7android7AString4trimEv
U _ZN7android7AString5clearEv
U _ZN7android7AString5eraseEjj
U _ZN7android7AString5setToEPKc
U _ZN7android7AString5setToEPKcj
U _ZN7android7AString5setToERKS0_jj
U _ZN7android7AString6appendEPKc
U _ZN7android7AString6appendEPKcj
U _ZN7android7AString6appendERKS0_
U _ZN7android7AString6appendEi
U _ZN7android7AString6appendEj
U _ZN7android7AString6appendEl
U _ZN7android7AString6appendEm
U _ZN7android7AString6appendEx
U _ZN7android7AString6insertERKS0_j
U _ZN7android7AString7tolowerEv
U _ZN7android7AStringC1EPKc
U _ZN7android7AStringC1EPKcj
U _ZN7android7AStringC1ERKS0_
U _ZN7android7AStringC1ERKS0_jj
U _ZN7android7AStringC1Ev
U _ZN7android7AStringD1Ev
U _ZN7android7AStringaSERKS0_
U _ZN7android7BBinder10onTransactEjRKNS_6ParcelEPS1_j
U _ZN7android7BBinder10pingBinderEv
U _ZN7android7BBinder11linkToDeathERKNS_2spINS_7IBinder14DeathRecipientEEEPvj
U _ZN7android7BBinder11localBinderEv
U _ZN7android7BBinder12attachObjectEPKvPvS3_PFvS2_S3_S3_E
U _ZN7android7BBinder12detachObjectEPKv
U _ZN7android7BBinder13unlinkToDeathERKNS_2wpINS_7IBinder14DeathRecipientEEEPvjPS4_
U _ZN7android7BBinder4dumpEiRKNS_6VectorINS_8String16EEE
U _ZN7android7BBinder8transactEjRKNS_6ParcelEPS1_j
U _ZN7android7BBinderC2Ev
U _ZN7android7BBinderD0Ev
U _ZN7android7BBinderD1Ev
U _ZN7android7BBinderD2Ev
U _ZN7android7IBinder11localBinderEv
U _ZN7android7IBinder12remoteBinderEv
U _ZN7android7IBinder19queryLocalInterfaceERKNS_8String16E
U _ZN7android7IBinderD0Ev
U _ZN7android7IBinderD1Ev
U _ZN7android7RefBase10onFirstRefEv
U _ZN7android7RefBase12weakref_type16attemptIncStrongEPKv
U _ZN7android7RefBase12weakref_type7decWeakEPKv
U _ZN7android7RefBase12weakref_type7incWeakEPKv
U _ZN7android7RefBase13onLastWeakRefEPKv
U _ZN7android7RefBase15onLastStrongRefEPKv
U _ZN7android7RefBase20onIncStrongAttemptedEjPKv
U _ZN7android7RefBaseC2Ev
U _ZN7android7RefBaseD2Ev
U _ZN7android7String812appendFormatEPKcz
U _ZN7android7String85setToEPKc
U _ZN7android7String85setToEPKcj
U _ZN7android7String85setToEPKtj
U _ZN7android7String85setToERKS0_
U _ZN7android7String86appendEPKc
U _ZN7android7String86appendEPKcj
U _ZN7android7String86appendERKS0_
U _ZN7android7String8C1EPKc
U _ZN7android7String8C1EPKcj
U _ZN7android7String8C1ERKS0_
U _ZN7android7String8C1Ev
U _ZN7android7String8D1Ev
T _ZN7android7parseUEEPNS_10ABitReaderE
U _ZN7android8AHandler6looperEv
U _ZN7android8AMessage10setMessageEPKcRKNS_2spIS0_EE
U _ZN7android8AMessage10setPointerEPKcPv
U _ZN7android8AMessage4postEx
U _ZN7android8AMessage7setSizeEPKcj
U _ZN7android8AMessage8setInt32EPKci
U _ZN7android8AMessage8setInt64EPKcx
U _ZN7android8AMessage9setObjectEPKcRKNS_2spINS_7RefBaseEEE
U _ZN7android8AMessage9setStringEPKcS2_l
U _ZN7android8AMessageC1Eji
T _ZN7android8MetaData10setCStringEjPKc
T _ZN7android8MetaData10setPointerEjPv
T _ZN7android8MetaData10typed_data11freeStorageEv
T _ZN7android8MetaData10typed_data15allocateStorageEj
T _ZN7android8MetaData10typed_data5clearEv
T _ZN7android8MetaData10typed_data7setDataEjPKvj
T _ZN7android8MetaData10typed_dataC1ERKS1_
T _ZN7android8MetaData10typed_dataC1Ev
T _ZN7android8MetaData10typed_dataC2ERKS1_
T _ZN7android8MetaData10typed_dataC2Ev
T _ZN7android8MetaData10typed_dataD1Ev
T _ZN7android8MetaData10typed_dataD2Ev
T _ZN7android8MetaData10typed_dataaSERKS1_
T _ZN7android8MetaData11findCStringEjPPKc
T _ZN7android8MetaData11findPointerEjPPv
T _ZN7android8MetaData5clearEv
T _ZN7android8MetaData6removeEj
T _ZN7android8MetaData7setDataEjjPKvj
T _ZN7android8MetaData8setFloatEjf
T _ZN7android8MetaData8setInt32Eji
T _ZN7android8MetaData8setInt64Ejx
T _ZN7android8MetaData9findFloatEjPf
T _ZN7android8MetaData9findInt32EjPi
T _ZN7android8MetaData9findInt64EjPx
T _ZN7android8MetaDataC1ERKS0_
T _ZN7android8MetaDataC1Ev
T _ZN7android8MetaDataC2ERKS0_
T _ZN7android8MetaDataC2Ev
T _ZN7android8MetaDataD0Ev
T _ZN7android8MetaDataD1Ev
T _ZN7android8MetaDataD2Ev
T _ZN7android8OMXCodec10on_messageERKNS_11omx_messageE
T _ZN7android8OMXCodec12setAACFormatEiii
T _ZN7android8OMXCodec12setAMRFormatEbi
T _ZN7android8OMXCodec12setupBitRateEi
T _ZN7android8OMXCodec13onCmdCompleteE15OMX_COMMANDTYPEm
T _ZN7android8OMXCodec13onStateChangeE13OMX_STATETYPE
T _ZN7android8OMXCodec14configureCodecERKNS_2spINS_8MetaDataEEEj
T _ZN7android8OMXCodec14dumpPortStatusEm
T _ZN7android8OMXCodec14flushPortAsyncEm
T _ZN7android8OMXCodec15allocateBuffersEv
T _ZN7android8OMXCodec15enablePortAsyncEm
T _ZN7android8OMXCodec16disablePortAsyncEm
T _ZN7android8OMXCodec16drainInputBufferEPNS0_10BufferInfoE
T _ZN7android8OMXCodec16drainInputBufferEPv
T _ZN7android8OMXCodec16fillOutputBufferEPNS0_10BufferInfoE
T _ZN7android8OMXCodec16fillOutputBufferEPv
T _ZN7android8OMXCodec16initOutputFormatERKNS_2spINS_8MetaDataEEE
T _ZN7android8OMXCodec16setComponentRoleERKNS_2spINS_4IOMXEEEPvbPKc
T _ZN7android8OMXCodec16setComponentRoleEv
T _ZN7android8OMXCodec16setMinBufferSizeEmm
T _ZN7android8OMXCodec17countBuffersWeOwnERKNS_6VectorINS0_10BufferInfoEEE
T _ZN7android8OMXCodec17drainInputBuffersEv
T _ZN7android8OMXCodec17fillOutputBuffersEv
T _ZN7android8OMXCodec17freeBuffersOnPortEmb
T _ZN7android8OMXCodec17setRawAudioFormatEmii
T _ZN7android8OMXCodec18findMatchingCodecsEPKcbS2_jPNS_6VectorINS_7String8EEE
T _ZN7android8OMXCodec18getComponentQuirksEPKcb
T _ZN7android8OMXCodec18setJPEGInputFormatEmmm
T _ZN7android8OMXCodec19isIntermediateStateENS0_5StateE
T _ZN7android8OMXCodec19setVideoInputFormatEPKcRKNS_2spINS_8MetaDataEEE
T _ZN7android8OMXCodec20addCodecSpecificDataEPKvj
T _ZN7android8OMXCodec20getVideoProfileLevelERKNS_2spINS_8MetaDataEEERKNS_17CodecProfileLevelERS6_
T _ZN7android8OMXCodec20setImageOutputFormatE20OMX_COLOR_FORMATTYPEmm
T _ZN7android8OMXCodec20setVideoOutputFormatEPKcmm
T _ZN7android8OMXCodec20signalBufferReturnedEPNS_11MediaBufferE
T _ZN7android8OMXCodec21allocateBuffersOnPortEm
T _ZN7android8OMXCodec21findTargetColorFormatERKNS_2spINS_8MetaDataEEEP20OMX_COLOR_FORMATTYPE
T _ZN7android8OMXCodec21onPortSettingsChangedEm
T _ZN7android8OMXCodec22clearCodecSpecificDataEv
T _ZN7android8OMXCodec22isColorFormatSupportedE20OMX_COLOR_FORMATTYPEi
T _ZN7android8OMXCodec22setVideoPortFormatTypeEm20OMX_VIDEO_CODINGTYPE20OMX_COLOR_FORMATTYPE
T _ZN7android8OMXCodec25setupAVCEncoderParametersERKNS_2spINS_8MetaDataEEE
T _ZN7android8OMXCodec26setupH263EncoderParametersERKNS_2spINS_8MetaDataEEE
T _ZN7android8OMXCodec27setupMPEG4EncoderParametersERKNS_2spINS_8MetaDataEEE
T _ZN7android8OMXCodec30setupErrorCorrectionParametersEv
T _ZN7android8OMXCodec4initEv
T _ZN7android8OMXCodec4readEPPNS_11MediaBufferEPKNS_11MediaSource11ReadOptionsE
T _ZN7android8OMXCodec4stopEv
T _ZN7android8OMXCodec5pauseEv
T _ZN7android8OMXCodec5startEPNS_8MetaDataE
T _ZN7android8OMXCodec6CreateERKNS_2spINS_4IOMXEEERKNS1_INS_8MetaDataEEEbRKNS1_INS_11MediaSourceEEEPKcj
T _ZN7android8OMXCodec7onEventE13OMX_EVENTTYPEmm
T _ZN7android8OMXCodec8setStateENS0_5StateE
T _ZN7android8OMXCodec9getFormatEv
T _ZN7android8OMXCodecC1ERKNS_2spINS_4IOMXEEEPvjbPKcS8_RKNS1_INS_11MediaSourceEEE
T _ZN7android8OMXCodecC2ERKNS_2spINS_4IOMXEEEPvjbPKcS8_RKNS1_INS_11MediaSourceEEE
T _ZN7android8OMXCodecD0Ev
T _ZN7android8OMXCodecD1Ev
T _ZN7android8OMXCodecD2Ev
T _ZN7android8SniffAMRERKNS_2spINS_10DataSourceEEEPNS_7String8EPfPNS0_INS_8AMessageEEE
T _ZN7android8SniffMP3ERKNS_2spINS_10DataSourceEEEPNS_7String8EPfPNS0_INS_8AMessageEEE
T _ZN7android8SniffOggERKNS_2spINS_10DataSourceEEEPNS_7String8EPfPNS0_INS_8AMessageEEE
T _ZN7android8SniffWAVERKNS_2spINS_10DataSourceEEEPNS_7String8EPfPNS0_INS_8AMessageEEE
U _ZN7android8String16C1EPKc
U _ZN7android8String16D1Ev
T _ZN7android8U16LE_ATEPKh
T _ZN7android8U32LE_ATEPKh
T _ZN7android8U64LE_ATEPKh
T _ZN7android9AMRSource4readEPPNS_11MediaBufferEPKNS_11MediaSource11ReadOptionsE
T _ZN7android9AMRSource4stopEv
T _ZN7android9AMRSource5startEPNS_8MetaDataE
T _ZN7android9AMRSource9getFormatEv
T _ZN7android9AMRSourceC1ERKNS_2spINS_10DataSourceEEERKNS1_INS_8MetaDataEEEjb
T _ZN7android9AMRSourceC2ERKNS_2spINS_10DataSourceEEERKNS1_INS_8MetaDataEEEjb
T _ZN7android9AMRSourceD0Ev
T _ZN7android9AMRSourceD1Ev
T _ZN7android9AMRSourceD2Ev
T _ZN7android9AMRWriter10reachedEOSEv
T _ZN7android9AMRWriter10threadFuncEv
T _ZN7android9AMRWriter13ThreadWrapperEPv
T _ZN7android9AMRWriter20exceedsFileSizeLimitEv
T _ZN7android9AMRWriter24exceedsFileDurationLimitEv
T _ZN7android9AMRWriter4stopEv
T _ZN7android9AMRWriter5pauseEv
T _ZN7android9AMRWriter5startEPNS_8MetaDataE
T _ZN7android9AMRWriter9addSourceERKNS_2spINS_11MediaSourceEEE
T _ZN7android9AMRWriterC1EPKc
T _ZN7android9AMRWriterC1Ei
T _ZN7android9AMRWriterC2EPKc
T _ZN7android9AMRWriterC2Ei
T _ZN7android9AMRWriterD0Ev
T _ZN7android9AMRWriterD1Ev
T _ZN7android9AMRWriterD2Ev
T _ZN7android9ATSParser12feedTSPacketEPKvj
T _ZN7android9ATSParser19signalDiscontinuityEb
T _ZN7android9ATSParser20parseAdaptationFieldEPNS_10ABitReaderE
T _ZN7android9ATSParser28parseProgramAssociationTableEPNS_10ABitReaderE
T _ZN7android9ATSParser6Stream13onPayloadDataEjyyPKhj
T _ZN7android9ATSParser6Stream19signalDiscontinuityEb
T _ZN7android9ATSParser6Stream5flushEv
T _ZN7android9ATSParser6Stream5parseEjPNS_10ABitReaderE
T _ZN7android9ATSParser6Stream8parsePESEPNS_10ABitReaderE
T _ZN7android9ATSParser6Stream9getSourceENS0_10SourceTypeE
T _ZN7android9ATSParser6StreamC1EPNS0_7ProgramEjj
T _ZN7android9ATSParser6StreamC2EPNS0_7ProgramEjj
T _ZN7android9ATSParser6StreamD0Ev
T _ZN7android9ATSParser6StreamD1Ev
T _ZN7android9ATSParser6StreamD2Ev
T _ZN7android9ATSParser7Program15parseProgramMapEPNS_10ABitReaderE
T _ZN7android9ATSParser7Program19signalDiscontinuityEb
T _ZN7android9ATSParser7Program21convertPTSToTimestampEy
T _ZN7android9ATSParser7Program8parsePIDEjjPNS_10ABitReaderE
T _ZN7android9ATSParser7Program9getSourceENS0_10SourceTypeE
T _ZN7android9ATSParser7ProgramC1Ej
T _ZN7android9ATSParser7ProgramC2Ej
T _ZN7android9ATSParser7parseTSEPNS_10ABitReaderE
T _ZN7android9ATSParser8parsePIDEPNS_10ABitReaderEjj
T _ZN7android9ATSParser9getSourceENS0_10SourceTypeE
T _ZN7android9ATSParserC1Ev
T _ZN7android9ATSParserC2Ev
T _ZN7android9ATSParserD0Ev
T _ZN7android9ATSParserD1Ev
T _ZN7android9ATSParserD2Ev
T _ZN7android9M3UParser10ParseInt32EPKcPi
T _ZN7android9M3UParser13parseMetaDataERKNS_7AStringEPNS_2spINS_8AMessageEEEPKc
T _ZN7android9M3UParser14parseStreamInfERKNS_7AStringEPNS_2spINS_8AMessageEEE
T _ZN7android9M3UParser4metaEv
T _ZN7android9M3UParser4sizeEv
T _ZN7android9M3UParser5parseEPKvj
T _ZN7android9M3UParser6itemAtEjPNS_7AStringEPNS_2spINS_8AMessageEEE
T _ZN7android9M3UParserC1EPKcPKvj
T _ZN7android9M3UParserC2EPKcPKvj
T _ZN7android9M3UParserD0Ev
T _ZN7android9M3UParserD1Ev
T _ZN7android9M3UParserD2Ev
T _ZN7android9MP3Source4readEPPNS_11MediaBufferEPKNS_11MediaSource11ReadOptionsE
T _ZN7android9MP3Source4stopEv
T _ZN7android9MP3Source5startEPNS_8MetaDataE
T _ZN7android9MP3Source9getFormatEv
T _ZN7android9MP3SourceC1ERKNS_2spINS_8MetaDataEEERKNS1_INS_10DataSourceEEEljiPKc
T _ZN7android9MP3SourceC2ERKNS_2spINS_8MetaDataEEERKNS1_INS_10DataSourceEEEljiPKc
T _ZN7android9MP3SourceD0Ev
T _ZN7android9MP3SourceD1Ev
T _ZN7android9MP3SourceD2Ev
T _ZN7android9OMXClient10disconnectEv
T _ZN7android9OMXClient7connectEv
T _ZN7android9OMXClientC1Ev
T _ZN7android9OMXClientC2Ev
T _ZN7android9OggSource4readEPPNS_11MediaBufferEPKNS_11MediaSource11ReadOptionsE
T _ZN7android9OggSource4stopEv
T _ZN7android9OggSource5startEPNS_8MetaDataE
T _ZN7android9OggSource9getFormatEv
T _ZN7android9OggSourceC1ERKNS_2spINS_12OggExtractorEEE
T _ZN7android9OggSourceC2ERKNS_2spINS_12OggExtractorEEE
T _ZN7android9OggSourceD0Ev
T _ZN7android9OggSourceD1Ev
T _ZN7android9OggSourceD2Ev
T _ZN7android9PageCache10appendPageEPNS0_4PageE
T _ZN7android9PageCache11acquirePageEv
T _ZN7android9PageCache11releasePageEPNS0_4PageE
T _ZN7android9PageCache16releaseFromStartEj
T _ZN7android9PageCache4copyEjPvj
T _ZN7android9PageCache9freePagesEPNS_4ListIPNS0_4PageEEE
T _ZN7android9PageCacheC1Ej
T _ZN7android9PageCacheC2Ej
T _ZN7android9PageCacheD1Ev
T _ZN7android9PageCacheD2Ev
T _ZN7android9UDPPusher17onMessageReceivedERKNS_2spINS_8AMessageEEE
T _ZN7android9UDPPusher5startEv
T _ZN7android9UDPPusher6onPushEv
T _ZN7android9UDPPusherC1EPKcj
T _ZN7android9UDPPusherC2EPKcj
T _ZN7android9UDPPusherD0Ev
T _ZN7android9UDPPusherD1Ev
T _ZN7android9UDPPusherD2Ev
R _ZN7android9WAVSource13kMaxFrameSizeE
T _ZN7android9WAVSource4readEPPNS_11MediaBufferEPKNS_11MediaSource11ReadOptionsE
T _ZN7android9WAVSource4stopEv
T _ZN7android9WAVSource5startEPNS_8MetaDataE
T _ZN7android9WAVSource9getFormatEv
T _ZN7android9WAVSourceC1ERKNS_2spINS_10DataSourceEEERKNS1_INS_8MetaDataEEEtilj
T _ZN7android9WAVSourceC2ERKNS_2spINS_10DataSourceEEERKNS1_INS_8MetaDataEEEtilj
T _ZN7android9WAVSourceD0Ev
T _ZN7android9WAVSourceD1Ev
T _ZN7android9WAVSourceD2Ev
T _ZN9mkvparser10AudioTrackC1EPNS_7SegmentERKNS_5Track4InfoE
T _ZN9mkvparser10AudioTrackC2EPNS_7SegmentERKNS_5Track4InfoE
T _ZN9mkvparser10BlockEntryC1Ev
T _ZN9mkvparser10BlockEntryC2Ev
T _ZN9mkvparser10BlockEntryD0Ev
T _ZN9mkvparser10BlockEntryD1Ev
T _ZN9mkvparser10BlockEntryD2Ev
T _ZN9mkvparser10BlockGroup10ParseBlockExx
T _ZN9mkvparser10BlockGroupC1EPNS_7ClusterEjxx
T _ZN9mkvparser10BlockGroupC2EPNS_7ClusterEjxx
T _ZN9mkvparser10BlockGroupD0Ev
T _ZN9mkvparser10BlockGroupD1Ev
T _ZN9mkvparser10BlockGroupD2Ev
T _ZN9mkvparser10EBMLHeader5ParseEPNS_10IMkvReaderERx
T _ZN9mkvparser10EBMLHeaderC1Ev
T _ZN9mkvparser10EBMLHeaderC2Ev
T _ZN9mkvparser10EBMLHeaderD1Ev
T _ZN9mkvparser10EBMLHeaderD2Ev
T _ZN9mkvparser10GetVersionERiS0_S0_S0_
T _ZN9mkvparser10IMkvReaderD0Ev
T _ZN9mkvparser10IMkvReaderD1Ev
T _ZN9mkvparser10IMkvReaderD2Ev
T _ZN9mkvparser10VideoTrackC1EPNS_7SegmentERKNS_5Track4InfoE
T _ZN9mkvparser10VideoTrackC2EPNS_7SegmentERKNS_5Track4InfoE
T _ZN9mkvparser11SegmentInfoC1EPNS_7SegmentExx
T _ZN9mkvparser11SegmentInfoC2EPNS_7SegmentExx
T _ZN9mkvparser11SegmentInfoD1Ev
T _ZN9mkvparser11SegmentInfoD2Ev
T _ZN9mkvparser11SimpleBlockC1EPNS_7ClusterEjxx
T _ZN9mkvparser11SimpleBlockC2EPNS_7ClusterEjxx
T _ZN9mkvparser12SyncReadUIntEPNS_10IMkvReaderExxRl
T _ZN9mkvparser13GetUIntLengthEPNS_10IMkvReaderExRl
T _ZN9mkvparser15UnserializeUIntEPNS_10IMkvReaderExx
T _ZN9mkvparser16Unserialize1SIntEPNS_10IMkvReaderEx
T _ZN9mkvparser16Unserialize2SIntEPNS_10IMkvReaderEx
T _ZN9mkvparser17Unserialize4FloatEPNS_10IMkvReaderEx
T _ZN9mkvparser18Unserialize8DoubleEPNS_10IMkvReaderEx
T _ZN9mkvparser4CuesC1EPNS_7SegmentExx
T _ZN9mkvparser4CuesC2EPNS_7SegmentExx
T _ZN9mkvparser4CuesD1Ev
T _ZN9mkvparser4CuesD2Ev
T _ZN9mkvparser5Block6SetKeyEb
T _ZN9mkvparser5BlockC1ExxPNS_10IMkvReaderE
T _ZN9mkvparser5BlockC2ExxPNS_10IMkvReaderE
T _ZN9mkvparser5MatchEPNS_10IMkvReaderERxmRPc
T _ZN9mkvparser5MatchEPNS_10IMkvReaderERxmRPhRj
T _ZN9mkvparser5MatchEPNS_10IMkvReaderERxmRd
T _ZN9mkvparser5MatchEPNS_10IMkvReaderERxmRs
T _ZN9mkvparser5MatchEPNS_10IMkvReaderERxmS2_
T _ZN9mkvparser5Track4Info5ClearEv
T _ZN9mkvparser5Track4InfoC1Ev
T _ZN9mkvparser5Track4InfoC2Ev
T _ZN9mkvparser5Track8EOSBlockC1Ev
T _ZN9mkvparser5Track8EOSBlockC2Ev
T _ZN9mkvparser5TrackC1EPNS_7SegmentERKNS0_4InfoE
T _ZN9mkvparser5TrackC2EPNS_7SegmentERKNS0_4InfoE
T _ZN9mkvparser5TrackD0Ev
T _ZN9mkvparser5TrackD1Ev
T _ZN9mkvparser5TrackD2Ev
T _ZN9mkvparser6Tracks15ParseTrackEntryExxRPNS_5TrackE
T _ZN9mkvparser6TracksC1EPNS_7SegmentExx
T _ZN9mkvparser6TracksC2EPNS_7SegmentExx
T _ZN9mkvparser6TracksD0Ev
T _ZN9mkvparser6TracksD1Ev
T _ZN9mkvparser6TracksD2Ev
T _ZN9mkvparser7Cluster11GetLastTimeEv
T _ZN9mkvparser7Cluster11GetTimeCodeEv
T _ZN9mkvparser7Cluster12GetFirstTimeEv
T _ZN9mkvparser7Cluster15ParseBlockGroupExxj
T _ZN9mkvparser7Cluster16LoadBlockEntriesEv
T _ZN9mkvparser7Cluster16ParseSimpleBlockExxj
T _ZN9mkvparser7Cluster4LoadEv
T _ZN9mkvparser7Cluster5ParseEPNS_7SegmentElx
T _ZN9mkvparser7Cluster7GetLastEv
T _ZN9mkvparser7Cluster7GetTimeEv
T _ZN9mkvparser7Cluster8GetEntryEPKNS_5TrackE
T _ZN9mkvparser7Cluster8GetEntryERKNS_8CuePointERKNS1_13TrackPositionE
T _ZN9mkvparser7Cluster8GetFirstEv
T _ZN9mkvparser7Cluster9GetMaxKeyEPKNS_10VideoTrackE
T _ZN9mkvparser7ClusterC1EPNS_7SegmentElx
T _ZN9mkvparser7ClusterC1Ev
T _ZN9mkvparser7ClusterC2EPNS_7SegmentElx
T _ZN9mkvparser7ClusterC2Ev
T _ZN9mkvparser7ClusterD1Ev
T _ZN9mkvparser7ClusterD2Ev
T _ZN9mkvparser7Segment11FindClusterEx
T _ZN9mkvparser7Segment11LoadClusterEv
T _ZN9mkvparser7Segment12ParseHeadersEv
T _ZN9mkvparser7Segment13AppendClusterEPNS_7ClusterE
T _ZN9mkvparser7Segment13ParseSeekHeadExx
T _ZN9mkvparser7Segment14CreateInstanceEPNS_10IMkvReaderExRPS0_
T _ZN9mkvparser7Segment14ParseSeekEntryExx
T _ZN9mkvparser7Segment14PreloadClusterEPNS_7ClusterEi
T _ZN9mkvparser7Segment4LoadEv
T _ZN9mkvparser7Segment4SeekExPKNS_5TrackE
T _ZN9mkvparser7Segment7GetLastEv
T _ZN9mkvparser7Segment7GetNextEPKNS_7ClusterE
T _ZN9mkvparser7Segment8GetBlockERKNS_8CuePointERKNS1_13TrackPositionE
T _ZN9mkvparser7Segment8GetFirstEv
T _ZN9mkvparser7Segment9ParseCuesEx
T _ZN9mkvparser7SegmentC1EPNS_10IMkvReaderExx
T _ZN9mkvparser7SegmentC2EPNS_10IMkvReaderExx
T _ZN9mkvparser7SegmentD1Ev
T _ZN9mkvparser7SegmentD2Ev
T _ZN9mkvparser8CuePoint13TrackPosition5ParseEPNS_10IMkvReaderExx
T _ZN9mkvparser8CuePoint4LoadEPNS_10IMkvReaderE
T _ZN9mkvparser8CuePointC1Ejx
T _ZN9mkvparser8CuePointC2Ejx
T _ZN9mkvparser8CuePointD1Ev
T _ZN9mkvparser8CuePointD2Ev
T _ZN9mkvparser8ReadUIntEPNS_10IMkvReaderExRl
U _ZNK7android10ABitReader11numBitsLeftEv
U _ZNK7android10ABitReader4dataEv
T _ZNK7android10ARTPSource7RTP2NTPEj
U _ZNK7android10AudioTrack7latencyEv
U _ZNK7android10AudioTrack9frameSizeEv
U _ZNK7android10AudioTrack9initCheckEv
T _ZNK7android10FileSource9initCheckEv
T _ZNK7android10HTTPStream17find_header_valueERKNS_6stringEPS1_
T _ZNK7android10LiveSource10isSeekableEv
T _ZNK7android10LiveSource11getDurationEPx
T _ZNK7android10LiveSource9initCheckEv
T _ZNK7android11ARTPSession19validateMediaFormatEjPj
T _ZNK7android11AudioPlayer19getRealTimeUsLockedEv
U _ZNK7android11AudioRecord12channelCountEv
U _ZNK7android11AudioRecord7latencyEv
U _ZNK7android11AudioRecord9initCheckEv
T _ZNK7android11AudioSource9initCheckEv
T _ZNK7android11MPEG4Source12parseNALSizeEPKh
T _ZNK7android11MPEG4Writer16isFileStreamableEv
T _ZNK7android11MPEG4Writer18use32BitFileOffsetEv
T _ZNK7android11MPEG4Writer5Track13getDurationUsEv
T _ZNK7android11MPEG4Writer5Track22checkCodecSpecificDataEv
T _ZNK7android11MPEG4Writer5Track26getEstimatedTrackSizeBytesEv
T _ZNK7android11MPEG4Writer5Track4dumpEiRKNS_6VectorINS_8String16EEE
T _ZNK7android11MediaBuffer12range_lengthEv
T _ZNK7android11MediaBuffer12range_offsetEv
T _ZNK7android11MediaBuffer4dataEv
T _ZNK7android11MediaBuffer4sizeEv
T _ZNK7android11MediaBuffer8refcountEv
T _ZNK7android11MediaSource11ReadOptions12getSkipFrameEPx
T _ZNK7android11MediaSource11ReadOptions9getLateByEv
T _ZNK7android11MediaSource11ReadOptions9getSeekToEPxPNS1_8SeekModeE
T _ZNK7android11SampleTable12countSamplesEv
T _ZNK7android11SampleTable17countChunkOffsetsEv
U _ZNK7android12IOMXObserver22getInterfaceDescriptorEv
U _ZNK7android12MediaScanner6localeEv
W _ZNK7android12SortedVectorINS_16key_value_pair_tINS_6stringES2_EEE10do_compareEPKvS6_
W _ZNK7android12SortedVectorINS_16key_value_pair_tINS_6stringES2_EEE10do_destroyEPvj
W _ZNK7android12SortedVectorINS_16key_value_pair_tINS_6stringES2_EEE12do_constructEPvj
W _ZNK7android12SortedVectorINS_16key_value_pair_tINS_6stringES2_EEE15do_move_forwardEPvPKvj
W _ZNK7android12SortedVectorINS_16key_value_pair_tINS_6stringES2_EEE16do_move_backwardEPvPKvj
W _ZNK7android12SortedVectorINS_16key_value_pair_tINS_6stringES2_EEE7do_copyEPvPKvj
W _ZNK7android12SortedVectorINS_16key_value_pair_tINS_6stringES2_EEE8do_splatEPvPKvj
W _ZNK7android12SortedVectorINS_16key_value_pair_tINS_7AStringES2_EEE10do_compareEPKvS6_
W _ZNK7android12SortedVectorINS_16key_value_pair_tINS_7AStringES2_EEE10do_destroyEPvj
W _ZNK7android12SortedVectorINS_16key_value_pair_tINS_7AStringES2_EEE12do_constructEPvj
W _ZNK7android12SortedVectorINS_16key_value_pair_tINS_7AStringES2_EEE15do_move_forwardEPvPKvj
W _ZNK7android12SortedVectorINS_16key_value_pair_tINS_7AStringES2_EEE16do_move_backwardEPvPKvj
W _ZNK7android12SortedVectorINS_16key_value_pair_tINS_7AStringES2_EEE7do_copyEPvPKvj
W _ZNK7android12SortedVectorINS_16key_value_pair_tINS_7AStringES2_EEE8do_splatEPvPKvj
W _ZNK7android12SortedVectorINS_16key_value_pair_tINS_7String8ES2_EEE10do_compareEPKvS6_
W _ZNK7android12SortedVectorINS_16key_value_pair_tINS_7String8ES2_EEE10do_destroyEPvj
W _ZNK7android12SortedVectorINS_16key_value_pair_tINS_7String8ES2_EEE12do_constructEPvj
W _ZNK7android12SortedVectorINS_16key_value_pair_tINS_7String8ES2_EEE15do_move_forwardEPvPKvj
W _ZNK7android12SortedVectorINS_16key_value_pair_tINS_7String8ES2_EEE16do_move_backwardEPvPKvj
W _ZNK7android12SortedVectorINS_16key_value_pair_tINS_7String8ES2_EEE7do_copyEPvPKvj
W _ZNK7android12SortedVectorINS_16key_value_pair_tINS_7String8ES2_EEE8do_splatEPvPKvj
W _ZNK7android12SortedVectorINS_16key_value_pair_tIiNS_2spINS_8AMessageEEEEEE10do_compareEPKvS8_
W _ZNK7android12SortedVectorINS_16key_value_pair_tIiNS_2spINS_8AMessageEEEEEE10do_destroyEPvj
W _ZNK7android12SortedVectorINS_16key_value_pair_tIiNS_2spINS_8AMessageEEEEEE12do_constructEPvj
W _ZNK7android12SortedVectorINS_16key_value_pair_tIiNS_2spINS_8AMessageEEEEEE15do_move_forwardEPvPKvj
W _ZNK7android12SortedVectorINS_16key_value_pair_tIiNS_2spINS_8AMessageEEEEEE16do_move_backwardEPvPKvj
W _ZNK7android12SortedVectorINS_16key_value_pair_tIiNS_2spINS_8AMessageEEEEEE7do_copyEPvPKvj
W _ZNK7android12SortedVectorINS_16key_value_pair_tIiNS_2spINS_8AMessageEEEEEE8do_splatEPvPKvj
W _ZNK7android12SortedVectorINS_16key_value_pair_tIiNS_7String8EEEE10do_compareEPKvS6_
W _ZNK7android12SortedVectorINS_16key_value_pair_tIiNS_7String8EEEE10do_destroyEPvj
W _ZNK7android12SortedVectorINS_16key_value_pair_tIiNS_7String8EEEE12do_constructEPvj
W _ZNK7android12SortedVectorINS_16key_value_pair_tIiNS_7String8EEEE15do_move_forwardEPvPKvj
W _ZNK7android12SortedVectorINS_16key_value_pair_tIiNS_7String8EEEE16do_move_backwardEPvPKvj
W _ZNK7android12SortedVectorINS_16key_value_pair_tIiNS_7String8EEEE7do_copyEPvPKvj
W _ZNK7android12SortedVectorINS_16key_value_pair_tIiNS_7String8EEEE8do_splatEPvPKvj
W _ZNK7android12SortedVectorINS_16key_value_pair_tIjNS_2spINS_10ARTPSourceEEEEEE10do_compareEPKvS8_
W _ZNK7android12SortedVectorINS_16key_value_pair_tIjNS_2spINS_10ARTPSourceEEEEEE10do_destroyEPvj
W _ZNK7android12SortedVectorINS_16key_value_pair_tIjNS_2spINS_10ARTPSourceEEEEEE12do_constructEPvj
W _ZNK7android12SortedVectorINS_16key_value_pair_tIjNS_2spINS_10ARTPSourceEEEEEE15do_move_forwardEPvPKvj
W _ZNK7android12SortedVectorINS_16key_value_pair_tIjNS_2spINS_10ARTPSourceEEEEEE16do_move_backwardEPvPKvj
W _ZNK7android12SortedVectorINS_16key_value_pair_tIjNS_2spINS_10ARTPSourceEEEEEE7do_copyEPvPKvj
W _ZNK7android12SortedVectorINS_16key_value_pair_tIjNS_2spINS_10ARTPSourceEEEEEE8do_splatEPvPKvj
W _ZNK7android12SortedVectorINS_16key_value_pair_tIjNS_2spINS_9ATSParser6StreamEEEEEE10do_compareEPKvS9_
W _ZNK7android12SortedVectorINS_16key_value_pair_tIjNS_2spINS_9ATSParser6StreamEEEEEE10do_destroyEPvj
W _ZNK7android12SortedVectorINS_16key_value_pair_tIjNS_2spINS_9ATSParser6StreamEEEEEE12do_constructEPvj
W _ZNK7android12SortedVectorINS_16key_value_pair_tIjNS_2spINS_9ATSParser6StreamEEEEEE15do_move_forwardEPvPKvj
W _ZNK7android12SortedVectorINS_16key_value_pair_tIjNS_2spINS_9ATSParser6StreamEEEEEE16do_move_backwardEPvPKvj
W _ZNK7android12SortedVectorINS_16key_value_pair_tIjNS_2spINS_9ATSParser6StreamEEEEEE7do_copyEPvPKvj
W _ZNK7android12SortedVectorINS_16key_value_pair_tIjNS_2spINS_9ATSParser6StreamEEEEEE8do_splatEPvPKvj
W _ZNK7android12SortedVectorINS_16key_value_pair_tIjNS_8MetaData10typed_dataEEEE10do_compareEPKvS7_
W _ZNK7android12SortedVectorINS_16key_value_pair_tIjNS_8MetaData10typed_dataEEEE10do_destroyEPvj
W _ZNK7android12SortedVectorINS_16key_value_pair_tIjNS_8MetaData10typed_dataEEEE12do_constructEPvj
W _ZNK7android12SortedVectorINS_16key_value_pair_tIjNS_8MetaData10typed_dataEEEE15do_move_forwardEPvPKvj
W _ZNK7android12SortedVectorINS_16key_value_pair_tIjNS_8MetaData10typed_dataEEEE16do_move_backwardEPvPKvj
W _ZNK7android12SortedVectorINS_16key_value_pair_tIjNS_8MetaData10typed_dataEEEE7do_copyEPvPKvj
W _ZNK7android12SortedVectorINS_16key_value_pair_tIjNS_8MetaData10typed_dataEEEE8do_splatEPvPKvj
T _ZNK7android13APacketSource9initCheckEv
T _ZNK7android13AwesomePlayer18getVideoDimensionsEPiS1_
T _ZNK7android13AwesomePlayer5flagsEv
T _ZNK7android13AwesomePlayer9isPlayingEv
T _ZNK7android13BlockIterator11blockTimeUsEv
T _ZNK7android13BlockIterator3eosEv
T _ZNK7android13BlockIterator5blockEv
T _ZNK7android13MPEG2TSWriter10SourceInfo10streamTypeEv
U _ZNK7android14ColorConverter7isValidEv
T _ZNK7android14MediaExtractor5flagsEv
T _ZNK7android15ARTSPConnection18findPendingRequestERKNS_2spINS_13ARTSPResponseEEEPl
T _ZNK7android15MPEG4DataSource9initCheckEv
T _ZNK7android15NuCachedSource29initCheckEv
T _ZNK7android15ThrottledSource9initCheckEv
U _ZNK7android16CameraParameters14getPreviewSizeEPiS1_
U _ZNK7android16CameraParameters19getPreviewFrameRateEv
U _ZNK7android16CameraParameters3getEPKc
T _ZNK7android16MPEG2TSExtractor5flagsEv
T _ZNK7android16NuHTTPDataSource9initCheckEv
U _ZNK7android16SoftwareRenderer9initCheckEv
U _ZNK7android16SortedVectorImpl7indexOfEPKv
T _ZNK7android17MyVorbisExtractor9getFormatEv
T _ZNK7android19ASessionDescription11countTracksEv
T _ZNK7android19ASessionDescription13findAttributeEjPKcPNS_7AStringE
T _ZNK7android19ASessionDescription13getDimensionsEjmPiS1_
T _ZNK7android19ASessionDescription13getDurationUsEPx
T _ZNK7android19ASessionDescription13getFormatTypeEjPmPNS_7AStringES3_
T _ZNK7android19ASessionDescription7isValidEv
T _ZNK7android19ASessionDescription9getFormatEjPNS_7AStringE
T _ZNK7android3ID311getAlbumArtEPjPNS_7String8E
T _ZNK7android3ID37isValidEv
T _ZNK7android3ID37versionEv
T _ZNK7android3ID38Iterator15getHeaderLengthEv
T _ZNK7android3ID38Iterator4doneEv
T _ZNK7android3ID38Iterator5getIDEPNS_7String8E
T _ZNK7android3ID38Iterator7getDataEPj
T _ZNK7android3ID38Iterator9getStringEPNS_7String8E
T _ZNK7android4ESDS20getCodecSpecificInfoEPPKvPj
T _ZNK7android4ESDS20skipDescriptorHeaderEjjPhPjS2_
T _ZNK7android4ESDS23getObjectTypeIndicationEPh
T _ZNK7android4ESDS9InitCheckEv
U _ZNK7android6Camera13getParametersEv
W _ZNK7android6VectorINS_10LiveSource13BandwidthItemEE10do_destroyEPvj
W _ZNK7android6VectorINS_10LiveSource13BandwidthItemEE12do_constructEPvj
W _ZNK7android6VectorINS_10LiveSource13BandwidthItemEE15do_move_forwardEPvPKvj
W _ZNK7android6VectorINS_10LiveSource13BandwidthItemEE16do_move_backwardEPvPKvj
W _ZNK7android6VectorINS_10LiveSource13BandwidthItemEE7do_copyEPvPKvj
W _ZNK7android6VectorINS_10LiveSource13BandwidthItemEE8do_splatEPvPKvj
W _ZNK7android6VectorINS_11ARTPSession9TrackInfoEE10do_destroyEPvj
W _ZNK7android6VectorINS_11ARTPSession9TrackInfoEE12do_constructEPvj
W _ZNK7android6VectorINS_11ARTPSession9TrackInfoEE15do_move_forwardEPvPKvj
W _ZNK7android6VectorINS_11ARTPSession9TrackInfoEE16do_move_backwardEPvPKvj
W _ZNK7android6VectorINS_11ARTPSession9TrackInfoEE7do_copyEPvPKvj
W _ZNK7android6VectorINS_11ARTPSession9TrackInfoEE8do_splatEPvPKvj
W _ZNK7android6VectorINS_11KeyedVectorINS_7AStringES2_EEE10do_destroyEPvj
W _ZNK7android6VectorINS_11KeyedVectorINS_7AStringES2_EEE12do_constructEPvj
W _ZNK7android6VectorINS_11KeyedVectorINS_7AStringES2_EEE15do_move_forwardEPvPKvj
W _ZNK7android6VectorINS_11KeyedVectorINS_7AStringES2_EEE16do_move_backwardEPvPKvj
W _ZNK7android6VectorINS_11KeyedVectorINS_7AStringES2_EEE7do_copyEPvPKvj
W _ZNK7android6VectorINS_11KeyedVectorINS_7AStringES2_EEE8do_splatEPvPKvj
W _ZNK7android6VectorINS_11NALPositionEE10do_destroyEPvj
W _ZNK7android6VectorINS_11NALPositionEE12do_constructEPvj
W _ZNK7android6VectorINS_11NALPositionEE15do_move_forwardEPvPKvj
W _ZNK7android6VectorINS_11NALPositionEE16do_move_backwardEPvPKvj
W _ZNK7android6VectorINS_11NALPositionEE7do_copyEPvPKvj
W _ZNK7android6VectorINS_11NALPositionEE8do_splatEPvPKvj
W _ZNK7android6VectorINS_17MatroskaExtractor9TrackInfoEE10do_destroyEPvj
W _ZNK7android6VectorINS_17MatroskaExtractor9TrackInfoEE12do_constructEPvj
W _ZNK7android6VectorINS_17MatroskaExtractor9TrackInfoEE15do_move_forwardEPvPKvj
W _ZNK7android6VectorINS_17MatroskaExtractor9TrackInfoEE16do_move_backwardEPvPKvj
W _ZNK7android6VectorINS_17MatroskaExtractor9TrackInfoEE7do_copyEPvPKvj
W _ZNK7android6VectorINS_17MatroskaExtractor9TrackInfoEE8do_splatEPvPKvj
W _ZNK7android6VectorINS_2spINS_13MPEG2TSWriter10SourceInfoEEEE10do_destroyEPvj
W _ZNK7android6VectorINS_2spINS_13MPEG2TSWriter10SourceInfoEEEE12do_constructEPvj
W _ZNK7android6VectorINS_2spINS_13MPEG2TSWriter10SourceInfoEEEE15do_move_forwardEPvPKvj
W _ZNK7android6VectorINS_2spINS_13MPEG2TSWriter10SourceInfoEEEE16do_move_backwardEPvPKvj
W _ZNK7android6VectorINS_2spINS_13MPEG2TSWriter10SourceInfoEEEE7do_copyEPvPKvj
W _ZNK7android6VectorINS_2spINS_13MPEG2TSWriter10SourceInfoEEEE8do_splatEPvPKvj
W _ZNK7android6VectorINS_2spINS_19AnotherPacketSourceEEEE10do_destroyEPvj
W _ZNK7android6VectorINS_2spINS_19AnotherPacketSourceEEEE12do_constructEPvj
W _ZNK7android6VectorINS_2spINS_19AnotherPacketSourceEEEE15do_move_forwardEPvPKvj
W _ZNK7android6VectorINS_2spINS_19AnotherPacketSourceEEEE16do_move_backwardEPvPKvj
W _ZNK7android6VectorINS_2spINS_19AnotherPacketSourceEEEE7do_copyEPvPKvj
W _ZNK7android6VectorINS_2spINS_19AnotherPacketSourceEEEE8do_splatEPvPKvj
W _ZNK7android6VectorINS_2spINS_7ABufferEEEE10do_destroyEPvj
W _ZNK7android6VectorINS_2spINS_7ABufferEEEE12do_constructEPvj
W _ZNK7android6VectorINS_2spINS_7ABufferEEEE15do_move_forwardEPvPKvj
W _ZNK7android6VectorINS_2spINS_7ABufferEEEE16do_move_backwardEPvPKvj
W _ZNK7android6VectorINS_2spINS_7ABufferEEEE7do_copyEPvPKvj
W _ZNK7android6VectorINS_2spINS_7ABufferEEEE8do_splatEPvPKvj
W _ZNK7android6VectorINS_2spINS_9ATSParser7ProgramEEEE10do_destroyEPvj
W _ZNK7android6VectorINS_2spINS_9ATSParser7ProgramEEEE12do_constructEPvj
W _ZNK7android6VectorINS_2spINS_9ATSParser7ProgramEEEE15do_move_forwardEPvPKvj
W _ZNK7android6VectorINS_2spINS_9ATSParser7ProgramEEEE16do_move_backwardEPvPKvj
W _ZNK7android6VectorINS_2spINS_9ATSParser7ProgramEEEE7do_copyEPvPKvj
W _ZNK7android6VectorINS_2spINS_9ATSParser7ProgramEEEE8do_splatEPvPKvj
W _ZNK7android6VectorINS_7AStringEE10do_destroyEPvj
W _ZNK7android6VectorINS_7AStringEE12do_constructEPvj
W _ZNK7android6VectorINS_7AStringEE15do_move_forwardEPvPKvj
W _ZNK7android6VectorINS_7AStringEE16do_move_backwardEPvPKvj
W _ZNK7android6VectorINS_7AStringEE7do_copyEPvPKvj
W _ZNK7android6VectorINS_7AStringEE8do_splatEPvPKvj
W _ZNK7android6VectorINS_7String8EE10do_destroyEPvj
W _ZNK7android6VectorINS_7String8EE12do_constructEPvj
W _ZNK7android6VectorINS_7String8EE15do_move_forwardEPvPKvj
W _ZNK7android6VectorINS_7String8EE16do_move_backwardEPvPKvj
W _ZNK7android6VectorINS_7String8EE7do_copyEPvPKvj
W _ZNK7android6VectorINS_7String8EE8do_splatEPvPKvj
W _ZNK7android6VectorINS_8OMXCodec10BufferInfoEE10do_destroyEPvj
W _ZNK7android6VectorINS_8OMXCodec10BufferInfoEE12do_constructEPvj
W _ZNK7android6VectorINS_8OMXCodec10BufferInfoEE15do_move_forwardEPvPKvj
W _ZNK7android6VectorINS_8OMXCodec10BufferInfoEE16do_move_backwardEPvPKvj
W _ZNK7android6VectorINS_8OMXCodec10BufferInfoEE7do_copyEPvPKvj
W _ZNK7android6VectorINS_8OMXCodec10BufferInfoEE8do_splatEPvPKvj
W _ZNK7android6VectorINS_9M3UParser4ItemEE10do_destroyEPvj
W _ZNK7android6VectorINS_9M3UParser4ItemEE12do_constructEPvj
W _ZNK7android6VectorINS_9M3UParser4ItemEE15do_move_forwardEPvPKvj
W _ZNK7android6VectorINS_9M3UParser4ItemEE16do_move_backwardEPvPKvj
W _ZNK7android6VectorINS_9M3UParser4ItemEE7do_copyEPvPKvj
W _ZNK7android6VectorINS_9M3UParser4ItemEE8do_splatEPvPKvj
W _ZNK7android6VectorINS_9MyHandler9TrackInfoEE10do_destroyEPvj
W _ZNK7android6VectorINS_9MyHandler9TrackInfoEE12do_constructEPvj
W _ZNK7android6VectorINS_9MyHandler9TrackInfoEE15do_move_forwardEPvPKvj
W _ZNK7android6VectorINS_9MyHandler9TrackInfoEE16do_move_backwardEPvPKvj
W _ZNK7android6VectorINS_9MyHandler9TrackInfoEE7do_copyEPvPKvj
W _ZNK7android6VectorINS_9MyHandler9TrackInfoEE8do_splatEPvPKvj
W _ZNK7android6VectorIPNS_11MediaBufferEE10do_destroyEPvj
W _ZNK7android6VectorIPNS_11MediaBufferEE12do_constructEPvj
W _ZNK7android6VectorIPNS_11MediaBufferEE15do_move_forwardEPvPKvj
W _ZNK7android6VectorIPNS_11MediaBufferEE16do_move_backwardEPvPKvj
W _ZNK7android6VectorIPNS_11MediaBufferEE7do_copyEPvPKvj
W _ZNK7android6VectorIPNS_11MediaBufferEE8do_splatEPvPKvj
W _ZNK7android6VectorIPNS_8OMXCodec17CodecSpecificDataEE10do_destroyEPvj
W _ZNK7android6VectorIPNS_8OMXCodec17CodecSpecificDataEE12do_constructEPvj
W _ZNK7android6VectorIPNS_8OMXCodec17CodecSpecificDataEE15do_move_forwardEPvPKvj
W _ZNK7android6VectorIPNS_8OMXCodec17CodecSpecificDataEE16do_move_backwardEPvPKvj
W _ZNK7android6VectorIPNS_8OMXCodec17CodecSpecificDataEE7do_copyEPvPKvj
W _ZNK7android6VectorIPNS_8OMXCodec17CodecSpecificDataEE8do_splatEPvPKvj
W _ZNK7android6VectorIhE10do_destroyEPvj
W _ZNK7android6VectorIhE12do_constructEPvj
W _ZNK7android6VectorIhE15do_move_forwardEPvPKvj
W _ZNK7android6VectorIhE16do_move_backwardEPvPKvj
W _ZNK7android6VectorIhE7do_copyEPvPKvj
W _ZNK7android6VectorIhE8do_splatEPvPKvj
W _ZNK7android6VectorIjE10do_destroyEPvj
W _ZNK7android6VectorIjE12do_constructEPvj
W _ZNK7android6VectorIjE15do_move_forwardEPvPKvj
W _ZNK7android6VectorIjE16do_move_backwardEPvPKvj
W _ZNK7android6VectorIjE7do_copyEPvPKvj
W _ZNK7android6VectorIjE8do_splatEPvPKvj
W _ZNK7android6VectorIyE10do_destroyEPvj
W _ZNK7android6VectorIyE12do_constructEPvj
W _ZNK7android6VectorIyE15do_move_forwardEPvPKvj
W _ZNK7android6VectorIyE16do_move_backwardEPvPKvj
W _ZNK7android6VectorIyE7do_copyEPvPKvj
W _ZNK7android6VectorIyE8do_splatEPvPKvj
T _ZNK7android6string4findEc
T _ZNK7android6string4sizeEv
T _ZNK7android6string5c_strEv
T _ZNK7android6stringeqERKS0_
T _ZNK7android6stringltERKS0_
U _ZNK7android7AString10startsWithEPKc
U _ZNK7android7AString4findEPKcj
U _ZNK7android7AString4sizeEv
U _ZNK7android7AString5c_strEv
U _ZNK7android7AString5emptyEv
U _ZNK7android7AStringeqERKS0_
U _ZNK7android7AStringltERKS0_
U _ZNK7android7BBinder10findObjectEPKv
U _ZNK7android7BBinder13isBinderAliveEv
U _ZNK7android7BBinder22getInterfaceDescriptorEv
U _ZNK7android7IBinder13checkSubclassEPKv
U _ZNK7android7IMemory4sizeEv
U _ZNK7android7IMemory7pointerEv
U _ZNK7android7RefBase10createWeakEPKv
U _ZNK7android7RefBase9decStrongEPKv
U _ZNK7android7RefBase9incStrongEPKv
U _ZNK7android7String84findEPKcj
U _ZNK7android8AMessage10findObjectEPKcPNS_2spINS_7RefBaseEEE
U _ZNK7android8AMessage10findStringEPKcPNS_7AStringE
U _ZNK7android8AMessage11findMessageEPKcPNS_2spIS0_EE
U _ZNK7android8AMessage11findPointerEPKcPPv
U _ZNK7android8AMessage3dupEv
U _ZNK7android8AMessage4whatEv
U _ZNK7android8AMessage8findSizeEPKcPj
U _ZNK7android8AMessage9findInt32EPKcPi
U _ZNK7android8AMessage9findInt64EPKcPx
T _ZNK7android8MetaData10typed_data7getDataEPjPPKvS2_
T _ZNK7android8MetaData8findDataEjPjPPKvS1_
T _ZNK7android9AMRWriter9initCheckEv
T _ZNK7android9M3UParser10isCompleteEv
T _ZNK7android9M3UParser17isVariantPlaylistEv
T _ZNK7android9M3UParser8isExtM3UEv
T _ZNK7android9M3UParser9initCheckEv
T _ZNK9mkvparser10AudioTrack11GetBitDepthEv
T _ZNK9mkvparser10AudioTrack11GetChannelsEv
T _ZNK9mkvparser10AudioTrack15GetSamplingRateEv
T _ZNK9mkvparser10AudioTrack8VetEntryEPKNS_10BlockEntryE
T _ZNK9mkvparser10BlockGroup10GetClusterEv
T _ZNK9mkvparser10BlockGroup15GetNextTimeCodeEv
T _ZNK9mkvparser10BlockGroup15GetPrevTimeCodeEv
T _ZNK9mkvparser10BlockGroup3EOSEv
T _ZNK9mkvparser10BlockGroup8GetBlockEv
T _ZNK9mkvparser10BlockGroup8GetIndexEv
T _ZNK9mkvparser10BlockGroup8IsBFrameEv
T _ZNK9mkvparser10VideoTrack12GetFrameRateEv
T _ZNK9mkvparser10VideoTrack8GetWidthEv
T _ZNK9mkvparser10VideoTrack8VetEntryEPKNS_10BlockEntryE
T _ZNK9mkvparser10VideoTrack9GetHeightEv
T _ZNK9mkvparser11SegmentInfo11GetDurationEv
T _ZNK9mkvparser11SegmentInfo14GetTitleAsUTF8Ev
T _ZNK9mkvparser11SegmentInfo16GetTimeCodeScaleEv
T _ZNK9mkvparser11SegmentInfo18GetMuxingAppAsUTF8Ev
T _ZNK9mkvparser11SegmentInfo19GetWritingAppAsUTF8Ev
T _ZNK9mkvparser11SimpleBlock10GetClusterEv
T _ZNK9mkvparser11SimpleBlock3EOSEv
T _ZNK9mkvparser11SimpleBlock8GetBlockEv
T _ZNK9mkvparser11SimpleBlock8GetIndexEv
T _ZNK9mkvparser11SimpleBlock8IsBFrameEv
T _ZNK9mkvparser4Cues12LoadCuePointEv
T _ZNK9mkvparser4Cues15PreloadCuePointERjx
T _ZNK9mkvparser4Cues4FindExPKNS_5TrackERPKNS_8CuePointERPKNS4_13TrackPositionE
T _ZNK9mkvparser4Cues4InitEv
T _ZNK9mkvparser4Cues7GetLastEv
T _ZNK9mkvparser4Cues7GetNextEPKNS_8CuePointE
T _ZNK9mkvparser4Cues8GetBlockEPKNS_8CuePointEPKNS1_13TrackPositionE
T _ZNK9mkvparser4Cues8GetFirstEv
T _ZNK9mkvparser5Block11GetTimeCodeEPNS_7ClusterE
T _ZNK9mkvparser5Block14GetTrackNumberEv
T _ZNK9mkvparser5Block4ReadEPNS_10IMkvReaderEPh
T _ZNK9mkvparser5Block5FlagsEv
T _ZNK9mkvparser5Block5IsKeyEv
T _ZNK9mkvparser5Block7GetSizeEv
T _ZNK9mkvparser5Block7GetTimeEPNS_7ClusterE
T _ZNK9mkvparser5Block9GetOffsetEv
T _ZNK9mkvparser5Track10GetCodecIdEv
T _ZNK9mkvparser5Track13GetNameAsUTF8Ev
T _ZNK9mkvparser5Track15GetCodecPrivateERj
T _ZNK9mkvparser5Track18GetCodecNameAsUTF8Ev
T _ZNK9mkvparser5Track6GetEOSEv
T _ZNK9mkvparser5Track7GetNextEPKNS_10BlockEntryERS3_
T _ZNK9mkvparser5Track7GetTypeEv
T _ZNK9mkvparser5Track8EOSBlock10GetClusterEv
T _ZNK9mkvparser5Track8EOSBlock3EOSEv
T _ZNK9mkvparser5Track8EOSBlock8GetBlockEv
T _ZNK9mkvparser5Track8EOSBlock8GetIndexEv
T _ZNK9mkvparser5Track8EOSBlock8IsBFrameEv
T _ZNK9mkvparser5Track8GetFirstERPKNS_10BlockEntryE
T _ZNK9mkvparser5Track9GetNumberEv
T _ZNK9mkvparser6Tracks14GetTracksCountEv
T _ZNK9mkvparser6Tracks15GetTrackByIndexEm
T _ZNK9mkvparser6Tracks16GetTrackByNumberEm
T _ZNK9mkvparser7Cluster3EOSEv
T _ZNK9mkvparser7Cluster7GetNextEPKNS_10BlockEntryE
T _ZNK9mkvparser7Segment11GetDurationEv
T _ZNK9mkvparser7Segment7GetCuesEv
T _ZNK9mkvparser7Segment7GetInfoEv
T _ZNK9mkvparser7Segment8GetCountEv
T _ZNK9mkvparser7Segment8UnparsedEv
T _ZNK9mkvparser7Segment9GetTracksEv
T _ZNK9mkvparser8CuePoint11GetTimeCodeEv
T _ZNK9mkvparser8CuePoint4FindEPKNS_5TrackE
T _ZNK9mkvparser8CuePoint7GetTimeEPNS_7SegmentE
U _ZSt7nothrow
V _ZTCN7android11BnInterfaceINS_12IOMXObserverEEE0_NS_10IInterfaceE
V _ZTCN7android11BnInterfaceINS_12IOMXObserverEEE0_S1_
V _ZTCN7android11BnInterfaceINS_12IOMXObserverEEE4_NS_7BBinderE
V _ZTCN7android11BnInterfaceINS_12IOMXObserverEEE4_NS_7IBinderE
V _ZTCN7android16OMXCodecObserverE0_NS_10IInterfaceE
V _ZTCN7android16OMXCodecObserverE0_NS_11BnInterfaceINS_12IOMXObserverEEE
V _ZTCN7android16OMXCodecObserverE0_NS_12IOMXObserverE
V _ZTCN7android16OMXCodecObserverE0_NS_13BnOMXObserverE
V _ZTCN7android16OMXCodecObserverE4_NS_7BBinderE
V _ZTCN7android16OMXCodecObserverE4_NS_7IBinderE
D _ZTCN7android20CameraSourceListenerE0_NS_14CameraListenerE
V _ZTTN7android11BnInterfaceINS_12IOMXObserverEEE
U _ZTTN7android13BnOMXObserverE
V _ZTTN7android14CameraListenerE
V _ZTTN7android16OMXCodecObserverE
D _ZTTN7android20CameraSourceListenerE
D _ZTVN7android10AACDecoderE
D _ZTVN7android10AACEncoderE
V _ZTVN7android10ARTPSourceE
D _ZTVN7android10AVCDecoderE
D _ZTVN7android10AVCEncoderE
D _ZTVN7android10DataSourceE
D _ZTVN7android10FileSourceE
D _ZTVN7android10JPEGSourceE
D _ZTVN7android10LiveSourceE
D _ZTVN7android10MP3DecoderE
V _ZTVN7android10TimeSourceE
D _ZTVN7android10VPXDecoderE
D _ZTVN7android11ARTPSessionE
D _ZTVN7android11AudioPlayerE
D _ZTVN7android11AudioSourceE
V _ZTVN7android11BnInterfaceINS_12IOMXObserverEEE
D _ZTVN7android11G711DecoderE
D _ZTVN7android11MPEG4SourceE
D _ZTVN7android11MPEG4WriterE
D _ZTVN7android11MediaBufferE
D _ZTVN7android11MediaSourceE
V _ZTVN7android11MediaWriterE
D _ZTVN7android11SampleTableE
D _ZTVN7android12AMRExtractorE
D _ZTVN7android12AMRNBDecoderE
D _ZTVN7android12AMRNBEncoderE
D _ZTVN7android12AMRWBDecoderE
D _ZTVN7android12AMRWBEncoderE
V _ZTVN7android12AwesomeEventE
D _ZTVN7android12CameraSourceE
D _ZTVN7android12MP3ExtractorE
D _ZTVN7android12OggExtractorE
V _ZTVN7android12SortedVectorINS_16key_value_pair_tINS_6stringES2_EEEE
V _ZTVN7android12SortedVectorINS_16key_value_pair_tINS_7AStringES2_EEEE
V _ZTVN7android12SortedVectorINS_16key_value_pair_tINS_7String8ES2_EEEE
V _ZTVN7android12SortedVectorINS_16key_value_pair_tIiNS_2spINS_8AMessageEEEEEEE
V _ZTVN7android12SortedVectorINS_16key_value_pair_tIiNS_7String8EEEEE
V _ZTVN7android12SortedVectorINS_16key_value_pair_tIjNS_2spINS_10ARTPSourceEEEEEEE
V _ZTVN7android12SortedVectorINS_16key_value_pair_tIjNS_2spINS_9ATSParser6StreamEEEEEEE
V _ZTVN7android12SortedVectorINS_16key_value_pair_tIjNS_8MetaData10typed_dataEEEEE
D _ZTVN7android12WAVExtractorE
D _ZTVN7android13AAMRAssemblerE
D _ZTVN7android13AAVCAssemblerE
D _ZTVN7android13APacketSourceE
V _ZTVN7android13ARTPAssemblerE
V _ZTVN7android13ARTSPResponseE
U _ZTVN7android13BnOMXObserverE
D _ZTVN7android13MPEG2TSSourceE
D _ZTVN7android13MPEG2TSWriter10SourceInfoE
D _ZTVN7android13MPEG2TSWriterE
D _ZTVN7android13VorbisDecoderE
D _ZTVN7android14AH263AssemblerE
D _ZTVN7android14ARTPConnectionE
V _ZTVN7android14CameraListenerE
D _ZTVN7android14M4vH263DecoderE
D _ZTVN7android14M4vH263EncoderE
D _ZTVN7android14MPEG4ExtractorE
D _ZTVN7android14MatroskaSourceE
D _ZTVN7android14MediaExtractorE
D _ZTVN7android14ThreadedSourceE
D _ZTVN7android15ARTSPConnectionE
D _ZTVN7android15ARTSPControllerE
V _ZTVN7android15AwesomeRendererE
D _ZTVN7android15MPEG4DataSourceE
D _ZTVN7android15NuCachedSource2E
D _ZTVN7android15ShoutcastSourceE
D _ZTVN7android15ThrottledSourceE
V _ZTVN7android15TimedEventQueue5EventE
V _ZTVN7android15TimedEventQueue9StopEventE
V _ZTVN7android16DataSourceReaderE
D _ZTVN7android16MPEG2TSExtractorE
D _ZTVN7android16MediaBufferGroupE
D _ZTVN7android16NuHTTPDataSourceE
V _ZTVN7android16OMXCodecObserverE
D _ZTVN7android16SystemTimeSourceE
V _ZTVN7android17AHandlerReflectorINS_13MPEG2TSWriterEEE
V _ZTVN7android17AHandlerReflectorINS_14ThreadedSourceEEE
V _ZTVN7android17AHandlerReflectorINS_15ARTSPControllerEEE
V _ZTVN7android17AHandlerReflectorINS_15NuCachedSource2EEE
D _ZTVN7android17MatroskaExtractorE
D _ZTVN7android17MyVorbisExtractorE
D _ZTVN7android19ASessionDescriptionE
D _ZTVN7android19AnotherPacketSourceE
V _ZTVN7android19MediaBufferObserverE
D _ZTVN7android20AMPEG4AudioAssemblerE
V _ZTVN7android20AwesomeLocalRendererE
D _ZTVN7android20CameraSourceListenerE
V _ZTVN7android21AwesomeRemoteRendererE
D _ZTVN7android23StagefrightMediaScannerE
D _ZTVN7android25AMPEG4ElementaryAssemblerE
V _ZTVN7android26MediaMetadataRetrieverBaseE
D _ZTVN7android28StagefrightMetadataRetrieverE
V _ZTVN7android31MediaMetadataRetrieverInterfaceE
V _ZTVN7android4ListINS_11MPEG4Writer5ChunkEEE
V _ZTVN7android4ListINS_11MPEG4Writer5Track11AVCParamSetEEE
V _ZTVN7android4ListINS_11MPEG4Writer5Track14StscTableEntryEEE
V _ZTVN7android4ListINS_11MPEG4Writer5Track14SttsTableEntryEEE
V _ZTVN7android4ListINS_11MPEG4Writer9ChunkInfoEEE
V _ZTVN7android4ListINS_14ARTPConnection10StreamInfoEEE
V _ZTVN7android4ListINS_15TimedEventQueue9QueueItemEEE
V _ZTVN7android4ListINS_2spINS_7ABufferEEEEE
V _ZTVN7android4ListINS_2spINS_7IMemoryEEEEE
V _ZTVN7android4ListINS_7AStringEEE
V _ZTVN7android4ListINS_8AUHeaderEEE
V _ZTVN7android4ListIPFbRKNS_2spINS_10DataSourceEEEPNS_7String8EPfPNS1_INS_8AMessageEEEEEE
V _ZTVN7android4ListIPNS_11MPEG4Writer5TrackEEE
V _ZTVN7android4ListIPNS_11MediaBufferEEE
V _ZTVN7android4ListIPNS_9PageCache4PageEEE
V _ZTVN7android4ListIiEE
V _ZTVN7android4ListIjEE
V _ZTVN7android4ListIlEE
V _ZTVN7android4ListIxEE
V _ZTVN7android6VectorINS_10LiveSource13BandwidthItemEEE
V _ZTVN7android6VectorINS_11ARTPSession9TrackInfoEEE
V _ZTVN7android6VectorINS_11KeyedVectorINS_7AStringES2_EEEE
V _ZTVN7android6VectorINS_11NALPositionEEE
V _ZTVN7android6VectorINS_17MatroskaExtractor9TrackInfoEEE
V _ZTVN7android6VectorINS_2spINS_13MPEG2TSWriter10SourceInfoEEEEE
V _ZTVN7android6VectorINS_2spINS_19AnotherPacketSourceEEEEE
V _ZTVN7android6VectorINS_2spINS_7ABufferEEEEE
V _ZTVN7android6VectorINS_2spINS_9ATSParser7ProgramEEEEE
V _ZTVN7android6VectorINS_7AStringEEE
V _ZTVN7android6VectorINS_7String8EEE
V _ZTVN7android6VectorINS_8OMXCodec10BufferInfoEEE
V _ZTVN7android6VectorINS_9M3UParser4ItemEEE
V _ZTVN7android6VectorINS_9MyHandler9TrackInfoEEE
V _ZTVN7android6VectorIPNS_11MediaBufferEEE
V _ZTVN7android6VectorIPNS_8OMXCodec17CodecSpecificDataEEE
V _ZTVN7android6VectorIhEE
V _ZTVN7android6VectorIjEE
V _ZTVN7android6VectorIyEE
V _ZTVN7android8AHandlerE
D _ZTVN7android8MetaDataE
D _ZTVN7android8OMXCodecE
D _ZTVN7android9AMRSourceE
D _ZTVN7android9AMRWriterE
D _ZTVN7android9ATSParser6StreamE
V _ZTVN7android9ATSParser7ProgramE
D _ZTVN7android9ATSParserE
D _ZTVN7android9M3UParserE
D _ZTVN7android9MP3SourceE
V _ZTVN7android9MyHandlerE
D _ZTVN7android9OggSourceE
D _ZTVN7android9UDPPusherE
D _ZTVN7android9WAVSourceE
D _ZTVN9mkvparser10AudioTrackE
D _ZTVN9mkvparser10BlockEntryE
D _ZTVN9mkvparser10BlockGroupE
D _ZTVN9mkvparser10IMkvReaderE
D _ZTVN9mkvparser10VideoTrackE
D _ZTVN9mkvparser11SimpleBlockE
D _ZTVN9mkvparser5Track8EOSBlockE
D _ZTVN9mkvparser5TrackE
D _ZTVN9mkvparser6TracksE
U _ZThn4_N7android13BnOMXObserver10onTransactEjRKNS_6ParcelEPS1_j
T _ZThn8_N7android10AVCDecoder20signalBufferReturnedEPNS_11MediaBufferE
T _ZThn8_N7android10AVCDecoderD0Ev
T _ZThn8_N7android10AVCDecoderD1Ev
T _ZThn8_N7android10AVCEncoder20signalBufferReturnedEPNS_11MediaBufferE
T _ZThn8_N7android10AVCEncoderD0Ev
T _ZThn8_N7android10AVCEncoderD1Ev
T _ZThn8_N7android12CameraSource20signalBufferReturnedEPNS_11MediaBufferE
T _ZThn8_N7android12CameraSourceD0Ev
T _ZThn8_N7android12CameraSourceD1Ev
T _ZThn8_N7android14M4vH263Decoder20signalBufferReturnedEPNS_11MediaBufferE
T _ZThn8_N7android14M4vH263DecoderD0Ev
T _ZThn8_N7android14M4vH263DecoderD1Ev
T _ZThn8_N7android14M4vH263Encoder20signalBufferReturnedEPNS_11MediaBufferE
T _ZThn8_N7android14M4vH263EncoderD0Ev
T _ZThn8_N7android14M4vH263EncoderD1Ev
T _ZThn8_N7android8OMXCodec20signalBufferReturnedEPNS_11MediaBufferE
T _ZThn8_N7android8OMXCodecD0Ev
T _ZThn8_N7android8OMXCodecD1Ev
U _ZTv0_n12_N7android10IInterfaceD0Ev
U _ZTv0_n12_N7android10IInterfaceD1Ev
W _ZTv0_n12_N7android11BnInterfaceINS_12IOMXObserverEED0Ev
W _ZTv0_n12_N7android11BnInterfaceINS_12IOMXObserverEED1Ev
U _ZTv0_n12_N7android12IOMXObserverD0Ev
U _ZTv0_n12_N7android12IOMXObserverD1Ev
W _ZTv0_n12_N7android13BnOMXObserverD0Ev
W _ZTv0_n12_N7android13BnOMXObserverD1Ev
W _ZTv0_n12_N7android14CameraListenerD0Ev
W _ZTv0_n12_N7android14CameraListenerD1Ev
W _ZTv0_n12_N7android16OMXCodecObserverD0Ev
W _ZTv0_n12_N7android16OMXCodecObserverD1Ev
T _ZTv0_n12_N7android20CameraSourceListenerD0Ev
T _ZTv0_n12_N7android20CameraSourceListenerD1Ev
U _ZTv0_n12_N7android7BBinderD0Ev
U _ZTv0_n12_N7android7BBinderD1Ev
U _ZTv0_n12_N7android7IBinderD0Ev
U _ZTv0_n12_N7android7IBinderD1Ev
U _ZdaPv
U _ZdlPv
U _Znaj
U _ZnajRKSt9nothrow_t
U _Znwj
U _ZnwjRKSt9nothrow_t
T __FINI_ARRAY__
T __INIT_ARRAY__
U __aeabi_atexit
U __aeabi_d2f
U __aeabi_d2iz
U __aeabi_d2lz
U __aeabi_d2uiz
U __aeabi_d2ulz
U __aeabi_dadd
U __aeabi_dcmpge
U __aeabi_dcmpgt
U __aeabi_dcmple
U __aeabi_dcmplt
U __aeabi_ddiv
U __aeabi_dmul
U __aeabi_dsub
U __aeabi_f2d
U __aeabi_f2iz
U __aeabi_f2uiz
U __aeabi_fadd
U __aeabi_fcmpeq
U __aeabi_fcmpge
U __aeabi_fcmpgt
U __aeabi_fcmple
U __aeabi_fcmplt
U __aeabi_fdiv
U __aeabi_fmul
U __aeabi_fsub
U __aeabi_i2d
U __aeabi_i2f
U __aeabi_idiv
U __aeabi_idivmod
U __aeabi_l2d
U __aeabi_l2f
T __aeabi_lasr
U __aeabi_ldivmod
T __aeabi_llsl
U __aeabi_lmul
U __aeabi_ui2d
U __aeabi_ui2f
U __aeabi_uidiv
U __aeabi_uidivmod
U __aeabi_ul2d
U __aeabi_uldivmod
U __aeabi_unwind_cpp_pr0
U __aeabi_unwind_cpp_pr1
U __android_log_assert
U __android_log_print
T __ashldi3
T __ashrdi3
A __bss_end__
A __bss_start
A __bss_start__
U __cxa_finalize
U __cxa_guard_acquire
U __cxa_guard_release
U __cxa_pure_virtual
D __data_start
B __dso_handle
A __end__
U __errno
A __exidx_end
A __exidx_start
U __sF
U __stack_chk_fail
U __stack_chk_guard
A _bss_end__
U _ctype_
A _edata
A _end
A _stack
U _vorbis_unpack_books
U _vorbis_unpack_comment
U _vorbis_unpack_info
R aFixNoEnvDecode
R aFractDelayPhaseFactor
R aFractDelayPhaseFactorSubQmf
R aNoIccBins
R aNoIidBins
R aRevLinkDecaySerCoeff
R aRevLinkDelaySer
R aaFractDelayPhaseFactorSerQmf
R aaFractDelayPhaseFactorSerSubQmf
U add
T add_pulses
T agc
T agc2
T agc2_amr_wb
T agc_reset
T amrwb_log_2
T analysis_sub_band
T analysis_sub_band_LC
U androidGetTid
T apply_tns
T aver_isf_history
T band_pass_6k_7k
T band_pass_6k_7k_init
U bind
R bins2groupMap
T bitCount
T bitCountScalefactorDelta
U bitno
R bitrevTab
T bits2pe
T blk_intra4x4_search
R bookSbrEnvBalance10F
R bookSbrEnvBalance10T
R bookSbrEnvBalance11F
R bookSbrEnvBalance11T
R bookSbrEnvLevel10F
R bookSbrEnvLevel10T
R bookSbrEnvLevel11F
R bookSbrEnvLevel11T
R bookSbrNoiseBalance11T
R bookSbrNoiseLevel11T
T buf_get_1bit
T buf_getbits
T build_CN_code
T build_CN_param
T byte_align
T byte_aligned
T cal_dc_scaler
T cal_dc_scalerENC
T calcSfbDist
T calcSfbPe
T calc_auto_corr
T calc_auto_corr_LC
T calc_filt_energies
T calc_gsfb_table
T calc_sbr_anafilterbank
T calc_sbr_anafilterbank_LC
T calc_sbr_envelope
T calc_sbr_synfilterbank
T calc_sbr_synfilterbank_LC
T calc_target_energy
T calc_unfilt_energies
T calculate_crc
U calloc
T cbsearch
T ce_RunBefore
T ce_TotalCoeffTrailingOnes
T ce_TotalCoeffTrailingOnesChromaDC
T ce_TotalZeros
T ce_TotalZerosChromaDC
T check_crc
T check_gp_clipping
T check_lsp
T chroma_intra_search
T cl_ltp
T cl_ltp_exit
T cl_ltp_init
T cl_ltp_reset
T clamp_mvs
U close
U cmnMemAlloc
U cmnMemCheck
U cmnMemCopy
U cmnMemFree
U cmnMemSet
T cod_amr
T cod_amr_exit
T cod_amr_first
T cod_amr_init
T cod_amr_reset
T codeScalefactorDelta
T codeValues
T code_10i40_35bits
T code_2i40_11bits
T code_2i40_9bits
T code_3i40_14bits
T code_4i40_17bits
T code_8i40_31bits
T coder
T comp_corr
U connect
T cor_h
T cor_h_vec_012
T cor_h_vec_012_asm
T cor_h_vec_30
T cor_h_x
T cor_h_x2
R corrweight
R cossintab
T cost_i16
T cost_i4
T countStaticBitdemand
T d_gain_code
T d_gain_pitch
T dct_16
T dct_32
T dct_64
T dct_chroma
T dct_luma
T dct_luma_16x16
T dec_10i40_35bits
T dec_1p_N1
T dec_2p_2N1
T dec_3p_3N1
T dec_4p_4N
T dec_4p_4N1
T dec_5p_5N
T dec_6p_6N_2
T dec_8i40_31bits
T dec_acelp_2p_in_64
T dec_acelp_4p_in_64
T dec_gain2_amr_wb
T dec_gain2_amr_wb_init
T dec_ref_pic_marking
T decode_2i40_11bits
T decode_2i40_9bits
T decode_3i40_14bits
T decode_4i40_17bits
T decode_huff_cw_tab1
T decode_huff_cw_tab10
T decode_huff_cw_tab11
T decode_huff_cw_tab2
T decode_huff_cw_tab3
T decode_huff_cw_tab4
T decode_huff_cw_tab5
T decode_huff_cw_tab6
T decode_huff_cw_tab7
T decode_huff_cw_tab8
T decode_huff_cw_tab9
T decode_huff_scl
T decode_noise_floorlevels
T deemphasis_32
T deinterleave
U dgray
R dico1_isf
R dico1_isf_noise
U dico1_lsf_3
U dico1_lsf_5
R dico21_isf
R dico21_isf_36b
R dico22_isf
R dico22_isf_36b
R dico23_isf
R dico23_isf_36b
R dico24_isf
R dico25_isf
R dico2_isf
R dico2_isf_noise
U dico2_lsf_3
U dico2_lsf_5
R dico3_isf_noise
U dico3_lsf_3
U dico3_lsf_5
R dico4_isf_noise
U dico4_lsf_5
R dico5_isf_noise
U dico5_lsf_5
T differential_Decoding
T digit_reversal_swapping
R digit_reverse_256
R digit_reverse_64
T dithering_control
T div_16by16
U div_s
U dlclose
U dlopen
U dlsym
T doDCACPrediction
T doDCACPrediction_I
T dst_16
T dst_32
T dst_8
T dtx_buffer
T dtx_dec
T dtx_dec_activity_update
T dtx_dec_amr_wb
T dtx_dec_amr_wb_activity_update
T dtx_dec_amr_wb_reset
T dtx_dec_reset
T dtx_enc
T dtx_enc_exit
T dtx_enc_init
T dtx_enc_reset
U dup
T dynBitCount
T eChromaDiagonalMC2_SIMD
T eChromaDiagonalMC_SIMD
T eChromaFullMC_SIMD
T eChromaHorizontalMC2_SIMD
T eChromaHorizontalMC_SIMD
T eChromaMotionComp
T eChromaVerticalMC2_SIMD
T eChromaVerticalMC_SIMD
T eDiagonalInterpMC
T eFullPelMC
T eHorzInterp1MC
T eHorzInterp2MC
T eHorzInterp3MC
T eLumaMotionComp
T eVertInterp1MC
T eVertInterp2MC
T eVertInterp3MC
T ec_gain_code
T ec_gain_code_reset
T ec_gain_code_update
T ec_gain_pitch
T ec_gain_pitch_reset
T ec_gain_pitch_update
T eight_ch_filtering
T enc_residual_block
T encoder_homing_frame_test
T energy_estimation
T energy_estimation_LC
T envelope_application
T envelope_application_LC
T esc_iquant_scaling
T ets_to_if2
T ets_to_wmf
R exp_rotation_N_2048
R exp_rotation_N_256
T extractFrameInfo
U extract_h
U extract_l
U fclose
U fcntl
U fdopen
U fflush
T fft_rx4_long
T fft_rx4_short
T fillMainDataBuf
T find_cost_16x16
T find_frame_indices
T find_pmvs
D fir_6k_7k
R fir_table
U fopen
R formfac_sqrttable
U fread
U free
U freeaddrinfo
U fseek
U fseeko
U ftello
T fullsearch
T fullsearchBlk
U fwrite
T gainQuant
T gainQuant_exit
T gainQuant_init
T gainQuant_reset
T gain_adapt
T gain_adapt_exit
T gain_adapt_init
T gain_adapt_reset
U gc_pred
U gc_pred_average_limited
U gc_pred_reset
U gc_pred_update
W get17_n_lessbits
T get1bit
W get9_n_lessbits
T getBlockSAV
T getBlockSum
T getMotionCompensatedMB
T getNbits
T getPointer
T getUpTo17bits
T getUpTo9bits
T get_MB
T get_ics_info
T get_pulse_data
T get_sbr_bitstream
T get_tns
U getaddrinfo
W getbits
T getbits_crc
T getgroup
U gethostbyname
T getics
T getmask
U getpid
U getsockname
U getsockopt
U gettimeofday
U gmed_n
U gmtime
U gray
R groupBorders
T groupShortData
R hcbbook_binary
D hiPassCoeff
T high_freq_coeff
T high_freq_coeff_LC
T high_freq_generation
T high_freq_generation_LC
T highpass_400Hz_at_12k8
T highpass_400Hz_at_12k8_init
T highpass_50Hz_at_12k8
T highpass_50Hz_at_12k8_init
T hp_max
R huffTable_1
R huffTable_10
R huffTable_11
R huffTable_12
R huffTable_13
R huffTable_15
R huffTable_16
R huffTable_2
R huffTable_24
R huffTable_3
R huffTable_32
R huffTable_5
R huffTable_6
R huffTable_7
R huffTable_8
R huffTable_9
R huff_ctab1
R huff_ctab10
R huff_ctab11
R huff_ctab2
R huff_ctab3
R huff_ctab4
R huff_ctab5
R huff_ctab6
R huff_ctab7
R huff_ctab8
R huff_ctab9
R huff_ctabscf
R huff_ltab11
R huff_ltab1_2
R huff_ltab3_4
R huff_ltab5_6
R huff_ltab7_8
R huff_ltab9_10
R huff_ltabscf
R huff_tab1
R huff_tab10
R huff_tab11
R huff_tab2
R huff_tab3
R huff_tab4
R huff_tab5
R huff_tab6
R huff_tab7
R huff_tab8
R huff_tab9
R huff_tab_scl
T huffcb
T huffdecode
T hufffac
T huffspec_fxp
T idct_16
T idct_32
T idct_8
T idct_col0
T idct_col0x10
T idct_col0x20
T idct_col0x40
T idct_col1
T idct_col2
T idct_col3
T idct_col4
T idct_row0Inter
T idct_row0Intra
T idct_row0x10Inter
T idct_row0x10Intra
T idct_row0x10zmv
T idct_row0x20Inter
T idct_row0x20Intra
T idct_row0x20zmv
T idct_row0x40Inter
T idct_row0x40Intra
T idct_row0x40zmv
T idct_row0zmv
T idct_row1Inter
T idct_row1Intra
T idct_row1zmv
T idct_row2Inter
T idct_row2Intra
T idct_row2zmv
T idct_row3Inter
T idct_row3Intra
T idct_row3zmv
T idct_row4Inter
T idct_row4Intra
T idct_row4zmv
T idct_rowInter
T idct_rowIntra
T idct_rowzmv
T idctcol0
T idctcol1
T idctcol2
T idctcol3
T idctcol4
T idctrow0
T idctrow0_intra
T idctrow1
T idctrow1_intra
T idctrow2
T idctrow2_intra
T idctrow3
T idctrow3_intra
T idctrow4
T idctrow4_intra
T if2_to_ets
T imdct_fxp
U inet_addr
U inet_ntoa
T infoinit
T int32_to_dpf
D inter4_2
R inter_6
R inter_max_level
R inter_max_run0
R inter_max_run1
T interpolate_isp
R intra_max_level
R intra_max_run0
R intra_max_run1
T intrapred_luma_16x16
R invSBF
T inv_long_complex_rot
R inv_sfreq
R inverseQuantTable
T isf_extrapolation
R lag_h
R lag_l
T lagconceal
R limGains
T limitMinMax
U log
T long_term_prediction
U longjmp
T low_pass_filt_7k
T low_pass_filt_7k_init
T lpc
T lpc_exit
T lpc_init
T lpc_reset
U lrand48
U lseek
U lsp
T lsp_avg
T lsp_avg_reset
U lsp_exit
U lsp_init
U lsp_init_data
U lsp_reset
R mTab_3_4
R mTab_4_3
R m_log2_table
U malloc
T map34IndexTo20
T mb_init_dequantizer
T mb_intra4x4_search
T mb_pred
T mdct_32
T mdct_fxp
T mdst_32
R mean_isf
R mean_isf_noise
U mean_lsf_3
U mean_lsf_5
T median5
U memcmp
U memcpy
U memmove
U memset
T mime_unsorting
T mix_radix_fft
T more_rbsp_data
T movePointerTo
R mp3_bitrate
R mp3_s_freq
R mp3_sfBandIndex
R mp3_shortwindBandWidths
T mpy_dpf_32
U mr515_3_lsf
U mr795_1_lsf
T mult_int16_r
T mv_prediction
T noise_gen_amrwb
U norm_l
U norm_s
T normalize_amr_wb
U numCompressedBytes
U numOfBits
U oggpack_read
U oggpack_readinit
T ol_ltp
T one_ov_sqrt
T one_ov_sqrt_norm
T oversamp_12k8_to_16k
T oversamp_12k8_to_16k_init
T p_ol_wgh_exit
T p_ol_wgh_init
T p_ol_wgh_reset
R packed_size
U past_rq_init
T ph_disp
T ph_disp_lock
T ph_disp_release
T ph_disp_reset
U ph_imp_low
U ph_imp_low_MR795
U ph_imp_mid
U ph_imp_mid_MR795
T phase_dispersion
T pns_left
U pow
R pow2tominusNover16
T power_1_third
T power_of_2
R power_one_third
T pp_semaphore_chroma_inter
T pp_semaphore_luma
R pqmfSynthWin
U prctl
T pre_big
U pred_fac_3
T pred_lt4_asm
T preemph_amrwb_dec
T preemphasis
T preemphasis_reset
T prepareSfbPe
U printf
U prmno
U property_get
T ps_all_pass_fract_delay_filter_type_I
T ps_all_pass_fract_delay_filter_type_II
T ps_allocate_decoder
T ps_applied
T ps_bstr_decoding
T ps_decorrelate
T ps_fft_rx8
T ps_hybrid_analysis
T ps_hybrid_filter_bank_allocation
T ps_hybrid_synthesis
T ps_init_stereo_mixing
T ps_pwr_transient_detection
T ps_read_data
T ps_stereo_processing
T pseudonoise
T psyMain
T psyMainInit
U pthread_attr_destroy
U pthread_attr_init
U pthread_attr_setdetachstate
U pthread_cond_broadcast
U pthread_cond_destroy
U pthread_cond_init
U pthread_cond_signal
U pthread_cond_timedwait_relative_np
U pthread_cond_wait
U pthread_create
U pthread_join
U pthread_mutex_destroy
U pthread_mutex_init
U pthread_mutex_lock
U pthread_mutex_unlock
R ptrRvlcTab
T pulse_nc
U putchar
U puts
T pvDecoder_AmrWb
T pvDecoder_AmrWbMemRequirements
T pvDecoder_AmrWb_Init
T pvDecoder_AmrWb_Reset
T pv_cosine
T pv_div
T pv_log2
T pv_merge_in_place_N32
T pv_normalize
T pv_pow2
U pv_round
T pv_sine
T pv_split
T pv_split_LC
T pv_split_z
T pv_sqrt
T pvmp3_InitDecoder
T pvmp3_alias_reduction
T pvmp3_dct_16
T pvmp3_dct_6
T pvmp3_dct_9
T pvmp3_decode_header
T pvmp3_decode_huff_cw_tab0
T pvmp3_decode_huff_cw_tab1
T pvmp3_decode_huff_cw_tab10
T pvmp3_decode_huff_cw_tab11
T pvmp3_decode_huff_cw_tab12
T pvmp3_decode_huff_cw_tab13
T pvmp3_decode_huff_cw_tab15
T pvmp3_decode_huff_cw_tab16
T pvmp3_decode_huff_cw_tab2
T pvmp3_decode_huff_cw_tab24
T pvmp3_decode_huff_cw_tab3
T pvmp3_decode_huff_cw_tab32
T pvmp3_decode_huff_cw_tab33
T pvmp3_decode_huff_cw_tab5
T pvmp3_decode_huff_cw_tab6
T pvmp3_decode_huff_cw_tab7
T pvmp3_decode_huff_cw_tab8
T pvmp3_decode_huff_cw_tab9
T pvmp3_decoderMemRequirements
T pvmp3_dequantize_sample
T pvmp3_equalizer
T pvmp3_frame_synch
T pvmp3_framedecoder
T pvmp3_get_main_data_size
T pvmp3_get_scale_factors
T pvmp3_get_side_info
T pvmp3_header_sync
T pvmp3_huffman_pair_decoding
T pvmp3_huffman_pair_decoding_linbits
T pvmp3_huffman_parsing
T pvmp3_huffman_quad_decoding
T pvmp3_imdct_synth
T pvmp3_mdct_18
T pvmp3_mdct_6
T pvmp3_merge_in_place_N32
T pvmp3_mpeg2_get_scale_data
T pvmp3_mpeg2_get_scale_factors
T pvmp3_mpeg2_stereo_proc
T pvmp3_normalize
T pvmp3_poly_phase_synthesis
T pvmp3_polyphase_filter_window
T pvmp3_reorder
T pvmp3_resetDecoder
T pvmp3_split
T pvmp3_st_intensity
T pvmp3_st_intensity_ver2
T pvmp3_st_mid_side
T pvmp3_stereo_proc
T q_gain_code
T q_gain_pitch
T q_normalize
U qua_gain_code
U qua_gain_pitch
R quantBorders
R quantRecon
T quant_1p_N1
T quant_2p_2N1
T quant_3p_3N1
T quant_4p_4N
T quant_4p_4N1
T quant_5p_5N
T quant_6p_6N_2
T quickSearchDCM
T quickSearchGOBHeader
T quickSearchH263SliceHeader
T quickSearchMotionMarker
T quickSearchVideoPacketHeader
R rP_LCx
R rPxx
R rates
U realloc
U recv
U recvfrom
T ref_pic_list_reordering
U reorderBits
T rx_amr_wb_dtx_handler
T rx_dtx_handler
W sad_mb_offset1
W sad_mb_offset2
W sad_mb_offset3
R sampRateTab
R samp_rate_info
R sbrDecoderFilterbankCoefficients
R sbrDecoderFilterbankCoefficients_an_filt
R sbrDecoderFilterbankCoefficients_an_filt_LC
R sbrDecoderFilterbankCoefficients_down_smpl
T sbr_applied
T sbr_create_limiter_bands
T sbr_dec
T sbr_decode_envelope
T sbr_decode_huff_cw
T sbr_downsample_lo_res
T sbr_generate_high_freq
T sbr_get_envelope
T sbr_get_noise_floor_data
T sbr_get_sce
T sbr_read_data
R scale
T scale_mem_Hp_wsp
T scale_signal
U sched_yield
T se_v
T search_10and8i40
T search_ixiy
U select
U sem_destroy
U sem_init
U sem_post
U sem_wait
U send
U sendto
U set_sched_policy
T set_sign
T set_sign12k2
U setjmp
U setpriority
U setsockopt
R sfBandTabLong
R sfBandTabLongOffset
R sfBandTabShort
R sfBandTabShortOffset
R sfBandTotalLong
R sfBandTotalShort
R sfb_16_1024
R sfb_16_128
R sfb_24_1024
R sfb_24_128
R sfb_32_1024
R sfb_48_1024
R sfb_48_128
R sfb_64_1024
R sfb_64_128
R sfb_8_1024
R sfb_8_128
R sfb_96_1024
U shr
U shr_r
T shr_rnd
T sid_sync
T sid_sync_exit
T sid_sync_init
T sid_sync_reset
T sid_sync_set_handover_debt
R sideInfoTabLong
R sideInfoTabShort
W simd_sad_mb
R smoothLengths
U snprintf
U socket
R sort_1265
R sort_1425
R sort_1585
R sort_1825
R sort_1985
R sort_2305
R sort_2385
R sort_660
R sort_885
R sort_SID
D specExpMantTableComb_enc
R specExpTableComb_enc
U sprintf
U sqrt
U sqrt_l_exp
U sscanf
U startPos
U strcasecmp
U strchr
U strcmp
U strdup
U strerror
U strftime
U strlen
U strncasecmp
U strncmp
U strncpy
U strrchr
U strtod
U strtol
U strtoul
U strzcmp16
U sub
T sub_mb_pred
T subframePostProc
T subframePreProc
T synthesis_amr_wb
T synthesis_sub_band
T synthesis_sub_band_LC
T synthesis_sub_band_LC_down_sampled
T synthesis_sub_band_down_sampled
U systemTime
R t_qua_gain6b
R t_qua_gain7b
R table_gain_MR475
U table_gain_highrates
U table_gain_lowrates
T te_v
U time
R tnsCoeff3
R tnsCoeff3Borders
R tnsCoeff4
R tnsCoeff4Borders
T tns_ar_filter
T tns_decode_coef
R toc_byte
T ton_stab_exit
T ton_stab_init
T ton_stab_reset
T trans4m_freq_2_time_fxp_1
T trans4m_freq_2_time_fxp_2
T trans4m_time_2_freq_fxp
R twidTab512
R twidTab64
T two_ch_filtering
T tx_dtx_handler
T ue_v
T unpack_idx
T unpack_idx_esc
T unpack_idx_sgn
R unpacked_size
R unused_size
T updateBitres
T update_gp_clipping
U usleep
U vad1
U vad1_exit
U vad1_init
U vad1_reset
U vad_complex_detection_update
U vad_pitch_detection
U vad_tone_detection
U vad_tone_detection_update
T validStuffing
T validStuffing_h263
T voAACEncGetOutputData
T voAACEncGetParam
T voAACEncInit
T voAACEncSetInputData
T voAACEncSetParam
T voAACEncUninit
T voAACEnc_Div_32
T voAACEnc_L_Comp
T voAACEnc_L_Extract
T voAACEnc_Mpy_32
T voAACEnc_Mpy_32_16
T voAACEnc_iLog4
T voAACEnc_mem_free
T voAACEnc_mem_malloc
T voAACEnc_pow2_xy
T voAACEnc_rsqrt
T voAMRWB_GetOutputData
T voAMRWB_GetParam
T voAMRWB_Init
T voAMRWB_SetInputData
T voAMRWB_SetParam
T voAMRWB_Uninit
T voAWB_Autocorr
T voAWB_Copy
T voAWB_Disf_ns
T voAWB_Div_32
T voAWB_Dot_product12
T voAWB_Dpisf_2s_36b
T voAWB_Dpisf_2s_46b
T voAWB_FlushFrameBuffer
T voAWB_G_pitch
T voAWB_InitFrameBuffer
T voAWB_Isf_isp
T voAWB_Isp_Az
T voAWB_L_Comp
T voAWB_Lag_window
T voAWB_Levinson
T voAWB_Log2
T voAWB_Log2_norm
T voAWB_Mpy_32
T voAWB_Mpy_32_16
T voAWB_Pit_shrp
T voAWB_Pow2
T voAWB_Pred_lt4
T voAWB_Qisf_ns
T voAWB_Reorder_isf
T voAWB_Set_zero
T voAWB_Syn_filt
T voAWB_Syn_filt_32
T voAWB_UpdateFrameBuffer
T voAWB_cor_h_x
T voAWB_dtx_buffer
T voAWB_dtx_enc
T voAWB_dtx_enc_exit
T voAWB_dtx_enc_init
T voAWB_dtx_enc_reset
T voAWB_median5
T voAWB_mem_free
T voAWB_mem_malloc
T voAWB_tx_dtx_handler
T voAWB_voice_factor
T voGetAACEncAPI
T voGetAMRWBEncAPI
R vo_window
R vogrid
T voice_factor
U vorbis_comment_clear
U vorbis_comment_init
U vorbis_dsp_clear
U vorbis_dsp_init
U vorbis_dsp_pcmout
U vorbis_dsp_restart
U vorbis_dsp_synthesis
U vorbis_info_clear
U vorbis_info_init
T vp8_above_bmi
T vp8_ac2quant
T vp8_ac_uv_quant
T vp8_ac_yquant
T vp8_adjust_mb_lf_value
T vp8_alloc_frame_buffers
T vp8_arch_arm_common_init
T vp8_arch_arm_decode_init
T vp8_bilinear_predict16x16_c
T vp8_bilinear_predict4x4_c
T vp8_bilinear_predict8x4_c
T vp8_bilinear_predict8x8_c
R vp8_block2above
R vp8_block2left
R vp8_block2type
T vp8_block_variation_c
B vp8_bmode_encodings
R vp8_bmode_tree
T vp8_build_block_doffsets
T vp8_build_inter_predictors2b
T vp8_build_inter_predictors4b
T vp8_build_inter_predictors_b
T vp8_build_inter_predictors_mb
T vp8_build_inter_predictors_mb_s
T vp8_build_inter_predictors_mbuv
T vp8_build_inter_predictors_mby
T vp8_build_intra_predictors_mbuv
T vp8_build_intra_predictors_mbuv_s
T vp8_build_intra_predictors_mby
B vp8_build_intra_predictors_mby_ptr
T vp8_build_intra_predictors_mby_s
B vp8_build_intra_predictors_mby_s_ptr
T vp8_build_uvmvs
T vp8_clamp_mv
R vp8_coef_bands
D vp8_coef_bands_x
B vp8_coef_encodings
R vp8_coef_tree
T vp8_coef_tree_initialize
R vp8_coef_update_probs
T vp8_copy_mem16x16_c
T vp8_copy_mem8x4_c
T vp8_copy_mem8x8_c
T vp8_create_common
D vp8_ctf_maps
T vp8_dc2quant
T vp8_dc_only_idct_add_c
T vp8_dc_quant
T vp8_dc_uv_quant
T vp8_de_alloc_frame_buffers
T vp8_decode_frame
T vp8_decode_macroblock
T vp8_decode_mb_row
T vp8_decode_mb_tokens
T vp8_decode_mode_mvs
T vp8_decoder_create_threads
T vp8_decoder_remove_threads
T vp8_default_bmode_probs
T vp8_default_coef_probs
R vp8_default_mv_context
R vp8_default_zig_zag1d
B vp8_default_zig_zag_mask
T vp8_dequant_dc_idct_add_c
T vp8_dequant_dc_idct_add_y_block_c
T vp8_dequant_idct_add_c
T vp8_dequant_idct_add_uv_block_c
T vp8_dequant_idct_add_y_block_c
T vp8_dequantize_b_c
T vp8_dmachine_specific_config
T vp8_entropy_mode_init
T vp8_extend_mb_row
T vp8_extend_to_multiple_of16
D vp8_extra_bits
T vp8_filter_block2d
T vp8_filter_block2d_bil
T vp8_filter_block2d_bil_first_pass
T vp8_filter_block2d_bil_second_pass
T vp8_filter_block2d_first_pass
T vp8_filter_block2d_second_pass
T vp8_find_near_mvs
T vp8_frame_init_loop_filter
B vp8_horizontal_line_1_2_scale
B vp8_horizontal_line_2_1_scale
B vp8_horizontal_line_2_3_scale
B vp8_horizontal_line_3_4_scale
B vp8_horizontal_line_3_5_scale
B vp8_horizontal_line_4_5_scale
B vp8_horizontal_line_5_3_scale
B vp8_horizontal_line_5_4_scale
T vp8_init_loop_filter
T vp8_init_mbmode_probs
T vp8_init_scan_order_mask
T vp8_initialize_common
T vp8_intra_prediction_down_copy
R vp8_kf_default_bmode_counts
T vp8_kf_default_bmode_probs
B vp8_kf_ymode_encodings
R vp8_kf_ymode_tree
B vp8_last_vertical_band_1_2_scale
B vp8_last_vertical_band_2_3_scale
B vp8_last_vertical_band_3_4_scale
B vp8_last_vertical_band_3_5_scale
B vp8_last_vertical_band_4_5_scale
T vp8_left_bmi
T vp8_loop_filter_bh_c
T vp8_loop_filter_bhs_c
T vp8_loop_filter_bv_c
T vp8_loop_filter_bvs_c
T vp8_loop_filter_frame
T vp8_loop_filter_frame_yonly
T vp8_loop_filter_horizontal_edge_c
T vp8_loop_filter_mbh_c
T vp8_loop_filter_mbhs_c
T vp8_loop_filter_mbv_c
T vp8_loop_filter_mbvs_c
T vp8_loop_filter_partial_frame
T vp8_loop_filter_simple_horizontal_edge_c
T vp8_loop_filter_simple_vertical_edge_c
T vp8_loop_filter_vertical_edge_c
T vp8_machine_specific_config
R vp8_mb_feature_data_bits
T vp8_mb_mode_mv_init
T vp8_mbloop_filter_horizontal_edge_c
T vp8_mbloop_filter_vertical_edge_c
R vp8_mbsplit_count
B vp8_mbsplit_encodings
D vp8_mbsplit_fill_count
D vp8_mbsplit_fill_offset
D vp8_mbsplit_offset
R vp8_mbsplit_probs
R vp8_mbsplit_tree
R vp8_mbsplits
R vp8_mode_contexts
T vp8_mv_cont
B vp8_mv_ref_encoding_array
T vp8_mv_ref_probs
R vp8_mv_ref_tree
R vp8_mv_update_probs
T vp8_predict_intra4x4
R vp8_prev_token_class
T vp8_read_mb_modes_mv
T vp8_recon2b_c
T vp8_recon4b_c
T vp8_recon_b_c
T vp8_recon_intra4x4mb
T vp8_recon_intra_mbuv
T vp8_recon_mb_c
T vp8_recon_mby_c
T vp8_remove_common
T vp8_reset_mb_tokens_context
T vp8_scale_frame
T vp8_scale_machine_specific_config
T vp8_setup_block
T vp8_setup_block_dptrs
T vp8_setup_decoding_thread_data
T vp8_setup_intra_recon
T vp8_setup_macroblock
T vp8_setup_version
T vp8_short_idct4x4llm_1_c
T vp8_short_idct4x4llm_c
T vp8_short_inv_walsh4x4_1_c
T vp8_short_inv_walsh4x4_c
T vp8_sixtap_predict16x16_c
T vp8_sixtap_predict8x4_c
T vp8_sixtap_predict8x8_c
T vp8_sixtap_predict_c
B vp8_small_mvencodings
R vp8_small_mvtree
B vp8_sub_mv_ref_encoding_array
R vp8_sub_mv_ref_prob2
R vp8_sub_mv_ref_tree
T vp8_thread_decoding_proc
T vp8_tokens_from_tree
T vp8_tokens_from_tree_offset
T vp8_tree_probs_from_distribution
T vp8_update_mode_info_border
B vp8_uv_mode_encodings
R vp8_uv_mode_tree
B vp8_vertical_band_1_2_scale
B vp8_vertical_band_2_1_scale
B vp8_vertical_band_2_1_scale_i
B vp8_vertical_band_2_3_scale
B vp8_vertical_band_3_4_scale
B vp8_vertical_band_3_5_scale
B vp8_vertical_band_4_5_scale
B vp8_vertical_band_5_3_scale
B vp8_vertical_band_5_4_scale
B vp8_ymode_encodings
R vp8_ymode_tree
T vp8_yv12_alloc_frame_buffer
T vp8_yv12_black_frame_buffer
T vp8_yv12_copy_frame
B vp8_yv12_copy_frame_ptr
T vp8_yv12_copy_frame_yonly
B vp8_yv12_copy_frame_yonly_ptr
T vp8_yv12_de_alloc_frame_buffer
T vp8_yv12_extend_frame_borders
B vp8_yv12_extend_frame_borders_ptr
T vp8_yv12_extend_frame_borders_yonly
T vp8_yv12_scale_or_center
T vp8cx_horizontal_line_1_2_scale_c
T vp8cx_horizontal_line_2_1_scale_c
T vp8cx_horizontal_line_2_3_scale_c
T vp8cx_horizontal_line_3_4_scale_c
T vp8cx_horizontal_line_3_5_scale_c
T vp8cx_horizontal_line_4_5_scale_c
T vp8cx_horizontal_line_5_3_scale_c
T vp8cx_horizontal_line_5_4_scale_c
T vp8cx_init_de_quantizer
T vp8cx_last_vertical_band_1_2_scale_c
T vp8cx_last_vertical_band_2_3_scale_c
T vp8cx_last_vertical_band_3_4_scale_c
T vp8cx_last_vertical_band_3_5_scale_c
T vp8cx_last_vertical_band_4_5_scale_c
T vp8cx_vertical_band_1_2_scale_c
T vp8cx_vertical_band_2_1_scale_c
T vp8cx_vertical_band_2_1_scale_i_c
T vp8cx_vertical_band_2_3_scale_c
T vp8cx_vertical_band_3_4_scale_c
T vp8cx_vertical_band_3_5_scale_c
T vp8cx_vertical_band_4_5_scale_c
T vp8cx_vertical_band_5_3_scale_c
T vp8cx_vertical_band_5_4_scale_c
R vp8dx_bitreader_norm
T vp8dx_bool_decoder_fill_c
T vp8dx_create_decompressor
T vp8dx_get_raw_frame
T vp8dx_get_reference
T vp8dx_get_setting
T vp8dx_initialize
T vp8dx_receive_compressed_data
T vp8dx_remove_decompressor
T vp8dx_set_reference
T vp8dx_set_setting
T vp8dx_start_decode_c
T vp8mt_alloc_temp_buffers
T vp8mt_build_intra_predictors_mbuv
T vp8mt_build_intra_predictors_mbuv_s
T vp8mt_build_intra_predictors_mby
T vp8mt_build_intra_predictors_mby_s
T vp8mt_de_alloc_temp_buffers
T vp8mt_decode_macroblock
T vp8mt_decode_mb_rows
T vp8mt_intra_prediction_down_copy
T vp8mt_lpf_init
T vp8mt_predict_intra4x4
T vpx_calloc
T vpx_codec_control_
T vpx_codec_dec_init_ver
T vpx_codec_decode
T vpx_codec_destroy
T vpx_codec_err_to_string
T vpx_codec_error
T vpx_codec_error_detail
T vpx_codec_get_caps
T vpx_codec_get_frame
T vpx_codec_get_mem_map
T vpx_codec_get_stream_info
T vpx_codec_iface_name
T vpx_codec_peek_stream_info
T vpx_codec_register_put_frame_cb
T vpx_codec_register_put_slice_cb
T vpx_codec_set_mem_map
T vpx_codec_version
T vpx_codec_version_extra_str
T vpx_codec_version_str
D vpx_codec_vp8_algo
T vpx_codec_vp8_dx
D vpx_codec_vp8_dx_algo
T vpx_free
T vpx_img_alloc
T vpx_img_flip
T vpx_img_free
T vpx_img_set_rect
T vpx_img_wrap
T vpx_malloc
T vpx_mem_get_version
T vpx_mem_set_functions
T vpx_mem_set_heap_size
T vpx_mem_unset_functions
T vpx_memalign
T vpx_memcpy
T vpx_memmove
T vpx_memset
T vpx_realloc
U vsnprintf
R w_512rx2
T wb_syn_filt
T wb_vad
T wb_vad_exit
T wb_vad_init
T wb_vad_reset
T wb_vad_tone_detection
T weight_amrwb_lpc
U window_160_80
U window_200_40
U window_232_8
T wmf_to_ets
U write
R zigzag_inv
