U _ZN7android10IInterface8asBinderEv
U _ZN7android10IInterfaceD0Ev
U _ZN7android10IInterfaceD1Ev
U _ZN7android10VectorImpl13finish_vectorEv
U _ZN7android10VectorImpl13removeItemsAtEjj
U _ZN7android10VectorImpl16editItemLocationEj
U _ZN7android10VectorImpl19reservedVectorImpl1Ev
U _ZN7android10VectorImpl19reservedVectorImpl2Ev
U _ZN7android10VectorImpl19reservedVectorImpl3Ev
U _ZN7android10VectorImpl19reservedVectorImpl4Ev
U _ZN7android10VectorImpl19reservedVectorImpl5Ev
U _ZN7android10VectorImpl19reservedVectorImpl6Ev
U _ZN7android10VectorImpl19reservedVectorImpl7Ev
U _ZN7android10VectorImpl19reservedVectorImpl8Ev
U _ZN7android10VectorImpl4pushEPKv
U _ZN7android10VectorImpl5clearEv
U _ZN7android10VectorImplC2Ejj
U _ZN7android10VectorImplD2Ev
W _ZN7android11BnInterfaceINS_12IOMXRendererEE10onAsBinderEv
W _ZN7android11BnInterfaceINS_4IOMXEE10onAsBinderEv
T _ZN7android11OMXRenderer6renderEPv
T _ZN7android11OMXRendererC1EPNS_13VideoRendererE
T _ZN7android11OMXRendererC2EPNS_13VideoRendererE
T _ZN7android11OMXRendererD0Ev
T _ZN7android11OMXRendererD1Ev
T _ZN7android11OMXRendererD2Ev
U _ZN7android12IOMXRenderer10descriptorE
U _ZN7android12IOMXRendererC2Ev
U _ZN7android12IOMXRendererD0Ev
U _ZN7android12IOMXRendererD1Ev
U _ZN7android12IOMXRendererD2Ev
W _ZN7android12compare_typeINS_16key_value_pair_tINS_7String8EPNS_13OMXPluginBaseEEEEEiRKT_S8_
U _ZN7android13BnOMXRenderer10onTransactEjRKNS_6ParcelEPS1_j
T _ZN7android15OMXNodeInstance10fillBufferEPv
T _ZN7android15OMXNodeInstance10freeBufferEmPv
D _ZN7android15OMXNodeInstance10kCallbacksE
T _ZN7android15OMXNodeInstance11emptyBufferEPvmmmx
T _ZN7android15OMXNodeInstance11sendCommandE15OMX_COMMANDTYPEl
T _ZN7android15OMXNodeInstance12getParameterE13OMX_INDEXTYPEPvj
T _ZN7android15OMXNodeInstance12setParameterE13OMX_INDEXTYPEPKvj
T _ZN7android15OMXNodeInstance14allocateBufferEmjPPvS2_
T _ZN7android15OMXNodeInstance14onObserverDiedEPNS_9OMXMasterE
T _ZN7android15OMXNodeInstance15addActiveBufferEmPv
T _ZN7android15OMXNodeInstance16OnFillBufferDoneEPvS1_P20OMX_BUFFERHEADERTYPE
T _ZN7android15OMXNodeInstance17OnEmptyBufferDoneEPvS1_P20OMX_BUFFERHEADERTYPE
T _ZN7android15OMXNodeInstance17freeActiveBuffersEv
T _ZN7android15OMXNodeInstance17getExtensionIndexEPKcP13OMX_INDEXTYPE
T _ZN7android15OMXNodeInstance17onGetHandleFailedEv
T _ZN7android15OMXNodeInstance18removeActiveBufferEmPv
T _ZN7android15OMXNodeInstance24allocateBufferWithBackupEmRKNS_2spINS_7IMemoryEEEPPv
T _ZN7android15OMXNodeInstance5ownerEv
T _ZN7android15OMXNodeInstance6nodeIDEv
T _ZN7android15OMXNodeInstance7OnEventEPvS1_13OMX_EVENTTYPEmmS1_
T _ZN7android15OMXNodeInstance8freeNodeEPNS_9OMXMasterE
T _ZN7android15OMXNodeInstance8observerEv
T _ZN7android15OMXNodeInstance9getConfigE13OMX_INDEXTYPEPvj
T _ZN7android15OMXNodeInstance9onMessageERKNS_11omx_messageE
T _ZN7android15OMXNodeInstance9setConfigE13OMX_INDEXTYPEPKvj
T _ZN7android15OMXNodeInstance9setHandleEPvS1_
T _ZN7android15OMXNodeInstance9useBufferEmRKNS_2spINS_7IMemoryEEEPPv
T _ZN7android15OMXNodeInstanceC1EPNS_3OMXERKNS_2spINS_12IOMXObserverEEE
T _ZN7android15OMXNodeInstanceC2EPNS_3OMXERKNS_2spINS_12IOMXObserverEEE
T _ZN7android15OMXNodeInstanceD1Ev
T _ZN7android15OMXNodeInstanceD2Ev
T _ZN7android16OMXComponentBase13MakeComponentEPS0_
T _ZN7android16OMXComponentBase18postFillBufferDoneEP20OMX_BUFFERHEADERTYPE
T _ZN7android16OMXComponentBase18setComponentHandleEP17OMX_COMPONENTTYPE
T _ZN7android16OMXComponentBase19postEmptyBufferDoneEP20OMX_BUFFERHEADERTYPE
T _ZN7android16OMXComponentBase9postEventE13OMX_EVENTTYPEmm
T _ZN7android16OMXComponentBaseC1EPK16OMX_CALLBACKTYPEPv
T _ZN7android16OMXComponentBaseC2EPK16OMX_CALLBACKTYPEPv
T _ZN7android16OMXComponentBaseD0Ev
T _ZN7android16OMXComponentBaseD1Ev
T _ZN7android16OMXComponentBaseD2Ev
U _ZN7android16SoftwareRendererC1E20OMX_COLOR_FORMATTYPERKNS_2spINS_8ISurfaceEEEjjjji
U _ZN7android16SortedVectorImpl25reservedSortedVectorImpl1Ev
U _ZN7android16SortedVectorImpl25reservedSortedVectorImpl2Ev
U _ZN7android16SortedVectorImpl25reservedSortedVectorImpl3Ev
U _ZN7android16SortedVectorImpl25reservedSortedVectorImpl4Ev
U _ZN7android16SortedVectorImpl25reservedSortedVectorImpl5Ev
U _ZN7android16SortedVectorImpl25reservedSortedVectorImpl6Ev
U _ZN7android16SortedVectorImpl25reservedSortedVectorImpl7Ev
U _ZN7android16SortedVectorImpl25reservedSortedVectorImpl8Ev
U _ZN7android16SortedVectorImpl3addEPKv
U _ZN7android16SortedVectorImpl6removeEPKv
U _ZN7android16SortedVectorImplC2Ejj
U _ZN7android16SortedVectorImplD2Ev
W _ZN7android17move_forward_typeINS_16key_value_pair_tINS_7String8EPNS_13OMXPluginBaseEEEEEvPT_PKS6_j
W _ZN7android17move_forward_typeINS_7String8EEEvPT_PKS2_j
W _ZN7android18move_backward_typeINS_16key_value_pair_tINS_7String8EPNS_13OMXPluginBaseEEEEEvPT_PKS6_j
W _ZN7android18move_backward_typeINS_7String8EEEvPT_PKS2_j
W _ZN7android2spINS_7IBinderEED1Ev
T _ZN7android3OMX10binderDiedERKNS_2wpINS_7IBinderEEE
T _ZN7android3OMX10fillBufferEPvS1_
T _ZN7android3OMX10freeBufferEPvmS1_
T _ZN7android3OMX10makeNodeIDEPNS_15OMXNodeInstanceE
T _ZN7android3OMX11emptyBufferEPvS1_mmmx
T _ZN7android3OMX11sendCommandEPv15OMX_COMMANDTYPEl
T _ZN7android3OMX12allocateNodeEPKcRKNS_2spINS_12IOMXObserverEEEPPv
T _ZN7android3OMX12findInstanceEPv
T _ZN7android3OMX12getParameterEPv13OMX_INDEXTYPES1_j
T _ZN7android3OMX12livesLocallyEi
T _ZN7android3OMX12setParameterEPv13OMX_INDEXTYPEPKvj
T _ZN7android3OMX14allocateBufferEPvmjPS1_S2_
T _ZN7android3OMX14createRendererERKNS_2spINS_8ISurfaceEEEPKc20OMX_COLOR_FORMATTYPEjjjji
T _ZN7android3OMX14findDispatcherEPv
T _ZN7android3OMX16OnFillBufferDoneEPvP20OMX_BUFFERHEADERTYPE
T _ZN7android3OMX16invalidateNodeIDEPv
T _ZN7android3OMX17OnEmptyBufferDoneEPvP20OMX_BUFFERHEADERTYPE
T _ZN7android3OMX17getExtensionIndexEPvPKcP13OMX_INDEXTYPE
T _ZN7android3OMX18CallbackDispatcher11threadEntryEv
T _ZN7android3OMX18CallbackDispatcher13ThreadWrapperEPv
T _ZN7android3OMX18CallbackDispatcher4postERKNS_11omx_messageE
T _ZN7android3OMX18CallbackDispatcher8dispatchERKNS_11omx_messageE
T _ZN7android3OMX18CallbackDispatcherC1EPNS_15OMXNodeInstanceE
T _ZN7android3OMX18CallbackDispatcherC2EPNS_15OMXNodeInstanceE
T _ZN7android3OMX18CallbackDispatcherD0Ev
T _ZN7android3OMX18CallbackDispatcherD1Ev
T _ZN7android3OMX18CallbackDispatcherD2Ev
T _ZN7android3OMX18invalidateNodeID_lEPv
T _ZN7android3OMX24allocateBufferWithBackupEPvmRKNS_2spINS_7IMemoryEEEPS1_
T _ZN7android3OMX7OnEventEPv13OMX_EVENTTYPEmmS1_
T _ZN7android3OMX8freeNodeEPv
T _ZN7android3OMX9getConfigEPv13OMX_INDEXTYPES1_j
T _ZN7android3OMX9listNodesEPNS_4ListINS_4IOMX13ComponentInfoEEE
T _ZN7android3OMX9setConfigEPv13OMX_INDEXTYPEPKvj
T _ZN7android3OMX9useBufferEPvmRKNS_2spINS_7IMemoryEEEPS1_
T _ZN7android3OMXC1Ev
T _ZN7android3OMXC2Ev
T _ZN7android3OMXD0Ev
T _ZN7android3OMXD1Ev
T _ZN7android3OMXD2Ev
U _ZN7android4IOMX10descriptorE
U _ZN7android4IOMXC2Ev
U _ZN7android4IOMXD0Ev
U _ZN7android4IOMXD1Ev
U _ZN7android4IOMXD2Ev
U _ZN7android5BnOMX10onTransactEjRKNS_6ParcelEPS1_j
U _ZN7android7BBinder10onTransactEjRKNS_6ParcelEPS1_j
U _ZN7android7BBinder10pingBinderEv
U _ZN7android7BBinder11linkToDeathERKNS_2spINS_7IBinder14DeathRecipientEEEPvj
U _ZN7android7BBinder11localBinderEv
U _ZN7android7BBinder12attachObjectEPKvPvS3_PFvS2_S3_S3_E
U _ZN7android7BBinder12detachObjectEPKv
U _ZN7android7BBinder13unlinkToDeathERKNS_2wpINS_7IBinder14DeathRecipientEEEPvjPS4_
U _ZN7android7BBinder4dumpEiRKNS_6VectorINS_8String16EEE
U _ZN7android7BBinder8transactEjRKNS_6ParcelEPS1_j
U _ZN7android7BBinderC2Ev
U _ZN7android7BBinderD0Ev
U _ZN7android7BBinderD1Ev
U _ZN7android7BBinderD2Ev
U _ZN7android7IBinder11localBinderEv
U _ZN7android7IBinder12remoteBinderEv
U _ZN7android7IBinder19queryLocalInterfaceERKNS_8String16E
U _ZN7android7IBinderD0Ev
U _ZN7android7IBinderD1Ev
U _ZN7android7RefBase10onFirstRefEv
U _ZN7android7RefBase12weakref_type7decWeakEPKv
U _ZN7android7RefBase12weakref_type7incWeakEPKv
U _ZN7android7RefBase13onLastWeakRefEPKv
U _ZN7android7RefBase15onLastStrongRefEPKv
U _ZN7android7RefBase20onIncStrongAttemptedEjPKv
U _ZN7android7RefBaseC2Ev
U _ZN7android7RefBaseD2Ev
U _ZN7android7String85setToEPKc
U _ZN7android7String8C1EPKc
U _ZN7android7String8C1ERKS0_
U _ZN7android7String8C1Ev
U _ZN7android7String8D1Ev
T _ZN7android9OMXMaster12clearPluginsEv
T _ZN7android9OMXMaster15addVendorPluginEv
T _ZN7android9OMXMaster19enumerateComponentsEPcjm
T _ZN7android9OMXMaster19getRolesOfComponentEPKcPNS_6VectorINS_7String8EEE
T _ZN7android9OMXMaster21makeComponentInstanceEPKcPK16OMX_CALLBACKTYPEPvPP17OMX_COMPONENTTYPE
T _ZN7android9OMXMaster24destroyComponentInstanceEP17OMX_COMPONENTTYPE
T _ZN7android9OMXMaster9addPluginEPNS_13OMXPluginBaseE
T _ZN7android9OMXMasterC1Ev
T _ZN7android9OMXMasterC2Ev
T _ZN7android9OMXMasterD0Ev
T _ZN7android9OMXMasterD1Ev
T _ZN7android9OMXMasterD2Ev
U _ZNK7android12IOMXRenderer22getInterfaceDescriptorEv
W _ZNK7android12SortedVectorINS_16key_value_pair_tINS_2wpINS_7IBinderEEEPNS_15OMXNodeInstanceEEEE10do_compareEPKvSA_
W _ZNK7android12SortedVectorINS_16key_value_pair_tINS_2wpINS_7IBinderEEEPNS_15OMXNodeInstanceEEEE10do_destroyEPvj
W _ZNK7android12SortedVectorINS_16key_value_pair_tINS_2wpINS_7IBinderEEEPNS_15OMXNodeInstanceEEEE12do_constructEPvj
W _ZNK7android12SortedVectorINS_16key_value_pair_tINS_2wpINS_7IBinderEEEPNS_15OMXNodeInstanceEEEE15do_move_forwardEPvPKvj
W _ZNK7android12SortedVectorINS_16key_value_pair_tINS_2wpINS_7IBinderEEEPNS_15OMXNodeInstanceEEEE16do_move_backwardEPvPKvj
W _ZNK7android12SortedVectorINS_16key_value_pair_tINS_2wpINS_7IBinderEEEPNS_15OMXNodeInstanceEEEE7do_copyEPvPKvj
W _ZNK7android12SortedVectorINS_16key_value_pair_tINS_2wpINS_7IBinderEEEPNS_15OMXNodeInstanceEEEE8do_splatEPvPKvj
W _ZNK7android12SortedVectorINS_16key_value_pair_tINS_7String8EPNS_13OMXPluginBaseEEEE10do_compareEPKvS8_
W _ZNK7android12SortedVectorINS_16key_value_pair_tINS_7String8EPNS_13OMXPluginBaseEEEE10do_destroyEPvj
W _ZNK7android12SortedVectorINS_16key_value_pair_tINS_7String8EPNS_13OMXPluginBaseEEEE12do_constructEPvj
W _ZNK7android12SortedVectorINS_16key_value_pair_tINS_7String8EPNS_13OMXPluginBaseEEEE15do_move_forwardEPvPKvj
W _ZNK7android12SortedVectorINS_16key_value_pair_tINS_7String8EPNS_13OMXPluginBaseEEEE16do_move_backwardEPvPKvj
W _ZNK7android12SortedVectorINS_16key_value_pair_tINS_7String8EPNS_13OMXPluginBaseEEEE7do_copyEPvPKvj
W _ZNK7android12SortedVectorINS_16key_value_pair_tINS_7String8EPNS_13OMXPluginBaseEEEE8do_splatEPvPKvj
W _ZNK7android12SortedVectorINS_16key_value_pair_tIP17OMX_COMPONENTTYPEPNS_13OMXPluginBaseEEEE10do_compareEPKvS9_
W _ZNK7android12SortedVectorINS_16key_value_pair_tIP17OMX_COMPONENTTYPEPNS_13OMXPluginBaseEEEE10do_destroyEPvj
W _ZNK7android12SortedVectorINS_16key_value_pair_tIP17OMX_COMPONENTTYPEPNS_13OMXPluginBaseEEEE12do_constructEPvj
W _ZNK7android12SortedVectorINS_16key_value_pair_tIP17OMX_COMPONENTTYPEPNS_13OMXPluginBaseEEEE15do_move_forwardEPvPKvj
W _ZNK7android12SortedVectorINS_16key_value_pair_tIP17OMX_COMPONENTTYPEPNS_13OMXPluginBaseEEEE16do_move_backwardEPvPKvj
W _ZNK7android12SortedVectorINS_16key_value_pair_tIP17OMX_COMPONENTTYPEPNS_13OMXPluginBaseEEEE7do_copyEPvPKvj
W _ZNK7android12SortedVectorINS_16key_value_pair_tIP17OMX_COMPONENTTYPEPNS_13OMXPluginBaseEEEE8do_splatEPvPKvj
W _ZNK7android12SortedVectorINS_16key_value_pair_tIPvNS_2spINS_3OMX18CallbackDispatcherEEEEEE10do_compareEPKvSA_
W _ZNK7android12SortedVectorINS_16key_value_pair_tIPvNS_2spINS_3OMX18CallbackDispatcherEEEEEE10do_destroyES2_j
W _ZNK7android12SortedVectorINS_16key_value_pair_tIPvNS_2spINS_3OMX18CallbackDispatcherEEEEEE12do_constructES2_j
W _ZNK7android12SortedVectorINS_16key_value_pair_tIPvNS_2spINS_3OMX18CallbackDispatcherEEEEEE15do_move_forwardES2_PKvj
W _ZNK7android12SortedVectorINS_16key_value_pair_tIPvNS_2spINS_3OMX18CallbackDispatcherEEEEEE16do_move_backwardES2_PKvj
W _ZNK7android12SortedVectorINS_16key_value_pair_tIPvNS_2spINS_3OMX18CallbackDispatcherEEEEEE7do_copyES2_PKvj
W _ZNK7android12SortedVectorINS_16key_value_pair_tIPvNS_2spINS_3OMX18CallbackDispatcherEEEEEE8do_splatES2_PKvj
W _ZNK7android12SortedVectorINS_16key_value_pair_tIPvPNS_15OMXNodeInstanceEEEE10do_compareEPKvS8_
W _ZNK7android12SortedVectorINS_16key_value_pair_tIPvPNS_15OMXNodeInstanceEEEE10do_destroyES2_j
W _ZNK7android12SortedVectorINS_16key_value_pair_tIPvPNS_15OMXNodeInstanceEEEE12do_constructES2_j
W _ZNK7android12SortedVectorINS_16key_value_pair_tIPvPNS_15OMXNodeInstanceEEEE15do_move_forwardES2_PKvj
W _ZNK7android12SortedVectorINS_16key_value_pair_tIPvPNS_15OMXNodeInstanceEEEE16do_move_backwardES2_PKvj
W _ZNK7android12SortedVectorINS_16key_value_pair_tIPvPNS_15OMXNodeInstanceEEEE7do_copyES2_PKvj
W _ZNK7android12SortedVectorINS_16key_value_pair_tIPvPNS_15OMXNodeInstanceEEEE8do_splatES2_PKvj
U _ZNK7android16SoftwareRenderer9initCheckEv
U _ZNK7android16SortedVectorImpl7indexOfEPKv
U _ZNK7android4IOMX22getInterfaceDescriptorEv
W _ZNK7android6VectorINS_15OMXNodeInstance12ActiveBufferEE10do_destroyEPvj
W _ZNK7android6VectorINS_15OMXNodeInstance12ActiveBufferEE12do_constructEPvj
W _ZNK7android6VectorINS_15OMXNodeInstance12ActiveBufferEE15do_move_forwardEPvPKvj
W _ZNK7android6VectorINS_15OMXNodeInstance12ActiveBufferEE16do_move_backwardEPvPKvj
W _ZNK7android6VectorINS_15OMXNodeInstance12ActiveBufferEE7do_copyEPvPKvj
W _ZNK7android6VectorINS_15OMXNodeInstance12ActiveBufferEE8do_splatEPvPKvj
W _ZNK7android6VectorINS_7String8EE10do_destroyEPvj
W _ZNK7android6VectorINS_7String8EE12do_constructEPvj
W _ZNK7android6VectorINS_7String8EE15do_move_forwardEPvPKvj
W _ZNK7android6VectorINS_7String8EE16do_move_backwardEPvPKvj
W _ZNK7android6VectorINS_7String8EE7do_copyEPvPKvj
W _ZNK7android6VectorINS_7String8EE8do_splatEPvPKvj
U _ZNK7android7BBinder10findObjectEPKv
U _ZNK7android7BBinder13isBinderAliveEv
U _ZNK7android7BBinder22getInterfaceDescriptorEv
U _ZNK7android7IBinder13checkSubclassEPKv
U _ZNK7android7IMemory4sizeEv
U _ZNK7android7IMemory7pointerEv
U _ZNK7android7RefBase10createWeakEPKv
U _ZNK7android7RefBase9decStrongEPKv
U _ZNK7android7RefBase9incStrongEPKv
V _ZTCN7android11BnInterfaceINS_12IOMXRendererEEE0_NS_10IInterfaceE
V _ZTCN7android11BnInterfaceINS_12IOMXRendererEEE0_S1_
V _ZTCN7android11BnInterfaceINS_12IOMXRendererEEE4_NS_7BBinderE
V _ZTCN7android11BnInterfaceINS_12IOMXRendererEEE4_NS_7IBinderE
V _ZTCN7android11BnInterfaceINS_4IOMXEEE0_NS_10IInterfaceE
V _ZTCN7android11BnInterfaceINS_4IOMXEEE0_S1_
V _ZTCN7android11BnInterfaceINS_4IOMXEEE4_NS_7BBinderE
V _ZTCN7android11BnInterfaceINS_4IOMXEEE4_NS_7IBinderE
D _ZTCN7android11OMXRendererE0_NS_10IInterfaceE
D _ZTCN7android11OMXRendererE0_NS_11BnInterfaceINS_12IOMXRendererEEE
D _ZTCN7android11OMXRendererE0_NS_12IOMXRendererE
D _ZTCN7android11OMXRendererE0_NS_13BnOMXRendererE
D _ZTCN7android11OMXRendererE4_NS_7BBinderE
D _ZTCN7android11OMXRendererE4_NS_7IBinderE
D _ZTCN7android3OMXE0_NS_10IInterfaceE
D _ZTCN7android3OMXE0_NS_11BnInterfaceINS_4IOMXEEE
D _ZTCN7android3OMXE0_NS_4IOMXE
D _ZTCN7android3OMXE0_NS_5BnOMXE
D _ZTCN7android3OMXE16_NS_7IBinder14DeathRecipientE
D _ZTCN7android3OMXE4_NS_7BBinderE
D _ZTCN7android3OMXE4_NS_7IBinderE
V _ZTTN7android11BnInterfaceINS_12IOMXRendererEEE
V _ZTTN7android11BnInterfaceINS_4IOMXEEE
D _ZTTN7android11OMXRendererE
U _ZTTN7android13BnOMXRendererE
D _ZTTN7android3OMXE
U _ZTTN7android5BnOMXE
V _ZTTN7android7IBinder14DeathRecipientE
V _ZTVN7android11BnInterfaceINS_12IOMXRendererEEE
V _ZTVN7android11BnInterfaceINS_4IOMXEEE
D _ZTVN7android11OMXRendererE
V _ZTVN7android12SortedVectorINS_16key_value_pair_tINS_2wpINS_7IBinderEEEPNS_15OMXNodeInstanceEEEEE
V _ZTVN7android12SortedVectorINS_16key_value_pair_tINS_7String8EPNS_13OMXPluginBaseEEEEE
V _ZTVN7android12SortedVectorINS_16key_value_pair_tIP17OMX_COMPONENTTYPEPNS_13OMXPluginBaseEEEEE
V _ZTVN7android12SortedVectorINS_16key_value_pair_tIPvNS_2spINS_3OMX18CallbackDispatcherEEEEEEE
V _ZTVN7android12SortedVectorINS_16key_value_pair_tIPvPNS_15OMXNodeInstanceEEEEE
U _ZTVN7android13BnOMXRendererE
V _ZTVN7android13OMXPluginBaseE
V _ZTVN7android13VideoRendererE
D _ZTVN7android16OMXComponentBaseE
V _ZTVN7android19SharedVideoRendererE
D _ZTVN7android3OMX18CallbackDispatcherE
D _ZTVN7android3OMXE
V _ZTVN7android4ListINS_11omx_messageEEE
V _ZTVN7android4ListINS_7String8EEE
V _ZTVN7android4ListIPNS_13OMXPluginBaseEEE
U _ZTVN7android5BnOMXE
V _ZTVN7android6VectorINS_15OMXNodeInstance12ActiveBufferEEE
V _ZTVN7android6VectorINS_7String8EEE
V _ZTVN7android7IBinder14DeathRecipientE
D _ZTVN7android9OMXMasterE
T _ZThn16_N7android3OMX10binderDiedERKNS_2wpINS_7IBinderEEE
T _ZThn16_N7android3OMXD0Ev
T _ZThn16_N7android3OMXD1Ev
T _ZThn4_N7android11OMXRendererD0Ev
T _ZThn4_N7android11OMXRendererD1Ev
U _ZThn4_N7android13BnOMXRenderer10onTransactEjRKNS_6ParcelEPS1_j
T _ZThn4_N7android3OMXD0Ev
T _ZThn4_N7android3OMXD1Ev
U _ZThn4_N7android5BnOMX10onTransactEjRKNS_6ParcelEPS1_j
U _ZTv0_n12_N7android10IInterfaceD0Ev
U _ZTv0_n12_N7android10IInterfaceD1Ev
W _ZTv0_n12_N7android11BnInterfaceINS_12IOMXRendererEED0Ev
W _ZTv0_n12_N7android11BnInterfaceINS_12IOMXRendererEED1Ev
W _ZTv0_n12_N7android11BnInterfaceINS_4IOMXEED0Ev
W _ZTv0_n12_N7android11BnInterfaceINS_4IOMXEED1Ev
T _ZTv0_n12_N7android11OMXRendererD0Ev
T _ZTv0_n12_N7android11OMXRendererD1Ev
U _ZTv0_n12_N7android12IOMXRendererD0Ev
U _ZTv0_n12_N7android12IOMXRendererD1Ev
W _ZTv0_n12_N7android13BnOMXRendererD0Ev
W _ZTv0_n12_N7android13BnOMXRendererD1Ev
T _ZTv0_n12_N7android3OMXD0Ev
T _ZTv0_n12_N7android3OMXD1Ev
U _ZTv0_n12_N7android4IOMXD0Ev
U _ZTv0_n12_N7android4IOMXD1Ev
W _ZTv0_n12_N7android5BnOMXD0Ev
W _ZTv0_n12_N7android5BnOMXD1Ev
U _ZTv0_n12_N7android7BBinderD0Ev
U _ZTv0_n12_N7android7BBinderD1Ev
W _ZTv0_n12_N7android7IBinder14DeathRecipientD0Ev
W _ZTv0_n12_N7android7IBinder14DeathRecipientD1Ev
U _ZTv0_n12_N7android7IBinderD0Ev
U _ZTv0_n12_N7android7IBinderD1Ev
U _ZdaPv
U _ZdlPv
U _Znaj
U _Znwj
T __FINI_ARRAY__
T __INIT_ARRAY__
U __aeabi_unwind_cpp_pr0
U __android_log_assert
U __android_log_print
A __bss_end__
A __bss_start
A __bss_start__
T __clzsi2
U __cxa_finalize
U __cxa_pure_virtual
D __data_start
B __dso_handle
A __end__
A __exidx_end
A __exidx_start
U __stack_chk_fail
U __stack_chk_guard
A _bss_end__
A _edata
A _end
A _stack
U dlclose
U dlopen
U dlsym
U getpid
U memcpy
U memmove
U prctl
U pthread_attr_destroy
U pthread_attr_init
U pthread_attr_setdetachstate
U pthread_cond_destroy
U pthread_cond_init
U pthread_cond_signal
U pthread_cond_wait
U pthread_create
U pthread_join
U pthread_mutex_destroy
U pthread_mutex_init
U pthread_mutex_lock
U pthread_mutex_unlock
U pthread_self
U setpriority
U strcmp
U strcpy
U strzcmp16
U usleep
