V _ZGVN7android9SingletonINS_12SensorDeviceEE5sLockE
V _ZGVN7android9SingletonINS_14BatteryServiceEE5sLockE
U _ZN7android10IInterfaceD0Ev
U _ZN7android10IInterfaceD1Ev
U _ZN7android10PermissionC1EPKc
U _ZN7android10PermissionD1Ev
U _ZN7android10VectorImpl11setCapacityEj
U _ZN7android10VectorImpl13finish_vectorEv
U _ZN7android10VectorImpl13removeItemsAtEjj
U _ZN7android10VectorImpl16editItemLocationEj
U _ZN7android10VectorImpl19reservedVectorImpl1Ev
U _ZN7android10VectorImpl19reservedVectorImpl2Ev
U _ZN7android10VectorImpl19reservedVectorImpl3Ev
U _ZN7android10VectorImpl19reservedVectorImpl4Ev
U _ZN7android10VectorImpl19reservedVectorImpl5Ev
U _ZN7android10VectorImpl19reservedVectorImpl6Ev
U _ZN7android10VectorImpl19reservedVectorImpl7Ev
U _ZN7android10VectorImpl19reservedVectorImpl8Ev
U _ZN7android10VectorImpl3addEPKv
U _ZN7android10VectorImplC2ERKS0_
U _ZN7android10VectorImplC2Ejj
U _ZN7android10VectorImplD2Ev
W _ZN7android11BnInterfaceINS_13ISensorServerEE10onAsBinderEv
W _ZN7android11BnInterfaceINS_22ISensorEventConnectionEE10onAsBinderEv
T _ZN7android12BiquadFilter4initEf
T _ZN7android12BiquadFilterC1ERKNS_24SecondOrderLowPassFilterE
T _ZN7android12BiquadFilterC2ERKNS_24SecondOrderLowPassFilterE
T _ZN7android12BiquadFilterclEf
T _ZN7android12SensorDevice13getSensorListEPPK8sensor_t
T _ZN7android12SensorDevice4dumpERNS_7String8EPcj
T _ZN7android12SensorDevice4pollEP15sensors_event_tj
T _ZN7android12SensorDevice8activateEPvii
T _ZN7android12SensorDevice8setDelayEPvix
T _ZN7android12SensorDeviceC1Ev
T _ZN7android12SensorDeviceC2Ev
T _ZN7android13GravitySensor7processEP15sensors_event_tRKS1_
T _ZN7android13GravitySensor8activateEPvb
T _ZN7android13GravitySensor8setDelayEPvix
T _ZN7android13GravitySensorC1EPK8sensor_tj
T _ZN7android13GravitySensorC2EPK8sensor_tj
U _ZN7android13ISensorServer10descriptorE
U _ZN7android13ISensorServerC2Ev
U _ZN7android13ISensorServerD0Ev
U _ZN7android13ISensorServerD1Ev
U _ZN7android13ISensorServerD2Ev
U _ZN7android13SensorChannel5writeEPKvj
U _ZN7android13SensorChannelC1Ev
T _ZN7android13SensorService10onFirstRefEv
T _ZN7android13SensorService10threadLoopEv
T _ZN7android13SensorService12SensorRecord13addConnectionERKNS_2spINS0_21SensorEventConnectionEEE
T _ZN7android13SensorService12SensorRecord16removeConnectionERKNS_2wpINS0_21SensorEventConnectionEEE
T _ZN7android13SensorService12SensorRecordC1ERKNS_2spINS0_21SensorEventConnectionEEE
T _ZN7android13SensorService12SensorRecordC2ERKNS_2spINS0_21SensorEventConnectionEEE
T _ZN7android13SensorService12setEventRateERKNS_2spINS0_21SensorEventConnectionEEEix
T _ZN7android13SensorService13getSensorListEv
T _ZN7android13SensorService14registerSensorEPNS_15SensorInterfaceE
T _ZN7android13SensorService15recordLastValueEPK15sensors_event_tj
T _ZN7android13SensorService15sortEventBufferEP15sensors_event_tj
T _ZN7android13SensorService17cleanupConnectionEPNS0_21SensorEventConnectionE
T _ZN7android13SensorService21SensorEventConnection10onFirstRefEv
T _ZN7android13SensorService21SensorEventConnection10sendEventsEPK15sensors_event_tjPS2_
T _ZN7android13SensorService21SensorEventConnection12removeSensorEi
T _ZN7android13SensorService21SensorEventConnection12setEventRateEix
T _ZN7android13SensorService21SensorEventConnection13enableDisableEib
T _ZN7android13SensorService21SensorEventConnection9addSensorEi
T _ZN7android13SensorService21SensorEventConnectionC1ERKNS_2spIS0_EE
T _ZN7android13SensorService21SensorEventConnectionC2ERKNS_2spIS0_EE
T _ZN7android13SensorService21SensorEventConnectionD0Ev
T _ZN7android13SensorService21SensorEventConnectionD1Ev
T _ZN7android13SensorService21SensorEventConnectionD2Ev
T _ZN7android13SensorService21registerVirtualSensorEPNS_15SensorInterfaceE
T _ZN7android13SensorService27createSensorEventConnectionEv
T _ZN7android13SensorService4dumpEiRKNS_6VectorINS_8String16EEE
T _ZN7android13SensorService6enableERKNS_2spINS0_21SensorEventConnectionEEEi
T _ZN7android13SensorService7disableERKNS_2spINS0_21SensorEventConnectionEEEi
T _ZN7android13SensorServiceC1Ev
T _ZN7android13SensorServiceC2Ev
T _ZN7android13SensorServiceD0Ev
T _ZN7android13SensorServiceD1Ev
T _ZN7android13SensorServiceD2Ev
B _ZN7android14BatteryService10DESCRIPTORE
U _ZN7android14BnSensorServer10onTransactEjRKNS_6ParcelEPS1_j
T _ZN7android14HardwareSensor7processEP15sensors_event_tRKS1_
T _ZN7android14HardwareSensor8activateEPvb
T _ZN7android14HardwareSensor8setDelayEPvix
T _ZN7android14HardwareSensorC1ERK8sensor_t
T _ZN7android14HardwareSensorC2ERK8sensor_t
T _ZN7android14HardwareSensorD0Ev
T _ZN7android14HardwareSensorD1Ev
T _ZN7android14HardwareSensorD2Ev
U _ZN7android14IPCThreadState13getCallingPidEv
U _ZN7android14IPCThreadState13getCallingUidEv
U _ZN7android14IPCThreadState20clearCallingIdentityEv
U _ZN7android14IPCThreadState22restoreCallingIdentityEx
U _ZN7android14IPCThreadState4selfEv
T _ZN7android15SensorInterfaceD0Ev
T _ZN7android15SensorInterfaceD1Ev
T _ZN7android15SensorInterfaceD2Ev
U _ZN7android16SortedVectorImpl25reservedSortedVectorImpl1Ev
U _ZN7android16SortedVectorImpl25reservedSortedVectorImpl2Ev
U _ZN7android16SortedVectorImpl25reservedSortedVectorImpl3Ev
U _ZN7android16SortedVectorImpl25reservedSortedVectorImpl4Ev
U _ZN7android16SortedVectorImpl25reservedSortedVectorImpl5Ev
U _ZN7android16SortedVectorImpl25reservedSortedVectorImpl6Ev
U _ZN7android16SortedVectorImpl25reservedSortedVectorImpl7Ev
U _ZN7android16SortedVectorImpl25reservedSortedVectorImpl8Ev
U _ZN7android16SortedVectorImpl3addEPKv
U _ZN7android16SortedVectorImpl6removeEPKv
U _ZN7android16SortedVectorImplC2Ejj
U _ZN7android16SortedVectorImplD2Ev
W _ZN7android17move_forward_typeINS_16key_value_pair_tIiNS_12SensorDevice4InfoEEEEEvPT_PKS5_j
W _ZN7android17move_forward_typeINS_6SensorEEEvPT_PKS2_j
W _ZN7android18move_backward_typeINS_16key_value_pair_tIiNS_12SensorDevice4InfoEEEEEvPT_PKS5_j
W _ZN7android18move_backward_typeINS_6SensorEEEvPT_PKS2_j
T _ZN7android20CascadedBiquadFilter4initEf
T _ZN7android20CascadedBiquadFilterC1ERKNS_24SecondOrderLowPassFilterE
T _ZN7android20CascadedBiquadFilterC2ERKNS_24SecondOrderLowPassFilterE
T _ZN7android20CascadedBiquadFilterclEf
T _ZN7android20RotationVectorSensor7processEP15sensors_event_tRKS1_
T _ZN7android20RotationVectorSensor8activateEPvb
T _ZN7android20RotationVectorSensor8setDelayEPvix
T _ZN7android20RotationVectorSensorC1EPK8sensor_tj
T _ZN7android20RotationVectorSensorC2EPK8sensor_tj
U _ZN7android21defaultServiceManagerEv
U _ZN7android22ISensorEventConnection10descriptorE
U _ZN7android22ISensorEventConnectionC2Ev
U _ZN7android22ISensorEventConnectionD0Ev
U _ZN7android22ISensorEventConnectionD1Ev
U _ZN7android22ISensorEventConnectionD2Ev
U _ZN7android23BnSensorEventConnection10onTransactEjRKNS_6ParcelEPS1_j
T _ZN7android24LinearAccelerationSensor7processEP15sensors_event_tRKS1_
T _ZN7android24LinearAccelerationSensor8activateEPvb
T _ZN7android24LinearAccelerationSensor8setDelayEPvix
T _ZN7android24LinearAccelerationSensorC1EPK8sensor_tj
T _ZN7android24LinearAccelerationSensorC2EPK8sensor_tj
T _ZN7android24SecondOrderLowPassFilter17setSamplingPeriodEf
T _ZN7android24SecondOrderLowPassFilterC1Eff
T _ZN7android24SecondOrderLowPassFilterC2Eff
W _ZN7android2spINS_13SensorService21SensorEventConnectionEEC1EPS2_
W _ZN7android2spINS_13SensorService21SensorEventConnectionEED1Ev
W _ZN7android2spINS_7IBinderEEaSERKS2_
W _ZN7android2wpINS_13SensorService21SensorEventConnectionEEC1ERKNS_2spIS2_EE
W _ZN7android2wpINS_13SensorService21SensorEventConnectionEED1Ev
U _ZN7android6Parcel10writeInt32Ei
U _ZN7android6Parcel19writeInterfaceTokenERKNS_8String16E
U _ZN7android6ParcelC1Ev
U _ZN7android6ParcelD1Ev
U _ZN7android6SensorC1EPK8sensor_t
U _ZN7android6SensorC1Ev
U _ZN7android6SensorD1Ev
U _ZN7android6Thread10readyToRunEv
U _ZN7android6Thread11requestExitEv
U _ZN7android6Thread3runEPKcij
U _ZN7android6ThreadC2Eb
U _ZN7android6ThreadD0Ev
U _ZN7android6ThreadD1Ev
U _ZN7android6ThreadD2Ev
U _ZN7android7BBinder10onTransactEjRKNS_6ParcelEPS1_j
U _ZN7android7BBinder10pingBinderEv
U _ZN7android7BBinder11linkToDeathERKNS_2spINS_7IBinder14DeathRecipientEEEPvj
U _ZN7android7BBinder11localBinderEv
U _ZN7android7BBinder12attachObjectEPKvPvS3_PFvS2_S3_S3_E
U _ZN7android7BBinder12detachObjectEPKv
U _ZN7android7BBinder13unlinkToDeathERKNS_2wpINS_7IBinder14DeathRecipientEEEPvjPS4_
U _ZN7android7BBinder4dumpEiRKNS_6VectorINS_8String16EEE
U _ZN7android7BBinder8transactEjRKNS_6ParcelEPS1_j
U _ZN7android7BBinderC2Ev
U _ZN7android7BBinderD0Ev
U _ZN7android7BBinderD1Ev
U _ZN7android7BBinderD2Ev
U _ZN7android7IBinder11localBinderEv
U _ZN7android7IBinder12remoteBinderEv
U _ZN7android7IBinder19queryLocalInterfaceERKNS_8String16E
U _ZN7android7IBinderD0Ev
U _ZN7android7IBinderD1Ev
U _ZN7android7RefBase10onFirstRefEv
U _ZN7android7RefBase12weakref_type16attemptIncStrongEPKv
U _ZN7android7RefBase12weakref_type7decWeakEPKv
U _ZN7android7RefBase12weakref_type7incWeakEPKv
U _ZN7android7RefBase13onLastWeakRefEPKv
U _ZN7android7RefBase15onLastStrongRefEPKv
U _ZN7android7RefBase20onIncStrongAttemptedEjPKv
U _ZN7android7RefBaseC2Ev
U _ZN7android7RefBaseD2Ev
U _ZN7android7String85setToERKS0_
U _ZN7android7String86appendEPKc
U _ZN7android7String8C1EPKc
U _ZN7android7String8C1ERKS0_
U _ZN7android7String8C1Ev
U _ZN7android7String8D1Ev
U _ZN7android8String16C1EPKc
U _ZN7android8String16D1Ev
V _ZN7android9SingletonINS_12SensorDeviceEE5sLockE
V _ZN7android9SingletonINS_12SensorDeviceEE9sInstanceE
W _ZN7android9SingletonINS_12SensorDeviceEEC1Ev
W _ZN7android9SingletonINS_12SensorDeviceEEC2Ev
W _ZN7android9SingletonINS_12SensorDeviceEED1Ev
W _ZN7android9SingletonINS_12SensorDeviceEED2Ev
W _ZN7android9SingletonINS_14BatteryServiceEE11getInstanceEv
V _ZN7android9SingletonINS_14BatteryServiceEE5sLockE
V _ZN7android9SingletonINS_14BatteryServiceEE9sInstanceE
W _ZN7android9SingletonINS_14BatteryServiceEEC1Ev
W _ZN7android9SingletonINS_14BatteryServiceEEC2Ev
W _ZN7android9SingletonINS_14BatteryServiceEED1Ev
W _ZN7android9SingletonINS_14BatteryServiceEED2Ev
U _ZNK7android10Permission12checkCallingEv
T _ZNK7android12SensorDevice9initCheckEv
W _ZNK7android12SortedVectorINS_16key_value_pair_tIPvxEEE10do_compareEPKvS6_
W _ZNK7android12SortedVectorINS_16key_value_pair_tIPvxEEE10do_destroyES2_j
W _ZNK7android12SortedVectorINS_16key_value_pair_tIPvxEEE12do_constructES2_j
W _ZNK7android12SortedVectorINS_16key_value_pair_tIPvxEEE15do_move_forwardES2_PKvj
W _ZNK7android12SortedVectorINS_16key_value_pair_tIPvxEEE16do_move_backwardES2_PKvj
W _ZNK7android12SortedVectorINS_16key_value_pair_tIPvxEEE7do_copyES2_PKvj
W _ZNK7android12SortedVectorINS_16key_value_pair_tIPvxEEE8do_splatES2_PKvj
W _ZNK7android12SortedVectorINS_16key_value_pair_tIi15sensors_event_tEEE10do_compareEPKvS6_
W _ZNK7android12SortedVectorINS_16key_value_pair_tIi15sensors_event_tEEE10do_destroyEPvj
W _ZNK7android12SortedVectorINS_16key_value_pair_tIi15sensors_event_tEEE12do_constructEPvj
W _ZNK7android12SortedVectorINS_16key_value_pair_tIi15sensors_event_tEEE15do_move_forwardEPvPKvj
W _ZNK7android12SortedVectorINS_16key_value_pair_tIi15sensors_event_tEEE16do_move_backwardEPvPKvj
W _ZNK7android12SortedVectorINS_16key_value_pair_tIi15sensors_event_tEEE7do_copyEPvPKvj
W _ZNK7android12SortedVectorINS_16key_value_pair_tIi15sensors_event_tEEE8do_splatEPvPKvj
W _ZNK7android12SortedVectorINS_16key_value_pair_tIiNS_12SensorDevice4InfoEEEE10do_compareEPKvS7_
W _ZNK7android12SortedVectorINS_16key_value_pair_tIiNS_12SensorDevice4InfoEEEE10do_destroyEPvj
W _ZNK7android12SortedVectorINS_16key_value_pair_tIiNS_12SensorDevice4InfoEEEE12do_constructEPvj
W _ZNK7android12SortedVectorINS_16key_value_pair_tIiNS_12SensorDevice4InfoEEEE15do_move_forwardEPvPKvj
W _ZNK7android12SortedVectorINS_16key_value_pair_tIiNS_12SensorDevice4InfoEEEE16do_move_backwardEPvPKvj
W _ZNK7android12SortedVectorINS_16key_value_pair_tIiNS_12SensorDevice4InfoEEEE7do_copyEPvPKvj
W _ZNK7android12SortedVectorINS_16key_value_pair_tIiNS_12SensorDevice4InfoEEEE8do_splatEPvPKvj
W _ZNK7android12SortedVectorINS_16key_value_pair_tIiPNS_13SensorService12SensorRecordEEEE10do_compareEPKvS8_
W _ZNK7android12SortedVectorINS_16key_value_pair_tIiPNS_13SensorService12SensorRecordEEEE10do_destroyEPvj
W _ZNK7android12SortedVectorINS_16key_value_pair_tIiPNS_13SensorService12SensorRecordEEEE12do_constructEPvj
W _ZNK7android12SortedVectorINS_16key_value_pair_tIiPNS_13SensorService12SensorRecordEEEE15do_move_forwardEPvPKvj
W _ZNK7android12SortedVectorINS_16key_value_pair_tIiPNS_13SensorService12SensorRecordEEEE16do_move_backwardEPvPKvj
W _ZNK7android12SortedVectorINS_16key_value_pair_tIiPNS_13SensorService12SensorRecordEEEE7do_copyEPvPKvj
W _ZNK7android12SortedVectorINS_16key_value_pair_tIiPNS_13SensorService12SensorRecordEEEE8do_splatEPvPKvj
W _ZNK7android12SortedVectorINS_16key_value_pair_tIiPNS_15SensorInterfaceEEEE10do_compareEPKvS7_
W _ZNK7android12SortedVectorINS_16key_value_pair_tIiPNS_15SensorInterfaceEEEE10do_destroyEPvj
W _ZNK7android12SortedVectorINS_16key_value_pair_tIiPNS_15SensorInterfaceEEEE12do_constructEPvj
W _ZNK7android12SortedVectorINS_16key_value_pair_tIiPNS_15SensorInterfaceEEEE15do_move_forwardEPvPKvj
W _ZNK7android12SortedVectorINS_16key_value_pair_tIiPNS_15SensorInterfaceEEEE16do_move_backwardEPvPKvj
W _ZNK7android12SortedVectorINS_16key_value_pair_tIiPNS_15SensorInterfaceEEEE7do_copyEPvPKvj
W _ZNK7android12SortedVectorINS_16key_value_pair_tIiPNS_15SensorInterfaceEEEE8do_splatEPvPKvj
W _ZNK7android12SortedVectorINS_2wpINS_13SensorService21SensorEventConnectionEEEE10do_compareEPKvS7_
W _ZNK7android12SortedVectorINS_2wpINS_13SensorService21SensorEventConnectionEEEE10do_destroyEPvj
W _ZNK7android12SortedVectorINS_2wpINS_13SensorService21SensorEventConnectionEEEE12do_constructEPvj
W _ZNK7android12SortedVectorINS_2wpINS_13SensorService21SensorEventConnectionEEEE15do_move_forwardEPvPKvj
W _ZNK7android12SortedVectorINS_2wpINS_13SensorService21SensorEventConnectionEEEE16do_move_backwardEPvPKvj
W _ZNK7android12SortedVectorINS_2wpINS_13SensorService21SensorEventConnectionEEEE7do_copyEPvPKvj
W _ZNK7android12SortedVectorINS_2wpINS_13SensorService21SensorEventConnectionEEEE8do_splatEPvPKvj
W _ZNK7android12SortedVectorIiE10do_compareEPKvS3_
W _ZNK7android12SortedVectorIiE10do_destroyEPvj
W _ZNK7android12SortedVectorIiE12do_constructEPvj
W _ZNK7android12SortedVectorIiE15do_move_forwardEPvPKvj
W _ZNK7android12SortedVectorIiE16do_move_backwardEPvPKvj
W _ZNK7android12SortedVectorIiE7do_copyEPvPKvj
W _ZNK7android12SortedVectorIiE8do_splatEPvPKvj
T _ZNK7android13GravitySensor9getSensorEv
U _ZNK7android13ISensorServer22getInterfaceDescriptorEv
T _ZNK7android13SensorService13getSensorNameEi
T _ZNK7android13SensorService20getActiveConnectionsEv
T _ZNK7android13SensorService21SensorEventConnection12hasAnySensorEv
T _ZNK7android13SensorService21SensorEventConnection16getSensorChannelEv
T _ZNK7android13SensorService21SensorEventConnection9hasSensorEi
T _ZNK7android13SensorService23getActiveVirtualSensorsEv
T _ZNK7android14HardwareSensor9getSensorEv
U _ZNK7android16SortedVectorImpl7indexOfEPKv
T _ZNK7android20RotationVectorSensor9getSensorEv
U _ZNK7android22ISensorEventConnection22getInterfaceDescriptorEv
T _ZNK7android24LinearAccelerationSensor9getSensorEv
U _ZNK7android6Parcel17readExceptionCodeEv
U _ZNK7android6Sensor11getMaxValueEv
U _ZNK7android6Sensor11getMinDelayEv
U _ZNK7android6Sensor13getPowerUsageEv
U _ZNK7android6Sensor13getResolutionEv
U _ZNK7android6Sensor7getNameEv
U _ZNK7android6Sensor9getHandleEv
U _ZNK7android6Sensor9getVendorEv
U _ZNK7android6Thread11exitPendingEv
W _ZNK7android6VectorINS_6SensorEE10do_destroyEPvj
W _ZNK7android6VectorINS_6SensorEE12do_constructEPvj
W _ZNK7android6VectorINS_6SensorEE15do_move_forwardEPvPKvj
W _ZNK7android6VectorINS_6SensorEE16do_move_backwardEPvPKvj
W _ZNK7android6VectorINS_6SensorEE7do_copyEPvPKvj
W _ZNK7android6VectorINS_6SensorEE8do_splatEPvPKvj
W _ZNK7android6VectorIPNS_15SensorInterfaceEE10do_destroyEPvj
W _ZNK7android6VectorIPNS_15SensorInterfaceEE12do_constructEPvj
W _ZNK7android6VectorIPNS_15SensorInterfaceEE15do_move_forwardEPvPKvj
W _ZNK7android6VectorIPNS_15SensorInterfaceEE16do_move_backwardEPvPKvj
W _ZNK7android6VectorIPNS_15SensorInterfaceEE7do_copyEPvPKvj
W _ZNK7android6VectorIPNS_15SensorInterfaceEE8do_splatEPvPKvj
U _ZNK7android7BBinder10findObjectEPKv
U _ZNK7android7BBinder13isBinderAliveEv
U _ZNK7android7BBinder22getInterfaceDescriptorEv
U _ZNK7android7IBinder13checkSubclassEPKv
U _ZNK7android7RefBase10createWeakEPKv
U _ZNK7android7RefBase9decStrongEPKv
U _ZNK7android7RefBase9incStrongEPKv
V _ZTCN7android11BnInterfaceINS_13ISensorServerEEE0_NS_10IInterfaceE
V _ZTCN7android11BnInterfaceINS_13ISensorServerEEE0_S1_
V _ZTCN7android11BnInterfaceINS_13ISensorServerEEE4_NS_7BBinderE
V _ZTCN7android11BnInterfaceINS_13ISensorServerEEE4_NS_7IBinderE
V _ZTCN7android11BnInterfaceINS_22ISensorEventConnectionEEE0_NS_10IInterfaceE
V _ZTCN7android11BnInterfaceINS_22ISensorEventConnectionEEE0_S1_
V _ZTCN7android11BnInterfaceINS_22ISensorEventConnectionEEE4_NS_7BBinderE
V _ZTCN7android11BnInterfaceINS_22ISensorEventConnectionEEE4_NS_7IBinderE
D _ZTCN7android13SensorService21SensorEventConnectionE0_NS_10IInterfaceE
D _ZTCN7android13SensorService21SensorEventConnectionE0_NS_11BnInterfaceINS_22ISensorEventConnectionEEE
D _ZTCN7android13SensorService21SensorEventConnectionE0_NS_22ISensorEventConnectionE
D _ZTCN7android13SensorService21SensorEventConnectionE0_NS_23BnSensorEventConnectionE
D _ZTCN7android13SensorService21SensorEventConnectionE4_NS_7BBinderE
D _ZTCN7android13SensorService21SensorEventConnectionE4_NS_7IBinderE
D _ZTCN7android13SensorServiceE0_NS_10IInterfaceE
D _ZTCN7android13SensorServiceE0_NS_11BnInterfaceINS_13ISensorServerEEE
D _ZTCN7android13SensorServiceE0_NS_13ISensorServerE
D _ZTCN7android13SensorServiceE0_NS_14BnSensorServerE
D _ZTCN7android13SensorServiceE16_NS_6ThreadE
D _ZTCN7android13SensorServiceE4_NS_7BBinderE
D _ZTCN7android13SensorServiceE4_NS_7IBinderE
V _ZTTN7android11BnInterfaceINS_13ISensorServerEEE
V _ZTTN7android11BnInterfaceINS_22ISensorEventConnectionEEE
D _ZTTN7android13SensorService21SensorEventConnectionE
D _ZTTN7android13SensorServiceE
U _ZTTN7android14BnSensorServerE
U _ZTTN7android23BnSensorEventConnectionE
V _ZTVN7android11BnInterfaceINS_13ISensorServerEEE
V _ZTVN7android11BnInterfaceINS_22ISensorEventConnectionEEE
V _ZTVN7android11FlattenableE
V _ZTVN7android12SortedVectorINS_16key_value_pair_tIPvxEEEE
V _ZTVN7android12SortedVectorINS_16key_value_pair_tIi15sensors_event_tEEEE
V _ZTVN7android12SortedVectorINS_16key_value_pair_tIiNS_12SensorDevice4InfoEEEEE
V _ZTVN7android12SortedVectorINS_16key_value_pair_tIiPNS_13SensorService12SensorRecordEEEEE
V _ZTVN7android12SortedVectorINS_16key_value_pair_tIiPNS_15SensorInterfaceEEEEE
V _ZTVN7android12SortedVectorINS_2wpINS_13SensorService21SensorEventConnectionEEEEE
V _ZTVN7android12SortedVectorIiEE
D _ZTVN7android13GravitySensorE
D _ZTVN7android13SensorService21SensorEventConnectionE
D _ZTVN7android13SensorServiceE
U _ZTVN7android14BnSensorServerE
D _ZTVN7android14HardwareSensorE
D _ZTVN7android15SensorInterfaceE
D _ZTVN7android20RotationVectorSensorE
U _ZTVN7android23BnSensorEventConnectionE
D _ZTVN7android24LinearAccelerationSensorE
U _ZTVN7android6SensorE
V _ZTVN7android6VectorINS_6SensorEEE
V _ZTVN7android6VectorIPNS_15SensorInterfaceEEE
T _ZThn16_N7android13SensorService10threadLoopEv
T _ZThn16_N7android13SensorServiceD0Ev
T _ZThn16_N7android13SensorServiceD1Ev
T _ZThn4_N7android13SensorService21SensorEventConnectionD0Ev
T _ZThn4_N7android13SensorService21SensorEventConnectionD1Ev
T _ZThn4_N7android13SensorService4dumpEiRKNS_6VectorINS_8String16EEE
T _ZThn4_N7android13SensorServiceD0Ev
T _ZThn4_N7android13SensorServiceD1Ev
U _ZThn4_N7android14BnSensorServer10onTransactEjRKNS_6ParcelEPS1_j
U _ZThn4_N7android23BnSensorEventConnection10onTransactEjRKNS_6ParcelEPS1_j
U _ZTv0_n12_N7android10IInterfaceD0Ev
U _ZTv0_n12_N7android10IInterfaceD1Ev
W _ZTv0_n12_N7android11BnInterfaceINS_13ISensorServerEED0Ev
W _ZTv0_n12_N7android11BnInterfaceINS_13ISensorServerEED1Ev
W _ZTv0_n12_N7android11BnInterfaceINS_22ISensorEventConnectionEED0Ev
W _ZTv0_n12_N7android11BnInterfaceINS_22ISensorEventConnectionEED1Ev
U _ZTv0_n12_N7android13ISensorServerD0Ev
U _ZTv0_n12_N7android13ISensorServerD1Ev
T _ZTv0_n12_N7android13SensorService21SensorEventConnectionD0Ev
T _ZTv0_n12_N7android13SensorService21SensorEventConnectionD1Ev
T _ZTv0_n12_N7android13SensorServiceD0Ev
T _ZTv0_n12_N7android13SensorServiceD1Ev
W _ZTv0_n12_N7android14BnSensorServerD0Ev
W _ZTv0_n12_N7android14BnSensorServerD1Ev
U _ZTv0_n12_N7android22ISensorEventConnectionD0Ev
U _ZTv0_n12_N7android22ISensorEventConnectionD1Ev
W _ZTv0_n12_N7android23BnSensorEventConnectionD0Ev
W _ZTv0_n12_N7android23BnSensorEventConnectionD1Ev
U _ZTv0_n12_N7android6ThreadD0Ev
U _ZTv0_n12_N7android6ThreadD1Ev
U _ZTv0_n12_N7android7BBinderD0Ev
U _ZTv0_n12_N7android7BBinderD1Ev
U _ZTv0_n12_N7android7IBinderD0Ev
U _ZTv0_n12_N7android7IBinderD1Ev
T _ZTv0_n16_N7android13SensorService10onFirstRefEv
T _ZTv0_n16_N7android13SensorService21SensorEventConnection10onFirstRefEv
U _ZdlPv
U _Znwj
T __FINI_ARRAY__
T __INIT_ARRAY__
U __aeabi_atexit
U __aeabi_d2f
U __aeabi_dcmpeq
U __aeabi_dmul
U __aeabi_dsub
U __aeabi_f2d
U __aeabi_fadd
U __aeabi_fcmplt
U __aeabi_fdiv
U __aeabi_fmul
U __aeabi_fsub
U __aeabi_i2f
U __aeabi_l2d
U __aeabi_unwind_cpp_pr0
U __aeabi_unwind_cpp_pr1
U __android_log_print
A __bss_end__
A __bss_start
A __bss_start__
T __clzsi2
U __cxa_finalize
U __cxa_pure_virtual
A __data_start
B __dso_handle
A __end__
A __exidx_end
A __exidx_start
U __stack_chk_fail
U __stack_chk_guard
A _bss_end__
A _edata
A _end
A _stack
U hw_get_module
U memcpy
U memmove
U memset
U pthread_mutex_destroy
U pthread_mutex_init
U pthread_mutex_lock
U pthread_mutex_unlock
U qsort
U snprintf
U sqrtf
U strerror
U strzcmp16
U tanf
U write
