U _Z12SkEvalQuadAtPK7SkPointfPS_S2_
U _Z13SkEvalCubicAtPK7SkPointfPS_S2_S2_
U _Z15sk_malloc_flagsjj
U _Z15sk_malloc_throwj
U _Z16Android_SkDebugfPKciS0_S0_z
U _Z16sk_realloc_throwPvj
U _Z18SkPreMultiplyColorj
U _Z7sk_freePv
U _Z8sk_throwv
T _ZN10SkGLCanvas11setViewportEii
T _ZN10SkGLCanvas12createDeviceEN8SkBitmap6ConfigEiibb
T _ZN10SkGLCanvas17DeleteAllTexturesEv
T _ZN10SkGLCanvas18AbandonAllTexturesEv
T _ZN10SkGLCanvas22GetTextureCacheMaxSizeEv
T _ZN10SkGLCanvas22SetTextureCacheMaxSizeEj
T _ZN10SkGLCanvas23GetTextureCacheMaxCountEv
T _ZN10SkGLCanvas23SetTextureCacheMaxCountEj
T _ZN10SkGLCanvasC1Ev
T _ZN10SkGLCanvasC2Ev
T _ZN10SkGLCanvasD0Ev
T _ZN10SkGLCanvasD1Ev
T _ZN10SkGLCanvasD2Ev
T _ZN10SkGLDevice10drawBitmapERK6SkDrawRK8SkBitmapRK8SkMatrixRK7SkPaint
T _ZN10SkGLDevice10drawDeviceERK6SkDrawP8SkDeviceiiRK7SkPaint
T _ZN10SkGLDevice10drawPointsERK6SkDrawN8SkCanvas9PointModeEjPK7SkPointRK7SkPaint
T _ZN10SkGLDevice10drawSpriteERK6SkDrawRK8SkBitmapiiRK7SkPaint
T _ZN10SkGLDevice11drawPosTextERK6SkDrawPKvjPKffiRK7SkPaint
T _ZN10SkGLDevice12LockTexCacheERK8SkBitmapPjP7SkPoint
T _ZN10SkGLDevice12drawVerticesERK6SkDrawN8SkCanvas10VertexModeEiPK7SkPointS7_PKjP10SkXfermodePKtiRK7SkPaint
T _ZN10SkGLDevice12setupForTextEP6SkDrawRK7SkPaint
T _ZN10SkGLDevice13setMatrixClipERK8SkMatrixRK8SkRegion
T _ZN10SkGLDevice14UnlockTexCacheEPNS_8TexCacheE
T _ZN10SkGLDevice14drawTextOnPathERK6SkDrawPKvjRK6SkPathPK8SkMatrixRK7SkPaint
T _ZN10SkGLDevice15AutoPaintShaderC1EPS_RK7SkPaint
T _ZN10SkGLDevice15AutoPaintShaderC2EPS_RK7SkPaint
T _ZN10SkGLDevice15AutoPaintShaderD1Ev
T _ZN10SkGLDevice15AutoPaintShaderD2Ev
T _ZN10SkGLDevice16updateMatrixClipEv
T _ZN10SkGLDevice17GlyphCacheAuxProcEPv
T _ZN10SkGLDevice18setupGLPaintShaderERK7SkPaint
T _ZN10SkGLDevice19bindDeviceAsTextureEv
T _ZN10SkGLDevice8drawPathERK6SkDrawRK6SkPathRK7SkPaint
T _ZN10SkGLDevice8drawRectERK6SkDrawRK6SkRectRK7SkPaint
T _ZN10SkGLDevice8drawTextERK6SkDrawPKvjffRK7SkPaint
T _ZN10SkGLDevice9drawPaintERK6SkDrawRK7SkPaint
T _ZN10SkGLDevice9gainFocusEP8SkCanvas
T _ZN10SkGLDeviceC1ERK8SkBitmapb
T _ZN10SkGLDeviceC2ERK8SkBitmapb
T _ZN10SkGLDeviceD0Ev
T _ZN10SkGLDeviceD1Ev
T _ZN10SkGLDeviceD2Ev
U _ZN12SkColorTable12unlockColorsEb
U _ZN12SkGlyphCache10setAuxProcEPFvPvES0_
U _ZN12SkGlyphCache13removeAuxProcEPFvPvE
U _ZN12SkGlyphCache14VisitAllCachesEPFbPS_PvES1_
U _ZN12SkGlyphCache9findImageERK7SkGlyph
T _ZN13SkGLDrawProcs9drawQuadsEv
T _ZN13SkGLTextCache15addGlyphAndBindERK7SkGlyphPKhPi
T _ZN13SkGLTextCache16deleteAllStrikesEb
T _ZN13SkGLTextCache6Strike15addGlyphAndBindERK7SkGlyphPKhPi
T _ZN13SkGLTextCache6Strike9findGlyphERK7SkGlyphPi
T _ZN13SkGLTextCache6StrikeC1EPS0_ii
T _ZN13SkGLTextCache6StrikeC2EPS0_ii
T _ZN13SkGLTextCache6StrikeD1Ev
T _ZN13SkGLTextCache6StrikeD2Ev
T _ZN13SkGLTextCache9findGlyphERK7SkGlyphPi
T _ZN13SkGLTextCacheC1Ev
T _ZN13SkGLTextCacheC2Ev
T _ZN13SkGLTextCacheD1Ev
T _ZN13SkGLTextCacheD2Ev
T _ZN14SkTextureCache10setMaxSizeEj
T _ZN14SkTextureCache11setMaxCountEj
T _ZN14SkTextureCache15deleteAllCachesEb
T _ZN14SkTextureCache16purgeIfNecessaryEj
T _ZN14SkTextureCache4lockERK8SkBitmap
T _ZN14SkTextureCache5EntryC1ERK8SkBitmap
T _ZN14SkTextureCache5EntryC2ERK8SkBitmap
T _ZN14SkTextureCache5EntryD1Ev
T _ZN14SkTextureCache5EntryD2Ev
T _ZN14SkTextureCache6unlockEPNS_5EntryE
T _ZN14SkTextureCacheC1Ejj
T _ZN14SkTextureCacheC2Ejj
T _ZN14SkTextureCacheD1Ev
T _ZN14SkTextureCacheD2Ev
T _ZN18SkGLDevice_SWLayer10drawBitmapERK6SkDrawRK8SkBitmapRK8SkMatrixRK7SkPaint
T _ZN18SkGLDevice_SWLayer10drawDeviceERK6SkDrawP8SkDeviceiiRK7SkPaint
T _ZN18SkGLDevice_SWLayer10drawPointsERK6SkDrawN8SkCanvas9PointModeEjPK7SkPointRK7SkPaint
T _ZN18SkGLDevice_SWLayer10drawSpriteERK6SkDrawRK8SkBitmapiiRK7SkPaint
T _ZN18SkGLDevice_SWLayer11drawPosTextERK6SkDrawPKvjPKffiRK7SkPaint
T _ZN18SkGLDevice_SWLayer12drawVerticesERK6SkDrawN8SkCanvas10VertexModeEiPK7SkPointS7_PKjP10SkXfermodePKtiRK7SkPaint
T _ZN18SkGLDevice_SWLayer14drawTextOnPathERK6SkDrawPKvjRK6SkPathPK8SkMatrixRK7SkPaint
T _ZN18SkGLDevice_SWLayer19bindDeviceAsTextureEv
T _ZN18SkGLDevice_SWLayer8drawPathERK6SkDrawRK6SkPathRK7SkPaint
T _ZN18SkGLDevice_SWLayer8drawRectERK6SkDrawRK6SkRectRK7SkPaint
T _ZN18SkGLDevice_SWLayer8drawTextERK6SkDrawPKvjffRK7SkPaint
T _ZN18SkGLDevice_SWLayer9drawPaintERK6SkDrawRK7SkPaint
T _ZN18SkGLDevice_SWLayerC1ERK8SkBitmap
T _ZN18SkGLDevice_SWLayerC2ERK8SkBitmap
T _ZN18SkGLDevice_SWLayerD0Ev
T _ZN18SkGLDevice_SWLayerD1Ev
T _ZN18SkGLDevice_SWLayerD2Ev
T _ZN4SkGL12DrawVerticesEijPK10SkGLVertexS2_PKhPKtP12SkGLClipIter
T _ZN4SkGL12SetTexParamsEbN8SkShader8TileModeES1_
T _ZN4SkGL14BindNewTextureERK8SkBitmapP7SkPoint
T _ZN4SkGL17SetTexParamsClampEb
T _ZN4SkGL18PrepareForFillPathEP7SkPaint
T _ZN4SkGL24ComputeTextureMemorySizeERK8SkBitmap
T _ZN4SkGL5OrthoEffffff
T _ZN4SkGL7ScissorERK7SkIRecti
T _ZN4SkGL7SetRGBAEPhPKji
T _ZN4SkGL8DrawPathERK6SkPathbP12SkGLClipIter
T _ZN4SkGL8FillPathERK6SkPathRK7SkPaintbP12SkGLClipIter
T _ZN4SkGL8SetAlphaEj
T _ZN4SkGL8SetColorEj
T _ZN4SkGL8SetPaintERK7SkPaintbb
T _ZN4SkGL9DumpErrorEPKc
U _ZN6SkDrawC1ERKS_
U _ZN6SkPath4Iter4nextEP7SkPoint
U _ZN6SkPath4IterC1ERKS_b
U _ZN6SkPath7addRectERK6SkRectNS_9DirectionE
U _ZN6SkPathC1Ev
U _ZN6SkPathD1Ev
U _ZN7SkPaint14setStrokeWidthEf
U _ZN7SkPaintC1ERKS_
U _ZN7SkPaintD1Ev
U _ZN8SkBitmap11allocPixelsEPNS_9AllocatorEP12SkColorTable
U _ZN8SkBitmap11setIsOpaqueEb
U _ZN8SkBitmap9setConfigENS_6ConfigEiii
U _ZN8SkBitmapC1Ev
U _ZN8SkBitmapD1Ev
U _ZN8SkCanvas10clipRegionERK8SkRegionNS0_2OpE
U _ZN8SkCanvas10drawBitmapERK8SkBitmapffPK7SkPaint
U _ZN8SkCanvas10drawPointsENS_9PointModeEjPK7SkPointRK7SkPaint
U _ZN8SkCanvas10drawSpriteERK8SkBitmapiiPK7SkPaint
U _ZN8SkCanvas10setBounderEP9SkBounder
U _ZN8SkCanvas11drawPictureER9SkPicture
U _ZN8SkCanvas11drawPosTextEPKvjPK7SkPointRK7SkPaint
U _ZN8SkCanvas12drawPosTextHEPKvjPKffRK7SkPaint
U _ZN8SkCanvas12drawVerticesENS_10VertexModeEiPK7SkPointS3_PKjP10SkXfermodePKtiRK7SkPaint
U _ZN8SkCanvas13setDrawFilterEP12SkDrawFilter
U _ZN8SkCanvas14drawBitmapRectERK8SkBitmapPK7SkIRectRK6SkRectPK7SkPaint
U _ZN8SkCanvas14drawTextOnPathEPKvjRK6SkPathPK8SkMatrixRK7SkPaint
U _ZN8SkCanvas14restoreToCountEi
U _ZN8SkCanvas16commonDrawBitmapERK8SkBitmapRK8SkMatrixRK7SkPaint
U _ZN8SkCanvas16drawBitmapMatrixERK8SkBitmapRK8SkMatrixPK7SkPaint
U _ZN8SkCanvas4saveENS_9SaveFlagsE
U _ZN8SkCanvas4skewEff
U _ZN8SkCanvas5scaleEff
U _ZN8SkCanvas6concatERK8SkMatrix
U _ZN8SkCanvas6rotateEf
U _ZN8SkCanvas7restoreEv
U _ZN8SkCanvas8clipPathERK6SkPathN8SkRegion2OpE
U _ZN8SkCanvas8clipRectERK6SkRectN8SkRegion2OpE
U _ZN8SkCanvas8drawDataEPKvj
U _ZN8SkCanvas8drawPathERK6SkPathRK7SkPaint
U _ZN8SkCanvas8drawRectERK6SkRectRK7SkPaint
U _ZN8SkCanvas8drawTextEPKvjffRK7SkPaint
U _ZN8SkCanvas9drawPaintERK7SkPaint
U _ZN8SkCanvas9drawShapeEP7SkShape
U _ZN8SkCanvas9saveLayerEPK6SkRectPK7SkPaintNS_9SaveFlagsE
U _ZN8SkCanvas9setDeviceEP8SkDevice
U _ZN8SkCanvas9setMatrixERK8SkMatrix
U _ZN8SkCanvas9translateEff
U _ZN8SkCanvasC2EP8SkDevice
U _ZN8SkCanvasD2Ev
U _ZN8SkDevice10drawDeviceERK6SkDrawPS_iiRK7SkPaint
U _ZN8SkDevice10lockPixelsEv
U _ZN8SkDevice11drawPosTextERK6SkDrawPKvjPKffiRK7SkPaint
U _ZN8SkDevice12accessBitmapEb
U _ZN8SkDevice12unlockPixelsEv
U _ZN8SkDevice13setMatrixClipERK8SkMatrixRK8SkRegion
U _ZN8SkDevice14onAccessBitmapEP8SkBitmap
U _ZN8SkDevice17drawPosTextOnPathERK6SkDrawPKvjPK7SkPointRK7SkPaintRK6SkPathPK8SkMatrix
U _ZN8SkDevice8drawTextERK6SkDrawPKvjffRK7SkPaint
U _ZN8SkDeviceC2ERK8SkBitmap
U _ZN8SkMatrix9postScaleEff
U _ZN8SkMatrix9preConcatERKS_
U _ZN8SkRegion8Iterator4nextEv
U _ZN8SkRegion8Iterator5resetERKS_
U _ZN8SkRegion8Iterator6rewindEv
U _ZN8SkRegionC1Ev
U _ZN8SkRegionD1Ev
U _ZN8SkRegionaSERKS_
T _ZNK10SkGLCanvas11getViewportEP8SkIPoint
U _ZNK12SkGlyphCache14getAuxProcDataEPFvPvEPS0_
T _ZNK14SkTextureCache12findInSortedERKNS_3KeyE
T _ZNK14SkTextureCache4findERKNS_3KeyEPi
U _ZNK6SkDraw10drawBitmapERK8SkBitmapRK8SkMatrixRK7SkPaint
U _ZNK6SkDraw10drawPointsEN8SkCanvas9PointModeEjPK7SkPointRK7SkPaint
U _ZNK6SkDraw10drawSpriteERK8SkBitmapiiRK7SkPaint
U _ZNK6SkDraw11drawPosTextEPKcjPKffiRK7SkPaint
U _ZNK6SkDraw12drawVerticesEN8SkCanvas10VertexModeEiPK7SkPointS4_PKjP10SkXfermodePKtiRK7SkPaint
U _ZNK6SkDraw14drawTextOnPathEPKcjRK6SkPathPK8SkMatrixRK7SkPaint
U _ZNK6SkDraw8drawPathERK6SkPathRK7SkPaintPK8SkMatrixb
U _ZNK6SkDraw8drawRectERK6SkRectRK7SkPaint
U _ZNK6SkDraw8drawTextEPKcjffRK7SkPaint
U _ZNK6SkDraw9drawPaintERK7SkPaint
U _ZNK6SkPath13computeBoundsEv
U _ZNK7SkPaint11getFillPathERK6SkPathPS0_
U _ZNK8SkBitmap10lockPixelsEv
U _ZNK8SkBitmap12unlockPixelsEv
U _ZNK8SkBitmap15getGenerationIDEv
U _ZNK8SkBitmap6copyToEPS_NS_6ConfigEPNS_9AllocatorE
U _ZNK8SkBitmap8isOpaqueEv
U _ZNK8SkBitmap9eraseARGBEjjjj
U _ZNK8SkMatrix15computeTypeMaskEv
U _ZNK8SkMatrix6invertEPS_
U _ZNK8SkMatrix7mapRectEP6SkRectRKS0_
U _ZNK8SkShader14getLocalMatrixEP8SkMatrix
D _ZTV10SkGLCanvas
D _ZTV10SkGLDevice
D _ZTV18SkGLDevice_SWLayer
U _ZTV8SkDevice
V _ZTV8SkRefCnt
U _ZdlPv
U _Znwj
T __FINI_ARRAY__
T __INIT_ARRAY__
U __aeabi_atexit
U __aeabi_fadd
U __aeabi_fcmpge
U __aeabi_fcmpgt
U __aeabi_fcmple
U __aeabi_fcmplt
U __aeabi_fdiv
U __aeabi_fmul
U __aeabi_fsub
U __aeabi_i2f
U __aeabi_unwind_cpp_pr0
A __bss_end__
A __bss_start
A __bss_start__
U __cxa_finalize
A __data_start
B __dso_handle
A __end__
A __exidx_end
A __exidx_start
A _bss_end__
A _edata
A _end
A _stack
U android_atomic_dec
U glBindTexture
U glBlendFunc
U glColor4x
U glColorPointer
U glCompressedTexImage2D
U glDeleteTextures
U glDisable
U glDisableClientState
U glDrawArrays
U glDrawElements
U glEnable
U glEnableClientState
U glGenTextures
U glGetError
U glLineWidth
U glLoadIdentity
U glLoadMatrixf
U glMatrixMode
U glMultMatrixf
U glPixelStorei
U glPointSize
U glPopMatrix
U glPushMatrix
U glScissor
U glShadeModel
U glTexCoordPointer
U glTexEnvf
U glTexImage2D
U glTexParameterx
U glTexSubImage2D
U glVertexPointer
U glViewport
U memcpy
U memmove
U memset
U pthread_mutex_destroy
U pthread_mutex_init
U pthread_mutex_lock
U pthread_mutex_unlock
