T _ZN7android14ColorConverter13convertCbYCrYEjjPKvjPvj
T _ZN7android14ColorConverter19convertYUV420PlanarEjjPKvjPvj
T _ZN7android14ColorConverter23convertYUV420SemiPlanarEjjPKvjPvj
T _ZN7android14ColorConverter27convertQCOMYUV420SemiPlanarEjjPKvjPvj
T _ZN7android14ColorConverter7convertEjjPKvjPvj
T _ZN7android14ColorConverter8initClipEv
T _ZN7android14ColorConverterC1E20OMX_COLOR_FORMATTYPES1_
T _ZN7android14ColorConverterC2E20OMX_COLOR_FORMATTYPES1_
T _ZN7android14ColorConverterD1Ev
T _ZN7android14ColorConverterD2Ev
U _ZN7android14MemoryHeapBaseC1EPKcjj
U _ZN7android14MemoryHeapBaseC1EjjPKc
U _ZN7android14MemoryHeapPmemC1ERKNS_2spINS_14MemoryHeapBaseEEEj
T _ZN7android16SoftwareRenderer6renderEPKvjPv
T _ZN7android16SoftwareRendererC1E20OMX_COLOR_FORMATTYPERKNS_2spINS_8ISurfaceEEEjjjji
T _ZN7android16SoftwareRendererC2E20OMX_COLOR_FORMATTYPERKNS_2spINS_8ISurfaceEEEjjjji
T _ZN7android16SoftwareRendererD0Ev
T _ZN7android16SoftwareRendererD1Ev
T _ZN7android16SoftwareRendererD2Ev
W _ZN7android2spINS_14MemoryHeapBaseEEaSEPS1_
W _ZN7android2spINS_14MemoryHeapBaseEEaSINS_14MemoryHeapPmemEEERS2_RKNS0_IT_EE
U _ZN7android8ISurface10BufferHeapC1EjjiiijjRKNS_2spINS_11IMemoryHeapEEE
U _ZN7android8ISurface10BufferHeapD1Ev
T _ZNK7android14ColorConverter7isValidEv
T _ZNK7android16SoftwareRenderer9initCheckEv
U _ZNK7android7RefBase9decStrongEPKv
U _ZNK7android7RefBase9incStrongEPKv
V _ZTVN7android13VideoRendererE
D _ZTVN7android16SoftwareRendererE
U _ZdaPv
U _ZdlPv
U _Znaj
U _Znwj
T __FINI_ARRAY__
T __INIT_ARRAY__
U __aeabi_unwind_cpp_pr0
U __android_log_assert
U __android_log_print
A __bss_end__
A __bss_start
A __bss_start__
U __cxa_finalize
U __cxa_pure_virtual
A __data_start
B __dso_handle
A __end__
A __exidx_end
A __exidx_start
A _bss_end__
A _edata
A _end
A _stack
