V _ZGVN7android9SingletonINS_10GraphicLogEE5sLockE
V _ZGVN7android9SingletonINS_19GraphicBufferMapperEE5sLockE
V _ZGVN7android9SingletonINS_22GraphicBufferAllocatorEE5sLockE
T _ZN15KeyCharacterMap10getKeyDataEiPtS0_S0_
T _ZN15KeyCharacterMap15getDisplayLabelEi
T _ZN15KeyCharacterMap3getEii
T _ZN15KeyCharacterMap4loadEi
T _ZN15KeyCharacterMap8find_keyEi
T _ZN15KeyCharacterMap8getMatchEiPKtij
T _ZN15KeyCharacterMap8try_fileEPKc
T _ZN15KeyCharacterMap9find_charEtPjS0_
T _ZN15KeyCharacterMap9getEventsEPtjPN7android6VectorIiEEPNS2_IjEE
T _ZN15KeyCharacterMap9getNumberEi
T _ZN15KeyCharacterMapC1Ev
T _ZN15KeyCharacterMapC2Ev
T _ZN15KeyCharacterMapD1Ev
T _ZN15KeyCharacterMapD2Ev
T _ZN7android10GraphicLog10setEnabledEb
T _ZN7android10GraphicLog7logImplEii
T _ZN7android10GraphicLog7logImplEiii
T _ZN7android10GraphicLogC1Ev
T _ZN7android10GraphicLogC2Ev
U _ZN7android10IInterface8asBinderEv
U _ZN7android10IInterfaceC2Ev
U _ZN7android10IInterfaceD0Ev
U _ZN7android10IInterfaceD1Ev
U _ZN7android10IInterfaceD2Ev
T _ZN7android10InputEvent10initializeERKS0_
T _ZN7android10InputEvent10initializeEii
T _ZN7android10OverlayRef13writeToParcelEPNS_6ParcelERKNS_2spIS0_EE
T _ZN7android10OverlayRef14readFromParcelERKNS_6ParcelE
T _ZN7android10OverlayRefC1EPK15native_handle_tRKNS_2spINS_8IOverlayEEEjjijj
T _ZN7android10OverlayRefC1Ev
T _ZN7android10OverlayRefC2EPK15native_handle_tRKNS_2spINS_8IOverlayEEEjjijj
T _ZN7android10OverlayRefC2Ev
T _ZN7android10OverlayRefD0Ev
T _ZN7android10OverlayRefD1Ev
T _ZN7android10OverlayRefD2Ev
U _ZN7android10VectorImpl11appendArrayEPKvj
U _ZN7android10VectorImpl11setCapacityEj
U _ZN7android10VectorImpl12appendVectorERKS0_
U _ZN7android10VectorImpl13editArrayImplEv
U _ZN7android10VectorImpl13finish_vectorEv
U _ZN7android10VectorImpl13removeItemsAtEjj
U _ZN7android10VectorImpl16editItemLocationEj
U _ZN7android10VectorImpl19reservedVectorImpl1Ev
U _ZN7android10VectorImpl19reservedVectorImpl2Ev
U _ZN7android10VectorImpl19reservedVectorImpl3Ev
U _ZN7android10VectorImpl19reservedVectorImpl4Ev
U _ZN7android10VectorImpl19reservedVectorImpl5Ev
U _ZN7android10VectorImpl19reservedVectorImpl6Ev
U _ZN7android10VectorImpl19reservedVectorImpl7Ev
U _ZN7android10VectorImpl19reservedVectorImpl8Ev
U _ZN7android10VectorImpl3addEPKv
U _ZN7android10VectorImpl3addEv
U _ZN7android10VectorImpl3popEv
U _ZN7android10VectorImpl4pushEPKv
U _ZN7android10VectorImpl4pushEv
U _ZN7android10VectorImpl5clearEv
U _ZN7android10VectorImpl8insertAtEjj
U _ZN7android10VectorImplC2ERKS0_
U _ZN7android10VectorImplC2Ejj
U _ZN7android10VectorImplD2Ev
U _ZN7android10VectorImplaSERKS0_
W _ZN7android11BnInterfaceINS_8IOverlayEE10onAsBinderEv
U _ZN7android11FlattenableD2Ev
T _ZN7android11InputDevice12getMetaStateEv
T _ZN7android11InputDevice13getDeviceInfoEPNS_15InputDeviceInfoE
T _ZN7android11InputDevice14getSwitchStateEji
T _ZN7android11InputDevice15getKeyCodeStateEji
T _ZN7android11InputDevice16getScanCodeStateEji
T _ZN7android11InputDevice21markSupportedKeyCodesEjjPKiPh
T _ZN7android11InputDevice4dumpERNS_7String8E
T _ZN7android11InputDevice5resetEv
T _ZN7android11InputDevice7processEPKNS_8RawEventE
T _ZN7android11InputDevice8getStateEjiMNS_11InputMapperEFijiE
T _ZN7android11InputDevice9addMapperEPNS_11InputMapperE
T _ZN7android11InputDevice9configureEv
T _ZN7android11InputDeviceC1EPNS_18InputReaderContextEiRKNS_7String8E
T _ZN7android11InputDeviceC2EPNS_18InputReaderContextEiRKNS_7String8E
T _ZN7android11InputDeviceD1Ev
T _ZN7android11InputDeviceD2Ev
T _ZN7android11InputMapper12getMetaStateEv
T _ZN7android11InputMapper14getSwitchStateEji
T _ZN7android11InputMapper15getKeyCodeStateEji
T _ZN7android11InputMapper16getScanCodeStateEji
T _ZN7android11InputMapper18populateDeviceInfoEPNS_15InputDeviceInfoE
T _ZN7android11InputMapper21markSupportedKeyCodesEjjPKiPh
T _ZN7android11InputMapper4dumpERNS_7String8E
T _ZN7android11InputMapper5resetEv
T _ZN7android11InputMapper9configureEv
T _ZN7android11InputMapperC1EPNS_11InputDeviceE
T _ZN7android11InputMapperC2EPNS_11InputDeviceE
T _ZN7android11InputMapperD0Ev
T _ZN7android11InputMapperD1Ev
T _ZN7android11InputMapperD2Ev
T _ZN7android11InputReader12consumeEventEPKNS_8RawEventE
T _ZN7android11InputReader12createDeviceEiRKNS_7String8Ej
T _ZN7android11InputReader12removeDeviceEi
T _ZN7android11InputReader14getSwitchStateEiji
T _ZN7android11InputReader15getKeyCodeStateEiji
T _ZN7android11InputReader16getScanCodeStateEiji
T _ZN7android11InputReader17getInputDeviceIdsERNS_6VectorIiEE
T _ZN7android11InputReader18getGlobalMetaStateEv
T _ZN7android11InputReader18getInputDeviceInfoEiPNS_15InputDeviceInfoE
T _ZN7android11InputReader20shouldDropVirtualKeyExPNS_11InputDeviceEii
T _ZN7android11InputReader21getInputConfigurationEPNS_18InputConfigurationE
T _ZN7android11InputReader21markSupportedKeyCodesEijjPKiPh
T _ZN7android11InputReader21updateGlobalMetaStateEv
T _ZN7android11InputReader23disableVirtualKeysUntilEx
T _ZN7android11InputReader24configureExcludedDevicesEv
T _ZN7android11InputReader24updateInputConfigurationEv
T _ZN7android11InputReader26handleConfigurationChangedEx
T _ZN7android11InputReader4dumpERNS_7String8E
T _ZN7android11InputReader7hasKeysEijjPKiPh
T _ZN7android11InputReader7processEPKNS_8RawEventE
T _ZN7android11InputReader8getStateEijiMNS_11InputDeviceEFijiE
T _ZN7android11InputReader8loopOnceEv
T _ZN7android11InputReader9addDeviceEi
T _ZN7android11InputReaderC1ERKNS_2spINS_17EventHubInterfaceEEERKNS1_INS_26InputReaderPolicyInterfaceEEERKNS1_INS_24InputDispatcherInterfaceEEE
T _ZN7android11InputReaderC2ERKNS_2spINS_17EventHubInterfaceEEERKNS1_INS_26InputReaderPolicyInterfaceEEERKNS1_INS_24InputDispatcherInterfaceEEE
T _ZN7android11InputReaderD0Ev
T _ZN7android11InputReaderD1Ev
T _ZN7android11InputReaderD2Ev
T _ZN7android11MotionEvent10initializeEiiiiiiffffxxjPKiPKNS_13PointerCoordsE
T _ZN7android11MotionEvent14offsetLocationEff
T _ZN7android11MotionEvent9addSampleExPKNS_13PointerCoordsE
T _ZN7android12InputChannel10sendSignalEc
T _ZN7android12InputChannel13receiveSignalEPc
T _ZN7android12InputChannel20openInputChannelPairERKNS_7String8ERNS_2spIS0_EES6_
T _ZN7android12InputChannelC1ERKNS_7String8Eiii
T _ZN7android12InputChannelC2ERKNS_7String8Eiii
T _ZN7android12InputChannelD0Ev
T _ZN7android12InputChannelD1Ev
T _ZN7android12InputChannelD2Ev
T _ZN7android12InputManager10initializeEv
T _ZN7android12InputManager13getDispatcherEv
T _ZN7android12InputManager4stopEv
T _ZN7android12InputManager5startEv
T _ZN7android12InputManager9getReaderEv
T _ZN7android12InputManagerC1ERKNS_2spINS_17EventHubInterfaceEEERKNS1_INS_26InputReaderPolicyInterfaceEEERKNS1_INS_30InputDispatcherPolicyInterfaceEEE
T _ZN7android12InputManagerC1ERKNS_2spINS_20InputReaderInterfaceEEERKNS1_INS_24InputDispatcherInterfaceEEE
T _ZN7android12InputManagerC2ERKNS_2spINS_17EventHubInterfaceEEERKNS1_INS_26InputReaderPolicyInterfaceEEERKNS1_INS_30InputDispatcherPolicyInterfaceEEE
T _ZN7android12InputManagerC2ERKNS_2spINS_20InputReaderInterfaceEEERKNS1_INS_24InputDispatcherInterfaceEEE
T _ZN7android12InputManagerD0Ev
T _ZN7android12InputManagerD1Ev
T _ZN7android12InputManagerD2Ev
T _ZN7android12KeyLayoutMap4loadEPKc
T _ZN7android12KeyLayoutMapC1Ev
T _ZN7android12KeyLayoutMapC2Ev
T _ZN7android12KeyLayoutMapD1Ev
T _ZN7android12KeyLayoutMapD2Ev
T _ZN7android12bitsPerPixelEi
W _ZN7android12compare_typeINS_16key_value_pair_tINS_7String8ES2_EEEEiRKT_S6_
T _ZN7android13GraphicBuffer10reallocateEjjij
T _ZN7android13GraphicBuffer11free_handleEv
T _ZN7android13GraphicBuffer26dumpAllocationsToSystemLogEv
T _ZN7android13GraphicBuffer4lockEP10GGLSurfacej
T _ZN7android13GraphicBuffer4lockEjPPv
T _ZN7android13GraphicBuffer4lockEjRKNS_4RectEPPv
T _ZN7android13GraphicBuffer6unlockEv
T _ZN7android13GraphicBuffer8initSizeEjjij
T _ZN7android13GraphicBuffer8setIndexEi
T _ZN7android13GraphicBuffer9unflattenEPKvjPij
T _ZN7android13GraphicBufferC1Ejjij
T _ZN7android13GraphicBufferC1EjjijjP15native_handle_tb
T _ZN7android13GraphicBufferC1Ev
T _ZN7android13GraphicBufferC2Ejjij
T _ZN7android13GraphicBufferC2EjjijjP15native_handle_tb
T _ZN7android13GraphicBufferC2Ev
T _ZN7android13GraphicBufferD0Ev
T _ZN7android13GraphicBufferD1Ev
T _ZN7android13GraphicBufferD2Ev
T _ZN7android13InputConsumer10initializeEv
T _ZN7android13InputConsumer18sendFinishedSignalEv
T _ZN7android13InputConsumer21receiveDispatchSignalEv
T _ZN7android13InputConsumer7consumeEPNS_26InputEventFactoryInterfaceEPPNS_10InputEventE
T _ZN7android13InputConsumerC1ERKNS_2spINS_12InputChannelEEE
T _ZN7android13InputConsumerC2ERKNS_2spINS_12InputChannelEEE
T _ZN7android13InputConsumerD1Ev
T _ZN7android13InputConsumerD2Ev
T _ZN7android13bytesPerPixelEi
T _ZN7android13rotateKeyCodeEii
T _ZN7android14InputPublisher10initializeEv
T _ZN7android14InputPublisher15publishKeyEventEiiiiiiiixx
T _ZN7android14InputPublisher17publishInputEventEiii
T _ZN7android14InputPublisher18appendMotionSampleExPKNS_13PointerCoordsE
T _ZN7android14InputPublisher18publishMotionEventEiiiiiiffffxxjPKiPKNS_13PointerCoordsE
T _ZN7android14InputPublisher18sendDispatchSignalEv
T _ZN7android14InputPublisher21receiveFinishedSignalEv
T _ZN7android14InputPublisher5resetEv
T _ZN7android14InputPublisherC1ERKNS_2spINS_12InputChannelEEE
T _ZN7android14InputPublisherC2ERKNS_2spINS_12InputChannelEEE
T _ZN7android14InputPublisherD1Ev
T _ZN7android14InputPublisherD2Ev
T _ZN7android15EventRecurrence5parseERKNS_8String16E
T _ZN7android15EventRecurrenceC1Ev
T _ZN7android15EventRecurrenceC2Ev
T _ZN7android15EventRecurrenceD1Ev
T _ZN7android15EventRecurrenceD2Ev
T _ZN7android15InputDeviceInfo10initializeEiRKNS_7String8E
T _ZN7android15InputDeviceInfo14addMotionRangeEiRKNS0_11MotionRangeE
T _ZN7android15InputDeviceInfo14addMotionRangeEiffff
T _ZN7android15InputDeviceInfo9addSourceEj
T _ZN7android15InputDeviceInfoC1ERKS0_
T _ZN7android15InputDeviceInfoC1Ev
T _ZN7android15InputDeviceInfoC2ERKS0_
T _ZN7android15InputDeviceInfoC2Ev
T _ZN7android15InputDeviceInfoD1Ev
T _ZN7android15InputDeviceInfoD2Ev
T _ZN7android15InputDispatcher10Connection10initializeEv
T _ZN7android15InputDispatcher10ConnectionC1ERKNS_2spINS_12InputChannelEEE
T _ZN7android15InputDispatcher10ConnectionC2ERKNS_2spINS_12InputChannelEEE
T _ZN7android15InputDispatcher10ConnectionD0Ev
T _ZN7android15InputDispatcher10ConnectionD1Ev
T _ZN7android15InputDispatcher10ConnectionD2Ev
T _ZN7android15InputDispatcher10InputState10trackEventEPKNS0_10EventEntryE
T _ZN7android15InputDispatcher10InputState11trackMotionEPKNS0_11MotionEntryE
T _ZN7android15InputDispatcher10InputState13MotionMemento11setPointersEPKNS0_11MotionEntryE
T _ZN7android15InputDispatcher10InputState17shouldCancelEventEiNS1_18CancelationOptionsE
T _ZN7android15InputDispatcher10InputState27synthesizeCancelationEventsExPNS0_9AllocatorERNS_6VectorIPNS0_10EventEntryEEENS1_18CancelationOptionsE
T _ZN7android15InputDispatcher10InputState5clearEv
T _ZN7android15InputDispatcher10InputState8trackKeyEPKNS0_8KeyEntryE
T _ZN7android15InputDispatcher10InputStateC1Ev
T _ZN7android15InputDispatcher10InputStateC2Ev
T _ZN7android15InputDispatcher10InputStateD1Ev
T _ZN7android15InputDispatcher10InputStateD2Ev
T _ZN7android15InputDispatcher10TouchState17addOrUpdateWindowEPKNS_11InputWindowEiNS_8BitSet32E
T _ZN7android15InputDispatcher10TouchState24getFirstForegroundWindowEv
T _ZN7android15InputDispatcher10TouchState25removeOutsideTouchWindowsEv
T _ZN7android15InputDispatcher10TouchState5resetEv
T _ZN7android15InputDispatcher10TouchState8copyFromERKS1_
T _ZN7android15InputDispatcher10TouchStateC1Ev
T _ZN7android15InputDispatcher10TouchStateC2Ev
T _ZN7android15InputDispatcher10TouchStateD1Ev
T _ZN7android15InputDispatcher10TouchStateD2Ev
T _ZN7android15InputDispatcher11onANRLockedExPKNS_16InputApplicationEPKNS_11InputWindowExx
T _ZN7android15InputDispatcher12CommandEntryC1Ev
T _ZN7android15InputDispatcher12CommandEntryC2Ev
T _ZN7android15InputDispatcher12CommandEntryD1Ev
T _ZN7android15InputDispatcher12CommandEntryD2Ev
T _ZN7android15InputDispatcher12dispatchOnceEv
T _ZN7android15InputDispatcher12notifyMotionExiijiiiijPKiPKNS_13PointerCoordsEffx
T _ZN7android15InputDispatcher12notifySwitchExiij
T _ZN7android15InputDispatcher15getWindowLockedERKNS_2spINS_12InputChannelEEE
T _ZN7android15InputDispatcher15setInputWindowsERKNS_6VectorINS_11InputWindowEEE
T _ZN7android15InputDispatcher16injectInputEventEPKNS_10InputEventEiiii
T _ZN7android15InputDispatcher16splitMotionEventEPKNS0_11MotionEntryENS_8BitSet32E
T _ZN7android15InputDispatcher17dispatchKeyLockedExPNS0_8KeyEntryExPNS0_10DropReasonEPx
T _ZN7android15InputDispatcher17postCommandLockedEMS0_FvPNS0_12CommandEntryEE
T _ZN7android15InputDispatcher18isAppSwitchKeyCodeEi
T _ZN7android15InputDispatcher18resetTargetsLockedEv
T _ZN7android15InputDispatcher19commitTargetsLockedEv
T _ZN7android15InputDispatcher20dispatchMotionLockedExPNS0_11MotionEntryEPNS0_10DropReasonEPx
T _ZN7android15InputDispatcher20registerInputChannelERKNS_2spINS_12InputChannelEEEb
T _ZN7android15InputDispatcher20resetKeyRepeatLockedEv
T _ZN7android15InputDispatcher20setInputDispatchModeEbb
T _ZN7android15InputDispatcher21addWindowTargetLockedEPKNS_11InputWindowEiNS_8BitSet32E
T _ZN7android15InputDispatcher21handleReceiveCallbackEiiPv
T _ZN7android15InputDispatcher21setFocusedApplicationEPKNS_16InputApplicationE
T _ZN7android15InputDispatcher22dropInboundEventLockedEPNS0_10EventEntryENS0_10DropReasonE
T _ZN7android15InputDispatcher22hasInjectionPermissionEii
T _ZN7android15InputDispatcher22logDispatchStateLockedEv
T _ZN7android15InputDispatcher22pokeUserActivityLockedEPKNS0_10EventEntryE
T _ZN7android15InputDispatcher22resetANRTimeoutsLockedEv
T _ZN7android15InputDispatcher22unregisterInputChannelERKNS_2spINS_12InputChannelEEE
T _ZN7android15InputDispatcher23dispatchOnceInnerLockedExxPx
T _ZN7android15InputDispatcher23drainInboundQueueLockedEv
T _ZN7android15InputDispatcher23dumpDispatchStateLockedERNS_7String8E
T _ZN7android15InputDispatcher24activateConnectionLockedEPNS0_10ConnectionE
T _ZN7android15InputDispatcher24checkInjectionPermissionEPKNS_11InputWindowEPKNS0_14InjectionStateE
T _ZN7android15InputDispatcher24drainOutboundQueueLockedEPNS0_10ConnectionE
T _ZN7android15InputDispatcher24getConnectionIndexLockedERKNS_2spINS_12InputChannelEEE
T _ZN7android15InputDispatcher24isAppSwitchPendingLockedEv
T _ZN7android15InputDispatcher24setInjectionResultLockedEPNS0_10EventEntryEi
T _ZN7android15InputDispatcher24startDispatchCycleLockedExRKNS_2spINS0_10ConnectionEEE
T _ZN7android15InputDispatcher25enqueueInboundEventLockedEPNS0_10EventEntryE
T _ZN7android15InputDispatcher25finishDispatchCycleLockedExRKNS_2spINS0_10ConnectionEEE
T _ZN7android15InputDispatcher25isAppSwitchKeyEventLockedEPNS0_8KeyEntryE
T _ZN7android15InputDispatcher25releaseInboundEventLockedEPNS0_10EventEntryE
T _ZN7android15InputDispatcher25releasePendingEventLockedEv
T _ZN7android15InputDispatcher25synthesizeKeyRepeatLockedExx
T _ZN7android15InputDispatcher26addMonitoringTargetsLockedEv
T _ZN7android15InputDispatcher26deactivateConnectionLockedEPNS0_10ConnectionE
T _ZN7android15InputDispatcher26notifyConfigurationChangedEx
T _ZN7android15InputDispatcher26prepareDispatchCycleLockedExRKNS_2spINS0_10ConnectionEEEPNS0_10EventEntryEPKNS_11InputTargetEb
T _ZN7android15InputDispatcher27handleTargetsNotReadyLockedExPKNS0_10EventEntryEPKNS_16InputApplicationEPKNS_11InputWindowEPx
T _ZN7android15InputDispatcher27logOutboundKeyDetailsLockedEPKcPKNS0_8KeyEntryE
T _ZN7android15InputDispatcher27onDispatchCycleBrokenLockedExRKNS_2spINS0_10ConnectionEEE
T _ZN7android15InputDispatcher27resetPendingAppSwitchLockedEb
T _ZN7android15InputDispatcher28onDispatchCycleStartedLockedExRKNS_2spINS0_10ConnectionEEE
T _ZN7android15InputDispatcher28resetAndDropEverythingLockedEPKc
T _ZN7android15InputDispatcher28startNextDispatchCycleLockedExRKNS_2spINS0_10ConnectionEEE
T _ZN7android15InputDispatcher29onDispatchCycleFinishedLockedExRKNS_2spINS0_10ConnectionEEE
T _ZN7android15InputDispatcher30abortBrokenDispatchCycleLockedExRKNS_2spINS0_10ConnectionEEE
T _ZN7android15InputDispatcher30doNotifyANRLockedInterruptibleEPNS0_12CommandEntryE
T _ZN7android15InputDispatcher30findFocusedWindowTargetsLockedExPKNS0_10EventEntryEPx
T _ZN7android15InputDispatcher30findTouchedWindowTargetsLockedExPKNS0_11MotionEntryEPx
T _ZN7android15InputDispatcher30logOutboundMotionDetailsLockedEPKcPKNS0_11MotionEntryE
T _ZN7android15InputDispatcher30runCommandsLockedInterruptibleEv
T _ZN7android15InputDispatcher30updateDispatchStatisticsLockedExPKNS0_10EventEntryEix
T _ZN7android15InputDispatcher31getApplicationWindowLabelLockedEPKNS_16InputApplicationEPKNS_11InputWindowE
T _ZN7android15InputDispatcher31releaseFocusedApplicationLockedEv
T _ZN7android15InputDispatcher34dispatchConfigurationChangedLockedExPNS0_25ConfigurationChangedEntryE
T _ZN7android15InputDispatcher37doPokeUserActivityLockedInterruptibleEPNS0_12CommandEntryE
T _ZN7android15InputDispatcher39getTimeSpentWaitingForApplicationLockedEx
T _ZN7android15InputDispatcher39isWindowFinishedWithPreviousInputLockedEPKNS_11InputWindowE
T _ZN7android15InputDispatcher39resumeAfterTargetsNotReadyTimeoutLockedExRKNS_2spINS_12InputChannelEEE
T _ZN7android15InputDispatcher40dispatchEventToCurrentInputTargetsLockedExPNS0_10EventEntryEb
T _ZN7android15InputDispatcher41doNotifyConfigurationChangedInterruptibleEPNS0_12CommandEntryE
T _ZN7android15InputDispatcher42decrementPendingForegroundDispatchesLockedEPNS0_10EventEntryE
T _ZN7android15InputDispatcher42incrementPendingForegroundDispatchesLockedEPNS0_10EventEntryE
T _ZN7android15InputDispatcher45doNotifyInputChannelBrokenLockedInterruptibleEPNS0_12CommandEntryE
T _ZN7android15InputDispatcher46synthesizeCancelationEventsForConnectionLockedERKNS_2spINS0_10ConnectionEEENS0_10InputState18CancelationOptionsEPKc
T _ZN7android15InputDispatcher48synthesizeCancelationEventsForInputChannelLockedERKNS_2spINS_12InputChannelEEENS0_10InputState18CancelationOptionsEPKc
T _ZN7android15InputDispatcher4dumpERNS_7String8E
T _ZN7android15InputDispatcher50doInterceptKeyBeforeDispatchingLockedInterruptibleEPNS0_12CommandEntryE
T _ZN7android15InputDispatcher50synthesizeCancelationEventsForAllConnectionsLockedENS0_10InputState18CancelationOptionsEPKc
T _ZN7android15InputDispatcher9Allocator14obtainKeyEntryExiijiiiiiix
T _ZN7android15InputDispatcher9Allocator15recycleKeyEntryEPNS0_8KeyEntryE
T _ZN7android15InputDispatcher9Allocator15releaseKeyEntryEPNS0_8KeyEntryE
T _ZN7android15InputDispatcher9Allocator17obtainMotionEntryExiijiiiiffxjPKiPKNS_13PointerCoordsE
T _ZN7android15InputDispatcher9Allocator17releaseEventEntryEPNS0_10EventEntryE
T _ZN7android15InputDispatcher9Allocator18appendMotionSampleEPNS0_11MotionEntryExPKNS_13PointerCoordsE
T _ZN7android15InputDispatcher9Allocator18obtainCommandEntryEMS0_FvPNS0_12CommandEntryEE
T _ZN7android15InputDispatcher9Allocator18releaseMotionEntryEPNS0_11MotionEntryE
T _ZN7android15InputDispatcher9Allocator19obtainDispatchEntryEPNS0_10EventEntryEiff
T _ZN7android15InputDispatcher9Allocator19releaseCommandEntryEPNS0_12CommandEntryE
T _ZN7android15InputDispatcher9Allocator20initializeEventEntryEPNS0_10EventEntryEixj
T _ZN7android15InputDispatcher9Allocator20obtainInjectionStateEii
T _ZN7android15InputDispatcher9Allocator20releaseDispatchEntryEPNS0_13DispatchEntryE
T _ZN7android15InputDispatcher9Allocator21releaseInjectionStateEPNS0_14InjectionStateE
T _ZN7android15InputDispatcher9Allocator31obtainConfigurationChangedEntryEx
T _ZN7android15InputDispatcher9Allocator31releaseEventEntryInjectionStateEPNS0_10EventEntryE
T _ZN7android15InputDispatcher9Allocator32releaseConfigurationChangedEntryEPNS0_25ConfigurationChangedEntryE
T _ZN7android15InputDispatcher9AllocatorC1Ev
T _ZN7android15InputDispatcher9AllocatorC2Ev
T _ZN7android15InputDispatcher9notifyKeyExiijiiiiix
T _ZN7android15InputDispatcherC1ERKNS_2spINS_30InputDispatcherPolicyInterfaceEEE
T _ZN7android15InputDispatcherC2ERKNS_2spINS_30InputDispatcherPolicyInterfaceEEE
T _ZN7android15InputDispatcherD0Ev
T _ZN7android15InputDispatcherD1Ev
T _ZN7android15InputDispatcherD2Ev
T _ZN7android15updateMetaStateEibi
U _ZN7android16SortedVectorImpl25reservedSortedVectorImpl1Ev
U _ZN7android16SortedVectorImpl25reservedSortedVectorImpl2Ev
U _ZN7android16SortedVectorImpl25reservedSortedVectorImpl3Ev
U _ZN7android16SortedVectorImpl25reservedSortedVectorImpl4Ev
U _ZN7android16SortedVectorImpl25reservedSortedVectorImpl5Ev
U _ZN7android16SortedVectorImpl25reservedSortedVectorImpl6Ev
U _ZN7android16SortedVectorImpl25reservedSortedVectorImpl7Ev
U _ZN7android16SortedVectorImpl25reservedSortedVectorImpl8Ev
U _ZN7android16SortedVectorImpl3addEPKv
U _ZN7android16SortedVectorImpl6removeEPKv
U _ZN7android16SortedVectorImplC2Ejj
U _ZN7android16SortedVectorImplD2Ev
T _ZN7android16TouchInputMapper10getSourcesEv
T _ZN7android16TouchInputMapper11dumpRawAxesERNS_7String8E
T _ZN7android16TouchInputMapper13dispatchTouchExjPNS0_9TouchDataENS_8BitSet32Ejji
T _ZN7android16TouchInputMapper14detectGesturesEx
T _ZN7android16TouchInputMapper14dumpParametersERNS_7String8E
T _ZN7android16TouchInputMapper15dispatchTouchesExj
T _ZN7android16TouchInputMapper15dumpCalibrationERNS_7String8E
T _ZN7android16TouchInputMapper15getKeyCodeStateEji
T _ZN7android16TouchInputMapper16configureRawAxesEv
T _ZN7android16TouchInputMapper16getScanCodeStateEji
T _ZN7android16TouchInputMapper16initializeLockedEv
T _ZN7android16TouchInputMapper16parseCalibrationEv
T _ZN7android16TouchInputMapper17dumpSurfaceLockedERNS_7String8E
T _ZN7android16TouchInputMapper18populateDeviceInfoEPNS_15InputDeviceInfoE
T _ZN7android16TouchInputMapper18resolveCalibrationEv
T _ZN7android16TouchInputMapper19applyBadTouchFilterEv
T _ZN7android16TouchInputMapper19calculatePointerIdsEv
T _ZN7android16TouchInputMapper19configureParametersEv
T _ZN7android16TouchInputMapper21applyJumpyTouchFilterEv
T _ZN7android16TouchInputMapper21dumpVirtualKeysLockedERNS_7String8E
T _ZN7android16TouchInputMapper21markSupportedKeyCodesEjjPKiPh
T _ZN7android16TouchInputMapper22configureSurfaceLockedEv
T _ZN7android16TouchInputMapper23consumeOffScreenTouchesExj
T _ZN7android16TouchInputMapper23findVirtualKeyHitLockedEii
T _ZN7android16TouchInputMapper25applyAveragingTouchFilterEv
T _ZN7android16TouchInputMapper26configureVirtualKeysLockedEv
T _ZN7android16TouchInputMapper26isPointInsideSurfaceLockedEii
T _ZN7android16TouchInputMapper4dumpERNS_7String8E
T _ZN7android16TouchInputMapper5resetEv
T _ZN7android16TouchInputMapper9configureEv
T _ZN7android16TouchInputMapper9syncTouchExb
T _ZN7android16TouchInputMapperC1EPNS_11InputDeviceEi
T _ZN7android16TouchInputMapperC2EPNS_11InputDeviceEi
T _ZN7android16TouchInputMapperD0Ev
T _ZN7android16TouchInputMapperD1Ev
T _ZN7android16TouchInputMapperD2Ev
T _ZN7android17InputReaderThread10threadLoopEv
T _ZN7android17InputReaderThreadC1ERKNS_2spINS_20InputReaderInterfaceEEE
T _ZN7android17InputReaderThreadC2ERKNS_2spINS_20InputReaderInterfaceEEE
T _ZN7android17InputReaderThreadD0Ev
T _ZN7android17InputReaderThreadD1Ev
T _ZN7android17InputReaderThreadD2Ev
T _ZN7android17SwitchInputMapper10getSourcesEv
T _ZN7android17SwitchInputMapper13processSwitchExii
T _ZN7android17SwitchInputMapper14getSwitchStateEji
T _ZN7android17SwitchInputMapper7processEPKNS_8RawEventE
T _ZN7android17SwitchInputMapperC1EPNS_11InputDeviceE
T _ZN7android17SwitchInputMapperC2EPNS_11InputDeviceE
T _ZN7android17SwitchInputMapperD0Ev
T _ZN7android17SwitchInputMapperD1Ev
T _ZN7android17SwitchInputMapperD2Ev
W _ZN7android17move_forward_typeINS_11InputTargetEEEvPT_PKS2_j
W _ZN7android17move_forward_typeINS_11InputWindowEEEvPT_PKS2_j
W _ZN7android17move_forward_typeINS_15InputDispatcher13TouchedWindowEEEvPT_PKS3_j
W _ZN7android17move_forward_typeINS_16key_value_pair_tINS_7String8ES2_EEEEvPT_PKS4_j
W _ZN7android17move_forward_typeINS_7String8EEEvPT_PKS2_j
T _ZN7android18getPixelFormatInfoEiPNS_15PixelFormatInfoE
W _ZN7android18move_backward_typeINS_11InputTargetEEEvPT_PKS2_j
W _ZN7android18move_backward_typeINS_11InputWindowEEEvPT_PKS2_j
W _ZN7android18move_backward_typeINS_15InputDispatcher13TouchedWindowEEEvPT_PKS3_j
W _ZN7android18move_backward_typeINS_16key_value_pair_tINS_7String8ES2_EEEEvPT_PKS4_j
W _ZN7android18move_backward_typeINS_7String8EEEvPT_PKS2_j
T _ZN7android19GraphicBufferMapper14registerBufferEPK15native_handle_t
T _ZN7android19GraphicBufferMapper16unregisterBufferEPK15native_handle_t
T _ZN7android19GraphicBufferMapper4lockEPK15native_handle_tiRKNS_4RectEPPv
T _ZN7android19GraphicBufferMapper6unlockEPK15native_handle_t
T _ZN7android19GraphicBufferMapperC1Ev
T _ZN7android19GraphicBufferMapperC2Ev
T _ZN7android19KeyboardInputMapper10getSourcesEv
T _ZN7android19KeyboardInputMapper10processKeyExbiij
T _ZN7android19KeyboardInputMapper12getMetaStateEv
T _ZN7android19KeyboardInputMapper15getKeyCodeStateEji
T _ZN7android19KeyboardInputMapper16getScanCodeStateEji
T _ZN7android19KeyboardInputMapper16initializeLockedEv
T _ZN7android19KeyboardInputMapper17findKeyDownLockedEi
T _ZN7android19KeyboardInputMapper18populateDeviceInfoEPNS_15InputDeviceInfoE
T _ZN7android19KeyboardInputMapper21markSupportedKeyCodesEjjPKiPh
T _ZN7android19KeyboardInputMapper22isKeyboardOrGamepadKeyEi
T _ZN7android19KeyboardInputMapper4dumpERNS_7String8E
T _ZN7android19KeyboardInputMapper5resetEv
T _ZN7android19KeyboardInputMapper7processEPKNS_8RawEventE
T _ZN7android19KeyboardInputMapperC1EPNS_11InputDeviceEiji
T _ZN7android19KeyboardInputMapperC2EPNS_11InputDeviceEiji
T _ZN7android19KeyboardInputMapperD0Ev
T _ZN7android19KeyboardInputMapperD1Ev
T _ZN7android19KeyboardInputMapperD2Ev
T _ZN7android19sw_gralloc_handle_t14registerBufferEPS0_
T _ZN7android19sw_gralloc_handle_t16unregisterBufferEPS0_
T _ZN7android19sw_gralloc_handle_t4freeEPS0_
T _ZN7android19sw_gralloc_handle_t4lockEPS0_iiiiiPPv
T _ZN7android19sw_gralloc_handle_t5allocEjjiiPPK15native_handle_tPi
T _ZN7android19sw_gralloc_handle_t6unlockEPS0_
T _ZN7android20TrackballInputMapper10getSourcesEv
T _ZN7android20TrackballInputMapper16getScanCodeStateEji
T _ZN7android20TrackballInputMapper16initializeLockedEv
T _ZN7android20TrackballInputMapper18populateDeviceInfoEPNS_15InputDeviceInfoE
T _ZN7android20TrackballInputMapper4dumpERNS_7String8E
T _ZN7android20TrackballInputMapper4syncEx
T _ZN7android20TrackballInputMapper5resetEv
T _ZN7android20TrackballInputMapper7processEPKNS_8RawEventE
T _ZN7android20TrackballInputMapperC1EPNS_11InputDeviceEi
T _ZN7android20TrackballInputMapperC2EPNS_11InputDeviceEi
T _ZN7android20TrackballInputMapperD0Ev
T _ZN7android20TrackballInputMapperD1Ev
T _ZN7android20TrackballInputMapperD2Ev
T _ZN7android21InputDispatcherThread10threadLoopEv
T _ZN7android21InputDispatcherThreadC1ERKNS_2spINS_24InputDispatcherInterfaceEEE
T _ZN7android21InputDispatcherThreadC2ERKNS_2spINS_24InputDispatcherInterfaceEEE
T _ZN7android21InputDispatcherThreadD0Ev
T _ZN7android21InputDispatcherThreadD1Ev
T _ZN7android21InputDispatcherThreadD2Ev
T _ZN7android21MultiTouchInputMapper10initializeEv
T _ZN7android21MultiTouchInputMapper16configureRawAxesEv
T _ZN7android21MultiTouchInputMapper4syncEx
T _ZN7android21MultiTouchInputMapper5resetEv
T _ZN7android21MultiTouchInputMapper7processEPKNS_8RawEventE
T _ZN7android21MultiTouchInputMapperC1EPNS_11InputDeviceEi
T _ZN7android21MultiTouchInputMapperC2EPNS_11InputDeviceEi
T _ZN7android21MultiTouchInputMapperD0Ev
T _ZN7android21MultiTouchInputMapperD1Ev
T _ZN7android21MultiTouchInputMapperD2Ev
B _ZN7android22GraphicBufferAllocator10sAllocListE
T _ZN7android22GraphicBufferAllocator15dumpToSystemLogEv
T _ZN7android22GraphicBufferAllocator4freeEPK15native_handle_t
T _ZN7android22GraphicBufferAllocator5allocEjjiiPPK15native_handle_tPi
B _ZN7android22GraphicBufferAllocator5sLockE
T _ZN7android22GraphicBufferAllocatorC1Ev
T _ZN7android22GraphicBufferAllocatorC2Ev
T _ZN7android22GraphicBufferAllocatorD1Ev
T _ZN7android22GraphicBufferAllocatorD2Ev
T _ZN7android22InputDeviceCalibration11addPropertyERKNS_7String8ES3_
T _ZN7android22InputDeviceCalibration5clearEv
T _ZN7android22InputDeviceCalibrationC1Ev
T _ZN7android22InputDeviceCalibrationC2Ev
T _ZN7android22SingleTouchInputMapper10initializeEv
T _ZN7android22SingleTouchInputMapper16configureRawAxesEv
T _ZN7android22SingleTouchInputMapper4syncEx
T _ZN7android22SingleTouchInputMapper5resetEv
T _ZN7android22SingleTouchInputMapper7processEPKNS_8RawEventE
T _ZN7android22SingleTouchInputMapperC1EPNS_11InputDeviceEi
T _ZN7android22SingleTouchInputMapperC2EPNS_11InputDeviceEi
T _ZN7android22SingleTouchInputMapperD0Ev
T _ZN7android22SingleTouchInputMapperD1Ev
T _ZN7android22SingleTouchInputMapperD2Ev
T _ZN7android23FramebufferNativeWindow10lockBufferEP13ANativeWindowP23android_native_buffer_t
T _ZN7android23FramebufferNativeWindow11queueBufferEP13ANativeWindowP23android_native_buffer_t
T _ZN7android23FramebufferNativeWindow13dequeueBufferEP13ANativeWindowPP23android_native_buffer_t
T _ZN7android23FramebufferNativeWindow15setSwapIntervalEP13ANativeWindowi
T _ZN7android23FramebufferNativeWindow18setUpdateRectangleERKNS_4RectE
T _ZN7android23FramebufferNativeWindow19compositionCompleteEv
T _ZN7android23FramebufferNativeWindow5queryEP13ANativeWindowiPi
T _ZN7android23FramebufferNativeWindow7performEP13ANativeWindowiz
T _ZN7android23FramebufferNativeWindowC1Ev
T _ZN7android23FramebufferNativeWindowC2Ev
T _ZN7android23FramebufferNativeWindowD1Ev
T _ZN7android23FramebufferNativeWindowD2Ev
W _ZN7android2spINS_10OverlayRefEEaSEPS1_
W _ZN7android2spINS_12InputChannelEEC1ERKS2_
W _ZN7android2spINS_12InputChannelEED1Ev
W _ZN7android2spINS_12InputChannelEEaSEPS1_
W _ZN7android2spINS_12InputChannelEEaSERKS2_
W _ZN7android2spINS_12NativeBufferEEaSEPS1_
W _ZN7android2spINS_15InputDispatcher10ConnectionEEC1ERKS3_
W _ZN7android2spINS_15InputDispatcher10ConnectionEED1Ev
W _ZN7android2spINS_15InputDispatcher10ConnectionEEaSERKS3_
W _ZN7android2spINS_17InputReaderThreadEEaSEPS1_
W _ZN7android2spINS_20InputReaderInterfaceEEaSINS_11InputReaderEEERS2_PT_
W _ZN7android2spINS_21InputDispatcherThreadEEaSEPS1_
W _ZN7android2spINS_22InputApplicationHandleEEaSERKS2_
W _ZN7android2spINS_24InputDispatcherInterfaceEEaSINS_15InputDispatcherEEERS2_PT_
W _ZN7android2spINS_6LooperEEaSEPS1_
W _ZN7android2spINS_8IOverlayEEaSEPS1_
W _ZN7android2spINS_8IOverlayEEaSERKS2_
W _ZN7android2spINS_8IOverlayEEaSINS_9BpOverlayEEERS2_PT_
T _ZN7android4Rect11makeInvalidEv
T _ZN7android4Rect8offsetByEii
T _ZN7android4Rect8offsetToEii
U _ZN7android6Looper4wakeEv
U _ZN7android6Looper5addFdEiiiPFiiiPvES1_
U _ZN7android6Looper8pollOnceEiPiS1_PPv
U _ZN7android6Looper8removeFdEi
U _ZN7android6LooperC1Eb
U _ZN7android6Parcel10writeInt32Ei
U _ZN7android6Parcel17writeNativeHandleEPK15native_handle_t
U _ZN7android6Parcel17writeStrongBinderERKNS_2spINS_7IBinderEEE
U _ZN7android6Parcel19writeInterfaceTokenERKNS_8String16E
U _ZN7android6ParcelC1Ev
U _ZN7android6ParcelD1Ev
T _ZN7android6Region10writeEmptyEPvj
T _ZN7android6Region12subtractSelfERKNS_4RectE
T _ZN7android6Region12subtractSelfERKS0_
T _ZN7android6Region12subtractSelfERKS0_ii
T _ZN7android6Region13operationSelfERKNS_4RectEi
T _ZN7android6Region13operationSelfERKS0_i
T _ZN7android6Region13operationSelfERKS0_iii
T _ZN7android6Region13translateSelfEii
T _ZN7android6Region14makeBoundsSelfEv
T _ZN7android6Region16addRectUncheckedEiiii
T _ZN7android6Region17boolean_operationEiRS0_RKS0_RKNS_4RectE
T _ZN7android6Region17boolean_operationEiRS0_RKS0_RKNS_4RectEii
T _ZN7android6Region17boolean_operationEiRS0_RKS0_S3_
T _ZN7android6Region17boolean_operationEiRS0_RKS0_S3_ii
T _ZN7android6Region3setERKNS_4RectE
T _ZN7android6Region3setEjj
T _ZN7android6Region4readEPKv
T _ZN7android6Region5clearEv
T _ZN7android6Region6orSelfERKNS_4RectE
T _ZN7android6Region6orSelfERKS0_
T _ZN7android6Region6orSelfERKS0_ii
T _ZN7android6Region7andSelfERKNS_4RectE
T _ZN7android6Region7andSelfERKS0_
T _ZN7android6Region7andSelfERKS0_ii
T _ZN7android6Region7isEmptyEPv
T _ZN7android6Region8validateERKS0_PKc
T _ZN7android6Region9translateERS0_RKS0_ii
T _ZN7android6Region9translateERS0_ii
T _ZN7android6RegionC1EPKv
T _ZN7android6RegionC1ERKNS_4RectE
T _ZN7android6RegionC1ERKS0_
T _ZN7android6RegionC1Ev
T _ZN7android6RegionC2EPKv
T _ZN7android6RegionC2ERKNS_4RectE
T _ZN7android6RegionC2ERKS0_
T _ZN7android6RegionC2Ev
T _ZN7android6RegionD1Ev
T _ZN7android6RegionD2Ev
T _ZN7android6RegionaSERKS0_
U _ZN7android6Thread10readyToRunEv
U _ZN7android6Thread11requestExitEv
U _ZN7android6Thread18requestExitAndWaitEv
U _ZN7android6Thread3runEPKcij
U _ZN7android6ThreadC2Eb
U _ZN7android6ThreadD0Ev
U _ZN7android6ThreadD1Ev
U _ZN7android6ThreadD2Ev
U _ZN7android7BBinder10onTransactEjRKNS_6ParcelEPS1_j
U _ZN7android7BBinder10pingBinderEv
U _ZN7android7BBinder11linkToDeathERKNS_2spINS_7IBinder14DeathRecipientEEEPvj
U _ZN7android7BBinder11localBinderEv
U _ZN7android7BBinder12attachObjectEPKvPvS3_PFvS2_S3_S3_E
U _ZN7android7BBinder12detachObjectEPKv
U _ZN7android7BBinder13unlinkToDeathERKNS_2wpINS_7IBinder14DeathRecipientEEEPvjPS4_
U _ZN7android7BBinder4dumpEiRKNS_6VectorINS_8String16EEE
U _ZN7android7BBinder8transactEjRKNS_6ParcelEPS1_j
U _ZN7android7BBinderD0Ev
U _ZN7android7BBinderD1Ev
U _ZN7android7BBinderD2Ev
U _ZN7android7IBinder11localBinderEv
U _ZN7android7IBinder12remoteBinderEv
U _ZN7android7IBinder19queryLocalInterfaceERKNS_8String16E
U _ZN7android7IBinderD0Ev
U _ZN7android7IBinderD1Ev
T _ZN7android7Overlay11queueBufferEPv
T _ZN7android7Overlay11resizeInputEjj
T _ZN7android7Overlay12setParameterEii
T _ZN7android7Overlay13dequeueBufferEPPv
T _ZN7android7Overlay16getBufferAddressEPv
T _ZN7android7Overlay7destroyEv
T _ZN7android7Overlay7getCropEPjS1_S1_S1_
T _ZN7android7Overlay7setCropEjjjj
T _ZN7android7OverlayC1ERKNS_2spINS_10OverlayRefEEE
T _ZN7android7OverlayC2ERKNS_2spINS_10OverlayRefEEE
T _ZN7android7OverlayD0Ev
T _ZN7android7OverlayD1Ev
T _ZN7android7OverlayD2Ev
U _ZN7android7RefBase10onFirstRefEv
U _ZN7android7RefBase13onLastWeakRefEPKv
U _ZN7android7RefBase15onLastStrongRefEPKv
U _ZN7android7RefBase20onIncStrongAttemptedEjPKv
U _ZN7android7RefBaseC2Ev
U _ZN7android7RefBaseD2Ev
U _ZN7android7String810lockBufferEj
U _ZN7android7String812appendFormatEPKcz
U _ZN7android7String85setToEPKc
U _ZN7android7String85setToERKS0_
U _ZN7android7String86appendEPKc
U _ZN7android7String86appendERKS0_
U _ZN7android7String8C1EPKc
U _ZN7android7String8C1EPKcj
U _ZN7android7String8C1ERKNS_8String16E
U _ZN7android7String8C1ERKS0_
U _ZN7android7String8C1Ev
U _ZN7android7String8D1Ev
T _ZN7android8EGLUtils26selectConfigForPixelFormatEPvPKiiPS1_
T _ZN7android8EGLUtils27selectConfigForNativeWindowEPvPKiP13ANativeWindowPS1_
T _ZN7android8EGLUtils8strerrorEi
T _ZN7android8EventHub10openDeviceEPKc
T _ZN7android8EventHub10readNotifyEi
T _ZN7android8EventHub11closeDeviceEPKc
T _ZN7android8EventHub17addExcludedDeviceEPKc
T _ZN7android8EventHub17openPlatformInputEv
T _ZN7android8EventHub4dumpERNS_7String8E
T _ZN7android8EventHub7scanDirEPKc
T _ZN7android8EventHub8device_tC1EiPKcS3_
T _ZN7android8EventHub8device_tC2EiPKcS3_
T _ZN7android8EventHub8device_tD1Ev
T _ZN7android8EventHub8device_tD2Ev
T _ZN7android8EventHub8getEventEPNS_8RawEventE
T _ZN7android8EventHubC1Ev
T _ZN7android8EventHubC2Ev
T _ZN7android8EventHubD0Ev
T _ZN7android8EventHubD1Ev
T _ZN7android8EventHubD2Ev
B _ZN7android8IOverlay10descriptorE
T _ZN7android8IOverlay11asInterfaceERKNS_2spINS_7IBinderEEE
T _ZN7android8IOverlayC1Ev
T _ZN7android8IOverlayC2Ev
T _ZN7android8IOverlayD0Ev
T _ZN7android8IOverlayD1Ev
T _ZN7android8IOverlayD2Ev
T _ZN7android8KeyEvent10initializeERKS0_
T _ZN7android8KeyEvent10initializeEiiiiiiiixx
T _ZN7android8KeyEvent11isSystemKeyEi
T _ZN7android8KeyEvent16hasDefaultActionEi
U _ZN7android8PoolImpl8freeImplEPv
U _ZN7android8PoolImpl9allocImplEv
U _ZN7android8PoolImplC2Ej
U _ZN7android8PoolImplD2Ev
U _ZN7android8String165setToERKS0_
U _ZN7android8String16C1EPKc
U _ZN7android8String16C1EPKtj
U _ZN7android8String16C1Ev
U _ZN7android8String16D1Ev
T _ZN7android9BnOverlay10onTransactEjRKNS_6ParcelEPS1_j
U _ZN7android9BpRefBase10onFirstRefEv
U _ZN7android9BpRefBase15onLastStrongRefEPKv
U _ZN7android9BpRefBase20onIncStrongAttemptedEjPKv
U _ZN7android9BpRefBaseC2ERKNS_2spINS_7IBinderEEE
U _ZN7android9BpRefBaseD0Ev
U _ZN7android9BpRefBaseD1Ev
U _ZN7android9BpRefBaseD2Ev
V _ZN7android9SingletonINS_10GraphicLogEE5sLockE
V _ZN7android9SingletonINS_10GraphicLogEE9sInstanceE
W _ZN7android9SingletonINS_10GraphicLogEEC1Ev
W _ZN7android9SingletonINS_10GraphicLogEEC2Ev
W _ZN7android9SingletonINS_10GraphicLogEED1Ev
W _ZN7android9SingletonINS_10GraphicLogEED2Ev
V _ZN7android9SingletonINS_19GraphicBufferMapperEE5sLockE
V _ZN7android9SingletonINS_19GraphicBufferMapperEE9sInstanceE
W _ZN7android9SingletonINS_19GraphicBufferMapperEEC1Ev
W _ZN7android9SingletonINS_19GraphicBufferMapperEEC2Ev
W _ZN7android9SingletonINS_19GraphicBufferMapperEED1Ev
W _ZN7android9SingletonINS_19GraphicBufferMapperEED2Ev
V _ZN7android9SingletonINS_22GraphicBufferAllocatorEE5sLockE
V _ZN7android9SingletonINS_22GraphicBufferAllocatorEE9sInstanceE
W _ZN7android9SingletonINS_22GraphicBufferAllocatorEEC1Ev
W _ZN7android9SingletonINS_22GraphicBufferAllocatorEEC2Ev
W _ZN7android9SingletonINS_22GraphicBufferAllocatorEED1Ev
W _ZN7android9SingletonINS_22GraphicBufferAllocatorEED2Ev
T _ZNK7android11InputWindow16isTrustedOverlayEv
T _ZNK7android11InputWindow18frameContainsPointEii
T _ZNK7android11InputWindow26touchableAreaContainsPointEii
T _ZNK7android12KeyLayoutMap13findScancodesEiPNS_6VectorIiEE
T _ZNK7android12KeyLayoutMap3mapEiPiPj
W _ZNK7android12SortedVectorINS_16key_value_pair_tINS_7String8ES2_EEE10do_compareEPKvS6_
W _ZNK7android12SortedVectorINS_16key_value_pair_tINS_7String8ES2_EEE10do_destroyEPvj
W _ZNK7android12SortedVectorINS_16key_value_pair_tINS_7String8ES2_EEE12do_constructEPvj
W _ZNK7android12SortedVectorINS_16key_value_pair_tINS_7String8ES2_EEE15do_move_forwardEPvPKvj
W _ZNK7android12SortedVectorINS_16key_value_pair_tINS_7String8ES2_EEE16do_move_backwardEPvPKvj
W _ZNK7android12SortedVectorINS_16key_value_pair_tINS_7String8ES2_EEE7do_copyEPvPKvj
W _ZNK7android12SortedVectorINS_16key_value_pair_tINS_7String8ES2_EEE8do_splatEPvPKvj
W _ZNK7android12SortedVectorINS_16key_value_pair_tIPK15native_handle_tNS_22GraphicBufferAllocator11alloc_rec_tEEEE10do_compareEPKvSA_
W _ZNK7android12SortedVectorINS_16key_value_pair_tIPK15native_handle_tNS_22GraphicBufferAllocator11alloc_rec_tEEEE10do_destroyEPvj
W _ZNK7android12SortedVectorINS_16key_value_pair_tIPK15native_handle_tNS_22GraphicBufferAllocator11alloc_rec_tEEEE12do_constructEPvj
W _ZNK7android12SortedVectorINS_16key_value_pair_tIPK15native_handle_tNS_22GraphicBufferAllocator11alloc_rec_tEEEE15do_move_forwardEPvPKvj
W _ZNK7android12SortedVectorINS_16key_value_pair_tIPK15native_handle_tNS_22GraphicBufferAllocator11alloc_rec_tEEEE16do_move_backwardEPvPKvj
W _ZNK7android12SortedVectorINS_16key_value_pair_tIPK15native_handle_tNS_22GraphicBufferAllocator11alloc_rec_tEEEE7do_copyEPvPKvj
W _ZNK7android12SortedVectorINS_16key_value_pair_tIPK15native_handle_tNS_22GraphicBufferAllocator11alloc_rec_tEEEE8do_splatEPvPKvj
W _ZNK7android12SortedVectorINS_16key_value_pair_tIiNS_12KeyLayoutMap3KeyEEEE10do_compareEPKvS7_
W _ZNK7android12SortedVectorINS_16key_value_pair_tIiNS_12KeyLayoutMap3KeyEEEE10do_destroyEPvj
W _ZNK7android12SortedVectorINS_16key_value_pair_tIiNS_12KeyLayoutMap3KeyEEEE12do_constructEPvj
W _ZNK7android12SortedVectorINS_16key_value_pair_tIiNS_12KeyLayoutMap3KeyEEEE15do_move_forwardEPvPKvj
W _ZNK7android12SortedVectorINS_16key_value_pair_tIiNS_12KeyLayoutMap3KeyEEEE16do_move_backwardEPvPKvj
W _ZNK7android12SortedVectorINS_16key_value_pair_tIiNS_12KeyLayoutMap3KeyEEEE7do_copyEPvPKvj
W _ZNK7android12SortedVectorINS_16key_value_pair_tIiNS_12KeyLayoutMap3KeyEEEE8do_splatEPvPKvj
W _ZNK7android12SortedVectorINS_16key_value_pair_tIiNS_15InputDeviceInfo11MotionRangeEEEE10do_compareEPKvS7_
W _ZNK7android12SortedVectorINS_16key_value_pair_tIiNS_15InputDeviceInfo11MotionRangeEEEE10do_destroyEPvj
W _ZNK7android12SortedVectorINS_16key_value_pair_tIiNS_15InputDeviceInfo11MotionRangeEEEE12do_constructEPvj
W _ZNK7android12SortedVectorINS_16key_value_pair_tIiNS_15InputDeviceInfo11MotionRangeEEEE15do_move_forwardEPvPKvj
W _ZNK7android12SortedVectorINS_16key_value_pair_tIiNS_15InputDeviceInfo11MotionRangeEEEE16do_move_backwardEPvPKvj
W _ZNK7android12SortedVectorINS_16key_value_pair_tIiNS_15InputDeviceInfo11MotionRangeEEEE7do_copyEPvPKvj
W _ZNK7android12SortedVectorINS_16key_value_pair_tIiNS_15InputDeviceInfo11MotionRangeEEEE8do_splatEPvPKvj
W _ZNK7android12SortedVectorINS_16key_value_pair_tIiNS_2spINS_15InputDispatcher10ConnectionEEEEEE10do_compareEPKvS9_
W _ZNK7android12SortedVectorINS_16key_value_pair_tIiNS_2spINS_15InputDispatcher10ConnectionEEEEEE10do_destroyEPvj
W _ZNK7android12SortedVectorINS_16key_value_pair_tIiNS_2spINS_15InputDispatcher10ConnectionEEEEEE12do_constructEPvj
W _ZNK7android12SortedVectorINS_16key_value_pair_tIiNS_2spINS_15InputDispatcher10ConnectionEEEEEE15do_move_forwardEPvPKvj
W _ZNK7android12SortedVectorINS_16key_value_pair_tIiNS_2spINS_15InputDispatcher10ConnectionEEEEEE16do_move_backwardEPvPKvj
W _ZNK7android12SortedVectorINS_16key_value_pair_tIiNS_2spINS_15InputDispatcher10ConnectionEEEEEE7do_copyEPvPKvj
W _ZNK7android12SortedVectorINS_16key_value_pair_tIiNS_2spINS_15InputDispatcher10ConnectionEEEEEE8do_splatEPvPKvj
W _ZNK7android12SortedVectorINS_16key_value_pair_tIiPNS_11InputDeviceEEEE10do_compareEPKvS7_
W _ZNK7android12SortedVectorINS_16key_value_pair_tIiPNS_11InputDeviceEEEE10do_destroyEPvj
W _ZNK7android12SortedVectorINS_16key_value_pair_tIiPNS_11InputDeviceEEEE12do_constructEPvj
W _ZNK7android12SortedVectorINS_16key_value_pair_tIiPNS_11InputDeviceEEEE15do_move_forwardEPvPKvj
W _ZNK7android12SortedVectorINS_16key_value_pair_tIiPNS_11InputDeviceEEEE16do_move_backwardEPvPKvj
W _ZNK7android12SortedVectorINS_16key_value_pair_tIiPNS_11InputDeviceEEEE7do_copyEPvPKvj
W _ZNK7android12SortedVectorINS_16key_value_pair_tIiPNS_11InputDeviceEEEE8do_splatEPvPKvj
T _ZNK7android13GraphicBuffer10getFdCountEv
T _ZNK7android13GraphicBuffer15getNativeBufferEv
T _ZNK7android13GraphicBuffer16getFlattenedSizeEv
T _ZNK7android13GraphicBuffer7flattenEPvjPij
T _ZNK7android13GraphicBuffer8getIndexEv
T _ZNK7android13GraphicBuffer9initCheckEv
T _ZNK7android13InputConsumer16populateKeyEventEPNS_8KeyEventE
T _ZNK7android13InputConsumer19populateMotionEventEPNS_11MotionEventE
T _ZNK7android15InputDeviceInfo14getMotionRangeEi
T _ZNK7android15InputDispatcher10Connection14getStatusLabelEv
T _ZNK7android15InputDispatcher10Connection31findQueuedDispatchEntryForEventEPKNS0_10EventEntryE
T _ZNK7android15InputDispatcher10InputState9isNeutralEv
T _ZNK7android15InputDispatcher11MotionEntry12countSamplesEv
T _ZNK7android15InputDispatcher29isWindowObscuredAtPointLockedEPKNS_11InputWindowEii
T _ZNK7android15PixelFormatInfo15getScanlineSizeEj
U _ZNK7android16SortedVectorImpl7indexOfEPKv
T _ZNK7android22GraphicBufferAllocator4dumpERNS_7String8E
T _ZNK7android22InputDeviceCalibration14tryGetPropertyERKNS_7String8ERS1_
T _ZNK7android22InputDeviceCalibration14tryGetPropertyERKNS_7String8ERf
T _ZNK7android22InputDeviceCalibration14tryGetPropertyERKNS_7String8ERi
T _ZNK7android23FramebufferNativeWindow21getCurrentBufferIndexEv
T _ZNK7android4Rect9intersectERKS0_PS0_
T _ZNK7android4RectltERKS0_
T _ZNK7android4RectmiERKNS_5PointE
T _ZNK7android4RectplERKNS_5PointE
U _ZNK7android6Parcel14checkInterfaceEPNS_7IBinderE
U _ZNK7android6Parcel16readNativeHandleEv
U _ZNK7android6Parcel16readStrongBinderEv
U _ZNK7android6Parcel9readInt32Ev
T _ZNK7android6Region3endEv
T _ZNK7android6Region4dumpEPKcj
T _ZNK7android6Region4dumpERNS_7String8EPKcj
T _ZNK7android6Region5beginEv
T _ZNK7android6Region5mergeERKNS_4RectE
T _ZNK7android6Region5mergeERKS0_
T _ZNK7android6Region5mergeERKS0_ii
T _ZNK7android6Region5writeEPvj
T _ZNK7android6Region8getArrayEPj
T _ZNK7android6Region8getRectsERNS_6VectorINS_4RectEEE
T _ZNK7android6Region8subtractERKNS_4RectE
T _ZNK7android6Region8subtractERKS0_
T _ZNK7android6Region8subtractERKS0_ii
T _ZNK7android6Region9intersectERKNS_4RectE
T _ZNK7android6Region9intersectERKS0_
T _ZNK7android6Region9intersectERKS0_ii
T _ZNK7android6Region9operationERKNS_4RectEi
T _ZNK7android6Region9operationERKS0_i
T _ZNK7android6Region9operationERKS0_iii
T _ZNK7android6Region9translateEii
W _ZNK7android6VectorINS_11InputTargetEE10do_destroyEPvj
W _ZNK7android6VectorINS_11InputTargetEE12do_constructEPvj
W _ZNK7android6VectorINS_11InputTargetEE15do_move_forwardEPvPKvj
W _ZNK7android6VectorINS_11InputTargetEE16do_move_backwardEPvPKvj
W _ZNK7android6VectorINS_11InputTargetEE7do_copyEPvPKvj
W _ZNK7android6VectorINS_11InputTargetEE8do_splatEPvPKvj
W _ZNK7android6VectorINS_11InputWindowEE10do_destroyEPvj
W _ZNK7android6VectorINS_11InputWindowEE12do_constructEPvj
W _ZNK7android6VectorINS_11InputWindowEE15do_move_forwardEPvPKvj
W _ZNK7android6VectorINS_11InputWindowEE16do_move_backwardEPvPKvj
W _ZNK7android6VectorINS_11InputWindowEE7do_copyEPvPKvj
W _ZNK7android6VectorINS_11InputWindowEE8do_splatEPvPKvj
W _ZNK7android6VectorINS_15InputDispatcher10InputState10KeyMementoEE10do_destroyEPvj
W _ZNK7android6VectorINS_15InputDispatcher10InputState10KeyMementoEE12do_constructEPvj
W _ZNK7android6VectorINS_15InputDispatcher10InputState10KeyMementoEE15do_move_forwardEPvPKvj
W _ZNK7android6VectorINS_15InputDispatcher10InputState10KeyMementoEE16do_move_backwardEPvPKvj
W _ZNK7android6VectorINS_15InputDispatcher10InputState10KeyMementoEE7do_copyEPvPKvj
W _ZNK7android6VectorINS_15InputDispatcher10InputState10KeyMementoEE8do_splatEPvPKvj
W _ZNK7android6VectorINS_15InputDispatcher10InputState13MotionMementoEE10do_destroyEPvj
W _ZNK7android6VectorINS_15InputDispatcher10InputState13MotionMementoEE12do_constructEPvj
W _ZNK7android6VectorINS_15InputDispatcher10InputState13MotionMementoEE15do_move_forwardEPvPKvj
W _ZNK7android6VectorINS_15InputDispatcher10InputState13MotionMementoEE16do_move_backwardEPvPKvj
W _ZNK7android6VectorINS_15InputDispatcher10InputState13MotionMementoEE7do_copyEPvPKvj
W _ZNK7android6VectorINS_15InputDispatcher10InputState13MotionMementoEE8do_splatEPvPKvj
W _ZNK7android6VectorINS_15InputDispatcher13TouchedWindowEE10do_destroyEPvj
W _ZNK7android6VectorINS_15InputDispatcher13TouchedWindowEE12do_constructEPvj
W _ZNK7android6VectorINS_15InputDispatcher13TouchedWindowEE15do_move_forwardEPvPKvj
W _ZNK7android6VectorINS_15InputDispatcher13TouchedWindowEE16do_move_backwardEPvPKvj
W _ZNK7android6VectorINS_15InputDispatcher13TouchedWindowEE7do_copyEPvPKvj
W _ZNK7android6VectorINS_15InputDispatcher13TouchedWindowEE8do_splatEPvPKvj
W _ZNK7android6VectorINS_16TouchInputMapper10VirtualKeyEE10do_destroyEPvj
W _ZNK7android6VectorINS_16TouchInputMapper10VirtualKeyEE12do_constructEPvj
W _ZNK7android6VectorINS_16TouchInputMapper10VirtualKeyEE15do_move_forwardEPvPKvj
W _ZNK7android6VectorINS_16TouchInputMapper10VirtualKeyEE16do_move_backwardEPvPKvj
W _ZNK7android6VectorINS_16TouchInputMapper10VirtualKeyEE7do_copyEPvPKvj
W _ZNK7android6VectorINS_16TouchInputMapper10VirtualKeyEE8do_splatEPvPKvj
W _ZNK7android6VectorINS_19KeyboardInputMapper7KeyDownEE10do_destroyEPvj
W _ZNK7android6VectorINS_19KeyboardInputMapper7KeyDownEE12do_constructEPvj
W _ZNK7android6VectorINS_19KeyboardInputMapper7KeyDownEE15do_move_forwardEPvPKvj
W _ZNK7android6VectorINS_19KeyboardInputMapper7KeyDownEE16do_move_backwardEPvPKvj
W _ZNK7android6VectorINS_19KeyboardInputMapper7KeyDownEE7do_copyEPvPKvj
W _ZNK7android6VectorINS_19KeyboardInputMapper7KeyDownEE8do_splatEPvPKvj
W _ZNK7android6VectorINS_20VirtualKeyDefinitionEE10do_destroyEPvj
W _ZNK7android6VectorINS_20VirtualKeyDefinitionEE12do_constructEPvj
W _ZNK7android6VectorINS_20VirtualKeyDefinitionEE15do_move_forwardEPvPKvj
W _ZNK7android6VectorINS_20VirtualKeyDefinitionEE16do_move_backwardEPvPKvj
W _ZNK7android6VectorINS_20VirtualKeyDefinitionEE7do_copyEPvPKvj
W _ZNK7android6VectorINS_20VirtualKeyDefinitionEE8do_splatEPvPKvj
W _ZNK7android6VectorINS_2spINS_12InputChannelEEEE10do_destroyEPvj
W _ZNK7android6VectorINS_2spINS_12InputChannelEEEE12do_constructEPvj
W _ZNK7android6VectorINS_2spINS_12InputChannelEEEE15do_move_forwardEPvPKvj
W _ZNK7android6VectorINS_2spINS_12InputChannelEEEE16do_move_backwardEPvPKvj
W _ZNK7android6VectorINS_2spINS_12InputChannelEEEE7do_copyEPvPKvj
W _ZNK7android6VectorINS_2spINS_12InputChannelEEEE8do_splatEPvPKvj
W _ZNK7android6VectorINS_4RectEE10do_destroyEPvj
W _ZNK7android6VectorINS_4RectEE12do_constructEPvj
W _ZNK7android6VectorINS_4RectEE15do_move_forwardEPvPKvj
W _ZNK7android6VectorINS_4RectEE16do_move_backwardEPvPKvj
W _ZNK7android6VectorINS_4RectEE7do_copyEPvPKvj
W _ZNK7android6VectorINS_4RectEE8do_splatEPvPKvj
W _ZNK7android6VectorINS_7String8EE10do_destroyEPvj
W _ZNK7android6VectorINS_7String8EE12do_constructEPvj
W _ZNK7android6VectorINS_7String8EE15do_move_forwardEPvPKvj
W _ZNK7android6VectorINS_7String8EE16do_move_backwardEPvPKvj
W _ZNK7android6VectorINS_7String8EE7do_copyEPvPKvj
W _ZNK7android6VectorINS_7String8EE8do_splatEPvPKvj
W _ZNK7android6VectorIPNS_11InputMapperEE10do_destroyEPvj
W _ZNK7android6VectorIPNS_11InputMapperEE12do_constructEPvj
W _ZNK7android6VectorIPNS_11InputMapperEE15do_move_forwardEPvPKvj
W _ZNK7android6VectorIPNS_11InputMapperEE16do_move_backwardEPvPKvj
W _ZNK7android6VectorIPNS_11InputMapperEE7do_copyEPvPKvj
W _ZNK7android6VectorIPNS_11InputMapperEE8do_splatEPvPKvj
W _ZNK7android6VectorIPNS_15InputDispatcher10ConnectionEE10do_destroyEPvj
W _ZNK7android6VectorIPNS_15InputDispatcher10ConnectionEE12do_constructEPvj
W _ZNK7android6VectorIPNS_15InputDispatcher10ConnectionEE15do_move_forwardEPvPKvj
W _ZNK7android6VectorIPNS_15InputDispatcher10ConnectionEE16do_move_backwardEPvPKvj
W _ZNK7android6VectorIPNS_15InputDispatcher10ConnectionEE7do_copyEPvPKvj
W _ZNK7android6VectorIPNS_15InputDispatcher10ConnectionEE8do_splatEPvPKvj
W _ZNK7android6VectorIPNS_15InputDispatcher10EventEntryEE10do_destroyEPvj
W _ZNK7android6VectorIPNS_15InputDispatcher10EventEntryEE12do_constructEPvj
W _ZNK7android6VectorIPNS_15InputDispatcher10EventEntryEE15do_move_forwardEPvPKvj
W _ZNK7android6VectorIPNS_15InputDispatcher10EventEntryEE16do_move_backwardEPvPKvj
W _ZNK7android6VectorIPNS_15InputDispatcher10EventEntryEE7do_copyEPvPKvj
W _ZNK7android6VectorIPNS_15InputDispatcher10EventEntryEE8do_splatEPvPKvj
W _ZNK7android6VectorIiE10do_destroyEPvj
W _ZNK7android6VectorIiE12do_constructEPvj
W _ZNK7android6VectorIiE15do_move_forwardEPvPKvj
W _ZNK7android6VectorIiE16do_move_backwardEPvPKvj
W _ZNK7android6VectorIiE7do_copyEPvPKvj
W _ZNK7android6VectorIiE8do_splatEPvPKvj
U _ZNK7android7BBinder10findObjectEPKv
U _ZNK7android7BBinder13isBinderAliveEv
U _ZNK7android7BBinder22getInterfaceDescriptorEv
U _ZNK7android7IBinder13checkSubclassEPKv
T _ZNK7android7Overlay12getHandleRefEv
T _ZNK7android7Overlay14getBufferCountEv
T _ZNK7android7Overlay14getWidthStrideEv
T _ZNK7android7Overlay15getHeightStrideEv
T _ZNK7android7Overlay8getWidthEv
T _ZNK7android7Overlay9getFormatEv
T _ZNK7android7Overlay9getHeightEv
T _ZNK7android7Overlay9getStatusEv
U _ZNK7android7RefBase9decStrongEPKv
U _ZNK7android7RefBase9incStrongEPKv
T _ZNK7android8EventHub10errorCheckEv
T _ZNK7android8EventHub13getDeviceNameEi
T _ZNK7android8EventHub14getSwitchStateEii
T _ZNK7android8EventHub15getDeviceLockedEi
T _ZNK7android8EventHub15getKeyCodeStateEii
T _ZNK7android8EventHub16getDeviceClassesEi
T _ZNK7android8EventHub16getScanCodeStateEii
T _ZNK7android8EventHub16hasKeycodeLockedEPNS0_8device_tEi
T _ZNK7android8EventHub17scancodeToKeycodeEiiPiPj
T _ZNK7android8EventHub19getAbsoluteAxisInfoEiiPNS_19RawAbsoluteAxisInfoE
T _ZNK7android8EventHub20getSwitchStateLockedEPNS0_8device_tEi
T _ZNK7android8EventHub21getKeyCodeStateLockedEPNS0_8device_tEi
T _ZNK7android8EventHub21markSupportedKeyCodesEijPKiPh
T _ZNK7android8EventHub22getScanCodeStateLockedEPNS0_8device_tEi
T _ZNK7android8EventHub27markSupportedKeyCodesLockedEPNS0_8device_tEjPKiPh
T _ZNK7android8IOverlay22getInterfaceDescriptorEv
T _ZNK7android8KeyEvent11isSystemKeyEv
T _ZNK7android8KeyEvent16hasDefaultActionEv
V _ZTCN7android11BnInterfaceINS_8IOverlayEEE0_NS_10IInterfaceE
V _ZTCN7android11BnInterfaceINS_8IOverlayEEE0_S1_
V _ZTCN7android11BnInterfaceINS_8IOverlayEEE4_NS_7BBinderE
V _ZTCN7android11BnInterfaceINS_8IOverlayEEE4_NS_7IBinderE
V _ZTCN7android11BpInterfaceINS_8IOverlayEEE0_NS_10IInterfaceE
V _ZTCN7android11BpInterfaceINS_8IOverlayEEE0_S1_
V _ZTCN7android11BpInterfaceINS_8IOverlayEEE4_NS_9BpRefBaseE
D _ZTCN7android11InputReaderE0_NS_20InputReaderInterfaceE
D _ZTCN7android12InputManagerE0_NS_21InputManagerInterfaceE
D _ZTCN7android15InputDispatcherE0_NS_24InputDispatcherInterfaceE
D _ZTCN7android17InputReaderThreadE0_NS_6ThreadE
D _ZTCN7android21InputDispatcherThreadE0_NS_6ThreadE
D _ZTCN7android8EventHubE0_NS_17EventHubInterfaceE
D _ZTCN7android8IOverlayE0_NS_10IInterfaceE
D _ZTCN7android9BnOverlayE0_NS_10IInterfaceE
D _ZTCN7android9BnOverlayE0_NS_11BnInterfaceINS_8IOverlayEEE
D _ZTCN7android9BnOverlayE0_NS_8IOverlayE
D _ZTCN7android9BnOverlayE4_NS_7BBinderE
D _ZTCN7android9BnOverlayE4_NS_7IBinderE
V _ZTCN7android9BpOverlayE0_NS_10IInterfaceE
V _ZTCN7android9BpOverlayE0_NS_11BpInterfaceINS_8IOverlayEEE
V _ZTCN7android9BpOverlayE0_NS_8IOverlayE
V _ZTCN7android9BpOverlayE4_NS_9BpRefBaseE
V _ZTTN7android11BnInterfaceINS_8IOverlayEEE
V _ZTTN7android11BpInterfaceINS_8IOverlayEEE
D _ZTTN7android11InputReaderE
D _ZTTN7android12InputManagerE
D _ZTTN7android15InputDispatcherE
V _ZTTN7android17EventHubInterfaceE
D _ZTTN7android17InputReaderThreadE
V _ZTTN7android20InputReaderInterfaceE
D _ZTTN7android21InputDispatcherThreadE
V _ZTTN7android21InputManagerInterfaceE
V _ZTTN7android24InputDispatcherInterfaceE
D _ZTTN7android7OverlayE
D _ZTTN7android8EventHubE
D _ZTTN7android8IOverlayE
D _ZTTN7android9BnOverlayE
V _ZTTN7android9BpOverlayE
V _ZTV11AInputEvent
V _ZTVN7android10InputEventE
D _ZTVN7android10OverlayRefE
V _ZTVN7android11BnInterfaceINS_8IOverlayEEE
V _ZTVN7android11BpInterfaceINS_8IOverlayEEE
V _ZTVN7android11FlattenableE
D _ZTVN7android11InputMapperE
D _ZTVN7android11InputReaderE
D _ZTVN7android12InputChannelE
D _ZTVN7android12InputManagerE
V _ZTVN7android12SortedVectorINS_16key_value_pair_tINS_7String8ES2_EEEE
V _ZTVN7android12SortedVectorINS_16key_value_pair_tIPK15native_handle_tNS_22GraphicBufferAllocator11alloc_rec_tEEEEE
V _ZTVN7android12SortedVectorINS_16key_value_pair_tIiNS_12KeyLayoutMap3KeyEEEEE
V _ZTVN7android12SortedVectorINS_16key_value_pair_tIiNS_15InputDeviceInfo11MotionRangeEEEEE
V _ZTVN7android12SortedVectorINS_16key_value_pair_tIiNS_2spINS_15InputDispatcher10ConnectionEEEEEEE
V _ZTVN7android12SortedVectorINS_16key_value_pair_tIiPNS_11InputDeviceEEEEE
D _ZTVN7android13GraphicBufferE
D _ZTVN7android15InputDispatcher10ConnectionE
D _ZTVN7android15InputDispatcherE
V _ZTVN7android15region_operatorINS_4RectEE17region_rasterizerE
D _ZTVN7android16TouchInputMapperE
V _ZTVN7android17EventHubInterfaceE
D _ZTVN7android17InputReaderThreadE
D _ZTVN7android17SwitchInputMapperE
V _ZTVN7android18InputReaderContextE
D _ZTVN7android19KeyboardInputMapperE
V _ZTVN7android20InputReaderInterfaceE
D _ZTVN7android20TrackballInputMapperE
D _ZTVN7android21InputDispatcherThreadE
V _ZTVN7android21InputManagerInterfaceE
D _ZTVN7android21MultiTouchInputMapperE
D _ZTVN7android22SingleTouchInputMapperE
V _ZTVN7android24InputDispatcherInterfaceE
V _ZTVN7android4ListINS_7String8EEE
V _ZTVN7android6Region10rasterizerE
V _ZTVN7android6VectorINS_11InputTargetEEE
V _ZTVN7android6VectorINS_11InputWindowEEE
V _ZTVN7android6VectorINS_15InputDispatcher10InputState10KeyMementoEEE
V _ZTVN7android6VectorINS_15InputDispatcher10InputState13MotionMementoEEE
V _ZTVN7android6VectorINS_15InputDispatcher13TouchedWindowEEE
V _ZTVN7android6VectorINS_16TouchInputMapper10VirtualKeyEEE
V _ZTVN7android6VectorINS_19KeyboardInputMapper7KeyDownEEE
V _ZTVN7android6VectorINS_20VirtualKeyDefinitionEEE
V _ZTVN7android6VectorINS_2spINS_12InputChannelEEEEE
V _ZTVN7android6VectorINS_4RectEEE
V _ZTVN7android6VectorINS_7String8EEE
V _ZTVN7android6VectorIPNS_11InputMapperEEE
V _ZTVN7android6VectorIPNS_15InputDispatcher10ConnectionEEE
V _ZTVN7android6VectorIPNS_15InputDispatcher10EventEntryEEE
V _ZTVN7android6VectorIiEE
D _ZTVN7android7OverlayE
D _ZTVN7android8EventHubE
D _ZTVN7android8IOverlayE
V _ZTVN7android8KeyEventE
D _ZTVN7android9BnOverlayE
V _ZTVN7android9BpOverlayE
T _ZThn4_N7android11InputReader18getGlobalMetaStateEv
T _ZThn4_N7android11InputReader20shouldDropVirtualKeyExPNS_11InputDeviceEii
T _ZThn4_N7android11InputReader21updateGlobalMetaStateEv
T _ZThn4_N7android11InputReader23disableVirtualKeysUntilEx
T _ZThn4_N7android11InputReaderD0Ev
T _ZThn4_N7android11InputReaderD1Ev
T _ZThn4_N7android9BnOverlay10onTransactEjRKNS_6ParcelEPS1_j
U _ZTv0_n12_N7android10IInterfaceD0Ev
U _ZTv0_n12_N7android10IInterfaceD1Ev
W _ZTv0_n12_N7android11BnInterfaceINS_8IOverlayEED0Ev
W _ZTv0_n12_N7android11BnInterfaceINS_8IOverlayEED1Ev
W _ZTv0_n12_N7android11BpInterfaceINS_8IOverlayEED0Ev
W _ZTv0_n12_N7android11BpInterfaceINS_8IOverlayEED1Ev
T _ZTv0_n12_N7android11InputReaderD0Ev
T _ZTv0_n12_N7android11InputReaderD1Ev
T _ZTv0_n12_N7android12InputManagerD0Ev
T _ZTv0_n12_N7android12InputManagerD1Ev
T _ZTv0_n12_N7android15InputDispatcherD0Ev
T _ZTv0_n12_N7android15InputDispatcherD1Ev
W _ZTv0_n12_N7android17EventHubInterfaceD0Ev
W _ZTv0_n12_N7android17EventHubInterfaceD1Ev
T _ZTv0_n12_N7android17InputReaderThreadD0Ev
T _ZTv0_n12_N7android17InputReaderThreadD1Ev
W _ZTv0_n12_N7android20InputReaderInterfaceD0Ev
W _ZTv0_n12_N7android20InputReaderInterfaceD1Ev
T _ZTv0_n12_N7android21InputDispatcherThreadD0Ev
T _ZTv0_n12_N7android21InputDispatcherThreadD1Ev
W _ZTv0_n12_N7android21InputManagerInterfaceD0Ev
W _ZTv0_n12_N7android21InputManagerInterfaceD1Ev
W _ZTv0_n12_N7android24InputDispatcherInterfaceD0Ev
W _ZTv0_n12_N7android24InputDispatcherInterfaceD1Ev
U _ZTv0_n12_N7android6ThreadD0Ev
U _ZTv0_n12_N7android6ThreadD1Ev
U _ZTv0_n12_N7android7BBinderD0Ev
U _ZTv0_n12_N7android7BBinderD1Ev
U _ZTv0_n12_N7android7IBinderD0Ev
U _ZTv0_n12_N7android7IBinderD1Ev
T _ZTv0_n12_N7android7OverlayD0Ev
T _ZTv0_n12_N7android7OverlayD1Ev
T _ZTv0_n12_N7android8EventHubD0Ev
T _ZTv0_n12_N7android8EventHubD1Ev
T _ZTv0_n12_N7android8IOverlayD0Ev
T _ZTv0_n12_N7android8IOverlayD1Ev
W _ZTv0_n12_N7android9BnOverlayD0Ev
W _ZTv0_n12_N7android9BnOverlayD1Ev
W _ZTv0_n12_N7android9BpOverlayD0Ev
W _ZTv0_n12_N7android9BpOverlayD1Ev
U _ZTv0_n12_N7android9BpRefBaseD0Ev
U _ZTv0_n12_N7android9BpRefBaseD1Ev
U _ZTv0_n16_N7android9BpRefBase10onFirstRefEv
U _ZTv0_n20_N7android9BpRefBase15onLastStrongRefEPKv
U _ZTv0_n24_N7android9BpRefBase20onIncStrongAttemptedEjPKv
U _ZdaPv
U _ZdlPv
U _Znaj
U _Znwj
T __FINI_ARRAY__
T __INIT_ARRAY__
U __aeabi_atexit
U __aeabi_d2f
U __aeabi_dadd
U __aeabi_dcmpgt
U __aeabi_dcmplt
U __aeabi_ddiv
U __aeabi_dmul
U __aeabi_dsub
U __aeabi_f2d
U __aeabi_f2iz
U __aeabi_fadd
U __aeabi_fcmpeq
U __aeabi_fcmpge
U __aeabi_fcmpgt
U __aeabi_fcmple
U __aeabi_fdiv
U __aeabi_fmul
U __aeabi_fsub
U __aeabi_i2f
U __aeabi_idiv
U __aeabi_l2d
U __aeabi_ldivmod
U __aeabi_lmul
U __aeabi_ui2f
U __aeabi_uidiv
U __aeabi_uldivmod
U __aeabi_unwind_cpp_pr0
U __aeabi_unwind_cpp_pr1
U __android_log_assert
U __android_log_bwrite
U __android_log_print
A __bss_end__
A __bss_start
A __bss_start__
U __clzsi2
U __cxa_finalize
U __cxa_pure_virtual
A __data_start
B __dso_handle
A __end__
U __errno
A __exidx_end
A __exidx_start
R __popcount_tab
T __popcountsi2
U __stack_chk_fail
U __stack_chk_guard
A _bss_end__
A _edata
A _end
A _stack
U access
U acquire_wake_lock
U android_atomic_dec
U android_atomic_inc
T android_createDisplaySurface
U ashmem_create_region
U ashmem_get_size_region
U ashmem_pin_region
U ashmem_set_prot_region
U ashmem_unpin_region
U atoi
U calloc
U close
U closedir
U dup
U eglChooseConfig
U eglGetConfigAttrib
U eglGetConfigs
U fcntl
U free
U getenv
U getpid
U gglGetPixelFormatTable
U hw_get_module
U inotify_add_watch
U inotify_init
U ioctl
U lseek
U malloc
U memcmp
U memcpy
U memmove
U memset
U mmap
U munmap
U native_handle_close
U native_handle_create
U native_handle_delete
U open
U opendir
U pipe
U poll
U printf
U property_get
U property_set
U pthread_cond_broadcast
U pthread_cond_destroy
U pthread_cond_init
U pthread_cond_timedwait_relative_np
U pthread_cond_wait
U pthread_mutex_destroy
U pthread_mutex_init
U pthread_mutex_lock
U pthread_mutex_unlock
U pthread_rwlock_destroy
U pthread_rwlock_init
U pthread_rwlock_rdlock
U pthread_rwlock_unlock
U pthread_rwlock_wrlock
U read
U readdir
U realloc
U release_wake_lock
U sem_destroy
U sem_init
U sem_post
U sem_trywait
U sem_wait
U snprintf
U sprintf
U sqrtf
U strchr
U strcmp
U strcpy
U strerror
U strlen
U strstr
U strtod
U strtol
U strzcmp16
U systemTime
U usleep
U write
