T ZipFileCRO_destroy
T ZipFileCRO_findEntryByName
T ZipFileCRO_getEntryInfo
T ZipFileCRO_uncompressEntry
T ZipFileXRO_open
U _Unwind_Backtrace
U _Unwind_VRS_Get
T _Z24androidCreateThreadGetIDPFiPvES_PS_
T _ZN7android10ResXMLTree5setToEPKvjb
T _ZN7android10ResXMLTree6uninitEv
T _ZN7android10ResXMLTreeC1EPKvjb
T _ZN7android10ResXMLTreeC1Ev
T _ZN7android10ResXMLTreeC2EPKvjb
T _ZN7android10ResXMLTreeC2Ev
T _ZN7android10ResXMLTreeD1Ev
T _ZN7android10ResXMLTreeD2Ev
T _ZN7android10TextOutputC1Ev
T _ZN7android10TextOutputC2Ev
T _ZN7android10TextOutputD0Ev
T _ZN7android10TextOutputD1Ev
T _ZN7android10TextOutputD2Ev
T _ZN7android10VectorImpl11appendArrayEPKvj
T _ZN7android10VectorImpl11setCapacityEj
T _ZN7android10VectorImpl12appendVectorERKS0_
T _ZN7android10VectorImpl13editArrayImplEv
T _ZN7android10VectorImpl13finish_vectorEv
T _ZN7android10VectorImpl13insertArrayAtEPKvjj
T _ZN7android10VectorImpl13removeItemsAtEjj
T _ZN7android10VectorImpl14insertVectorAtERKS0_j
T _ZN7android10VectorImpl15release_storageEv
T _ZN7android10VectorImpl16editItemLocationEj
T _ZN7android10VectorImpl19reservedVectorImpl1Ev
T _ZN7android10VectorImpl19reservedVectorImpl2Ev
T _ZN7android10VectorImpl19reservedVectorImpl3Ev
T _ZN7android10VectorImpl19reservedVectorImpl4Ev
T _ZN7android10VectorImpl19reservedVectorImpl5Ev
T _ZN7android10VectorImpl19reservedVectorImpl6Ev
T _ZN7android10VectorImpl19reservedVectorImpl7Ev
T _ZN7android10VectorImpl19reservedVectorImpl8Ev
T _ZN7android10VectorImpl3addEPKv
T _ZN7android10VectorImpl3addEv
T _ZN7android10VectorImpl3popEv
T _ZN7android10VectorImpl4pushEPKv
T _ZN7android10VectorImpl4pushEv
T _ZN7android10VectorImpl4sortEPFiPKvS2_E
T _ZN7android10VectorImpl4sortEPFiPKvS2_PvES3_
T _ZN7android10VectorImpl5_growEjj
T _ZN7android10VectorImpl5clearEv
T _ZN7android10VectorImpl7_shrinkEjj
T _ZN7android10VectorImpl8insertAtEPKvjj
T _ZN7android10VectorImpl8insertAtEjj
T _ZN7android10VectorImpl9replaceAtEPKvj
T _ZN7android10VectorImpl9replaceAtEj
T _ZN7android10VectorImplC1ERKS0_
T _ZN7android10VectorImplC1Ejj
T _ZN7android10VectorImplC2ERKS0_
T _ZN7android10VectorImplC2Ejj
T _ZN7android10VectorImplD0Ev
T _ZN7android10VectorImplD1Ev
T _ZN7android10VectorImplD2Ev
T _ZN7android10VectorImplaSERKS0_
T _ZN7android10_FileAsset15ensureAlignmentEPNS_7FileMapE
T _ZN7android10_FileAsset4readEPvj
T _ZN7android10_FileAsset4seekEli
T _ZN7android10_FileAsset5closeEv
T _ZN7android10_FileAsset9getBufferEb
T _ZN7android10_FileAsset9openChunkEPKcilj
T _ZN7android10_FileAsset9openChunkEPNS_7FileMapE
T _ZN7android10_FileAssetC1Ev
T _ZN7android10_FileAssetC2Ev
T _ZN7android10_FileAssetD0Ev
T _ZN7android10_FileAssetD1Ev
T _ZN7android10_FileAssetD2Ev
T _ZN7android10concatArgvEiPKPKc
T _ZN7android11FlattenableD0Ev
T _ZN7android11FlattenableD1Ev
T _ZN7android11FlattenableD2Ev
T _ZN7android11StringArray17cmpAscendingAlphaEPKvS2_
T _ZN7android11StringArray4sortEPFiPKvS2_E
T _ZN7android11StringArray5eraseEi
T _ZN7android11StringArray8setEntryEiPKc
T _ZN7android11StringArray9push_backEPKc
T _ZN7android11StringArrayC1Ev
T _ZN7android11StringArrayC2Ev
T _ZN7android11StringArrayD0Ev
T _ZN7android11StringArrayD1Ev
T _ZN7android11StringArrayD2Ev
T _ZN7android11getFileTypeEPKc
T _ZN7android12AssetManager10isUpToDateEv
T _ZN7android12AssetManager11getFileTypeEPKc
T _ZN7android12AssetManager12addAssetPathERKNS_7String8EPPv
T _ZN7android12AssetManager12openNonAssetEPKcNS_5Asset10AccessModeE
T _ZN7android12AssetManager12openNonAssetEPvPKcNS_5Asset10AccessModeE
T _ZN7android12AssetManager13fncScanLockedEPNS_12SortedVectorINS_8AssetDir8FileInfoEEEPKc
T _ZN7android12AssetManager13scanDirLockedERKNS_7String8E
T _ZN7android12AssetManager14getGlobalCountEv
T _ZN7android12AssetManager15mergeInfoLockedEPNS_12SortedVectorINS_8AssetDir8FileInfoEEEPKS4_
T _ZN7android12AssetManager15openNonAssetDirEPvPKc
T _ZN7android12AssetManager15setLocaleLockedEPKc
T _ZN7android12AssetManager16addDefaultAssetsEv
T _ZN7android12AssetManager16getZipFileLockedERKNS0_10asset_pathE
T _ZN7android12AssetManager16openInPathLockedEPKcNS_5Asset10AccessModeERKNS0_10asset_pathE
T _ZN7android12AssetManager16setConfigurationERKNS_15ResTable_configEPKc
T _ZN7android12AssetManager20createPathNameLockedERKNS0_10asset_pathEPKc
T _ZN7android12AssetManager20createPathNameLockedERKNS0_10asset_pathEPKcS5_
T _ZN7android12AssetManager21scanAndMergeDirLockedEPNS_12SortedVectorINS_8AssetDir8FileInfoEEERKNS0_10asset_pathEPKcSA_
T _ZN7android12AssetManager21scanAndMergeZipLockedEPNS_12SortedVectorINS_8AssetDir8FileInfoEEERKNS0_10asset_pathEPKcSA_
T _ZN7android12AssetManager22openAssetFromZipLockedEPKNS_9ZipFileROEPvNS_5Asset10AccessModeERKNS_7String8E
T _ZN7android12AssetManager23loadFileNameCacheLockedEv
T _ZN7android12AssetManager23openAssetFromFileLockedERKNS_7String8ENS_5Asset10AccessModeE
T _ZN7android12AssetManager24fncScanAndMergeDirLockedEPNS_12SortedVectorINS_8AssetDir8FileInfoEEERKNS0_10asset_pathEPKcSA_SA_
T _ZN7android12AssetManager24openInLocaleVendorLockedEPKcNS_5Asset10AccessModeERKNS0_10asset_pathES2_S2_
T _ZN7android12AssetManager24openNonAssetInPathLockedEPKcNS_5Asset10AccessModeERKNS0_10asset_pathE
T _ZN7android12AssetManager24purgeFileNameCacheLockedEv
T _ZN7android12AssetManager25createZipSourceNameLockedERKNS_7String8ES3_S3_
T _ZN7android12AssetManager4openEPKcNS_5Asset10AccessModeE
T _ZN7android12AssetManager6ZipSet10isUpToDateEv
T _ZN7android12AssetManager6ZipSet11getPathNameEPKc
T _ZN7android12AssetManager6ZipSet19getZipResourceTableERKNS_7String8E
T _ZN7android12AssetManager6ZipSet19setZipResourceTableERKNS_7String8EPNS_8ResTableE
T _ZN7android12AssetManager6ZipSet24getZipResourceTableAssetERKNS_7String8E
T _ZN7android12AssetManager6ZipSet24setZipResourceTableAssetERKNS_7String8EPNS_5AssetE
T _ZN7android12AssetManager6ZipSet6getZipERKNS_7String8E
T _ZN7android12AssetManager6ZipSet8closeZipEi
T _ZN7android12AssetManager6ZipSetC1Ev
T _ZN7android12AssetManager6ZipSetC2Ev
T _ZN7android12AssetManager6ZipSetD1Ev
T _ZN7android12AssetManager6ZipSetD2Ev
T _ZN7android12AssetManager7openDirEPKc
T _ZN7android12AssetManager9SharedZip10isUpToDateEv
T _ZN7android12AssetManager9SharedZip16getResourceTableEv
T _ZN7android12AssetManager9SharedZip16setResourceTableEPNS_8ResTableE
T _ZN7android12AssetManager9SharedZip21getResourceTableAssetEv
T _ZN7android12AssetManager9SharedZip21setResourceTableAssetEPNS_5AssetE
T _ZN7android12AssetManager9SharedZip3getERKNS_7String8E
B _ZN7android12AssetManager9SharedZip5gLockE
B _ZN7android12AssetManager9SharedZip5gOpenE
T _ZN7android12AssetManager9SharedZip6getZipEv
T _ZN7android12AssetManager9SharedZipC1ERKNS_7String8El
T _ZN7android12AssetManager9SharedZipC2ERKNS_7String8El
T _ZN7android12AssetManager9SharedZipD0Ev
T _ZN7android12AssetManager9SharedZipD1Ev
T _ZN7android12AssetManager9SharedZipD2Ev
T _ZN7android12AssetManager9setLocaleEPKc
T _ZN7android12AssetManager9setVendorEPKc
T _ZN7android12AssetManagerC1ENS0_9CacheModeE
T _ZN7android12AssetManagerC2ENS0_9CacheModeE
T _ZN7android12AssetManagerD0Ev
T _ZN7android12AssetManagerD1Ev
T _ZN7android12AssetManagerD2Ev
T _ZN7android12ResXMLParser11setPositionERKNS0_14ResXMLPositionE
T _ZN7android12ResXMLParser4nextEv
T _ZN7android12ResXMLParser7restartEv
T _ZN7android12ResXMLParser8nextNodeEv
T _ZN7android12ResXMLParserC1ERKNS_10ResXMLTreeE
T _ZN7android12ResXMLParserC2ERKNS_10ResXMLTreeE
T _ZN7android12SharedBuffer5allocEj
T _ZN7android12SharedBuffer7deallocEPKS0_
W _ZN7android12compare_typeINS_16key_value_pair_tINS_7String8ENS_2wpINS_12AssetManager9SharedZipEEEEEEEiRKT_SA_
W _ZN7android12compare_typeINS_16key_value_pair_tINS_7String8ENS_7FileRecEEEEEiRKT_S7_
W _ZN7android12compare_typeINS_16key_value_pair_tINS_7String8ENS_9FileStateEEEEEiRKT_S7_
W _ZN7android12compare_typeINS_8AssetDir8FileInfoEEEiRKT_S5_
B _ZN7android12gTextBuffersE
T _ZN7android12uptimeMillisEv
T _ZN7android13DurationTimer12addToTimevalEP7timevall
T _ZN7android13DurationTimer16subtractTimevalsEPK7timevalS3_
T _ZN7android13DurationTimer4stopEv
T _ZN7android13DurationTimer5startEv
T _ZN7android13ResStringPool5setToEPKvjb
T _ZN7android13ResStringPool6uninitEv
T _ZN7android13ResStringPoolC1EPKvjb
T _ZN7android13ResStringPoolC1Ev
T _ZN7android13ResStringPoolC2EPKvjb
T _ZN7android13ResStringPoolC2Ev
T _ZN7android13ResStringPoolD1Ev
T _ZN7android13ResStringPoolD2Ev
T _ZN7android13back_up_filesEiPNS_16BackupDataWriterEiPKPKcS5_i
T _ZN7android13roundUpPower2Ej
T _ZN7android14Res_png_9patch11deserializeEPKv
T _ZN7android14Res_png_9patch12deviceToFileEv
T _ZN7android14Res_png_9patch12fileToDeviceEv
T _ZN7android14Res_png_9patch14serializedSizeEv
T _ZN7android14Res_png_9patch9serializeEPv
T _ZN7android14Res_png_9patch9serializeEv
T _ZN7android14getFileModDateEPKc
T _ZN7android15elapsedRealtimeEv
T _ZN7android16BackupDataReader11HasEntitiesEv
T _ZN7android16BackupDataReader12skip_paddingEv
T _ZN7android16BackupDataReader14ReadEntityDataEPvj
T _ZN7android16BackupDataReader14ReadNextHeaderEPbPi
T _ZN7android16BackupDataReader14SkipEntityDataEv
T _ZN7android16BackupDataReader16ReadEntityHeaderEPNS_7String8EPj
T _ZN7android16BackupDataReader6StatusEv
T _ZN7android16BackupDataReaderC1Ei
T _ZN7android16BackupDataReaderC2Ei
T _ZN7android16BackupDataReaderD1Ev
T _ZN7android16BackupDataReaderD2Ev
T _ZN7android16BackupDataWriter12SetKeyPrefixERKNS_7String8E
T _ZN7android16BackupDataWriter15WriteEntityDataEPKvj
T _ZN7android16BackupDataWriter17WriteEntityHeaderERKNS_7String8Ej
T _ZN7android16BackupDataWriter17write_padding_forEi
T _ZN7android16BackupDataWriterC1Ei
T _ZN7android16BackupDataWriterC2Ei
T _ZN7android16BackupDataWriterD1Ev
T _ZN7android16BackupDataWriterD2Ev
T _ZN7android16SortedVectorImpl25reservedSortedVectorImpl1Ev
T _ZN7android16SortedVectorImpl25reservedSortedVectorImpl2Ev
T _ZN7android16SortedVectorImpl25reservedSortedVectorImpl3Ev
T _ZN7android16SortedVectorImpl25reservedSortedVectorImpl4Ev
T _ZN7android16SortedVectorImpl25reservedSortedVectorImpl5Ev
T _ZN7android16SortedVectorImpl25reservedSortedVectorImpl6Ev
T _ZN7android16SortedVectorImpl25reservedSortedVectorImpl7Ev
T _ZN7android16SortedVectorImpl25reservedSortedVectorImpl8Ev
T _ZN7android16SortedVectorImpl3addEPKv
T _ZN7android16SortedVectorImpl5mergeERKNS_10VectorImplE
T _ZN7android16SortedVectorImpl5mergeERKS0_
T _ZN7android16SortedVectorImpl6removeEPKv
T _ZN7android16SortedVectorImplC1ERKNS_10VectorImplE
T _ZN7android16SortedVectorImplC1Ejj
T _ZN7android16SortedVectorImplC2ERKNS_10VectorImplE
T _ZN7android16SortedVectorImplC2Ejj
T _ZN7android16SortedVectorImplD0Ev
T _ZN7android16SortedVectorImplD1Ev
T _ZN7android16SortedVectorImplD2Ev
T _ZN7android16SortedVectorImplaSERKS0_
T _ZN7android16_CompressedAsset4readEPvj
T _ZN7android16_CompressedAsset4seekEli
T _ZN7android16_CompressedAsset5closeEv
T _ZN7android16_CompressedAsset9getBufferEb
T _ZN7android16_CompressedAsset9openChunkEPNS_7FileMapEij
T _ZN7android16_CompressedAsset9openChunkEilijj
T _ZN7android16_CompressedAssetC1Ev
T _ZN7android16_CompressedAssetC2Ev
T _ZN7android16_CompressedAssetD0Ev
T _ZN7android16_CompressedAssetD1Ev
T _ZN7android16_CompressedAssetD2Ev
T _ZN7android17RestoreHelperBase13WriteSnapshotEi
T _ZN7android17RestoreHelperBase9WriteFileERKNS_7String8EPNS_16BackupDataReaderE
T _ZN7android17RestoreHelperBaseC1Ev
T _ZN7android17RestoreHelperBaseC2Ev
T _ZN7android17RestoreHelperBaseD1Ev
T _ZN7android17RestoreHelperBaseD2Ev
W _ZN7android17move_forward_typeINS_12AssetManager10asset_pathEEEvPT_PKS3_j
W _ZN7android17move_forward_typeINS_16key_value_pair_tINS_7String8ENS_2wpINS_12AssetManager9SharedZipEEEEEEEvPT_PKS8_j
W _ZN7android17move_forward_typeINS_16key_value_pair_tINS_7String8ENS_7FileRecEEEEEvPT_PKS5_j
W _ZN7android17move_forward_typeINS_16key_value_pair_tINS_7String8ENS_9FileStateEEEEEvPT_PKS5_j
W _ZN7android17move_forward_typeINS_7String8EEEvPT_PKS2_j
W _ZN7android17move_forward_typeINS_8AssetDir8FileInfoEEEvPT_PKS3_j
T _ZN7android17terminate_string8Ev
T _ZN7android18BufferedTextOutput10moveIndentEi
T _ZN7android18BufferedTextOutput10pushBundleEv
T _ZN7android18BufferedTextOutput14getThreadStateEv
T _ZN7android18BufferedTextOutput16threadDestructorEPv
T _ZN7android18BufferedTextOutput5printEPKcj
T _ZN7android18BufferedTextOutput9popBundleEv
T _ZN7android18BufferedTextOutputC1Ej
T _ZN7android18BufferedTextOutputC2Ej
T _ZN7android18BufferedTextOutputD0Ev
T _ZN7android18BufferedTextOutputD1Ev
T _ZN7android18BufferedTextOutputD2Ev
T _ZN7android18initialize_string8Ev
W _ZN7android18move_backward_typeINS_12AssetManager10asset_pathEEEvPT_PKS3_j
W _ZN7android18move_backward_typeINS_16key_value_pair_tINS_7String8ENS_2wpINS_12AssetManager9SharedZipEEEEEEEvPT_PKS8_j
W _ZN7android18move_backward_typeINS_16key_value_pair_tINS_7String8ENS_7FileRecEEEEEvPT_PKS5_j
W _ZN7android18move_backward_typeINS_16key_value_pair_tINS_7String8ENS_9FileStateEEEEEvPT_PKS5_j
W _ZN7android18move_backward_typeINS_7String8EEEvPT_PKS2_j
W _ZN7android18move_backward_typeINS_8AssetDir8FileInfoEEEvPT_PKS3_j
T _ZN7android18terminate_string16Ev
T _ZN7android19initialize_string16Ev
T _ZN7android20StreamingZipInflater12seekAbsoluteEl
T _ZN7android20StreamingZipInflater13readNextChunkEv
T _ZN7android20StreamingZipInflater16initInflateStateEv
T _ZN7android20StreamingZipInflater4readEPvj
T _ZN7android20StreamingZipInflaterC1EPNS_7FileMapEj
T _ZN7android20StreamingZipInflaterC1Eiljj
T _ZN7android20StreamingZipInflaterC2EPNS_7FileMapEj
T _ZN7android20StreamingZipInflaterC2Eiljj
T _ZN7android20StreamingZipInflaterD1Ev
T _ZN7android20StreamingZipInflaterD2Ev
T _ZN7android20setCurrentTimeMillisEx
T _ZN7android23backup_helper_test_fourEv
B _ZN7android23gDarwinIsReallyAnnoyingE
T _ZN7android24backup_helper_test_emptyEv
T _ZN7android24backup_helper_test_filesEv
D _ZN7android25gDarwinCantLoadAllObjectsE
T _ZN7android27test_read_header_and_entityERNS_16BackupDataReaderEPKc
T _ZN7android28backup_helper_test_null_baseEv
W _ZN7android2spINS_12AssetManager9SharedZipEEC1ERKS3_
W _ZN7android2spINS_12AssetManager9SharedZipEED1Ev
W _ZN7android2spINS_12AssetManager9SharedZipEEaSEPS2_
W _ZN7android2spINS_12AssetManager9SharedZipEEaSERKS3_
W _ZN7android2spINS_18BufferedTextOutput11BufferStateEEaSEPS2_
W _ZN7android2spINS_6LooperEEaSEPS1_
W _ZN7android2spINS_6ThreadEED1Ev
W _ZN7android2spINS_6ThreadEEaSEPS1_
W _ZN7android2spINS_6ThreadEEaSERKS2_
T _ZN7android30backup_helper_test_data_readerEv
T _ZN7android30backup_helper_test_data_writerEv
T _ZN7android31backup_helper_test_missing_fileEv
D _ZN7android4aerrE
D _ZN7android4alogE
D _ZN7android4aoutE
T _ZN7android5Asset10handleSeekElill
T _ZN7android5Asset14createFromFileEPKcNS0_10AccessModeE
T _ZN7android5Asset14getGlobalCountEv
T _ZN7android5Asset19getAssetAllocationsEv
T _ZN7android5Asset23createFromCompressedMapEPNS_7FileMapEijNS0_10AccessModeE
T _ZN7android5Asset24createFromCompressedFileEPKcNS0_10AccessModeE
T _ZN7android5Asset25createFromUncompressedMapEPNS_7FileMapENS0_10AccessModeE
T _ZN7android5AssetC1Ev
T _ZN7android5AssetC2Ev
T _ZN7android5AssetD0Ev
T _ZN7android5AssetD1Ev
T _ZN7android5AssetD2Ev
T _ZN7android6Looper10initTLSKeyEv
T _ZN7android6Looper12getForThreadEv
T _ZN7android6Looper12pushResponseEiRKNS0_7RequestE
T _ZN7android6Looper12setForThreadERKNS_2spIS0_EE
T _ZN7android6Looper16threadDestructorEPv
T _ZN7android6Looper4wakeEv
T _ZN7android6Looper5addFdEiiiPFiiiPvES1_
T _ZN7android6Looper6awokenEv
T _ZN7android6Looper7pollAllEiPiS1_PPv
T _ZN7android6Looper7prepareEi
T _ZN7android6Looper8pollOnceEiPiS1_PPv
T _ZN7android6Looper8removeFdEi
T _ZN7android6Looper9pollInnerEi
T _ZN7android6LooperC1Eb
T _ZN7android6LooperC2Eb
T _ZN7android6LooperD0Ev
T _ZN7android6LooperD1Ev
T _ZN7android6LooperD2Ev
T _ZN7android6Thread10readyToRunEv
T _ZN7android6Thread11_threadLoopEPv
T _ZN7android6Thread11requestExitEv
T _ZN7android6Thread18requestExitAndWaitEv
T _ZN7android6Thread3runEPKcij
T _ZN7android6ThreadC1Eb
T _ZN7android6ThreadC2Eb
T _ZN7android6ThreadD0Ev
T _ZN7android6ThreadD1Ev
T _ZN7android6ThreadD2Ev
T _ZN7android7FileMap6adviseENS0_9MapAdviceE
T _ZN7android7FileMap6createEPKciljb
D _ZN7android7FileMap9mPageSizeE
T _ZN7android7FileMapC1Ev
T _ZN7android7FileMapC2Ev
T _ZN7android7FileMapD1Ev
T _ZN7android7FileMapD2Ev
T _ZN7android7HexDumpC1EPKvjj
T _ZN7android7HexDumpC2EPKvjj
B _ZN7android7MapInfo8sMapInfoE
T _ZN7android7ObbFile10removeFromEPKc
T _ZN7android7ObbFile10removeFromEi
T _ZN7android7ObbFile12parseObbFileEi
T _ZN7android7ObbFile7writeToEPKc
T _ZN7android7ObbFile7writeToEi
T _ZN7android7ObbFile8readFromEPKc
T _ZN7android7ObbFile8readFromEi
T _ZN7android7ObbFileC1Ev
T _ZN7android7ObbFileC2Ev
T _ZN7android7ObbFileD0Ev
T _ZN7android7ObbFileD1Ev
T _ZN7android7ObbFileD2Ev
T _ZN7android7RefBase10onFirstRefEv
T _ZN7android7RefBase12setDestroyerEPNS0_9DestroyerE
T _ZN7android7RefBase12weakref_type14attemptIncWeakEPKv
T _ZN7android7RefBase12weakref_type16attemptIncStrongEPKv
T _ZN7android7RefBase12weakref_type7decWeakEPKv
T _ZN7android7RefBase12weakref_type7incWeakEPKv
T _ZN7android7RefBase12weakref_type7trackMeEbb
T _ZN7android7RefBase13onLastWeakRefEPKv
T _ZN7android7RefBase15onLastStrongRefEPKv
T _ZN7android7RefBase20extendObjectLifetimeEi
T _ZN7android7RefBase20onIncStrongAttemptedEjPKv
T _ZN7android7RefBase9DestroyerD0Ev
T _ZN7android7RefBase9DestroyerD1Ev
T _ZN7android7RefBase9DestroyerD2Ev
T _ZN7android7RefBaseC1Ev
T _ZN7android7RefBaseC2Ev
T _ZN7android7RefBaseD0Ev
T _ZN7android7RefBaseD1Ev
T _ZN7android7RefBaseD2Ev
T _ZN7android7String810appendPathEPKc
T _ZN7android7String810lockBufferEj
T _ZN7android7String811real_appendEPKcj
T _ZN7android7String811setPathNameEPKc
T _ZN7android7String811setPathNameEPKcj
T _ZN7android7String812appendFormatEPKcz
T _ZN7android7String812unlockBufferEj
T _ZN7android7String812unlockBufferEv
T _ZN7android7String816convertToResPathEv
T _ZN7android7String85setToEPKc
T _ZN7android7String85setToEPKcj
T _ZN7android7String85setToEPKjj
T _ZN7android7String85setToEPKtj
T _ZN7android7String85setToERKS0_
T _ZN7android7String86appendEPKc
T _ZN7android7String86appendEPKcj
T _ZN7android7String86appendERKS0_
T _ZN7android7String87toLowerEjj
T _ZN7android7String87toLowerEv
T _ZN7android7String87toUpperEjj
T _ZN7android7String87toUpperEv
T _ZN7android7String8C1EPKc
T _ZN7android7String8C1EPKcj
T _ZN7android7String8C1EPKj
T _ZN7android7String8C1EPKjj
T _ZN7android7String8C1EPKt
T _ZN7android7String8C1EPKtj
T _ZN7android7String8C1ERKNS_8String16E
T _ZN7android7String8C1ERKS0_
T _ZN7android7String8C1Ev
T _ZN7android7String8C2EPKc
T _ZN7android7String8C2EPKcj
T _ZN7android7String8C2EPKj
T _ZN7android7String8C2EPKjj
T _ZN7android7String8C2EPKt
T _ZN7android7String8C2EPKtj
T _ZN7android7String8C2ERKNS_8String16E
T _ZN7android7String8C2ERKS0_
T _ZN7android7String8C2Ev
T _ZN7android7String8D1Ev
T _ZN7android7String8D2Ev
T _ZN7android8AssetDir8FileInfo9findEntryEPKNS_12SortedVectorIS1_EERKNS_7String8E
T _ZN7android8PoolImpl8freeImplEPv
T _ZN7android8PoolImpl9allocImplEv
T _ZN7android8PoolImplC1Ej
T _ZN7android8PoolImplC2Ej
T _ZN7android8PoolImplD1Ev
T _ZN7android8PoolImplD2Ev
T _ZN7android8ResTable11stringToIntEPKtjPNS_9Res_valueE
T _ZN7android8ResTable12parsePackageEPKNS_16ResTable_packageEPKNS0_6HeaderE
T _ZN7android8ResTable13collectStringEPNS_8String16EPKtjbPPKcb
T _ZN7android8ResTable13setParametersEPKNS_15ResTable_configE
T _ZN7android8ResTable13stringToFloatEPKtjPNS_9Res_valueE
T _ZN7android8ResTable13valueToStringEPKNS_9Res_valueEjPtPj
T _ZN7android8ResTable17expandResourceRefEPKtjPNS_8String16ES4_S4_PKS3_S6_PPKc
T _ZN7android8ResTable3addEPKvjPvPNS_5AssetEb
T _ZN7android8ResTable3addEPKvjPvb
T _ZN7android8ResTable3addEPNS_5AssetEPvb
T _ZN7android8ResTable3addEPS0_
T _ZN7android8ResTable5Theme10applyStyleEjb
T _ZN7android8ResTable5Theme12copy_packageEPNS1_12package_infoE
T _ZN7android8ResTable5Theme12free_packageEPNS1_12package_infoE
T _ZN7android8ResTable5Theme5setToERKS1_
T _ZN7android8ResTable5ThemeC1ERKS0_
T _ZN7android8ResTable5ThemeC2ERKS0_
T _ZN7android8ResTable5ThemeD1Ev
T _ZN7android8ResTable5ThemeD2Ev
T _ZN7android8ResTable6uninitEv
T _ZN7android8ResTableC1EPKvjPvb
T _ZN7android8ResTableC1Ev
T _ZN7android8ResTableC2EPKvjPvb
T _ZN7android8ResTableC2Ev
T _ZN7android8ResTableD1Ev
T _ZN7android8ResTableD2Ev
T _ZN7android8String1610replaceAllEtt
T _ZN7android8String165setToEPKt
T _ZN7android8String165setToEPKtj
T _ZN7android8String165setToERKS0_
T _ZN7android8String165setToERKS0_jj
T _ZN7android8String166appendEPKtj
T _ZN7android8String166appendERKS0_
T _ZN7android8String166insertEjPKt
T _ZN7android8String166insertEjPKtj
T _ZN7android8String166removeEjj
T _ZN7android8String169makeLowerEv
T _ZN7android8String16C1EPKc
T _ZN7android8String16C1EPKcj
T _ZN7android8String16C1EPKt
T _ZN7android8String16C1EPKtj
T _ZN7android8String16C1ERKNS_7String8E
T _ZN7android8String16C1ERKS0_
T _ZN7android8String16C1ERKS0_jj
T _ZN7android8String16C1Ev
T _ZN7android8String16C2EPKc
T _ZN7android8String16C2EPKcj
T _ZN7android8String16C2EPKt
T _ZN7android8String16C2EPKtj
T _ZN7android8String16C2ERKNS_7String8E
T _ZN7android8String16C2ERKS0_
T _ZN7android8String16C2ERKS0_jj
T _ZN7android8String16C2Ev
T _ZN7android8String16D1Ev
T _ZN7android8String16D2Ev
T _ZN7android8ZipUtils11examineGzipEP7__sFILEPiPlS4_Pm
T _ZN7android8ZipUtils15inflateToBufferEP7__sFILEPvll
T _ZN7android8ZipUtils15inflateToBufferEiPvll
T _ZN7android9CallStack5clearEv
T _ZN7android9CallStack6updateEii
T _ZN7android9CallStackC1ERKS0_
T _ZN7android9CallStackC1Ev
T _ZN7android9CallStackC2ERKS0_
T _ZN7android9CallStackC2Ev
T _ZN7android9CallStackD1Ev
T _ZN7android9CallStackD2Ev
T _ZN7android9CallStackaSERKS0_
T _ZN7android9StopWatch3lapEv
T _ZN7android9StopWatch5resetEv
T _ZN7android9StopWatchC1EPKcij
T _ZN7android9StopWatchC2EPKcij
T _ZN7android9StopWatchD1Ev
T _ZN7android9StopWatchD2Ev
T _ZN7android9ZipFileRO11computeHashEPKci
T _ZN7android9ZipFileRO13inflateBufferEPvPKvjj
T _ZN7android9ZipFileRO13inflateBufferEiPKvjj
T _ZN7android9ZipFileRO15parseZipArchiveEv
T _ZN7android9ZipFileRO19mapCentralDirectoryEv
T _ZN7android9ZipFileRO4openEPKc
T _ZN7android9ZipFileRO9addToHashEPKcij
T _ZN7android9ZipFileROD1Ev
T _ZN7android9ZipFileROD2Ev
T _ZN7android9countArgvEPKPKc
T _ZN7android9strdupNewEPKc
W _ZN7androidlsERNS_10TextOutputEPKc
T _ZN7androidlsERNS_10TextOutputEPKv
T _ZN7androidlsERNS_10TextOutputERKNS_7HexDumpE
T _ZN7androidlsERNS_10TextOutputERKNS_7String8E
T _ZN7androidlsERNS_10TextOutputERKNS_8String16E
T _ZN7androidlsERNS_10TextOutputERKNS_8TypeCodeE
T _ZN7androidlsERNS_10TextOutputEb
T _ZN7androidlsERNS_10TextOutputEd
T _ZN7androidlsERNS_10TextOutputEf
T _ZN7androidlsERNS_10TextOutputEi
T _ZN7androidlsERNS_10TextOutputEj
T _ZN7androidlsERNS_10TextOutputEl
T _ZN7androidlsERNS_10TextOutputEm
T _ZN7androidlsERNS_10TextOutputEx
T _ZN7androidlsERNS_10TextOutputEy
T _ZNK7android10ResXMLTree12validateNodeEPKNS_15ResXMLTree_nodeE
T _ZNK7android10ResXMLTree8getErrorEv
T _ZNK7android10VectorImpl12itemLocationEj
T _ZNK7android10VectorImpl8capacityEv
T _ZNK7android10VectorImpl8itemSizeEv
T _ZNK7android10_FileAsset18openFileDescriptorEPlS1_
T _ZNK7android12AssetManager10getLocalesEPNS_6VectorINS_7String8EEE
T _ZNK7android12AssetManager11getResTableEb
T _ZNK7android12AssetManager12getAssetPathEPv
T _ZNK7android12AssetManager12getResourcesEb
T _ZNK7android12AssetManager13nextAssetPathEPv
T _ZNK7android12AssetManager16getConfigurationEPNS_15ResTable_configE
T _ZNK7android12AssetManager26updateResourceParamsLockedEv
T _ZNK7android12AssetManager6ZipSet8getIndexERKNS_7String8E
T _ZNK7android12ResXMLParser10getCommentEPj
T _ZNK7android12ResXMLParser10getStringsEv
T _ZNK7android12ResXMLParser11getPositionEPNS0_14ResXMLPositionE
T _ZNK7android12ResXMLParser12getCommentIDEv
T _ZNK7android12ResXMLParser12getEventTypeEv
T _ZNK7android12ResXMLParser12getTextValueEPNS_9Res_valueE
T _ZNK7android12ResXMLParser12indexOfClassEv
T _ZNK7android12ResXMLParser12indexOfStyleEv
T _ZNK7android12ResXMLParser13getLineNumberEv
T _ZNK7android12ResXMLParser14getElementNameEPj
T _ZNK7android12ResXMLParser15getNamespaceUriEPj
T _ZNK7android12ResXMLParser16getAttributeDataEj
T _ZNK7android12ResXMLParser16getAttributeNameEjPj
T _ZNK7android12ResXMLParser16getElementNameIDEv
T _ZNK7android12ResXMLParser16indexOfAttributeEPKcS2_
T _ZNK7android12ResXMLParser16indexOfAttributeEPKtjS2_j
T _ZNK7android12ResXMLParser17getAttributeCountEv
T _ZNK7android12ResXMLParser17getAttributeValueEjPNS_9Res_valueE
T _ZNK7android12ResXMLParser17getNamespaceUriIDEv
T _ZNK7android12ResXMLParser18getAttributeNameIDEj
T _ZNK7android12ResXMLParser18getNamespacePrefixEPj
T _ZNK7android12ResXMLParser19getElementNamespaceEPj
T _ZNK7android12ResXMLParser20getAttributeDataTypeEj
T _ZNK7android12ResXMLParser20getNamespacePrefixIDEv
T _ZNK7android12ResXMLParser21getAttributeNameResIDEj
T _ZNK7android12ResXMLParser21getAttributeNamespaceEjPj
T _ZNK7android12ResXMLParser21getElementNamespaceIDEv
T _ZNK7android12ResXMLParser23getAttributeNamespaceIDEj
T _ZNK7android12ResXMLParser23getAttributeStringValueEjPj
T _ZNK7android12ResXMLParser25getAttributeValueStringIDEj
T _ZNK7android12ResXMLParser7getTextEPj
T _ZNK7android12ResXMLParser9getTextIDEv
T _ZNK7android12ResXMLParser9indexOfIDEv
T _ZNK7android12SharedBuffer10editResizeEj
T _ZNK7android12SharedBuffer11attemptEditEv
T _ZNK7android12SharedBuffer4editEv
T _ZNK7android12SharedBuffer5resetEj
T _ZNK7android12SharedBuffer7acquireEv
T _ZNK7android12SharedBuffer7releaseEj
W _ZNK7android12SortedVectorINS_16key_value_pair_tINS_7String8ENS_2wpINS_12AssetManager9SharedZipEEEEEE10do_compareEPKvSA_
W _ZNK7android12SortedVectorINS_16key_value_pair_tINS_7String8ENS_2wpINS_12AssetManager9SharedZipEEEEEE10do_destroyEPvj
W _ZNK7android12SortedVectorINS_16key_value_pair_tINS_7String8ENS_2wpINS_12AssetManager9SharedZipEEEEEE12do_constructEPvj
W _ZNK7android12SortedVectorINS_16key_value_pair_tINS_7String8ENS_2wpINS_12AssetManager9SharedZipEEEEEE15do_move_forwardEPvPKvj
W _ZNK7android12SortedVectorINS_16key_value_pair_tINS_7String8ENS_2wpINS_12AssetManager9SharedZipEEEEEE16do_move_backwardEPvPKvj
W _ZNK7android12SortedVectorINS_16key_value_pair_tINS_7String8ENS_2wpINS_12AssetManager9SharedZipEEEEEE7do_copyEPvPKvj
W _ZNK7android12SortedVectorINS_16key_value_pair_tINS_7String8ENS_2wpINS_12AssetManager9SharedZipEEEEEE8do_splatEPvPKvj
W _ZNK7android12SortedVectorINS_16key_value_pair_tINS_7String8ENS_7FileRecEEEE10do_compareEPKvS7_
W _ZNK7android12SortedVectorINS_16key_value_pair_tINS_7String8ENS_7FileRecEEEE10do_destroyEPvj
W _ZNK7android12SortedVectorINS_16key_value_pair_tINS_7String8ENS_7FileRecEEEE12do_constructEPvj
W _ZNK7android12SortedVectorINS_16key_value_pair_tINS_7String8ENS_7FileRecEEEE15do_move_forwardEPvPKvj
W _ZNK7android12SortedVectorINS_16key_value_pair_tINS_7String8ENS_7FileRecEEEE16do_move_backwardEPvPKvj
W _ZNK7android12SortedVectorINS_16key_value_pair_tINS_7String8ENS_7FileRecEEEE7do_copyEPvPKvj
W _ZNK7android12SortedVectorINS_16key_value_pair_tINS_7String8ENS_7FileRecEEEE8do_splatEPvPKvj
W _ZNK7android12SortedVectorINS_16key_value_pair_tINS_7String8ENS_9FileStateEEEE10do_compareEPKvS7_
W _ZNK7android12SortedVectorINS_16key_value_pair_tINS_7String8ENS_9FileStateEEEE10do_destroyEPvj
W _ZNK7android12SortedVectorINS_16key_value_pair_tINS_7String8ENS_9FileStateEEEE12do_constructEPvj
W _ZNK7android12SortedVectorINS_16key_value_pair_tINS_7String8ENS_9FileStateEEEE15do_move_forwardEPvPKvj
W _ZNK7android12SortedVectorINS_16key_value_pair_tINS_7String8ENS_9FileStateEEEE16do_move_backwardEPvPKvj
W _ZNK7android12SortedVectorINS_16key_value_pair_tINS_7String8ENS_9FileStateEEEE7do_copyEPvPKvj
W _ZNK7android12SortedVectorINS_16key_value_pair_tINS_7String8ENS_9FileStateEEEE8do_splatEPvPKvj
W _ZNK7android12SortedVectorINS_16key_value_pair_tIiNS_6Looper7RequestEEEE10do_compareEPKvS7_
W _ZNK7android12SortedVectorINS_16key_value_pair_tIiNS_6Looper7RequestEEEE10do_destroyEPvj
W _ZNK7android12SortedVectorINS_16key_value_pair_tIiNS_6Looper7RequestEEEE12do_constructEPvj
W _ZNK7android12SortedVectorINS_16key_value_pair_tIiNS_6Looper7RequestEEEE15do_move_forwardEPvPKvj
W _ZNK7android12SortedVectorINS_16key_value_pair_tIiNS_6Looper7RequestEEEE16do_move_backwardEPvPKvj
W _ZNK7android12SortedVectorINS_16key_value_pair_tIiNS_6Looper7RequestEEEE7do_copyEPvPKvj
W _ZNK7android12SortedVectorINS_16key_value_pair_tIiNS_6Looper7RequestEEEE8do_splatEPvPKvj
W _ZNK7android12SortedVectorINS_8AssetDir8FileInfoEE10do_compareEPKvS5_
W _ZNK7android12SortedVectorINS_8AssetDir8FileInfoEE10do_destroyEPvj
W _ZNK7android12SortedVectorINS_8AssetDir8FileInfoEE12do_constructEPvj
W _ZNK7android12SortedVectorINS_8AssetDir8FileInfoEE15do_move_forwardEPvPKvj
W _ZNK7android12SortedVectorINS_8AssetDir8FileInfoEE16do_move_backwardEPvPKvj
W _ZNK7android12SortedVectorINS_8AssetDir8FileInfoEE7do_copyEPvPKvj
W _ZNK7android12SortedVectorINS_8AssetDir8FileInfoEE8do_splatEPvPKvj
T _ZNK7android13DurationTimer13durationUsecsEv
T _ZNK7android13ResStringPool13indexOfStringEPKtj
T _ZNK7android13ResStringPool4sizeEv
T _ZNK7android13ResStringPool7styleAtERKNS_17ResStringPool_refE
T _ZNK7android13ResStringPool7styleAtEj
T _ZNK7android13ResStringPool8getErrorEv
T _ZNK7android13ResStringPool8stringAtEjPj
T _ZNK7android13ResStringPool9string8AtEjPj
T _ZNK7android16SortedVectorImpl13_indexOrderOfEPKvPj
T _ZNK7android16SortedVectorImpl7indexOfEPKv
T _ZNK7android16SortedVectorImpl7orderOfEPKv
T _ZNK7android18BufferedTextOutput9getBufferEv
T _ZNK7android6Looper20getAllowNonCallbacksEv
T _ZNK7android6Thread11exitPendingEv
W _ZNK7android6VectorINS_12AssetManager10asset_pathEE10do_destroyEPvj
W _ZNK7android6VectorINS_12AssetManager10asset_pathEE12do_constructEPvj
W _ZNK7android6VectorINS_12AssetManager10asset_pathEE15do_move_forwardEPvPKvj
W _ZNK7android6VectorINS_12AssetManager10asset_pathEE16do_move_backwardEPvPKvj
W _ZNK7android6VectorINS_12AssetManager10asset_pathEE7do_copyEPvPKvj
W _ZNK7android6VectorINS_12AssetManager10asset_pathEE8do_splatEPvPKvj
W _ZNK7android6VectorINS_15ResTable_configEE10do_destroyEPvj
W _ZNK7android6VectorINS_15ResTable_configEE12do_constructEPvj
W _ZNK7android6VectorINS_15ResTable_configEE15do_move_forwardEPvPKvj
W _ZNK7android6VectorINS_15ResTable_configEE16do_move_backwardEPvPKvj
W _ZNK7android6VectorINS_15ResTable_configEE7do_copyEPvPKvj
W _ZNK7android6VectorINS_15ResTable_configEE8do_splatEPvPKvj
W _ZNK7android6VectorINS_2spINS_12AssetManager9SharedZipEEEE10do_destroyEPvj
W _ZNK7android6VectorINS_2spINS_12AssetManager9SharedZipEEEE12do_constructEPvj
W _ZNK7android6VectorINS_2spINS_12AssetManager9SharedZipEEEE15do_move_forwardEPvPKvj
W _ZNK7android6VectorINS_2spINS_12AssetManager9SharedZipEEEE16do_move_backwardEPvPKvj
W _ZNK7android6VectorINS_2spINS_12AssetManager9SharedZipEEEE7do_copyEPvPKvj
W _ZNK7android6VectorINS_2spINS_12AssetManager9SharedZipEEEE8do_splatEPvPKvj
W _ZNK7android6VectorINS_2spINS_18BufferedTextOutput11BufferStateEEEE10do_destroyEPvj
W _ZNK7android6VectorINS_2spINS_18BufferedTextOutput11BufferStateEEEE12do_constructEPvj
W _ZNK7android6VectorINS_2spINS_18BufferedTextOutput11BufferStateEEEE15do_move_forwardEPvPKvj
W _ZNK7android6VectorINS_2spINS_18BufferedTextOutput11BufferStateEEEE16do_move_backwardEPvPKvj
W _ZNK7android6VectorINS_2spINS_18BufferedTextOutput11BufferStateEEEE7do_copyEPvPKvj
W _ZNK7android6VectorINS_2spINS_18BufferedTextOutput11BufferStateEEEE8do_splatEPvPKvj
W _ZNK7android6VectorINS_6Looper8ResponseEE10do_destroyEPvj
W _ZNK7android6VectorINS_6Looper8ResponseEE12do_constructEPvj
W _ZNK7android6VectorINS_6Looper8ResponseEE15do_move_forwardEPvPKvj
W _ZNK7android6VectorINS_6Looper8ResponseEE16do_move_backwardEPvPKvj
W _ZNK7android6VectorINS_6Looper8ResponseEE7do_copyEPvPKvj
W _ZNK7android6VectorINS_6Looper8ResponseEE8do_splatEPvPKvj
W _ZNK7android6VectorINS_7String8EE10do_destroyEPvj
W _ZNK7android6VectorINS_7String8EE12do_constructEPvj
W _ZNK7android6VectorINS_7String8EE15do_move_forwardEPvPKvj
W _ZNK7android6VectorINS_7String8EE16do_move_backwardEPvPKvj
W _ZNK7android6VectorINS_7String8EE7do_copyEPvPKvj
W _ZNK7android6VectorINS_7String8EE8do_splatEPvPKvj
W _ZNK7android6VectorIPKNS_13ResTable_typeEE10do_destroyEPvj
W _ZNK7android6VectorIPKNS_13ResTable_typeEE12do_constructEPvj
W _ZNK7android6VectorIPKNS_13ResTable_typeEE15do_move_forwardEPvPKvj
W _ZNK7android6VectorIPKNS_13ResTable_typeEE16do_move_backwardEPvPKvj
W _ZNK7android6VectorIPKNS_13ResTable_typeEE7do_copyEPvPKvj
W _ZNK7android6VectorIPKNS_13ResTable_typeEE8do_splatEPvPKvj
W _ZNK7android6VectorIPNS_8ResTable12PackageGroupEE10do_destroyEPvj
W _ZNK7android6VectorIPNS_8ResTable12PackageGroupEE12do_constructEPvj
W _ZNK7android6VectorIPNS_8ResTable12PackageGroupEE15do_move_forwardEPvPKvj
W _ZNK7android6VectorIPNS_8ResTable12PackageGroupEE16do_move_backwardEPvPKvj
W _ZNK7android6VectorIPNS_8ResTable12PackageGroupEE7do_copyEPvPKvj
W _ZNK7android6VectorIPNS_8ResTable12PackageGroupEE8do_splatEPvPKvj
W _ZNK7android6VectorIPNS_8ResTable4TypeEE10do_destroyEPvj
W _ZNK7android6VectorIPNS_8ResTable4TypeEE12do_constructEPvj
W _ZNK7android6VectorIPNS_8ResTable4TypeEE15do_move_forwardEPvPKvj
W _ZNK7android6VectorIPNS_8ResTable4TypeEE16do_move_backwardEPvPKvj
W _ZNK7android6VectorIPNS_8ResTable4TypeEE7do_copyEPvPKvj
W _ZNK7android6VectorIPNS_8ResTable4TypeEE8do_splatEPvPKvj
W _ZNK7android6VectorIPNS_8ResTable6HeaderEE10do_destroyEPvj
W _ZNK7android6VectorIPNS_8ResTable6HeaderEE12do_constructEPvj
W _ZNK7android6VectorIPNS_8ResTable6HeaderEE15do_move_forwardEPvPKvj
W _ZNK7android6VectorIPNS_8ResTable6HeaderEE16do_move_backwardEPvPKvj
W _ZNK7android6VectorIPNS_8ResTable6HeaderEE7do_copyEPvPKvj
W _ZNK7android6VectorIPNS_8ResTable6HeaderEE8do_splatEPvPKvj
W _ZNK7android6VectorIPNS_8ResTable7PackageEE10do_destroyEPvj
W _ZNK7android6VectorIPNS_8ResTable7PackageEE12do_constructEPvj
W _ZNK7android6VectorIPNS_8ResTable7PackageEE15do_move_forwardEPvPKvj
W _ZNK7android6VectorIPNS_8ResTable7PackageEE16do_move_backwardEPvPKvj
W _ZNK7android6VectorIPNS_8ResTable7PackageEE7do_copyEPvPKvj
W _ZNK7android6VectorIPNS_8ResTable7PackageEE8do_splatEPvPKvj
W _ZNK7android6VectorIiE10do_destroyEPvj
W _ZNK7android6VectorIiE12do_constructEPvj
W _ZNK7android6VectorIiE15do_move_forwardEPvPKvj
W _ZNK7android6VectorIiE16do_move_backwardEPvPKvj
W _ZNK7android6VectorIiE7do_copyEPvPKvj
W _ZNK7android6VectorIiE8do_splatEPvPKvj
T _ZNK7android7RefBase10createWeakEPKv
T _ZNK7android7RefBase11getWeakRefsEv
T _ZNK7android7RefBase12weakref_type12getWeakCountEv
T _ZNK7android7RefBase12weakref_type7refBaseEv
T _ZNK7android7RefBase12weakref_type9printRefsEv
T _ZNK7android7RefBase14forceIncStrongEPKv
T _ZNK7android7RefBase14getStrongCountEv
T _ZNK7android7RefBase9decStrongEPKv
T _ZNK7android7RefBase9incStrongEPKv
T _ZNK7android7String810getPathDirEv
T _ZNK7android7String810getUtf32AtEjPj
T _ZNK7android7String811getBasePathEv
T _ZNK7android7String811getPathLeafEv
T _ZNK7android7String814find_extensionEv
T _ZNK7android7String814getUtf32LengthEv
T _ZNK7android7String816getPathExtensionEv
T _ZNK7android7String84findEPKcj
T _ZNK7android7String88getUtf32EPjj
T _ZNK7android7String88walkPathEPS0_
T _ZNK7android8ResTable10getLocalesEPNS_6VectorINS_7String8EEE
T _ZNK7android8ResTable11getResourceEjPNS_9Res_valueEbPjPNS_15ResTable_configE
T _ZNK7android8ResTable12getBagLockedEjPPKNS0_9bag_entryEPj
T _ZNK7android8ResTable13getParametersEPNS_15ResTable_configE
T _ZNK7android8ResTable13getTableCountEv
T _ZNK7android8ResTable13stringToValueEPNS_9Res_valueEPNS_8String16EPKtjbbjPKS3_S8_PNS0_8AccessorEPvjb
T _ZNK7android8ResTable14getTableCookieEj
T _ZNK7android8ResTable15getResourceNameEjPNS0_13resource_nameE
T _ZNK7android8ResTable16getBasePackageIdEj
T _ZNK7android8ResTable16resolveReferenceEPNS_9Res_valueElPjS3_PNS_15ResTable_configE
T _ZNK7android8ResTable17getConfigurationsEPNS_6VectorINS_15ResTable_configEEE
T _ZNK7android8ResTable17identifierForNameEPKtjS2_jS2_jPj
T _ZNK7android8ResTable18getBasePackageNameEj
T _ZNK7android8ResTable19getBasePackageCountEv
T _ZNK7android8ResTable19getTableStringBlockEj
T _ZNK7android8ResTable4lockEv
T _ZNK7android8ResTable5Theme12getAttributeEjPNS_9Res_valueEPj
T _ZNK7android8ResTable5Theme25resolveAttributeReferenceEPNS_9Res_valueElPjS4_PNS_15ResTable_configE
T _ZNK7android8ResTable5Theme9dumpToLogEv
T _ZNK7android8ResTable6unlockEv
T _ZNK7android8ResTable7lockBagEjPPKNS0_9bag_entryE
T _ZNK7android8ResTable8getEntryEPKNS0_7PackageEiiPKNS_15ResTable_configEPPKNS_13ResTable_typeEPPKNS_14ResTable_entryEPPKNS0_4TypeE
T _ZNK7android8ResTable8getErrorEv
T _ZNK7android8ResTable9unlockBagEPKNS0_9bag_entryE
T _ZNK7android8String1610startsWithEPKt
T _ZNK7android8String1610startsWithERKS0_
T _ZNK7android8String168findLastEt
T _ZNK7android8String169findFirstEt
T _ZNK7android9CallStack19toStringSingleLevelEPKci
T _ZNK7android9CallStack4dumpEPKc
T _ZNK7android9CallStack8toStringEPKc
T _ZNK7android9CallStackeqERKS0_
T _ZNK7android9CallStackgeERKS0_
T _ZNK7android9CallStackgtERKS0_
T _ZNK7android9CallStackixEi
T _ZNK7android9CallStackleERKS0_
T _ZNK7android9CallStackltERKS0_
T _ZNK7android9CallStackneERKS0_
T _ZNK7android9StopWatch11elapsedTimeEv
T _ZNK7android9StopWatch4nameEv
T _ZNK7android9ZipFileRO12entryToIndexEPv
T _ZNK7android9ZipFileRO12getEntryInfoEPvPiPjS3_PlS4_S4_
T _ZNK7android9ZipFileRO15findEntryByNameEPKc
T _ZNK7android9ZipFileRO15uncompressEntryEPvS1_
T _ZNK7android9ZipFileRO15uncompressEntryEPvi
T _ZNK7android9ZipFileRO16findEntryByIndexEi
T _ZNK7android9ZipFileRO16getEntryFileNameEPvPci
T _ZNK7android9ZipFileRO18createEntryFileMapEPv
D _ZTTN7android6ThreadE
D _ZTVN7android10TextOutputE
D _ZTVN7android10VectorImplE
D _ZTVN7android10_FileAssetE
V _ZTVN7android11FlattenableE
D _ZTVN7android11StringArrayE
D _ZTVN7android12AssetManager9SharedZipE
D _ZTVN7android12AssetManagerE
V _ZTVN7android12FdTextOutputE
V _ZTVN7android12SortedVectorINS_16key_value_pair_tINS_7String8ENS_2wpINS_12AssetManager9SharedZipEEEEEEE
V _ZTVN7android12SortedVectorINS_16key_value_pair_tINS_7String8ENS_7FileRecEEEEE
V _ZTVN7android12SortedVectorINS_16key_value_pair_tINS_7String8ENS_9FileStateEEEEE
V _ZTVN7android12SortedVectorINS_16key_value_pair_tIiNS_6Looper7RequestEEEEE
V _ZTVN7android12SortedVectorINS_8AssetDir8FileInfoEEE
V _ZTVN7android13LogTextOutputE
D _ZTVN7android16SortedVectorImplE
D _ZTVN7android16_CompressedAssetE
V _ZTVN7android18BufferedTextOutput11BufferStateE
D _ZTVN7android18BufferedTextOutputE
D _ZTVN7android5AssetE
D _ZTVN7android6LooperE
D _ZTVN7android6ThreadE
V _ZTVN7android6VectorINS_12AssetManager10asset_pathEEE
V _ZTVN7android6VectorINS_15ResTable_configEEE
V _ZTVN7android6VectorINS_2spINS_12AssetManager9SharedZipEEEEE
V _ZTVN7android6VectorINS_2spINS_18BufferedTextOutput11BufferStateEEEEE
V _ZTVN7android6VectorINS_6Looper8ResponseEEE
V _ZTVN7android6VectorINS_7String8EEE
V _ZTVN7android6VectorIPKNS_13ResTable_typeEEE
V _ZTVN7android6VectorIPNS_8ResTable12PackageGroupEEE
V _ZTVN7android6VectorIPNS_8ResTable4TypeEEE
V _ZTVN7android6VectorIPNS_8ResTable6HeaderEEE
V _ZTVN7android6VectorIPNS_8ResTable7PackageEEE
V _ZTVN7android6VectorIiEE
D _ZTVN7android7ObbFileE
D _ZTVN7android7RefBase9DestroyerE
D _ZTVN7android7RefBaseE
V _ZTVN7android8AssetDirE
T _ZTv0_n12_N7android6ThreadD0Ev
T _ZTv0_n12_N7android6ThreadD1Ev
U _ZdaPv
U _ZdlPv
U _Znaj
U _Znwj
T __FINI_ARRAY__
T __INIT_ARRAY__
U __aeabi_atexit
U __aeabi_d2f
U __aeabi_f2d
U __aeabi_f2ulz
U __aeabi_fadd
U __aeabi_fcmplt
U __aeabi_fmul
U __aeabi_idiv
U __aeabi_idivmod
U __aeabi_ldivmod
T __aeabi_llsr
U __aeabi_lmul
U __aeabi_uidiv
U __aeabi_unwind_cpp_pr0
U __aeabi_unwind_cpp_pr1
U __android_log_assert
U __android_log_print
A __bss_end__
A __bss_start
A __bss_start__
U __cxa_finalize
U __cxa_guard_acquire
U __cxa_guard_release
U __cxa_pure_virtual
D __data_start
B __dso_handle
A __end__
U __errno
A __exidx_end
A __exidx_start
T __lshrdi3
U __sF
U __srget
U __stack_chk_fail
U __stack_chk_guard
A _bss_end__
U _ctype_
A _edata
A _end
A _stack
U _tolower_tab_
U _toupper_tab_
T androidCreateRawThreadEtc
T androidCreateThread
T androidCreateThreadEtc
T androidGetThreadId
T androidGetTid
T androidSetCreateThreadFunc
T androidSetThreadPriority
T androidSetThreadSchedulingGroup
U android_atomic_add
U android_atomic_dec
U android_atomic_inc
U android_atomic_or
U android_atomic_release_cas
U atoi
U calloc
U clock_gettime
U close
U closedir
U crc32
U creat
U dup
U epoll_create
U epoll_ctl
U epoll_wait
U fclose
U fcntl
U fdopen
U fgets
U fopen
U fprintf
U fputs
U fread
U free
U fseek
U ftell
U ftruncate
U getenv
U getpid
U getpriority
U gettid
U gettimeofday
U inflate
U inflateEnd
U inflateInit2_
U ioctl
U lseek
U lseek64
U madvise
U malloc
U memcmp
U memcpy
U memmove
U memset
U mkdir
U mmap
U munmap
U open
U opendir
U pipe
U prctl
U pread
T printHexData
T printTypeCode
U printf
U property_get
U pthread_attr_init
U pthread_attr_setdetachstate
U pthread_attr_setstacksize
U pthread_cond_broadcast
U pthread_cond_destroy
U pthread_cond_init
U pthread_cond_wait
U pthread_create
U pthread_getspecific
U pthread_key_create
U pthread_mutex_destroy
U pthread_mutex_init
U pthread_mutex_lock
U pthread_mutex_unlock
U pthread_once
U pthread_self
U pthread_setspecific
U qsort
U read
U readdir
U realloc
U set_sched_policy
U setpriority
U sleep
U snprintf
U sprintf
U sscanf
U stat
U strcasecmp
U strcat
U strchr
U strcmp
T strcmp16
U strcpy
T strcpy16
U strdup
U strerror
T stringForIndent
U strlen
T strlen16
T strlen32
U strncmp
T strncmp16
T strncpy16
T strnlen16
T strnlen32
U strrchr
U strstr
U strtod
U strtoull
T strzcmp16
T strzcmp16_h_n
U system
T systemTime
U thread_store_get
U thread_store_set
U unlink
T utf16_to_utf8
T utf32_at
T utf32_length
T utf32_to_utf8
T utf8_length
T utf8_length_from_utf16
T utf8_length_from_utf32
T utf8_to_utf16
T utf8_to_utf32
U utimes
U vsnprintf
U write
U writev
