T JNI_OnLoad
T JSValueGetType
T JSValueIsBoolean
T JSValueIsEqual
T JSValueIsInstanceOfConstructor
T JSValueIsNull
T JSValueIsNumber
T JSValueIsObject
T JSValueIsObjectOfClass
T JSValueIsStrictEqual
T JSValueIsString
T JSValueIsUndefined
T JSValueMakeBoolean
T JSValueMakeNull
T JSValueMakeNumber
T JSValueMakeString
T JSValueMakeUndefined
T JSValueProtect
T JSValueToBoolean
T JSValueToNumber
T JSValueToObject
T JSValueToStringCopy
T JSValueUnprotect
U UCNV_FROM_U_CALLBACK_ESCAPE_44
U UCNV_FROM_U_CALLBACK_STOP_44
U UCNV_FROM_U_CALLBACK_SUBSTITUTE_44
U UCNV_TO_U_CALLBACK_STOP_44
U UCNV_TO_U_CALLBACK_SUBSTITUTE_44
U _Z14SkUTF16_ToUTF8PKtiPc
U _Z15sk_malloc_flagsjj
U _Z15sk_malloc_throwj
U _Z16Android_SkDebugfPKciS0_S0_z
U _Z16sk_realloc_throwPvj
U _Z19SkCreateRLEPixelRefRK8SkBitmap
U _Z19SkUTF16_FromUnichariPt
U _Z19SkUTF16_NextUnicharPPKt
U _Z7sk_freePv
U _Z8sk_throwv
U _ZN10SkFontHost11GetFileNameEjPcjPi
U _ZN10SkPixelRef12setImmutableEv
U _ZN10SkTypeface14CreateFromNameEPKcNS_5StyleE
U _ZN10SkTypeface16CreateFromStreamEP8SkStream
U _ZN10SkTypeface18CreateFromTypefaceEPKS_NS_5StyleE
U _ZN10SkTypeface8UniqueIDEPKS_
U _ZN11GraphicsJNI12createBitmapEP7_JNIEnvP8SkBitmapbP11_jbyteArrayi
U _ZN11GraphicsJNI15getNativeBitmapEP7_JNIEnvP8_jobject
U _ZN11GraphicsJNI15getNativeCanvasEP7_JNIEnvP8_jobject
U _ZN11GraphicsJNI15getNativeRegionEP7_JNIEnvP8_jobject
U _ZN11GraphicsJNI16getNativePictureEP7_JNIEnvP8_jobject
U _ZN11GraphicsJNI16ipoint_to_jpointERK8SkIPointP7_JNIEnvP8_jobject
U _ZN11GraphicsJNI9get_jrectEP7_JNIEnvP8_jobjectPiS4_S4_S4_
U _ZN11SkAutoUnrefD1Ev
U _ZN11SkNinePatch8DrawNineEP8SkCanvasRK6SkRectRK8SkBitmapRK7SkIRectPK7SkPaint
U _ZN12SkDumpCanvasC1EPNS_6DumperE
U _ZN12SkDumpCanvasD1Ev
U _ZN13SkPageFlipper5invalERK7SkIRect
U _ZN14SkFlipPixelRef11beginUpdateEP8SkBitmap
U _ZN14SkFlipPixelRef9endUpdateEv
U _ZN14SkFlipPixelRefC1EN8SkBitmap6ConfigEii
U _ZN14SkFormatDumperC1EPFvPKcPvES2_
U _ZN14SkImageDecoder12DecodeMemoryEPKvjP8SkBitmapNS2_6ConfigENS_4ModeEPNS_6FormatE
U _ZN14SkImageDecoder13setSampleSizeEi
U _ZN14SkImageDecoder18setPrefConfigTableEPKN8SkBitmap6ConfigE
U _ZN14SkImageDecoder6decodeEP8SkStreamP8SkBitmapNS2_6ConfigENS_4ModeE
U _ZN14SkImageDecoder7FactoryEP8SkStream
U _ZN14SkImageEncoder10encodeFileEPKcRK8SkBitmapi
U _ZN14SkImageEncoder6CreateENS_4TypeE
U _ZN14SkMemoryStream13getMemoryBaseEv
U _ZN14SkMemoryStream14setMemoryOwnedEPKvj
U _ZN14SkMemoryStream4readEPvj
U _ZN14SkMemoryStream6rewindEv
U _ZN14SkMemoryStreamC1EPKvjb
U _ZN14SkMemoryStreamC2EPKvjb
U _ZN14SkMemoryStreamD1Ev
U _ZN14SkMemoryStreamD2Ev
U _ZN15SkUnPreMultiply14PMColorToColorEj
U _ZN16SkBlurDrawLooperC1Efffj
U _ZN16SkBlurMaskFilter6CreateEfNS_9BlurStyleE
U _ZN16SkDashPathEffectC1EPKfifb
U _ZN16SkGradientShader12CreateLinearEPK7SkPointPKjPKfiN8SkShader8TileModeEP12SkUnitMapper
U _ZN16SkGradientShader20CreateTwoPointRadialERK7SkPointfS2_fPKjPKfiN8SkShader8TileModeEP12SkUnitMapper
U _ZN17SkImageRef_ashmemC1EP8SkStreamN8SkBitmap6ConfigEi
U _ZN17SkLayerDrawLooper8addLayerEff
U _ZN17SkLayerDrawLooperC1Ev
U _ZN18SkCornerPathEffectC1Ef
U _ZN21SkImageRef_GlobalPoolC1EP8SkStreamN8SkBitmap6ConfigEi
U _ZN22SkAutoMemoryUsageProbeC1EPKc
U _ZN22SkAutoMemoryUsageProbeD1Ev
U _ZN6SkPath10incReserveEj
U _ZN6SkPath12addRoundRectERK6SkRectPKfNS_9DirectionE
U _ZN6SkPath4Iter4nextEP7SkPoint
U _ZN6SkPath4IterC1ERKS_b
U _ZN6SkPath4swapERS_
U _ZN6SkPath5arcToERK6SkRectffb
U _ZN6SkPath5arcToEfffff
U _ZN6SkPath5closeEv
U _ZN6SkPath5resetEv
U _ZN6SkPath6addArcERK6SkRectff
U _ZN6SkPath6lineToEff
U _ZN6SkPath6moveToEff
U _ZN6SkPath6quadToEffff
U _ZN6SkPath7addOvalERK6SkRectNS_9DirectionE
U _ZN6SkPath7addPathERKS_RK8SkMatrix
U _ZN6SkPath7addRectERK6SkRectNS_9DirectionE
U _ZN6SkPath7cubicToEffffff
U _ZN6SkPath7rLineToEff
U _ZN6SkPath7rMoveToEff
U _ZN6SkPathC1ERKS_
U _ZN6SkPathC1Ev
U _ZN6SkPathC2Ev
U _ZN6SkPathD1Ev
U _ZN6SkPathD2Ev
U _ZN6SkPathaSERKS_
U _ZN6SkRect4joinEffff
U _ZN6SkRect9intersectERKS_
U _ZN6SkTime8GetMSecsEv
U _ZN7SkDeque8pop_backEv
U _ZN7SkDeque9pop_frontEv
U _ZN7SkDeque9push_backEv
U _ZN7SkDequeC1Ej
U _ZN7SkDequeD1Ev
U _ZN7SkIRect4joinEiiii
U _ZN7SkIRect4sortEv
U _ZN7SkLayer14removeChildrenEv
U _ZN7SkLayer27setInheritFromRootTransformEb
U _ZN7SkLayer4drawEP8SkCanvasf
U _ZN7SkLayer8addChildEPS_
U _ZN7SkLayer9setMatrixERK8SkMatrix
U _ZN7SkLayerC2ERKS_
U _ZN7SkLayerC2Ev
U _ZN7SkLayerD2Ev
U _ZN7SkPaint11setTextSizeEf
U _ZN7SkPaint11setTypefaceEP10SkTypeface
U _ZN7SkPaint11setXfermodeEP10SkXfermode
U _ZN7SkPaint12setAntiAliasEb
U _ZN7SkPaint12setStrokeCapENS_3CapE
U _ZN7SkPaint12setTextAlignENS_5AlignE
U _ZN7SkPaint12setTextSkewXEf
U _ZN7SkPaint13setMaskFilterEP12SkMaskFilter
U _ZN7SkPaint13setPathEffectEP12SkPathEffect
U _ZN7SkPaint13setStrokeJoinENS_4JoinE
U _ZN7SkPaint13setTextScaleXEf
U _ZN7SkPaint14setStrokeMiterEf
U _ZN7SkPaint14setStrokeWidthEf
U _ZN7SkPaint15setFakeBoldTextEb
U _ZN7SkPaint15setFilterBitmapEb
U _ZN7SkPaint15setSubpixelTextEb
U _ZN7SkPaint15setTextEncodingENS_12TextEncodingE
U _ZN7SkPaint15setXfermodeModeEN10SkXfermode4ModeE
U _ZN7SkPaint5resetEv
U _ZN7SkPaint7setARGBEjjjj
U _ZN7SkPaint8setAlphaEj
U _ZN7SkPaint8setColorEj
U _ZN7SkPaint8setFlagsEj
U _ZN7SkPaint8setStyleENS_5StyleE
U _ZN7SkPaint9setDitherEb
U _ZN7SkPaint9setLooperEP12SkDrawLooper
U _ZN7SkPaint9setShaderEP8SkShader
U _ZN7SkPaintC1ERKS_
U _ZN7SkPaintC1Ev
U _ZN7SkPaintC2Ev
U _ZN7SkPaintD1Ev
U _ZN7SkPaintD2Ev
U _ZN7SkPaintaSERKS_
U _ZN7android10AudioTrack4stopEv
U _ZN7android10AudioTrack5pauseEv
U _ZN7android10AudioTrack5startEv
U _ZN7android10AudioTrackC1EijiiijPFviPvS1_ES1_ii
U _ZN7android10AudioTrackD1Ev
U _ZN7android12AssetManager12openNonAssetEPKcNS_5Asset10AccessModeE
U _ZN7android12AssetManager16addDefaultAssetsEv
U _ZN7android12AssetManager4openEPKcNS_5Asset10AccessModeE
U _ZN7android12AssetManagerC1ENS0_9CacheModeE
U _ZN7android13bytesPerPixelEi
U _ZN7android21SurfaceComposerClient14getDisplayInfoEiPNS_11DisplayInfoE
U _ZN7android25assetManagerForJavaObjectEP7_JNIEnvP8_jobject
U _ZN7android6Region3setERKNS_4RectE
U _ZN7android6RegionC1Ev
U _ZN7android6RegionD1Ev
U _ZN7android7Surface13unlockAndPostEv
U _ZN7android7Surface4lockEPNS0_11SurfaceInfoEPNS_6RegionEb
U _ZN7android7Surface7isValidEv
U _ZN7android9EmojiFont11IsAvailableEv
U _ZN7android9EmojiFont14UnicharToGlyphEi
U _ZN7android9EmojiFont15GetAdvanceWidthEtRK7SkPaint
U _ZN7android9EmojiFont24GetShiftJisConverterNameEv
U _ZN7android9EmojiFont4DrawEP8SkCanvastffRK7SkPaint
T _ZN7android9benchmarkEPKciii
U _ZN8SkBitmap11allocPixelsEPNS_9AllocatorEP12SkColorTable
U _ZN8SkBitmap11setIsOpaqueEb
U _ZN8SkBitmap11setPixelRefEP10SkPixelRefj
U _ZN8SkBitmap5resetEv
U _ZN8SkBitmap9setConfigENS_6ConfigEiii
U _ZN8SkBitmap9setPixelsEPvP12SkColorTable
U _ZN8SkBitmapC1ERKS_
U _ZN8SkBitmapC1Ev
U _ZN8SkBitmapC2Ev
U _ZN8SkBitmapD1Ev
U _ZN8SkBitmapD2Ev
U _ZN8SkBitmapaSERKS_
U _ZN8SkCanvas10clipRegionERK8SkRegionNS0_2OpE
U _ZN8SkCanvas10drawBitmapERK8SkBitmapffPK7SkPaint
U _ZN8SkCanvas10drawPointsENS_9PointModeEjPK7SkPointRK7SkPaint
U _ZN8SkCanvas10drawSpriteERK8SkBitmapiiPK7SkPaint
U _ZN8SkCanvas10setBounderEP9SkBounder
U _ZN8SkCanvas11drawPictureER9SkPicture
U _ZN8SkCanvas11drawPosTextEPKvjPK7SkPointRK7SkPaint
U _ZN8SkCanvas11resetMatrixEv
U _ZN8SkCanvas11setViewportEii
U _ZN8SkCanvas12createDeviceEN8SkBitmap6ConfigEiibb
U _ZN8SkCanvas12drawPosTextHEPKvjPKffRK7SkPaint
U _ZN8SkCanvas12drawVerticesENS_10VertexModeEiPK7SkPointS3_PKjP10SkXfermodePKtiRK7SkPaint
U _ZN8SkCanvas13setDrawFilterEP12SkDrawFilter
U _ZN8SkCanvas14drawBitmapRectERK8SkBitmapPK7SkIRectRK6SkRectPK7SkPaint
U _ZN8SkCanvas14drawTextOnPathEPKvjRK6SkPathPK8SkMatrixRK7SkPaint
U _ZN8SkCanvas14restoreToCountEi
U _ZN8SkCanvas14saveLayerAlphaEPK6SkRectjNS_9SaveFlagsE
U _ZN8SkCanvas15setBitmapDeviceERK8SkBitmap
U _ZN8SkCanvas16commonDrawBitmapERK8SkBitmapRK8SkMatrixRK7SkPaint
U _ZN8SkCanvas16drawBitmapMatrixERK8SkBitmapRK8SkMatrixPK7SkPaint
U _ZN8SkCanvas4saveENS_9SaveFlagsE
U _ZN8SkCanvas4skewEff
U _ZN8SkCanvas5scaleEff
U _ZN8SkCanvas6concatERK8SkMatrix
U _ZN8SkCanvas6rotateEf
U _ZN8SkCanvas7restoreEv
U _ZN8SkCanvas8clipPathERK6SkPathN8SkRegion2OpE
U _ZN8SkCanvas8clipRectERK6SkRectN8SkRegion2OpE
U _ZN8SkCanvas8drawDataEPKvj
U _ZN8SkCanvas8drawLineEffffRK7SkPaint
U _ZN8SkCanvas8drawOvalERK6SkRectRK7SkPaint
U _ZN8SkCanvas8drawPathERK6SkPathRK7SkPaint
U _ZN8SkCanvas8drawRectERK6SkRectRK7SkPaint
U _ZN8SkCanvas8drawTextEPKvjffRK7SkPaint
U _ZN8SkCanvas9drawColorEjN10SkXfermode4ModeE
U _ZN8SkCanvas9drawPaintERK7SkPaint
U _ZN8SkCanvas9drawShapeEP7SkShape
U _ZN8SkCanvas9saveLayerEPK6SkRectPK7SkPaintNS_9SaveFlagsE
U _ZN8SkCanvas9setMatrixERK8SkMatrix
U _ZN8SkCanvas9translateEff
U _ZN8SkCanvasC1EP8SkDevice
U _ZN8SkCanvasC1ERK8SkBitmap
U _ZN8SkCanvasC2EP8SkDevice
U _ZN8SkCanvasD1Ev
U _ZN8SkCanvasD2Ev
U _ZN8SkDevice12accessBitmapEb
U _ZN8SkMatrix10postConcatERKS_
U _ZN8SkMatrix10postRotateEf
U _ZN8SkMatrix11gMapXYProcsE
U _ZN8SkMatrix12preTranslateEff
U _ZN8SkMatrix12setTranslateEff
U _ZN8SkMatrix13postTranslateEff
U _ZN8SkMatrix5resetEv
U _ZN8SkMatrix7preSkewEff
U _ZN8SkMatrix8postSkewEff
U _ZN8SkMatrix8preScaleEff
U _ZN8SkMatrix8setScaleEff
U _ZN8SkMatrix9postScaleEff
U _ZN8SkMatrix9preConcatERKS_
U _ZN8SkMatrix9preRotateEf
U _ZN8SkRegion10Cliperator4nextEv
U _ZN8SkRegion10CliperatorC1ERKS_RK7SkIRect
U _ZN8SkRegion2opERKS_RK7SkIRectNS_2OpE
U _ZN8SkRegion2opERKS_S1_NS_2OpE
U _ZN8SkRegion7setPathERK6SkPathRKS_
U _ZN8SkRegion7setRectERK7SkIRect
U _ZN8SkRegion7setRectEiiii
U _ZN8SkRegion8Iterator4nextEv
U _ZN8SkRegion8IteratorC1ERKS_
U _ZN8SkRegion8setEmptyEv
U _ZN8SkRegionC1ERK7SkIRect
U _ZN8SkRegionC1ERKS_
U _ZN8SkRegionC1Ev
U _ZN8SkRegionD1Ev
U _ZN8SkRegionaSERKS_
U _ZN8SkShader14setLocalMatrixERK8SkMatrix
U _ZN8SkShader18CreateBitmapShaderERK8SkBitmapNS_8TileModeES3_
U _ZN8SkShaderC2Ev
U _ZN8SkStream11getFileNameEv
U _ZN8SkString5resetEv
U _ZN8SkString6insertEjPKc
U _ZN8SkString8setUTF16EPKtj
U _ZN8SkStringC1EPKc
U _ZN8SkStringC1Ev
U _ZN8SkStringD1Ev
U _ZN8SkStringaSERKS_
U _ZN9SkBounder6commitEv
U _ZN9SkBounder7doIRectERK7SkIRect
U _ZN9SkPicture12endRecordingEv
U _ZN9SkPicture13abortPlaybackEv
U _ZN9SkPicture14beginRecordingEiij
U _ZN9SkPictureC1Ev
U _ZN9SkPictureD1Ev
U _ZNK6SkPath13computeBoundsEv
U _ZNK6SkPath6offsetEffPS_
U _ZNK6SkPath7isEmptyEv
U _ZNK6SkPath9getPointsEP7SkPointi
U _ZNK6SkPath9transformERK8SkMatrixPS_
U _ZNK7SkDeque4backEv
U _ZNK7SkDeque5frontEv
U _ZNK7SkLayer13countChildrenEv
U _ZNK7SkLayer13localToGlobalEP8SkMatrix
U _ZNK7SkLayer8getChildEi
U _ZNK7SkPaint11getFillPathERK6SkPathPS0_
U _ZNK7SkPaint11measureTextEPKvjP6SkRectf
U _ZNK7SkPaint12containsTextEPKvj
U _ZNK7SkPaint12textToGlyphsEPKvjPt
U _ZNK7SkPaint13getTextWidthsEPKvjPfP6SkRect
U _ZNK7SkPaint14getFontMetricsEPNS_11FontMetricsEf
U _ZNK7SkPaint16glyphsToUnicharsEPKtiPi
U _ZNK7android10AudioTrack7stoppedEv
U _ZNK7android10AudioTrack9initCheckEv
U _ZNK7android7RefBase9decStrongEPKv
U _ZNK7android7RefBase9incStrongEPKv
U _ZNK8SkBitmap10lockPixelsEv
U _ZNK8SkBitmap12unlockPixelsEv
U _ZNK8SkBitmap13extractSubsetEPS_RK7SkIRect
U _ZNK8SkBitmap6copyToEPS_NS_6ConfigEPNS_9AllocatorE
U _ZNK8SkBitmap8isOpaqueEv
U _ZNK8SkBitmap9eraseARGBEjjjj
U _ZNK8SkCanvas11getViewportEP8SkIPoint
U _ZNK8SkCanvas11quickRejectERK6SkPathNS_8EdgeTypeE
U _ZNK8SkCanvas11quickRejectERK6SkRectNS_8EdgeTypeE
U _ZNK8SkCanvas12getSaveCountEv
U _ZNK8SkCanvas12getTotalClipEv
U _ZNK8SkCanvas13getClipBoundsEP6SkRectNS_8EdgeTypeE
U _ZNK8SkCanvas14getTotalMatrixEv
U _ZNK8SkCanvas9getDeviceEv
U _ZNK8SkMatrix15computeTypeMaskEv
U _ZNK8SkMatrix6invertEPS_
U _ZNK8SkMatrix7mapRectEP6SkRectRKS0_
U _ZNK8SkMatrix9mapPointsEP7SkPointPKS0_i
U _ZNK8SkRegion10intersectsERK7SkIRect
U _ZNK8SkRegion10intersectsERKS_
U _ZNK8SkRegion15getBoundaryPathEP6SkPath
U _ZNK8SkRegion8containsERK7SkIRect
U _ZNK8SkRegion8containsERKS_
U _ZNK8SkRegion9translateEiiPS_
U _ZTV13SkColorShader
U _ZTV18SkPixelXorXfermode
U _ZdaPv
U _ZdlPv
U _ZeqRK6SkPathS1_
U _ZeqRK8SkRegionS1_
U _Znaj
U _Znwj
T __FINI_ARRAY__
T __INIT_ARRAY__
U __aeabi_atexit
U __aeabi_d2f
U __aeabi_d2iz
U __aeabi_d2lz
U __aeabi_d2uiz
U __aeabi_d2ulz
U __aeabi_dadd
U __aeabi_dcmpeq
U __aeabi_dcmpge
U __aeabi_dcmpgt
U __aeabi_dcmple
U __aeabi_dcmplt
U __aeabi_dcmpun
U __aeabi_ddiv
U __aeabi_dmul
U __aeabi_dsub
U __aeabi_f2d
U __aeabi_f2iz
U __aeabi_f2uiz
U __aeabi_fadd
U __aeabi_fcmpeq
U __aeabi_fcmpge
U __aeabi_fcmpgt
U __aeabi_fcmple
U __aeabi_fcmplt
U __aeabi_fcmpun
U __aeabi_fdiv
U __aeabi_fmul
U __aeabi_fsub
U __aeabi_i2d
U __aeabi_i2f
U __aeabi_idiv
U __aeabi_idivmod
U __aeabi_l2d
U __aeabi_ldivmod
U __aeabi_lmul
U __aeabi_ui2d
U __aeabi_ui2f
U __aeabi_uidiv
U __aeabi_uidivmod
U __aeabi_ul2d
U __aeabi_uldivmod
U __aeabi_unwind_cpp_pr0
U __aeabi_unwind_cpp_pr1
U __android_log_print
U __android_log_vprint
A __bss_end__
A __bss_start
A __bss_start__
U __cxa_finalize
U __cxa_guard_acquire
U __cxa_guard_release
U __cxa_pure_virtual
D __data_start
B __dso_handle
A __end__
U __errno
A __exidx_end
A __exidx_start
U __isfinite
U __isfinitef
U __isinf
U __isinff
U __page_size
U __sF
U __signbit
U __stack_chk_fail
U __stack_chk_guard
A _bss_end__
A _edata
A _end
A _stack
U _toupper_tab_
U access
U acos
U android_atomic_dec
U android_atomic_inc
U asin
U atan
U atan2
U atan2f
U calloc
U ceil
U ceilf
U chmod
U clock_gettime
U close
U closedir
U cos
U cosf
U dirname
U dlclose
U dlerror
U dlopen
U dlsym
U exp
U fclose
U fflush
U fgets
U floor
U floorf
U fmod
U fmodf
U fnmatch
U fopen
U fprintf
U fputc
U fputs
U fread
U free
U fwrite
U getcwd
U getenv
U getpid
U gettimeofday
U jniRegisterNativeMethods
U localtime_r
U log
U log10
U lrand48
U lround
U lroundf
U malloc
U memcmp
U memcpy
U memmove
U memset
U mkdir
U mktime
U mmap
U munmap
U nextafter
U nextafterf
U open
U opendir
U pow
U printf
U pthread_attr_destroy
U pthread_attr_getstack
U pthread_attr_init
U pthread_cond_broadcast
U pthread_cond_destroy
U pthread_cond_init
U pthread_cond_signal
U pthread_cond_timedwait
U pthread_cond_wait
U pthread_create
U pthread_detach
U pthread_equal
U pthread_getattr_np
U pthread_getspecific
U pthread_join
U pthread_key_create
U pthread_mutex_destroy
U pthread_mutex_init
U pthread_mutex_lock
U pthread_mutex_trylock
U pthread_mutex_unlock
U pthread_once
U pthread_self
U pthread_setspecific
U putchar
U puts
U qsort
U read
U readdir
U realloc
U rmdir
U round
U roundf
U setjmp
U sin
U sinf
U snprintf
U sprintf
U sqlite3_bind_blob
U sqlite3_bind_double
U sqlite3_bind_int64
U sqlite3_bind_null
U sqlite3_bind_parameter_count
U sqlite3_bind_text16
U sqlite3_busy_handler
U sqlite3_busy_timeout
U sqlite3_changes
U sqlite3_close
U sqlite3_column_blob
U sqlite3_column_bytes
U sqlite3_column_double
U sqlite3_column_int
U sqlite3_column_int64
U sqlite3_column_name16
U sqlite3_column_text16
U sqlite3_column_value
U sqlite3_data_count
U sqlite3_errcode
U sqlite3_errmsg
U sqlite3_expired
U sqlite3_finalize
U sqlite3_get_autocommit
U sqlite3_last_insert_rowid
U sqlite3_open16
U sqlite3_prepare16_v2
U sqlite3_reset
U sqlite3_set_authorizer
U sqlite3_step
U sqlite3_value_double
U sqlite3_value_text16
U sqlite3_value_type
U sqrt
U sqrtf
U srand48
U sscanf
U stat
U strcasecmp
U strcat
U strchr
U strcmp
U strcpy
U strdup
U strftime
U strlen
U strncasecmp
U strncmp
U strncpy
U strstr
U strtol
U tan
U time
U trunc
U u_charDirection_44
U u_charMirror_44
U u_charType_44
U u_foldCase_44
U u_getCombiningClass_44
U u_getIntPropertyValue_44
U u_isalnum_44
U u_isprint_44
U u_ispunct_44
U u_memcasecmp_44
U u_strFoldCase_44
U u_strToLower_44
U u_strToUpper_44
U u_tolower_44
U u_totitle_44
U u_toupper_44
U ubrk_current_44
U ubrk_first_44
U ubrk_following_44
U ubrk_isBoundary_44
U ubrk_last_44
U ubrk_next_44
U ubrk_openRules_44
U ubrk_open_44
U ubrk_preceding_44
U ubrk_previous_44
U ubrk_setText_44
U ucnv_cbFromUWriteBytes_44
U ucnv_cbFromUWriteUChars_44
U ucnv_close_44
U ucnv_convertEx_44
U ucnv_countAliases_44
U ucnv_countAvailable_44
U ucnv_fromUnicode_44
U ucnv_getAlias_44
U ucnv_getAvailableName_44
U ucnv_getName_44
U ucnv_getStandardName_44
U ucnv_open_44
T ucnv_open_emoji
U ucnv_setFallback_44
U ucnv_setFromUCallBack_44
U ucnv_setSubstChars_44
U ucnv_setToUCallBack_44
U ucnv_toUnicode_44
U ucol_close_44
U ucol_getAttribute_44
U ucol_getLocaleByType_44
U ucol_getStrength_44
U ucol_open_44
U ucol_setAttribute_44
U ucol_setStrength_44
U ucol_strcoll_44
U ucsdet_close_44
U ucsdet_detectAll_44
U ucsdet_enableInputFilter_44
U ucsdet_getConfidence_44
U ucsdet_getName_44
U ucsdet_open_44
U ucsdet_setText_44
U uidna_IDNToASCII_44
U uname
U unlink
U unorm_normalize_44
U unorm_quickCheck_44
U usearch_first_44
U usearch_getCollator_44
U usearch_getMatchedLength_44
U usearch_next_44
U usearch_open_44
U usearch_reset_44
U usearch_setPattern_44
U usearch_setText_44
U vasprintf
U vfprintf
U vsnprintf
U write
